ccopy_reg
_reconstructor
p1
(cmojom.parse.ast
Mojom
p2
c__builtin__
object
p3
NtRp4
(dp5
S'import_list'
p6
g1
(cmojom.parse.ast
ImportList
p7
g3
NtRp8
(dp9
S'items'
p10
(lp11
g1
(cmojom.parse.ast
Import
p12
g3
NtRp13
(dp14
S'attribute_list'
p15
NsS'lineno'
p16
I7
sS'import_filename'
p17
S'mojo/public/mojom/base/process_id.mojom'
p18
sS'filename'
p19
S'../../services/resource_coordinator/public/mojom/coordination_unit.mojom'
p20
sbag1
(g12
g3
NtRp21
(dp22
g15
Nsg16
I8
sg17
S'mojo/public/mojom/base/time.mojom'
p23
sg19
g20
sbag1
(g12
g3
NtRp24
(dp25
g15
Nsg16
I9
sg17
S'services/resource_coordinator/public/mojom/lifecycle.mojom'
p26
sg19
g20
sbasg16
I7
sg19
g20
sbsS'definition_list'
p27
(lp28
g1
(cmojom.parse.ast
Enum
p29
g3
NtRp30
(dp31
g15
NsS'enum_value_list'
p32
g1
(cmojom.parse.ast
EnumValueList
p33
g3
NtRp34
(dp35
g10
(lp36
g1
(cmojom.parse.ast
EnumValue
p37
g3
NtRp38
(dp39
g15
NsS'value'
p40
Nsg16
I15
sS'mojom_name'
p41
S'kFrame'
p42
sg19
g20
sbag1
(g37
g3
NtRp43
(dp44
g15
Nsg40
Nsg16
I16
sg41
S'kPage'
p45
sg19
g20
sbag1
(g37
g3
NtRp46
(dp47
g15
Nsg40
Nsg16
I17
sg41
S'kProcess'
p48
sg19
g20
sbag1
(g37
g3
NtRp49
(dp50
g15
Nsg40
Nsg16
I18
sg41
S'kSystem'
p51
sg19
g20
sbasg16
I15
sg19
g20
sbsg16
I14
sg41
S'CoordinationUnitType'
p52
sg19
g20
sbag1
(g29
g3
NtRp53
(dp54
g15
Nsg32
g1
(g33
g3
NtRp55
(dp56
g10
(lp57
g1
(g37
g3
NtRp58
(dp59
g15
Nsg40
Nsg16
I27
sg41
S'kUnknown'
p60
sg19
g20
sbag1
(g37
g3
NtRp61
(dp62
g15
Nsg40
Nsg16
I29
sg41
S'kOptIn'
p63
sg19
g20
sbag1
(g37
g3
NtRp64
(dp65
g15
Nsg40
Nsg16
I31
sg41
S'kOptOut'
p66
sg19
g20
sbag1
(g37
g3
NtRp67
(dp68
g15
Nsg40
Nsg16
I34
sg41
S'kDefault'
p69
sg19
g20
sbasg16
I27
sg19
g20
sbsg16
I24
sg41
S'InterventionPolicy'
p70
sg19
g20
sbag1
(g29
g3
NtRp71
(dp72
g15
Nsg32
g1
(g33
g3
NtRp73
(dp74
g10
(lp75
g1
(g37
g3
NtRp76
(dp77
g15
Nsg40
Nsg16
I45
sg41
S'kPageLifecycleTransitions'
p78
sg19
g20
sbasg16
I45
sg19
g20
sbsg16
I42
sg41
S'PolicyControlledIntervention'
p79
sg19
g20
sbag1
(cmojom.parse.ast
Interface
p80
g3
NtRp81
(dp82
S'body'
p83
g1
(cmojom.parse.ast
InterfaceBody
p84
g3
NtRp85
(dp86
g10
(lp87
g1
(cmojom.parse.ast
Method
p88
g3
NtRp89
(dp90
S'ordinal'
p91
Nsg41
S'SetNetworkAlmostIdle'
p92
sS'parameter_list'
p93
g1
(cmojom.parse.ast
ParameterList
p94
g3
NtRp95
(dp96
g10
(lp97
sg16
Nsg19
Nsbsg15
Nsg19
Nsg16
NsS'response_parameter_list'
p98
Nsbag1
(g88
g3
NtRp99
(dp100
g91
Nsg41
S'SetLifecycleState'
p101
sg93
g1
(g94
g3
NtRp102
(dp103
g10
(lp104
g1
(cmojom.parse.ast
Parameter
p105
g3
NtRp106
(dp107
g91
Nsg41
S'state'
p108
sg15
Nsg19
g20
sS'typename'
p109
S'LifecycleState'
p110
sg16
I53
sbasg16
I53
sg19
g20
sbsg15
Nsg19
Nsg16
Nsg98
Nsbag1
(g88
g3
NtRp111
(dp112
g91
Nsg41
S'SetHasNonEmptyBeforeUnload'
p113
sg93
g1
(g94
g3
NtRp114
(dp115
g10
(lp116
g1
(g105
g3
NtRp117
(dp118
g91
Nsg41
S'has_nonempty_beforeunload'
p119
sg15
Nsg19
g20
sg109
S'bool'
p120
sg16
I54
sbasg16
I54
sg19
g20
sbsg15
Nsg19
Nsg16
Nsg98
Nsbag1
(g88
g3
NtRp121
(dp122
g91
Nsg41
S'SetInterventionPolicy'
p123
sg93
g1
(g94
g3
NtRp124
(dp125
g10
(lp126
g1
(g105
g3
NtRp127
(dp128
g91
Nsg41
S'intervention'
p129
sg15
Nsg19
g20
sg109
S'PolicyControlledIntervention'
p130
sg16
I55
sbag1
(g105
g3
NtRp131
(dp132
g91
Nsg41
S'policy'
p133
sg15
Nsg19
g20
sg109
S'InterventionPolicy'
p134
sg16
I56
sbasg16
I55
sg19
g20
sbsg15
Nsg19
Nsg16
Nsg98
Nsbag1
(g88
g3
NtRp135
(dp136
g91
Nsg41
S'SetIsAdFrame'
p137
sg93
g1
(g94
g3
NtRp138
(dp139
g10
(lp140
sg16
Nsg19
Nsbsg15
Nsg19
Nsg16
Nsg98
Nsbag1
(g88
g3
NtRp141
(dp142
g91
Nsg41
S'OnNonPersistentNotificationCreated'
p143
sg93
g1
(g94
g3
NtRp144
(dp145
g10
(lp146
sg16
Nsg19
Nsbsg15
Nsg19
Nsg16
Nsg98
Nsbasg16
Nsg19
Nsbsg15
Nsg16
Nsg41
S'DocumentCoordinationUnit'
p147
sg19
Nsbag1
(g80
g3
NtRp148
(dp149
g83
g1
(g84
g3
NtRp150
(dp151
g10
(lp152
g1
(g88
g3
NtRp153
(dp154
g91
Nsg41
S'SetExpectedTaskQueueingDuration'
p155
sg93
g1
(g94
g3
NtRp156
(dp157
g10
(lp158
g1
(g105
g3
NtRp159
(dp160
g91
Nsg41
S'duration'
p161
sg15
Nsg19
g20
sg109
S'mojo_base.mojom.TimeDelta'
p162
sg16
I65
sbasg16
I65
sg19
g20
sbsg15
Nsg19
Nsg16
Nsg98
Nsbag1
(g88
g3
NtRp163
(dp164
g91
Nsg41
S'SetMainThreadTaskLoadIsLow'
p165
sg93
g1
(g94
g3
NtRp166
(dp167
g10
(lp168
g1
(g105
g3
NtRp169
(dp170
g91
Nsg41
S'main_thread_task_load_is_low'
p171
sg15
Nsg19
g20
sg109
S'bool'
p172
sg16
I66
sbasg16
I66
sg19
g20
sbsg15
Nsg19
Nsg16
Nsg98
Nsbasg16
Nsg19
Nsbsg15
Nsg16
Nsg41
S'ProcessCoordinationUnit'
p173
sg19
Nsbasg16
NsS'module'
p174
g1
(cmojom.parse.ast
Module
p175
g3
NtRp176
(dp177
S'mojom_namespace'
p178
(S'IDENTIFIER'
p179
S'resource_coordinator.mojom'
tp180
sg16
I5
sg15
Nsg19
g20
sbsg19
Nsb.