ccopy_reg
_reconstructor
p1
(cmojom.parse.ast
Mojom
p2
c__builtin__
object
p3
NtRp4
(dp5
S'import_list'
p6
g1
(cmojom.parse.ast
ImportList
p7
g3
NtRp8
(dp9
S'items'
p10
(lp11
sS'lineno'
p12
NsS'filename'
p13
NsbsS'definition_list'
p14
(lp15
g1
(cmojom.parse.ast
Enum
p16
g3
NtRp17
(dp18
S'attribute_list'
p19
NsS'enum_value_list'
p20
g1
(cmojom.parse.ast
EnumValueList
p21
g3
NtRp22
(dp23
g10
(lp24
g1
(cmojom.parse.ast
EnumValue
p25
g3
NtRp26
(dp27
g19
NsS'value'
p28
Nsg12
I8
sS'mojom_name'
p29
S'OK'
p30
sg13
S'../../components/download/public/common/download_stream.mojom'
p31
sbag1
(g25
g3
NtRp32
(dp33
g19
Nsg28
Nsg12
I9
sg29
S'NETWORK_TIMEOUT'
p34
sg13
g31
sbag1
(g25
g3
NtRp35
(dp36
g19
Nsg28
Nsg12
I10
sg29
S'NETWORK_DISCONNECTED'
p37
sg13
g31
sbag1
(g25
g3
NtRp38
(dp39
g19
Nsg28
Nsg12
I11
sg29
S'NETWORK_SERVER_DOWN'
p40
sg13
g31
sbag1
(g25
g3
NtRp41
(dp42
g19
Nsg28
Nsg12
I12
sg29
S'SERVER_NO_RANGE'
p43
sg13
g31
sbag1
(g25
g3
NtRp44
(dp45
g19
Nsg28
Nsg12
I13
sg29
S'SERVER_CONTENT_LENGTH_MISMATCH'
p46
sg13
g31
sbag1
(g25
g3
NtRp47
(dp48
g19
Nsg28
Nsg12
I14
sg29
S'SERVER_UNREACHABLE'
p49
sg13
g31
sbag1
(g25
g3
NtRp50
(dp51
g19
Nsg28
Nsg12
I15
sg29
S'SERVER_CERT_PROBLEM'
p52
sg13
g31
sbag1
(g25
g3
NtRp53
(dp54
g19
Nsg28
Nsg12
I16
sg29
S'USER_CANCELED'
p55
sg13
g31
sbag1
(g25
g3
NtRp56
(dp57
g19
Nsg28
Nsg12
I17
sg29
S'NETWORK_FAILED'
p58
sg13
g31
sbasg12
I8
sg13
g31
sbsg12
I7
sg29
S'NetworkRequestStatus'
p59
sg13
g31
sbag1
(cmojom.parse.ast
Interface
p60
g3
NtRp61
(dp62
S'body'
p63
g1
(cmojom.parse.ast
InterfaceBody
p64
g3
NtRp65
(dp66
g10
(lp67
g1
(cmojom.parse.ast
Method
p68
g3
NtRp69
(dp70
S'ordinal'
p71
Nsg29
S'OnStreamCompleted'
p72
sS'parameter_list'
p73
g1
(cmojom.parse.ast
ParameterList
p74
g3
NtRp75
(dp76
g10
(lp77
g1
(cmojom.parse.ast
Parameter
p78
g3
NtRp79
(dp80
g71
Nsg29
S'status'
p81
sg19
Nsg13
g31
sS'typename'
p82
S'NetworkRequestStatus'
p83
sg12
I22
sbasg12
I22
sg13
g31
sbsg19
Nsg13
Nsg12
NsS'response_parameter_list'
p84
Nsbasg12
Nsg13
Nsbsg19
Nsg12
Nsg29
S'DownloadStreamClient'
p85
sg13
Nsbag1
(cmojom.parse.ast
Struct
p86
g3
NtRp87
(dp88
g63
g1
(cmojom.parse.ast
StructBody
p89
g3
NtRp90
(dp91
g10
(lp92
g1
(cmojom.parse.ast
StructField
p93
g3
NtRp94
(dp95
g71
NsS'default_value'
p96
Nsg29
S'stream'
p97
sg19
Nsg13
Nsg82
S'handle<data_pipe_consumer>'
p98
sg12
Nsbag1
(g93
g3
NtRp99
(dp100
g71
Nsg96
Nsg29
S'client_request'
p101
sg19
Nsg13
Nsg82
S'DownloadStreamClient&'
p102
sg12
Nsbasg12
Nsg13
Nsbsg19
Nsg12
Nsg29
S'DownloadStreamHandle'
p103
sg13
Nsbasg12
NsS'module'
p104
g1
(cmojom.parse.ast
Module
p105
g3
NtRp106
(dp107
S'mojom_namespace'
p108
(S'IDENTIFIER'
p109
S'download.mojom'
tp110
sg12
I5
sg19
Nsg13
g31
sbsg13
Nsb.