ccopy_reg
_reconstructor
p1
(cmojom.parse.ast
Mojom
p2
c__builtin__
object
p3
NtRp4
(dp5
S'import_list'
p6
g1
(cmojom.parse.ast
ImportList
p7
g3
NtRp8
(dp9
S'items'
p10
(lp11
g1
(cmojom.parse.ast
Import
p12
g3
NtRp13
(dp14
S'attribute_list'
p15
NsS'lineno'
p16
I7
sS'import_filename'
p17
S'mojo/public/mojom/base/big_string.mojom'
p18
sS'filename'
p19
S'../../services/resource_coordinator/public/mojom/memory_instrumentation/memory_instrumentation.mojom'
p20
sbag1
(g12
g3
NtRp21
(dp22
g15
Nsg16
I8
sg17
S'mojo/public/mojom/base/process_id.mojom'
p23
sg19
g20
sbag1
(g12
g3
NtRp24
(dp25
g15
Nsg16
I9
sg17
S'mojo/public/mojom/base/time.mojom'
p26
sg19
g20
sbasg16
I7
sg19
g20
sbsS'definition_list'
p27
(lp28
g1
(cmojom.parse.ast
Enum
p29
g3
NtRp30
(dp31
g15
NsS'enum_value_list'
p32
g1
(cmojom.parse.ast
EnumValueList
p33
g3
NtRp34
(dp35
g10
(lp36
g1
(cmojom.parse.ast
EnumValue
p37
g3
NtRp38
(dp39
g15
NsS'value'
p40
Nsg16
I14
sS'mojom_name'
p41
S'PERIODIC_INTERVAL'
p42
sg19
g20
sbag1
(g37
g3
NtRp43
(dp44
g15
Nsg40
Nsg16
I15
sg41
S'EXPLICITLY_TRIGGERED'
p45
sg19
g20
sbag1
(g37
g3
NtRp46
(dp47
g15
Nsg40
Nsg16
I16
sg41
S'SUMMARY_ONLY'
p48
sg19
g20
sbasg16
I14
sg19
g20
sbsg16
I13
sg41
S'DumpType'
p49
sg19
g20
sbag1
(g29
g3
NtRp50
(dp51
g15
Nsg32
g1
(g33
g3
NtRp52
(dp53
g10
(lp54
g1
(g37
g3
NtRp55
(dp56
g15
Nsg40
Nsg16
I20
sg41
S'BACKGROUND'
p57
sg19
g20
sbag1
(g37
g3
NtRp58
(dp59
g15
Nsg40
Nsg16
I21
sg41
S'LIGHT'
p60
sg19
g20
sbag1
(g37
g3
NtRp61
(dp62
g15
Nsg40
Nsg16
I22
sg41
S'DETAILED'
p63
sg19
g20
sbasg16
I20
sg19
g20
sbsg16
I19
sg41
S'LevelOfDetail'
p64
sg19
g20
sbag1
(g29
g3
NtRp65
(dp66
g15
Nsg32
g1
(g33
g3
NtRp67
(dp68
g10
(lp69
g1
(g37
g3
NtRp70
(dp71
g15
Nsg40
Nsg16
I26
sg41
S'OTHER'
p72
sg19
g20
sbag1
(g37
g3
NtRp73
(dp74
g15
Nsg40
Nsg16
I27
sg41
S'BROWSER'
p75
sg19
g20
sbag1
(g37
g3
NtRp76
(dp77
g15
Nsg40
Nsg16
I28
sg41
S'RENDERER'
p78
sg19
g20
sbag1
(g37
g3
NtRp79
(dp80
g15
Nsg40
Nsg16
I29
sg41
S'GPU'
p81
sg19
g20
sbag1
(g37
g3
NtRp82
(dp83
g15
Nsg40
Nsg16
I30
sg41
S'UTILITY'
p84
sg19
g20
sbag1
(g37
g3
NtRp85
(dp86
g15
Nsg40
Nsg16
I31
sg41
S'PLUGIN'
p87
sg19
g20
sbag1
(g37
g3
NtRp88
(dp89
g15
Nsg40
Nsg16
I32
sg41
S'ARC'
p90
sg19
g20
sbasg16
I26
sg19
g20
sbsg16
I25
sg41
S'ProcessType'
p91
sg19
g20
sbag1
(g29
g3
NtRp92
(dp93
g15
Nsg32
g1
(g33
g3
NtRp94
(dp95
g10
(lp96
g1
(g37
g3
NtRp97
(dp98
g15
Nsg40
Nsg16
I38
sg41
S'NONE'
p99
sg19
g20
sbag1
(g37
g3
NtRp100
(dp101
g15
Nsg40
Nsg16
I42
sg41
S'MODULES'
p102
sg19
g20
sbag1
(g37
g3
NtRp103
(dp104
g15
Nsg40
Nsg16
I45
sg41
S'FULL'
p105
sg19
g20
sbasg16
I38
sg19
g20
sbsg16
I35
sg41
S'MemoryMapOption'
p106
sg19
g20
sbag1
(cmojom.parse.ast
Struct
p107
g3
NtRp108
(dp109
S'body'
p110
g1
(cmojom.parse.ast
StructBody
p111
g3
NtRp112
(dp113
g10
(lp114
g1
(cmojom.parse.ast
StructField
p115
g3
NtRp116
(dp117
S'ordinal'
p118
NsS'default_value'
p119
Nsg41
S'dump_guid'
p120
sg15
Nsg19
NsS'typename'
p121
S'uint64'
p122
sg16
Nsbag1
(g115
g3
NtRp123
(dp124
g118
Nsg119
Nsg41
S'dump_type'
p125
sg15
Nsg19
Nsg121
S'DumpType'
p126
sg16
Nsbag1
(g115
g3
NtRp127
(dp128
g118
Nsg119
Nsg41
S'level_of_detail'
p129
sg15
Nsg19
Nsg121
S'LevelOfDetail'
p130
sg16
Nsbasg16
Nsg19
Nsbsg15
Nsg16
Nsg41
S'RequestArgs'
p131
sg19
Nsbag1
(g107
g3
NtRp132
(dp133
g110
g1
(g111
g3
NtRp134
(dp135
g10
(lp136
g1
(g115
g3
NtRp137
(dp138
g118
Nsg119
Nsg41
S'source_id'
p139
sg15
Nsg19
Nsg121
S'uint64'
p140
sg16
Nsbag1
(g115
g3
NtRp141
(dp142
g118
Nsg119
Nsg41
S'target_id'
p143
sg15
Nsg19
Nsg121
S'uint64'
p144
sg16
Nsbag1
(g115
g3
NtRp145
(dp146
g118
Nsg119
Nsg41
S'importance'
p147
sg15
Nsg19
Nsg121
S'int32'
p148
sg16
Nsbag1
(g115
g3
NtRp149
(dp150
g118
Nsg119
Nsg41
S'overridable'
p151
sg15
Nsg19
Nsg121
S'bool'
p152
sg16
Nsbasg16
Nsg19
Nsbsg15
Nsg16
Nsg41
S'RawAllocatorDumpEdge'
p153
sg19
Nsbag1
(cmojom.parse.ast
Union
p154
g3
NtRp155
(dp156
g110
g1
(cmojom.parse.ast
UnionBody
p157
g3
NtRp158
(dp159
g10
(lp160
g1
(cmojom.parse.ast
UnionField
p161
g3
NtRp162
(dp163
g118
Nsg41
S'value_uint64'
p164
sg15
Nsg19
Nsg121
S'uint64'
p165
sg16
Nsbag1
(g161
g3
NtRp166
(dp167
g118
Nsg41
S'value_string'
p168
sg15
Nsg19
Nsg121
S'string'
p169
sg16
Nsbasg16
Nsg19
Nsbsg15
Nsg16
Nsg41
S'RawAllocatorDumpEntryValue'
p170
sg19
Nsbag1
(g107
g3
NtRp171
(dp172
g110
g1
(g111
g3
NtRp173
(dp174
g10
(lp175
g1
(g115
g3
NtRp176
(dp177
g118
Nsg119
Nsg41
S'name'
p178
sg15
Nsg19
Nsg121
S'string'
p179
sg16
Nsbag1
(g115
g3
NtRp180
(dp181
g118
Nsg119
Nsg41
S'units'
p182
sg15
Nsg19
Nsg121
S'string'
p183
sg16
Nsbag1
(g115
g3
NtRp184
(dp185
g118
Nsg119
Nsg41
S'value'
p186
sg15
Nsg19
Nsg121
S'RawAllocatorDumpEntryValue'
p187
sg16
Nsbasg16
Nsg19
Nsbsg15
Nsg16
Nsg41
S'RawAllocatorDumpEntry'
p188
sg19
Nsbag1
(g107
g3
NtRp189
(dp190
g110
g1
(g111
g3
NtRp191
(dp192
g10
(lp193
g1
(g115
g3
NtRp194
(dp195
g118
Nsg119
Nsg41
S'id'
p196
sg15
Nsg19
Nsg121
S'uint64'
p197
sg16
Nsbag1
(g115
g3
NtRp198
(dp199
g118
Nsg119
Nsg41
S'absolute_name'
p200
sg15
Nsg19
Nsg121
S'string'
p201
sg16
Nsbag1
(g115
g3
NtRp202
(dp203
g118
Nsg119
Nsg41
S'weak'
p204
sg15
Nsg19
Nsg121
S'bool'
p205
sg16
Nsbag1
(g115
g3
NtRp206
(dp207
g118
Nsg119
Nsg41
S'level_of_detail'
p208
sg15
Nsg19
Nsg121
S'LevelOfDetail'
p209
sg16
Nsbag1
(g115
g3
NtRp210
(dp211
g118
Nsg119
Nsg41
S'entries'
p212
sg15
Nsg19
Nsg121
S'RawAllocatorDumpEntry[]'
p213
sg16
Nsbasg16
Nsg19
Nsbsg15
Nsg16
Nsg41
S'RawAllocatorDump'
p214
sg19
Nsbag1
(g107
g3
NtRp215
(dp216
g110
g1
(g111
g3
NtRp217
(dp218
g10
(lp219
g1
(g115
g3
NtRp220
(dp221
g118
Nsg119
Nsg41
S'level_of_detail'
p222
sg15
Nsg19
Nsg121
S'LevelOfDetail'
p223
sg16
Nsbag1
(g115
g3
NtRp224
(dp225
g118
Nsg119
Nsg41
S'allocator_dump_edges'
p226
sg15
Nsg19
Nsg121
S'RawAllocatorDumpEdge[]'
p227
sg16
Nsbag1
(g115
g3
NtRp228
(dp229
g118
Nsg119
Nsg41
S'allocator_dumps'
p230
sg15
Nsg19
Nsg121
S'RawAllocatorDump[]'
p231
sg16
Nsbasg16
Nsg19
Nsbsg15
Nsg16
Nsg41
S'RawProcessMemoryDump'
p232
sg19
Nsbag1
(g107
g3
NtRp233
(dp234
g110
g1
(g111
g3
NtRp235
(dp236
g10
(lp237
g1
(cmojom.parse.ast
Const
p238
g3
NtRp239
(dp240
g41
S'kProtectionFlagsRead'
p241
sg15
Nsg40
S'4'
sg19
Nsg121
S'uint32'
p242
sg16
Nsbag1
(g238
g3
NtRp243
(dp244
g41
S'kProtectionFlagsWrite'
p245
sg15
Nsg40
S'2'
sg19
Nsg121
S'uint32'
p246
sg16
Nsbag1
(g238
g3
NtRp247
(dp248
g41
S'kProtectionFlagsExec'
p249
sg15
Nsg40
S'1'
sg19
Nsg121
S'uint32'
p250
sg16
Nsbag1
(g238
g3
NtRp251
(dp252
g41
S'kProtectionFlagsMayshare'
p253
sg15
Nsg40
S'128'
p254
sg19
Nsg121
S'uint32'
p255
sg16
Nsbag1
(g115
g3
NtRp256
(dp257
g118
Nsg119
Nsg41
S'start_address'
p258
sg15
Nsg19
Nsg121
S'uint64'
p259
sg16
Nsbag1
(g115
g3
NtRp260
(dp261
g118
Nsg119
Nsg41
S'size_in_bytes'
p262
sg15
Nsg19
Nsg121
S'uint64'
p263
sg16
Nsbag1
(g115
g3
NtRp264
(dp265
g118
Nsg119
Nsg41
S'module_timestamp'
p266
sg15
Nsg19
Nsg121
S'uint64'
p267
sg16
Nsbag1
(g115
g3
NtRp268
(dp269
g118
Nsg119
Nsg41
S'module_debugid'
p270
sg15
Nsg19
Nsg121
S'string'
p271
sg16
Nsbag1
(g115
g3
NtRp272
(dp273
g118
Nsg119
Nsg41
S'module_debug_path'
p274
sg15
Nsg19
Nsg121
S'string'
p275
sg16
Nsbag1
(g115
g3
NtRp276
(dp277
g118
Nsg119
Nsg41
S'protection_flags'
p278
sg15
Nsg19
Nsg121
S'uint32'
p279
sg16
Nsbag1
(g115
g3
NtRp280
(dp281
g118
Nsg119
Nsg41
S'mapped_file'
p282
sg15
Nsg19
Nsg121
S'string'
p283
sg16
Nsbag1
(g115
g3
NtRp284
(dp285
g118
Nsg119
Nsg41
S'byte_stats_private_dirty_resident'
p286
sg15
Nsg19
Nsg121
S'uint64'
p287
sg16
Nsbag1
(g115
g3
NtRp288
(dp289
g118
Nsg119
Nsg41
S'byte_stats_private_clean_resident'
p290
sg15
Nsg19
Nsg121
S'uint64'
p291
sg16
Nsbag1
(g115
g3
NtRp292
(dp293
g118
Nsg119
Nsg41
S'byte_stats_shared_dirty_resident'
p294
sg15
Nsg19
Nsg121
S'uint64'
p295
sg16
Nsbag1
(g115
g3
NtRp296
(dp297
g118
Nsg119
Nsg41
S'byte_stats_shared_clean_resident'
p298
sg15
Nsg19
Nsg121
S'uint64'
p299
sg16
Nsbag1
(g115
g3
NtRp300
(dp301
g118
Nsg119
Nsg41
S'byte_stats_swapped'
p302
sg15
Nsg19
Nsg121
S'uint64'
p303
sg16
Nsbag1
(g115
g3
NtRp304
(dp305
g118
Nsg119
Nsg41
S'byte_stats_proportional_resident'
p306
sg15
Nsg19
Nsg121
S'uint64'
p307
sg16
Nsbasg16
Nsg19
Nsbsg15
Nsg16
Nsg41
S'VmRegion'
p308
sg19
Nsbag1
(g107
g3
NtRp309
(dp310
g110
g1
(g111
g3
NtRp311
(dp312
g10
(lp313
g1
(g115
g3
NtRp314
(dp315
g118
Nsg119
S'0'
sg41
S'phys_footprint_bytes'
p316
sg15
Nsg19
Nsg121
S'uint64'
p317
sg16
Nsbag1
(g115
g3
NtRp318
(dp319
g118
Nsg119
S'0'
sg41
S'internal_bytes'
p320
sg15
Nsg19
Nsg121
S'uint64'
p321
sg16
Nsbag1
(g115
g3
NtRp322
(dp323
g118
Nsg119
S'0'
sg41
S'compressed_bytes'
p324
sg15
Nsg19
Nsg121
S'uint64'
p325
sg16
Nsbag1
(g115
g3
NtRp326
(dp327
g118
Nsg119
S'0'
sg41
S'rss_anon_bytes'
p328
sg15
Nsg19
Nsg121
S'uint64'
p329
sg16
Nsbag1
(g115
g3
NtRp330
(dp331
g118
Nsg119
S'0'
sg41
S'vm_swap_bytes'
p332
sg15
Nsg19
Nsg121
S'uint64'
p333
sg16
Nsbag1
(g115
g3
NtRp334
(dp335
g118
Nsg119
S'0'
sg41
S'private_bytes'
p336
sg15
Nsg19
Nsg121
S'uint64'
p337
sg16
Nsbasg16
Nsg19
Nsbsg15
Nsg16
Nsg41
S'PlatformPrivateFootprint'
p338
sg19
Nsbag1
(g107
g3
NtRp339
(dp340
g110
g1
(g111
g3
NtRp341
(dp342
g10
(lp343
g1
(g115
g3
NtRp344
(dp345
g118
Nsg119
S'0'
sg41
S'resident_set_kb'
p346
sg15
Nsg19
Nsg121
S'uint32'
p347
sg16
Nsbag1
(g115
g3
NtRp348
(dp349
g118
Nsg119
S'0'
sg41
S'peak_resident_set_kb'
p350
sg15
Nsg19
Nsg121
S'uint32'
p351
sg16
Nsbag1
(g115
g3
NtRp352
(dp353
g118
Nsg119
S'false'
p354
sg41
S'is_peak_rss_resettable'
p355
sg15
Nsg19
Nsg121
S'bool'
p356
sg16
Nsbag1
(g115
g3
NtRp357
(dp358
g118
Nsg119
Nsg41
S'platform_private_footprint'
p359
sg15
Nsg19
Nsg121
S'PlatformPrivateFootprint'
p360
sg16
Nsbag1
(g115
g3
NtRp361
(dp362
g118
Nsg119
Nsg41
S'memory_maps'
p363
sg15
Nsg19
Nsg121
S'VmRegion[]'
p364
sg16
Nsbag1
(g115
g3
NtRp365
(dp366
g118
Nsg119
Nsg41
S'native_library_pages_bitmap'
p367
sg15
Nsg19
Nsg121
S'uint8[]'
p368
sg16
Nsbasg16
Nsg19
Nsbsg15
Nsg16
Nsg41
S'RawOSMemDump'
p369
sg19
Nsbag1
(g107
g3
NtRp370
(dp371
g110
g1
(g111
g3
NtRp372
(dp373
g10
(lp374
g1
(g115
g3
NtRp375
(dp376
g118
Nsg119
S'0'
sg41
S'resident_set_kb'
p377
sg15
Nsg19
Nsg121
S'uint32'
p378
sg16
Nsbag1
(g115
g3
NtRp379
(dp380
g118
Nsg119
S'0'
sg41
S'peak_resident_set_kb'
p381
sg15
Nsg19
Nsg121
S'uint32'
p382
sg16
Nsbag1
(g115
g3
NtRp383
(dp384
g118
Nsg119
S'false'
p385
sg41
S'is_peak_rss_resettable'
p386
sg15
Nsg19
Nsg121
S'bool'
p387
sg16
Nsbag1
(g115
g3
NtRp388
(dp389
g118
Nsg119
S'0'
sg41
S'private_footprint_kb'
p390
sg15
Nsg19
Nsg121
S'uint32'
p391
sg16
Nsbag1
(g115
g3
NtRp392
(dp393
g118
Nsg119
S'0'
sg41
S'shared_footprint_kb'
p394
sg15
Nsg19
Nsg121
S'uint32'
p395
sg16
Nsbag1
(g115
g3
NtRp396
(dp397
g118
Nsg119
S'0'
sg41
S'private_footprint_swap_kb'
p398
sg15
g1
(cmojom.parse.ast
AttributeList
p399
g3
NtRp400
(dp401
g10
(lp402
g1
(cmojom.parse.ast
Attribute
p403
g3
NtRp404
(dp405
g40
S'private_swap_info'
p406
sg16
I178
sS'key'
p407
S'EnableIf'
p408
sg19
g20
sbasg16
I178
sg19
g20
sbsg19
Nsg121
S'uint32'
p409
sg16
Nsbasg16
Nsg19
Nsbsg15
Nsg16
Nsg41
S'OSMemDump'
p410
sg19
Nsbag1
(g107
g3
NtRp411
(dp412
g110
g1
(g111
g3
NtRp413
(dp414
g10
(lp415
g1
(g115
g3
NtRp416
(dp417
g118
Nsg119
Nsg41
S'numeric_entries'
p418
sg15
Nsg19
Nsg121
S'uint64{string}'
p419
sg16
Nsbasg16
Nsg19
Nsbsg15
Nsg16
Nsg41
S'AllocatorMemDump'
p420
sg19
Nsbag1
(g107
g3
NtRp421
(dp422
g110
g1
(g111
g3
NtRp423
(dp424
g10
(lp425
g1
(g115
g3
NtRp426
(dp427
g118
Nsg119
Nsg41
S'process_type'
p428
sg15
Nsg19
Nsg121
S'ProcessType'
p429
sg16
Nsbag1
(g115
g3
NtRp430
(dp431
g118
Nsg119
Nsg41
S'os_dump'
p432
sg15
Nsg19
Nsg121
S'OSMemDump'
p433
sg16
Nsbag1
(g115
g3
NtRp434
(dp435
g118
Nsg119
Nsg41
S'chrome_allocator_dumps'
p436
sg15
Nsg19
Nsg121
S'AllocatorMemDump{string}'
p437
sg16
Nsbag1
(g115
g3
NtRp438
(dp439
g118
Nsg119
Nsg41
S'pid'
p440
sg15
Nsg19
Nsg121
S'mojo_base.mojom.ProcessId'
p441
sg16
Nsbag1
(g115
g3
NtRp442
(dp443
g118
Nsg119
Nsg41
S'service_names'
p444
sg15
Nsg19
Nsg121
S'string[]'
p445
sg16
Nsbasg16
Nsg19
Nsbsg15
Nsg16
Nsg41
S'ProcessMemoryDump'
p446
sg19
Nsbag1
(g107
g3
NtRp447
(dp448
g110
g1
(g111
g3
NtRp449
(dp450
g10
(lp451
g1
(g115
g3
NtRp452
(dp453
g118
Nsg119
S'0'
sg41
S'native_library_resident_kb'
p454
sg15
Nsg19
Nsg121
S'uint32'
p455
sg16
Nsbasg16
Nsg19
Nsbsg15
Nsg16
Nsg41
S'AggregatedMetrics'
p456
sg19
Nsbag1
(g107
g3
NtRp457
(dp458
g110
g1
(g111
g3
NtRp459
(dp460
g10
(lp461
g1
(g115
g3
NtRp462
(dp463
g118
Nsg119
Nsg41
S'start_time'
p464
sg15
Nsg19
Nsg121
S'mojo_base.mojom.TimeTicks'
p465
sg16
Nsbag1
(g115
g3
NtRp466
(dp467
g118
Nsg119
Nsg41
S'process_dumps'
p468
sg15
Nsg19
Nsg121
S'ProcessMemoryDump[]'
p469
sg16
Nsbag1
(g115
g3
NtRp470
(dp471
g118
Nsg119
Nsg41
S'aggregated_metrics'
p472
sg15
Nsg19
Nsg121
S'AggregatedMetrics'
p473
sg16
Nsbasg16
Nsg19
Nsbsg15
Nsg16
Nsg41
S'GlobalMemoryDump'
p474
sg19
Nsbag1
(cmojom.parse.ast
Interface
p475
g3
NtRp476
(dp477
g110
g1
(cmojom.parse.ast
InterfaceBody
p478
g3
NtRp479
(dp480
g10
(lp481
g1
(cmojom.parse.ast
Method
p482
g3
NtRp483
(dp484
g118
Nsg41
S'RequestChromeMemoryDump'
p485
sS'parameter_list'
p486
g1
(cmojom.parse.ast
ParameterList
p487
g3
NtRp488
(dp489
g10
(lp490
g1
(cmojom.parse.ast
Parameter
p491
g3
NtRp492
(dp493
g118
Nsg41
S'args'
p494
sg15
Nsg19
g20
sg121
S'RequestArgs'
p495
sg16
I236
sbasg16
I236
sg19
g20
sbsg15
Nsg19
Nsg16
NsS'response_parameter_list'
p496
g1
(g487
g3
NtRp497
(dp498
g10
(lp499
g1
(g491
g3
NtRp500
(dp501
g118
Nsg41
S'success'
p502
sg15
Nsg19
g20
sg121
S'bool'
p503
sg16
I237
sbag1
(g491
g3
NtRp504
(dp505
g118
Nsg41
S'dump_id'
p506
sg15
Nsg19
g20
sg121
S'uint64'
p507
sg16
I237
sbag1
(g491
g3
NtRp508
(dp509
g118
Nsg41
S'raw_process_memory_dump'
p510
sg15
Nsg19
g20
sg121
S'RawProcessMemoryDump?'
p511
sg16
I237
sbasg16
I237
sg19
g20
sbsbag1
(g482
g3
NtRp512
(dp513
g118
Nsg41
S'RequestOSMemoryDump'
p514
sg486
g1
(g487
g3
NtRp515
(dp516
g10
(lp517
g1
(g491
g3
NtRp518
(dp519
g118
Nsg41
S'option'
p520
sg15
Nsg19
g20
sg121
S'MemoryMapOption'
p521
sg16
I253
sbag1
(g491
g3
NtRp522
(dp523
g118
Nsg41
S'pids'
p524
sg15
Nsg19
g20
sg121
S'mojo_base.mojom.ProcessId[]'
p525
sg16
I253
sbasg16
I253
sg19
g20
sbsg15
Nsg19
Nsg16
Nsg496
g1
(g487
g3
NtRp526
(dp527
g10
(lp528
g1
(g491
g3
NtRp529
(dp530
g118
Nsg41
S'success'
p531
sg15
Nsg19
g20
sg121
S'bool'
p532
sg16
I254
sbag1
(g491
g3
NtRp533
(dp534
g118
Nsg41
S'dumps'
p535
sg15
Nsg19
g20
sg121
S'RawOSMemDump{mojo_base.mojom.ProcessId}'
p536
sg16
I254
sbasg16
I254
sg19
g20
sbsbasg16
Nsg19
Nsbsg15
Nsg16
Nsg41
S'ClientProcess'
p537
sg19
Nsbag1
(g107
g3
NtRp538
(dp539
g110
g1
(g111
g3
NtRp540
(dp541
g10
(lp542
g1
(g115
g3
NtRp543
(dp544
g118
Nsg119
Nsg41
S'pid'
p545
sg15
Nsg19
Nsg121
S'mojo_base.mojom.ProcessId'
p546
sg16
Nsbag1
(g115
g3
NtRp547
(dp548
g118
Nsg119
Nsg41
S'json'
p549
sg15
Nsg19
Nsg121
S'mojo_base.mojom.BigString'
p550
sg16
Nsbasg16
Nsg19
Nsbsg15
Nsg16
Nsg41
S'HeapProfileResult'
p551
sg19
Nsbag1
(g475
g3
NtRp552
(dp553
g110
g1
(g478
g3
NtRp554
(dp555
g10
(lp556
g1
(g482
g3
NtRp557
(dp558
g118
Nsg41
S'DumpProcessesForTracing'
p559
sg486
g1
(g487
g3
NtRp560
(dp561
g10
(lp562
g1
(g491
g3
NtRp563
(dp564
g118
Nsg41
S'strip_path_from_mapped_files'
p565
sg15
Nsg19
g20
sg121
S'bool'
p566
sg16
I279
sbasg16
I279
sg19
g20
sbsg15
Nsg19
Nsg16
Nsg496
g1
(g487
g3
NtRp567
(dp568
g10
(lp569
g1
(g491
g3
NtRp570
(dp571
g118
Nsg41
S'results'
p572
sg15
Nsg19
g20
sg121
S'HeapProfileResult[]'
p573
sg16
I280
sbasg16
I280
sg19
g20
sbsbasg16
Nsg19
Nsbsg15
Nsg16
Nsg41
S'HeapProfiler'
p574
sg19
Nsbag1
(g475
g3
NtRp575
(dp576
g110
g1
(g478
g3
NtRp577
(dp578
g10
(lp579
g1
(g482
g3
NtRp580
(dp581
g118
Nsg41
S'GetVmRegionsForHeapProfiler'
p582
sg486
g1
(g487
g3
NtRp583
(dp584
g10
(lp585
g1
(g491
g3
NtRp586
(dp587
g118
Nsg41
S'pids'
p588
sg15
Nsg19
g20
sg121
S'mojo_base.mojom.ProcessId[]'
p589
sg16
I288
sbasg16
I288
sg19
g20
sbsg15
Nsg19
Nsg16
Nsg496
g1
(g487
g3
NtRp590
(dp591
g10
(lp592
g1
(g491
g3
NtRp593
(dp594
g118
Nsg41
S'vm_regions'
p595
sg15
Nsg19
g20
sg121
S'VmRegion[]{mojo_base.mojom.ProcessId}'
p596
sg16
I289
sbasg16
I289
sg19
g20
sbsbasg16
Nsg19
Nsbsg15
Nsg16
Nsg41
S'HeapProfilerHelper'
p597
sg19
Nsbag1
(g475
g3
NtRp598
(dp599
g110
g1
(g478
g3
NtRp600
(dp601
g10
(lp602
g1
(g482
g3
NtRp603
(dp604
g118
Nsg41
S'RegisterClientProcess'
p605
sg486
g1
(g487
g3
NtRp606
(dp607
g10
(lp608
g1
(g491
g3
NtRp609
(dp610
g118
Nsg41
S'client_process'
p611
sg15
Nsg19
g20
sg121
S'ClientProcess'
p612
sg16
I297
sbag1
(g491
g3
NtRp613
(dp614
g118
Nsg41
S'process_type'
p615
sg15
Nsg19
g20
sg121
S'ProcessType'
p616
sg16
I297
sbasg16
I297
sg19
g20
sbsg15
Nsg19
Nsg16
Nsg496
Nsbag1
(g482
g3
NtRp617
(dp618
g118
Nsg41
S'RequestGlobalMemoryDump'
p619
sg486
g1
(g487
g3
NtRp620
(dp621
g10
(lp622
g1
(g491
g3
NtRp623
(dp624
g118
Nsg41
S'dump_type'
p625
sg15
Nsg19
g20
sg121
S'DumpType'
p626
sg16
I304
sbag1
(g491
g3
NtRp627
(dp628
g118
Nsg41
S'level_of_detail'
p629
sg15
Nsg19
g20
sg121
S'LevelOfDetail'
p630
sg16
I305
sbag1
(g491
g3
NtRp631
(dp632
g118
Nsg41
S'allocator_dump_names'
p633
sg15
Nsg19
g20
sg121
S'string[]'
p634
sg16
I306
sbasg16
I304
sg19
g20
sbsg15
Nsg19
Nsg16
Nsg496
g1
(g487
g3
NtRp635
(dp636
g10
(lp637
g1
(g491
g3
NtRp638
(dp639
g118
Nsg41
S'success'
p640
sg15
Nsg19
g20
sg121
S'bool'
p641
sg16
I307
sbag1
(g491
g3
NtRp642
(dp643
g118
Nsg41
S'global_memory_dump'
p644
sg15
Nsg19
g20
sg121
S'GlobalMemoryDump?'
p645
sg16
I307
sbasg16
I307
sg19
g20
sbsbag1
(g482
g3
NtRp646
(dp647
g118
Nsg41
S'RequestGlobalMemoryDumpForPid'
p648
sg486
g1
(g487
g3
NtRp649
(dp650
g10
(lp651
g1
(g491
g3
NtRp652
(dp653
g118
Nsg41
S'pid'
p654
sg15
Nsg19
g20
sg121
S'mojo_base.mojom.ProcessId'
p655
sg16
I311
sbag1
(g491
g3
NtRp656
(dp657
g118
Nsg41
S'allocator_dump_names'
p658
sg15
Nsg19
g20
sg121
S'string[]'
p659
sg16
I312
sbasg16
I311
sg19
g20
sbsg15
Nsg19
Nsg16
Nsg496
g1
(g487
g3
NtRp660
(dp661
g10
(lp662
g1
(g491
g3
NtRp663
(dp664
g118
Nsg41
S'success'
p665
sg15
Nsg19
g20
sg121
S'bool'
p666
sg16
I313
sbag1
(g491
g3
NtRp667
(dp668
g118
Nsg41
S'global_memory_dump'
p669
sg15
Nsg19
g20
sg121
S'GlobalMemoryDump?'
p670
sg16
I313
sbasg16
I313
sg19
g20
sbsbag1
(g482
g3
NtRp671
(dp672
g118
Nsg41
S'RequestPrivateMemoryFootprint'
p673
sg486
g1
(g487
g3
NtRp674
(dp675
g10
(lp676
g1
(g491
g3
NtRp677
(dp678
g118
Nsg41
S'pid'
p679
sg15
Nsg19
g20
sg121
S'mojo_base.mojom.ProcessId'
p680
sg16
I318
sbasg16
I318
sg19
g20
sbsg15
Nsg19
Nsg16
Nsg496
g1
(g487
g3
NtRp681
(dp682
g10
(lp683
g1
(g491
g3
NtRp684
(dp685
g118
Nsg41
S'success'
p686
sg15
Nsg19
g20
sg121
S'bool'
p687
sg16
I319
sbag1
(g491
g3
NtRp688
(dp689
g118
Nsg41
S'global_memory_dump'
p690
sg15
Nsg19
g20
sg121
S'GlobalMemoryDump?'
p691
sg16
I319
sbasg16
I319
sg19
g20
sbsbag1
(g482
g3
NtRp692
(dp693
g118
Nsg41
S'RequestGlobalMemoryDumpAndAppendToTrace'
p694
sg486
g1
(g487
g3
NtRp695
(dp696
g10
(lp697
g1
(g491
g3
NtRp698
(dp699
g118
Nsg41
S'dump_type'
p700
sg15
Nsg19
g20
sg121
S'DumpType'
p701
sg16
I323
sbag1
(g491
g3
NtRp702
(dp703
g118
Nsg41
S'level_of_detail'
p704
sg15
Nsg19
g20
sg121
S'LevelOfDetail'
p705
sg16
I324
sbasg16
I323
sg19
g20
sbsg15
Nsg19
Nsg16
Nsg496
g1
(g487
g3
NtRp706
(dp707
g10
(lp708
g1
(g491
g3
NtRp709
(dp710
g118
Nsg41
S'success'
p711
sg15
Nsg19
g20
sg121
S'bool'
p712
sg16
I325
sbag1
(g491
g3
NtRp713
(dp714
g118
Nsg41
S'dump_id'
p715
sg15
Nsg19
g20
sg121
S'uint64'
p716
sg16
I325
sbasg16
I325
sg19
g20
sbsbag1
(g482
g3
NtRp717
(dp718
g118
Nsg41
S'RegisterHeapProfiler'
p719
sg486
g1
(g487
g3
NtRp720
(dp721
g10
(lp722
g1
(g491
g3
NtRp723
(dp724
g118
Nsg41
S'heap_profiler'
p725
sg15
Nsg19
g20
sg121
S'HeapProfiler'
p726
sg16
I332
sbasg16
I332
sg19
g20
sbsg15
Nsg19
Nsg16
Nsg496
Nsbasg16
Nsg19
Nsbsg15
Nsg16
Nsg41
S'Coordinator'
p727
sg19
Nsbasg16
NsS'module'
p728
g1
(cmojom.parse.ast
Module
p729
g3
NtRp730
(dp731
S'mojom_namespace'
p732
(S'IDENTIFIER'
p733
S'memory_instrumentation.mojom'
tp734
sg16
I5
sg15
Nsg19
g20
sbsg19
Nsb.