ccopy_reg
_reconstructor
p1
(cmojom.parse.ast
Mojom
p2
c__builtin__
object
p3
NtRp4
(dp5
S'import_list'
p6
g1
(cmojom.parse.ast
ImportList
p7
g3
NtRp8
(dp9
S'items'
p10
(lp11
g1
(cmojom.parse.ast
Import
p12
g3
NtRp13
(dp14
S'attribute_list'
p15
NsS'lineno'
p16
I7
sS'import_filename'
p17
S'mojo/public/mojom/base/file.mojom'
p18
sS'filename'
p19
S'../../services/audio/public/mojom/audio_processing.mojom'
p20
sbag1
(g12
g3
NtRp21
(dp22
g15
Nsg16
I8
sg17
S'mojo/public/mojom/base/time.mojom'
p23
sg19
g20
sbag1
(g12
g3
NtRp24
(dp25
g15
Nsg16
I9
sg17
S'mojo/public/mojom/base/unguessable_token.mojom'
p26
sg19
g20
sbasg16
I7
sg19
g20
sbsS'definition_list'
p27
(lp28
g1
(cmojom.parse.ast
Struct
p29
g3
NtRp30
(dp31
S'body'
p32
g1
(cmojom.parse.ast
StructBody
p33
g3
NtRp34
(dp35
g10
(lp36
g1
(cmojom.parse.ast
StructField
p37
g3
NtRp38
(dp39
S'ordinal'
p40
NsS'default_value'
p41
NsS'mojom_name'
p42
S'typing_noise_detected'
p43
sg15
Nsg19
NsS'typename'
p44
S'bool'
p45
sg16
Nsbag1
(g37
g3
NtRp46
(dp47
g40
Nsg41
Nsg42
S'has_echo_return_loss'
p48
sg15
Nsg19
Nsg44
S'bool'
p49
sg16
Nsbag1
(g37
g3
NtRp50
(dp51
g40
Nsg41
Nsg42
S'echo_return_loss'
p52
sg15
Nsg19
Nsg44
S'double'
p53
sg16
Nsbag1
(g37
g3
NtRp54
(dp55
g40
Nsg41
Nsg42
S'has_echo_return_loss_enhancement'
p56
sg15
Nsg19
Nsg44
S'bool'
p57
sg16
Nsbag1
(g37
g3
NtRp58
(dp59
g40
Nsg41
Nsg42
S'echo_return_loss_enhancement'
p60
sg15
Nsg19
Nsg44
S'double'
p61
sg16
Nsbag1
(g37
g3
NtRp62
(dp63
g40
Nsg41
Nsg42
S'has_divergent_filter_fraction'
p64
sg15
Nsg19
Nsg44
S'bool'
p65
sg16
Nsbag1
(g37
g3
NtRp66
(dp67
g40
Nsg41
Nsg42
S'divergent_filter_fraction'
p68
sg15
Nsg19
Nsg44
S'double'
p69
sg16
Nsbag1
(g37
g3
NtRp70
(dp71
g40
Nsg41
Nsg42
S'has_delay_median_ms'
p72
sg15
Nsg19
Nsg44
S'bool'
p73
sg16
Nsbag1
(g37
g3
NtRp74
(dp75
g40
Nsg41
Nsg42
S'delay_median_ms'
p76
sg15
Nsg19
Nsg44
S'int32'
p77
sg16
Nsbag1
(g37
g3
NtRp78
(dp79
g40
Nsg41
Nsg42
S'has_delay_standard_deviation_ms'
p80
sg15
Nsg19
Nsg44
S'bool'
p81
sg16
Nsbag1
(g37
g3
NtRp82
(dp83
g40
Nsg41
Nsg42
S'delay_standard_deviation_ms'
p84
sg15
Nsg19
Nsg44
S'int32'
p85
sg16
Nsbag1
(g37
g3
NtRp86
(dp87
g40
Nsg41
Nsg42
S'has_residual_echo_likelihood'
p88
sg15
Nsg19
Nsg44
S'bool'
p89
sg16
Nsbag1
(g37
g3
NtRp90
(dp91
g40
Nsg41
Nsg42
S'residual_echo_likelihood'
p92
sg15
Nsg19
Nsg44
S'double'
p93
sg16
Nsbag1
(g37
g3
NtRp94
(dp95
g40
Nsg41
Nsg42
S'has_residual_echo_likelihood_recent_max'
p96
sg15
Nsg19
Nsg44
S'bool'
p97
sg16
Nsbag1
(g37
g3
NtRp98
(dp99
g40
Nsg41
Nsg42
S'residual_echo_likelihood_recent_max'
p100
sg15
Nsg19
Nsg44
S'double'
p101
sg16
Nsbag1
(g37
g3
NtRp102
(dp103
g40
Nsg41
Nsg42
S'has_delay_ms'
p104
sg15
Nsg19
Nsg44
S'bool'
p105
sg16
Nsbag1
(g37
g3
NtRp106
(dp107
g40
Nsg41
Nsg42
S'delay_ms'
p108
sg15
Nsg19
Nsg44
S'int32'
p109
sg16
Nsbasg16
Nsg19
Nsbsg15
Nsg16
Nsg42
S'AudioProcessingStats'
p110
sg19
Nsbag1
(cmojom.parse.ast
Enum
p111
g3
NtRp112
(dp113
g15
NsS'enum_value_list'
p114
g1
(cmojom.parse.ast
EnumValueList
p115
g3
NtRp116
(dp117
g10
(lp118
g1
(cmojom.parse.ast
EnumValue
p119
g3
NtRp120
(dp121
g15
NsS'value'
p122
Nsg16
I42
sg42
S'kDisabled'
p123
sg19
g20
sbag1
(g119
g3
NtRp124
(dp125
g15
Nsg122
Nsg16
I43
sg42
S'kDefault'
p126
sg19
g20
sbag1
(g119
g3
NtRp127
(dp128
g15
Nsg122
Nsg16
I44
sg42
S'kExperimental'
p129
sg19
g20
sbag1
(g119
g3
NtRp130
(dp131
g15
Nsg122
Nsg16
I45
sg42
S'kHybridExperimental'
p132
sg19
g20
sbasg16
I42
sg19
g20
sbsg16
I41
sg42
S'AutomaticGainControlType'
p133
sg19
g20
sbag1
(g111
g3
NtRp134
(dp135
g15
Nsg114
g1
(g115
g3
NtRp136
(dp137
g10
(lp138
g1
(g119
g3
NtRp139
(dp140
g15
Nsg122
Nsg16
I49
sg42
S'kDisabled'
p141
sg19
g20
sbag1
(g119
g3
NtRp142
(dp143
g15
Nsg122
Nsg16
I50
sg42
S'kAec3'
p144
sg19
g20
sbag1
(g119
g3
NtRp145
(dp146
g15
Nsg122
Nsg16
I51
sg42
S'kSystemAec'
p147
sg19
g20
sbasg16
I49
sg19
g20
sbsg16
I48
sg42
S'EchoCancellationType'
p148
sg19
g20
sbag1
(g111
g3
NtRp149
(dp150
g15
Nsg114
g1
(g115
g3
NtRp151
(dp152
g10
(lp153
g1
(g119
g3
NtRp154
(dp155
g15
Nsg122
Nsg16
I55
sg42
S'kDisabled'
p156
sg19
g20
sbag1
(g119
g3
NtRp157
(dp158
g15
Nsg122
Nsg16
I56
sg42
S'kDefault'
p159
sg19
g20
sbag1
(g119
g3
NtRp160
(dp161
g15
Nsg122
Nsg16
I57
sg42
S'kExperimental'
p162
sg19
g20
sbasg16
I55
sg19
g20
sbsg16
I54
sg42
S'NoiseSuppressionType'
p163
sg19
g20
sbag1
(g29
g3
NtRp164
(dp165
g32
g1
(g33
g3
NtRp166
(dp167
g10
(lp168
g1
(g37
g3
NtRp169
(dp170
g40
Nsg41
Nsg42
S'echo_cancellation'
p171
sg15
Nsg19
Nsg44
S'EchoCancellationType'
p172
sg16
Nsbag1
(g37
g3
NtRp173
(dp174
g40
Nsg41
Nsg42
S'noise_suppression'
p175
sg15
Nsg19
Nsg44
S'NoiseSuppressionType'
p176
sg16
Nsbag1
(g37
g3
NtRp177
(dp178
g40
Nsg41
Nsg42
S'automatic_gain_control'
p179
sg15
Nsg19
Nsg44
S'AutomaticGainControlType'
p180
sg16
Nsbag1
(g37
g3
NtRp181
(dp182
g40
Nsg41
Nsg42
S'high_pass_filter'
p183
sg15
Nsg19
Nsg44
S'bool'
p184
sg16
Nsbag1
(g37
g3
NtRp185
(dp186
g40
Nsg41
Nsg42
S'typing_detection'
p187
sg15
Nsg19
Nsg44
S'bool'
p188
sg16
Nsbag1
(g37
g3
NtRp189
(dp190
g40
Nsg41
Nsg42
S'stereo_mirroring'
p191
sg15
Nsg19
Nsg44
S'bool'
p192
sg16
Nsbasg16
Nsg19
Nsbsg15
Nsg16
Nsg42
S'AudioProcessingSettings'
p193
sg19
Nsbag1
(cmojom.parse.ast
Interface
p194
g3
NtRp195
(dp196
g32
g1
(cmojom.parse.ast
InterfaceBody
p197
g3
NtRp198
(dp199
g10
(lp200
g1
(cmojom.parse.ast
Method
p201
g3
NtRp202
(dp203
g40
Nsg42
S'GetStats'
p204
sS'parameter_list'
p205
g1
(cmojom.parse.ast
ParameterList
p206
g3
NtRp207
(dp208
g10
(lp209
sg16
Nsg19
Nsbsg15
Nsg19
Nsg16
NsS'response_parameter_list'
p210
g1
(g206
g3
NtRp211
(dp212
g10
(lp213
g1
(cmojom.parse.ast
Parameter
p214
g3
NtRp215
(dp216
g40
Nsg42
S'stats'
p217
sg15
Nsg19
g20
sg44
S'AudioProcessingStats'
p218
sg16
I78
sbasg16
I78
sg19
g20
sbsbag1
(g201
g3
NtRp219
(dp220
g40
Nsg42
S'StartEchoCancellationDump'
p221
sg205
g1
(g206
g3
NtRp222
(dp223
g10
(lp224
g1
(g214
g3
NtRp225
(dp226
g40
Nsg42
S'file'
p227
sg15
Nsg19
g20
sg44
S'mojo_base.mojom.File'
p228
sg16
I83
sbasg16
I83
sg19
g20
sbsg15
Nsg19
Nsg16
Nsg210
Nsbag1
(g201
g3
NtRp229
(dp230
g40
Nsg42
S'StopEchoCancellationDump'
p231
sg205
g1
(g206
g3
NtRp232
(dp233
g10
(lp234
sg16
Nsg19
Nsbsg15
Nsg19
Nsg16
Nsg210
Nsbasg16
Nsg19
Nsbsg15
Nsg16
Nsg42
S'AudioProcessorControls'
p235
sg19
Nsbag1
(g29
g3
NtRp236
(dp237
g32
g1
(g33
g3
NtRp238
(dp239
g10
(lp240
g1
(g37
g3
NtRp241
(dp242
g40
Nsg41
Nsg42
S'controls_receiver'
p243
sg15
Nsg19
Nsg44
S'rcv<AudioProcessorControls>'
p244
sg16
Nsbag1
(g37
g3
NtRp245
(dp246
g40
Nsg41
Nsg42
S'processing_id'
p247
sg15
Nsg19
Nsg44
S'mojo_base.mojom.UnguessableToken'
p248
sg16
Nsbag1
(g37
g3
NtRp249
(dp250
g40
Nsg41
Nsg42
S'settings'
p251
sg15
Nsg19
Nsg44
S'AudioProcessingSettings'
p252
sg16
Nsbasg16
Nsg19
Nsbsg15
Nsg16
Nsg42
S'AudioProcessingConfig'
p253
sg19
Nsbasg16
NsS'module'
p254
g1
(cmojom.parse.ast
Module
p255
g3
NtRp256
(dp257
S'mojom_namespace'
p258
(S'IDENTIFIER'
p259
S'audio.mojom'
tp260
sg16
I5
sg15
Nsg19
g20
sbsg19
Nsb.