ccopy_reg
_reconstructor
p1
(cmojom.parse.ast
Mojom
p2
c__builtin__
object
p3
NtRp4
(dp5
S'import_list'
p6
g1
(cmojom.parse.ast
ImportList
p7
g3
NtRp8
(dp9
S'items'
p10
(lp11
g1
(cmojom.parse.ast
Import
p12
g3
NtRp13
(dp14
S'attribute_list'
p15
NsS'lineno'
p16
I7
sS'import_filename'
p17
S'mojo/public/mojom/base/file.mojom'
p18
sS'filename'
p19
S'../../services/audio/public/mojom/debug_recording.mojom'
p20
sbag1
(g12
g3
NtRp21
(dp22
g15
Nsg16
I8
sg17
S'mojo/public/mojom/base/file_path.mojom'
p23
sg19
g20
sbasg16
I7
sg19
g20
sbsS'definition_list'
p24
(lp25
g1
(cmojom.parse.ast
Enum
p26
g3
NtRp27
(dp28
g15
NsS'enum_value_list'
p29
g1
(cmojom.parse.ast
EnumValueList
p30
g3
NtRp31
(dp32
g10
(lp33
g1
(cmojom.parse.ast
EnumValue
p34
g3
NtRp35
(dp36
g15
NsS'value'
p37
S'0'
sg16
I11
sS'mojom_name'
p38
S'kInput'
p39
sg19
g20
sbag1
(g34
g3
NtRp40
(dp41
g15
Nsg37
S'1'
sg16
I12
sg38
S'kOutput'
p42
sg19
g20
sbasg16
I11
sg19
g20
sbsg16
I10
sg38
S'DebugRecordingStreamType'
p43
sg19
g20
sbag1
(cmojom.parse.ast
Interface
p44
g3
NtRp45
(dp46
S'body'
p47
g1
(cmojom.parse.ast
InterfaceBody
p48
g3
NtRp49
(dp50
g10
(lp51
g1
(cmojom.parse.ast
Method
p52
g3
NtRp53
(dp54
S'ordinal'
p55
Nsg38
S'CreateWavFile'
p56
sS'parameter_list'
p57
g1
(cmojom.parse.ast
ParameterList
p58
g3
NtRp59
(dp60
g10
(lp61
g1
(cmojom.parse.ast
Parameter
p62
g3
NtRp63
(dp64
g55
Nsg38
S'stream_type'
p65
sg15
Nsg19
g20
sS'typename'
p66
S'DebugRecordingStreamType'
p67
sg16
I24
sbag1
(g62
g3
NtRp68
(dp69
g55
Nsg38
S'id'
p70
sg15
Nsg19
g20
sg66
S'uint32'
p71
sg16
I24
sbasg16
I24
sg19
g20
sbsg15
Nsg19
Nsg16
NsS'response_parameter_list'
p72
g1
(g58
g3
NtRp73
(dp74
g10
(lp75
g1
(g62
g3
NtRp76
(dp77
g55
Nsg38
S'file'
p78
sg15
Nsg19
g20
sg66
S'mojo_base.mojom.File?'
p79
sg16
I25
sbasg16
I25
sg19
g20
sbsbasg16
Nsg19
Nsbsg15
Nsg16
Nsg38
S'DebugRecordingFileProvider'
p80
sg19
Nsbag1
(g44
g3
NtRp81
(dp82
g47
g1
(g48
g3
NtRp83
(dp84
g10
(lp85
g1
(g52
g3
NtRp86
(dp87
g55
Nsg38
S'Enable'
p88
sg57
g1
(g58
g3
NtRp89
(dp90
g10
(lp91
g1
(g62
g3
NtRp92
(dp93
g55
Nsg38
S'file_provider'
p94
sg15
Nsg19
g20
sg66
S'rmt<DebugRecordingFileProvider>'
p95
sg16
I34
sbasg16
I34
sg19
g20
sbsg15
Nsg19
Nsg16
Nsg72
Nsbasg16
Nsg19
Nsbsg15
Nsg16
Nsg38
S'DebugRecording'
p96
sg19
Nsbasg16
NsS'module'
p97
g1
(cmojom.parse.ast
Module
p98
g3
NtRp99
(dp100
S'mojom_namespace'
p101
(S'IDENTIFIER'
p102
S'audio.mojom'
tp103
sg16
I5
sg15
Nsg19
g20
sbsg19
Nsb.