ccopy_reg
_reconstructor
p1
(cmojom.parse.ast
Mojom
p2
c__builtin__
object
p3
NtRp4
(dp5
S'import_list'
p6
g1
(cmojom.parse.ast
ImportList
p7
g3
NtRp8
(dp9
S'items'
p10
(lp11
g1
(cmojom.parse.ast
Import
p12
g3
NtRp13
(dp14
S'attribute_list'
p15
NsS'lineno'
p16
I7
sS'import_filename'
p17
S'media/mojo/interfaces/audio_data_pipe.mojom'
p18
sS'filename'
p19
S'../../services/audio/public/mojom/stream_factory.mojom'
p20
sbag1
(g12
g3
NtRp21
(dp22
g15
Nsg16
I8
sg17
S'media/mojo/interfaces/audio_input_stream.mojom'
p23
sg19
g20
sbag1
(g12
g3
NtRp24
(dp25
g15
Nsg16
I9
sg17
S'media/mojo/interfaces/audio_logging.mojom'
p26
sg19
g20
sbag1
(g12
g3
NtRp27
(dp28
g15
Nsg16
I10
sg17
S'media/mojo/interfaces/audio_output_stream.mojom'
p29
sg19
g20
sbag1
(g12
g3
NtRp30
(dp31
g15
Nsg16
I11
sg17
S'media/mojo/interfaces/audio_parameters.mojom'
p32
sg19
g20
sbag1
(g12
g3
NtRp33
(dp34
g15
Nsg16
I12
sg17
S'mojo/public/mojom/base/unguessable_token.mojom'
p35
sg19
g20
sbag1
(g12
g3
NtRp36
(dp37
g15
Nsg16
I13
sg17
S'services/audio/public/mojom/audio_processing.mojom'
p38
sg19
g20
sbasg16
I7
sg19
g20
sbsS'definition_list'
p39
(lp40
g1
(cmojom.parse.ast
Interface
p41
g3
NtRp42
(dp43
S'body'
p44
g1
(cmojom.parse.ast
InterfaceBody
p45
g3
NtRp46
(dp47
g10
(lp48
sg16
Nsg19
Nsbsg15
Nsg16
NsS'mojom_name'
p49
S'LocalMuter'
p50
sg19
Nsbag1
(g41
g3
NtRp51
(dp52
g44
g1
(g45
g3
NtRp53
(dp54
g10
(lp55
g1
(cmojom.parse.ast
Method
p56
g3
NtRp57
(dp58
S'ordinal'
p59
Nsg49
S'CreateInputStream'
p60
sS'parameter_list'
p61
g1
(cmojom.parse.ast
ParameterList
p62
g3
NtRp63
(dp64
g10
(lp65
g1
(cmojom.parse.ast
Parameter
p66
g3
NtRp67
(dp68
g59
Nsg49
S'stream'
p69
sg15
Nsg19
g20
sS'typename'
p70
S'rcv<media.mojom.AudioInputStream>'
p71
sg16
I42
sbag1
(g66
g3
NtRp72
(dp73
g59
Nsg49
S'client'
p74
sg15
Nsg19
g20
sg70
S'rmt<media.mojom.AudioInputStreamClient>'
p75
sg16
I43
sbag1
(g66
g3
NtRp76
(dp77
g59
Nsg49
S'observer'
p78
sg15
Nsg19
g20
sg70
S'rmt<media.mojom.AudioInputStreamObserver>?'
p79
sg16
I44
sbag1
(g66
g3
NtRp80
(dp81
g59
Nsg49
S'log'
p82
sg15
Nsg19
g20
sg70
S'rmt<media.mojom.AudioLog>?'
p83
sg16
I45
sbag1
(g66
g3
NtRp84
(dp85
g59
Nsg49
S'device_id'
p86
sg15
Nsg19
g20
sg70
S'string'
p87
sg16
I46
sbag1
(g66
g3
NtRp88
(dp89
g59
Nsg49
S'params'
p90
sg15
Nsg19
g20
sg70
S'media.mojom.AudioParameters'
p91
sg16
I46
sbag1
(g66
g3
NtRp92
(dp93
g59
Nsg49
S'shared_memory_count'
p94
sg15
Nsg19
g20
sg70
S'uint32'
p95
sg16
I47
sbag1
(g66
g3
NtRp96
(dp97
g59
Nsg49
S'enable_agc'
p98
sg15
Nsg19
g20
sg70
S'bool'
p99
sg16
I47
sbag1
(g66
g3
NtRp100
(dp101
g59
Nsg49
S'key_press_count_buffer'
p102
sg15
Nsg19
g20
sg70
S'handle<shared_buffer>?'
p103
sg16
I48
sbag1
(g66
g3
NtRp104
(dp105
g59
Nsg49
S'processing_config'
p106
sg15
Nsg19
g20
sg70
S'audio.mojom.AudioProcessingConfig?'
p107
sg16
I49
sbasg16
I42
sg19
g20
sbsg15
Nsg19
Nsg16
NsS'response_parameter_list'
p108
g1
(g62
g3
NtRp109
(dp110
g10
(lp111
g1
(g66
g3
NtRp112
(dp113
g59
Nsg49
S'data_pipe'
p114
sg15
Nsg19
g20
sg70
S'media.mojom.ReadOnlyAudioDataPipe?'
p115
sg16
I50
sbag1
(g66
g3
NtRp116
(dp117
g59
Nsg49
S'initially_muted'
p118
sg15
Nsg19
g20
sg70
S'bool'
p119
sg16
I50
sbag1
(g66
g3
NtRp120
(dp121
g59
Nsg49
S'stream_id'
p122
sg15
Nsg19
g20
sg70
S'mojo_base.mojom.UnguessableToken?'
p123
sg16
I51
sbasg16
I50
sg19
g20
sbsbag1
(g56
g3
NtRp124
(dp125
g59
Nsg49
S'AssociateInputAndOutputForAec'
p126
sg61
g1
(g62
g3
NtRp127
(dp128
g10
(lp129
g1
(g66
g3
NtRp130
(dp131
g59
Nsg49
S'input_stream_id'
p132
sg15
Nsg19
g20
sg70
S'mojo_base.mojom.UnguessableToken'
p133
sg16
I59
sbag1
(g66
g3
NtRp134
(dp135
g59
Nsg49
S'output_device_id'
p136
sg15
Nsg19
g20
sg70
S'string'
p137
sg16
I60
sbasg16
I59
sg19
g20
sbsg15
Nsg19
Nsg16
Nsg108
Nsbag1
(g56
g3
NtRp138
(dp139
g59
Nsg49
S'CreateOutputStream'
p140
sg61
g1
(g62
g3
NtRp141
(dp142
g10
(lp143
g1
(g66
g3
NtRp144
(dp145
g59
Nsg49
S'stream'
p146
sg15
Nsg19
g20
sg70
S'rcv<media.mojom.AudioOutputStream>'
p147
sg16
I70
sbag1
(g66
g3
NtRp148
(dp149
g59
Nsg49
S'observer'
p150
sg15
Nsg19
g20
sg70
S'rma<media.mojom.AudioOutputStreamObserver>?'
p151
sg16
I71
sbag1
(g66
g3
NtRp152
(dp153
g59
Nsg49
S'log'
p154
sg15
Nsg19
g20
sg70
S'rmt<media.mojom.AudioLog>?'
p155
sg16
I72
sbag1
(g66
g3
NtRp156
(dp157
g59
Nsg49
S'device_id'
p158
sg15
Nsg19
g20
sg70
S'string'
p159
sg16
I73
sbag1
(g66
g3
NtRp160
(dp161
g59
Nsg49
S'params'
p162
sg15
Nsg19
g20
sg70
S'media.mojom.AudioParameters'
p163
sg16
I73
sbag1
(g66
g3
NtRp164
(dp165
g59
Nsg49
S'group_id'
p166
sg15
Nsg19
g20
sg70
S'mojo_base.mojom.UnguessableToken'
p167
sg16
I74
sbag1
(g66
g3
NtRp168
(dp169
g59
Nsg49
S'processing_id'
p170
sg15
Nsg19
g20
sg70
S'mojo_base.mojom.UnguessableToken?'
p171
sg16
I75
sbasg16
I70
sg19
g20
sbsg15
Nsg19
Nsg16
Nsg108
g1
(g62
g3
NtRp172
(dp173
g10
(lp174
g1
(g66
g3
NtRp175
(dp176
g59
Nsg49
S'data_pipe'
p177
sg15
Nsg19
g20
sg70
S'media.mojom.ReadWriteAudioDataPipe?'
p178
sg16
I76
sbasg16
I76
sg19
g20
sbsbag1
(g56
g3
NtRp179
(dp180
g59
Nsg49
S'BindMuter'
p181
sg61
g1
(g62
g3
NtRp182
(dp183
g10
(lp184
g1
(g66
g3
NtRp185
(dp186
g59
Nsg49
S'receiver'
p187
sg15
Nsg19
g20
sg70
S'rca<LocalMuter>'
p188
sg16
I87
sbag1
(g66
g3
NtRp189
(dp190
g59
Nsg49
S'group_id'
p191
sg15
Nsg19
g20
sg70
S'mojo_base.mojom.UnguessableToken'
p192
sg16
I88
sbasg16
I87
sg19
g20
sbsg15
Nsg19
Nsg16
Nsg108
Nsbag1
(g56
g3
NtRp193
(dp194
g59
Nsg49
S'CreateLoopbackStream'
p195
sg61
g1
(g62
g3
NtRp196
(dp197
g10
(lp198
g1
(g66
g3
NtRp199
(dp200
g59
Nsg49
S'receiver'
p201
sg15
Nsg19
g20
sg70
S'rcv<media.mojom.AudioInputStream>'
p202
sg16
I98
sbag1
(g66
g3
NtRp203
(dp204
g59
Nsg49
S'client'
p205
sg15
Nsg19
g20
sg70
S'rmt<media.mojom.AudioInputStreamClient>'
p206
sg16
I99
sbag1
(g66
g3
NtRp207
(dp208
g59
Nsg49
S'observer'
p209
sg15
Nsg19
g20
sg70
S'rmt<media.mojom.AudioInputStreamObserver>'
p210
sg16
I100
sbag1
(g66
g3
NtRp211
(dp212
g59
Nsg49
S'params'
p213
sg15
Nsg19
g20
sg70
S'media.mojom.AudioParameters'
p214
sg16
I101
sbag1
(g66
g3
NtRp215
(dp216
g59
Nsg49
S'shared_memory_count'
p217
sg15
Nsg19
g20
sg70
S'uint32'
p218
sg16
I102
sbag1
(g66
g3
NtRp219
(dp220
g59
Nsg49
S'group_id'
p221
sg15
Nsg19
g20
sg70
S'mojo_base.mojom.UnguessableToken'
p222
sg16
I103
sbasg16
I98
sg19
g20
sbsg15
Nsg19
Nsg16
Nsg108
g1
(g62
g3
NtRp223
(dp224
g10
(lp225
g1
(g66
g3
NtRp226
(dp227
g59
Nsg49
S'data_pipe'
p228
sg15
Nsg19
g20
sg70
S'media.mojom.ReadOnlyAudioDataPipe?'
p229
sg16
I104
sbasg16
I104
sg19
g20
sbsbasg16
Nsg19
Nsbsg15
Nsg16
Nsg49
S'StreamFactory'
p230
sg19
Nsbasg16
NsS'module'
p231
g1
(cmojom.parse.ast
Module
p232
g3
NtRp233
(dp234
S'mojom_namespace'
p235
(S'IDENTIFIER'
p236
S'audio.mojom'
tp237
sg16
I5
sg15
Nsg19
g20
sbsg19
Nsb.