ccopy_reg
_reconstructor
p1
(cmojom.parse.ast
Mojom
p2
c__builtin__
object
p3
NtRp4
(dp5
S'import_list'
p6
g1
(cmojom.parse.ast
ImportList
p7
g3
NtRp8
(dp9
S'items'
p10
(lp11
g1
(cmojom.parse.ast
Import
p12
g3
NtRp13
(dp14
S'attribute_list'
p15
NsS'lineno'
p16
I7
sS'import_filename'
p17
S'media/mojo/interfaces/audio_parameters.mojom'
p18
sS'filename'
p19
S'../../services/audio/public/mojom/system_info.mojom'
p20
sbag1
(g12
g3
NtRp21
(dp22
g15
Nsg16
I8
sg17
S'services/audio/public/mojom/audio_device_description.mojom'
p23
sg19
g20
sbasg16
I7
sg19
g20
sbsS'definition_list'
p24
(lp25
g1
(cmojom.parse.ast
Interface
p26
g3
NtRp27
(dp28
S'body'
p29
g1
(cmojom.parse.ast
InterfaceBody
p30
g3
NtRp31
(dp32
g10
(lp33
g1
(cmojom.parse.ast
Method
p34
g3
NtRp35
(dp36
S'ordinal'
p37
NsS'mojom_name'
p38
S'GetInputStreamParameters'
p39
sS'parameter_list'
p40
g1
(cmojom.parse.ast
ParameterList
p41
g3
NtRp42
(dp43
g10
(lp44
g1
(cmojom.parse.ast
Parameter
p45
g3
NtRp46
(dp47
g37
Nsg38
S'device_id'
p48
sg15
Nsg19
g20
sS'typename'
p49
S'string'
p50
sg16
I14
sbasg16
I14
sg19
g20
sbsg15
Nsg19
Nsg16
NsS'response_parameter_list'
p51
g1
(g41
g3
NtRp52
(dp53
g10
(lp54
g1
(g45
g3
NtRp55
(dp56
g37
Nsg38
S'params'
p57
sg15
Nsg19
g20
sg49
S'media.mojom.AudioParameters?'
p58
sg16
I15
sbasg16
I15
sg19
g20
sbsbag1
(g34
g3
NtRp59
(dp60
g37
Nsg38
S'GetOutputStreamParameters'
p61
sg40
g1
(g41
g3
NtRp62
(dp63
g10
(lp64
g1
(g45
g3
NtRp65
(dp66
g37
Nsg38
S'device_id'
p67
sg15
Nsg19
g20
sg49
S'string'
p68
sg16
I19
sbasg16
I19
sg19
g20
sbsg15
Nsg19
Nsg16
Nsg51
g1
(g41
g3
NtRp69
(dp70
g10
(lp71
g1
(g45
g3
NtRp72
(dp73
g37
Nsg38
S'params'
p74
sg15
Nsg19
g20
sg49
S'media.mojom.AudioParameters?'
p75
sg16
I20
sbasg16
I20
sg19
g20
sbsbag1
(g34
g3
NtRp76
(dp77
g37
Nsg38
S'HasInputDevices'
p78
sg40
g1
(g41
g3
NtRp79
(dp80
g10
(lp81
sg16
Nsg19
Nsbsg15
Nsg19
Nsg16
Nsg51
g1
(g41
g3
NtRp82
(dp83
g10
(lp84
g1
(g45
g3
NtRp85
(dp86
g37
Nsg38
S'has_input_devices'
p87
sg15
Nsg19
g20
sg49
S'bool'
p88
sg16
I23
sbasg16
I23
sg19
g20
sbsbag1
(g34
g3
NtRp89
(dp90
g37
Nsg38
S'HasOutputDevices'
p91
sg40
g1
(g41
g3
NtRp92
(dp93
g10
(lp94
sg16
Nsg19
Nsbsg15
Nsg19
Nsg16
Nsg51
g1
(g41
g3
NtRp95
(dp96
g10
(lp97
g1
(g45
g3
NtRp98
(dp99
g37
Nsg38
S'has_output_devices'
p100
sg15
Nsg19
g20
sg49
S'bool'
p101
sg16
I26
sbasg16
I26
sg19
g20
sbsbag1
(g34
g3
NtRp102
(dp103
g37
Nsg38
S'GetInputDeviceDescriptions'
p104
sg40
g1
(g41
g3
NtRp105
(dp106
g10
(lp107
sg16
Nsg19
Nsbsg15
Nsg19
Nsg16
Nsg51
g1
(g41
g3
NtRp108
(dp109
g10
(lp110
g1
(g45
g3
NtRp111
(dp112
g37
Nsg38
S'device_descriptions'
p113
sg15
Nsg19
g20
sg49
S'audio.mojom.AudioDeviceDescription[]'
p114
sg16
I30
sbasg16
I30
sg19
g20
sbsbag1
(g34
g3
NtRp115
(dp116
g37
Nsg38
S'GetOutputDeviceDescriptions'
p117
sg40
g1
(g41
g3
NtRp118
(dp119
g10
(lp120
sg16
Nsg19
Nsbsg15
Nsg19
Nsg16
Nsg51
g1
(g41
g3
NtRp121
(dp122
g10
(lp123
g1
(g45
g3
NtRp124
(dp125
g37
Nsg38
S'device_descriptions'
p126
sg15
Nsg19
g20
sg49
S'audio.mojom.AudioDeviceDescription[]'
p127
sg16
I34
sbasg16
I34
sg19
g20
sbsbag1
(g34
g3
NtRp128
(dp129
g37
Nsg38
S'GetAssociatedOutputDeviceID'
p130
sg40
g1
(g41
g3
NtRp131
(dp132
g10
(lp133
g1
(g45
g3
NtRp134
(dp135
g37
Nsg38
S'input_device_id'
p136
sg15
Nsg19
g20
sg49
S'string'
p137
sg16
I38
sbasg16
I38
sg19
g20
sbsg15
Nsg19
Nsg16
Nsg51
g1
(g41
g3
NtRp138
(dp139
g10
(lp140
g1
(g45
g3
NtRp141
(dp142
g37
Nsg38
S'associated_output_device_id'
p143
sg15
Nsg19
g20
sg49
S'string?'
p144
sg16
I39
sbasg16
I39
sg19
g20
sbsbag1
(g34
g3
NtRp145
(dp146
g37
Nsg38
S'GetInputDeviceInfo'
p147
sg40
g1
(g41
g3
NtRp148
(dp149
g10
(lp150
g1
(g45
g3
NtRp151
(dp152
g37
Nsg38
S'input_device_id'
p153
sg15
Nsg19
g20
sg49
S'string'
p154
sg16
I47
sbasg16
I47
sg19
g20
sbsg15
Nsg19
Nsg16
Nsg51
g1
(g41
g3
NtRp155
(dp156
g10
(lp157
g1
(g45
g3
NtRp158
(dp159
g37
Nsg38
S'input_params'
p160
sg15
Nsg19
g20
sg49
S'media.mojom.AudioParameters?'
p161
sg16
I48
sbag1
(g45
g3
NtRp162
(dp163
g37
Nsg38
S'associated_output_device_id'
p164
sg15
Nsg19
g20
sg49
S'string?'
p165
sg16
I49
sbasg16
I48
sg19
g20
sbsbasg16
Nsg19
Nsbsg15
Nsg16
Nsg38
S'SystemInfo'
p166
sg19
Nsbasg16
NsS'module'
p167
g1
(cmojom.parse.ast
Module
p168
g3
NtRp169
(dp170
S'mojom_namespace'
p171
(S'IDENTIFIER'
p172
S'audio.mojom'
tp173
sg16
I5
sg15
Nsg19
g20
sbsg19
Nsb.