ccopy_reg
_reconstructor
p1
(cmojom.parse.ast
Mojom
p2
c__builtin__
object
p3
NtRp4
(dp5
S'import_list'
p6
g1
(cmojom.parse.ast
ImportList
p7
g3
NtRp8
(dp9
S'items'
p10
(lp11
sS'lineno'
p12
NsS'filename'
p13
NsbsS'definition_list'
p14
(lp15
g1
(cmojom.parse.ast
Struct
p16
g3
NtRp17
(dp18
S'body'
p19
g1
(cmojom.parse.ast
StructBody
p20
g3
NtRp21
(dp22
g10
(lp23
g1
(cmojom.parse.ast
StructField
p24
g3
NtRp25
(dp26
S'ordinal'
p27
NsS'default_value'
p28
NsS'mojom_name'
p29
S'max'
p30
sS'attribute_list'
p31
Nsg13
NsS'typename'
p32
S'double'
p33
sg12
Nsbag1
(g24
g3
NtRp34
(dp35
g27
Nsg28
Nsg29
S'min'
p36
sg31
Nsg13
Nsg32
S'double'
p37
sg12
Nsbag1
(g24
g3
NtRp38
(dp39
g27
Nsg28
Nsg29
S'current'
p40
sg31
Nsg13
Nsg32
S'double'
p41
sg12
Nsbag1
(g24
g3
NtRp42
(dp43
g27
Nsg28
Nsg29
S'step'
p44
sg31
Nsg13
Nsg32
S'double'
p45
sg12
Nsbasg12
Nsg13
Nsbsg31
Nsg12
Nsg29
S'Range'
p46
sg13
Nsbag1
(cmojom.parse.ast
Enum
p47
g3
NtRp48
(dp49
g31
NsS'enum_value_list'
p50
g1
(cmojom.parse.ast
EnumValueList
p51
g3
NtRp52
(dp53
g10
(lp54
g1
(cmojom.parse.ast
EnumValue
p55
g3
NtRp56
(dp57
g31
NsS'value'
p58
Nsg12
I18
sg29
S'NONE'
p59
sg13
S'../../media/capture/mojom/image_capture.mojom'
p60
sbag1
(g55
g3
NtRp61
(dp62
g31
Nsg58
Nsg12
I18
sg29
S'MANUAL'
p63
sg13
g60
sbag1
(g55
g3
NtRp64
(dp65
g31
Nsg58
Nsg12
I18
sg29
S'SINGLE_SHOT'
p66
sg13
g60
sbag1
(g55
g3
NtRp67
(dp68
g31
Nsg58
Nsg12
I18
sg29
S'CONTINUOUS'
p69
sg13
g60
sbasg12
I18
sg13
g60
sbsg12
I18
sg29
S'MeteringMode'
p70
sg13
g60
sbag1
(g47
g3
NtRp71
(dp72
g31
Nsg50
g1
(g51
g3
NtRp73
(dp74
g10
(lp75
g1
(g55
g3
NtRp76
(dp77
g31
Nsg58
Nsg12
I21
sg29
S'NEVER'
p78
sg13
g60
sbag1
(g55
g3
NtRp79
(dp80
g31
Nsg58
Nsg12
I21
sg29
S'ALWAYS'
p81
sg13
g60
sbag1
(g55
g3
NtRp82
(dp83
g31
Nsg58
Nsg12
I21
sg29
S'CONTROLLABLE'
p84
sg13
g60
sbasg12
I21
sg13
g60
sbsg12
I21
sg29
S'RedEyeReduction'
p85
sg13
g60
sbag1
(g47
g3
NtRp86
(dp87
g31
Nsg50
g1
(g51
g3
NtRp88
(dp89
g10
(lp90
g1
(g55
g3
NtRp91
(dp92
g31
Nsg58
Nsg12
I24
sg29
S'OFF'
p93
sg13
g60
sbag1
(g55
g3
NtRp94
(dp95
g31
Nsg58
Nsg12
I24
sg29
S'AUTO'
p96
sg13
g60
sbag1
(g55
g3
NtRp97
(dp98
g31
Nsg58
Nsg12
I24
sg29
S'FLASH'
p99
sg13
g60
sbasg12
I24
sg13
g60
sbsg12
I24
sg29
S'FillLightMode'
p100
sg13
g60
sbag1
(g16
g3
NtRp101
(dp102
g19
g1
(g20
g3
NtRp103
(dp104
g10
(lp105
g1
(g24
g3
NtRp106
(dp107
g27
Nsg28
Nsg29
S'supported_white_balance_modes'
p108
sg31
Nsg13
Nsg32
S'MeteringMode[]'
p109
sg12
Nsbag1
(g24
g3
NtRp110
(dp111
g27
Nsg28
Nsg29
S'current_white_balance_mode'
p112
sg31
Nsg13
Nsg32
S'MeteringMode'
p113
sg12
Nsbag1
(g24
g3
NtRp114
(dp115
g27
Nsg28
Nsg29
S'supported_exposure_modes'
p116
sg31
Nsg13
Nsg32
S'MeteringMode[]'
p117
sg12
Nsbag1
(g24
g3
NtRp118
(dp119
g27
Nsg28
Nsg29
S'current_exposure_mode'
p120
sg31
Nsg13
Nsg32
S'MeteringMode'
p121
sg12
Nsbag1
(g24
g3
NtRp122
(dp123
g27
Nsg28
Nsg29
S'supported_focus_modes'
p124
sg31
Nsg13
Nsg32
S'MeteringMode[]'
p125
sg12
Nsbag1
(g24
g3
NtRp126
(dp127
g27
Nsg28
Nsg29
S'current_focus_mode'
p128
sg31
Nsg13
Nsg32
S'MeteringMode'
p129
sg12
Nsbag1
(g24
g3
NtRp130
(dp131
g27
Nsg28
Nsg29
S'points_of_interest'
p132
sg31
Nsg13
Nsg32
S'Point2D[]'
p133
sg12
Nsbag1
(g24
g3
NtRp134
(dp135
g27
Nsg28
Nsg29
S'exposure_compensation'
p136
sg31
Nsg13
Nsg32
S'Range'
p137
sg12
Nsbag1
(g24
g3
NtRp138
(dp139
g27
Nsg28
Nsg29
S'exposure_time'
p140
sg31
Nsg13
Nsg32
S'Range'
p141
sg12
Nsbag1
(g24
g3
NtRp142
(dp143
g27
Nsg28
Nsg29
S'color_temperature'
p144
sg31
Nsg13
Nsg32
S'Range'
p145
sg12
Nsbag1
(g24
g3
NtRp146
(dp147
g27
Nsg28
Nsg29
S'iso'
p148
sg31
Nsg13
Nsg32
S'Range'
p149
sg12
Nsbag1
(g24
g3
NtRp150
(dp151
g27
Nsg28
Nsg29
S'brightness'
p152
sg31
Nsg13
Nsg32
S'Range'
p153
sg12
Nsbag1
(g24
g3
NtRp154
(dp155
g27
Nsg28
Nsg29
S'contrast'
p156
sg31
Nsg13
Nsg32
S'Range'
p157
sg12
Nsbag1
(g24
g3
NtRp158
(dp159
g27
Nsg28
Nsg29
S'saturation'
p160
sg31
Nsg13
Nsg32
S'Range'
p161
sg12
Nsbag1
(g24
g3
NtRp162
(dp163
g27
Nsg28
Nsg29
S'sharpness'
p164
sg31
Nsg13
Nsg32
S'Range'
p165
sg12
Nsbag1
(g24
g3
NtRp166
(dp167
g27
Nsg28
Nsg29
S'focus_distance'
p168
sg31
Nsg13
Nsg32
S'Range'
p169
sg12
Nsbag1
(g24
g3
NtRp170
(dp171
g27
Nsg28
Nsg29
S'zoom'
p172
sg31
Nsg13
Nsg32
S'Range'
p173
sg12
Nsbag1
(g24
g3
NtRp174
(dp175
g27
Nsg28
Nsg29
S'supports_torch'
p176
sg31
Nsg13
Nsg32
S'bool'
p177
sg12
Nsbag1
(g24
g3
NtRp178
(dp179
g27
Nsg28
Nsg29
S'torch'
p180
sg31
Nsg13
Nsg32
S'bool'
p181
sg12
Nsbag1
(g24
g3
NtRp182
(dp183
g27
Nsg28
Nsg29
S'red_eye_reduction'
p184
sg31
Nsg13
Nsg32
S'RedEyeReduction'
p185
sg12
Nsbag1
(g24
g3
NtRp186
(dp187
g27
Nsg28
Nsg29
S'height'
p188
sg31
Nsg13
Nsg32
S'Range'
p189
sg12
Nsbag1
(g24
g3
NtRp190
(dp191
g27
Nsg28
Nsg29
S'width'
p192
sg31
Nsg13
Nsg32
S'Range'
p193
sg12
Nsbag1
(g24
g3
NtRp194
(dp195
g27
Nsg28
Nsg29
S'fill_light_mode'
p196
sg31
Nsg13
Nsg32
S'FillLightMode[]'
p197
sg12
Nsbasg12
Nsg13
Nsbsg31
Nsg12
Nsg29
S'PhotoState'
p198
sg13
Nsbag1
(g16
g3
NtRp199
(dp200
g19
g1
(g20
g3
NtRp201
(dp202
g10
(lp203
g1
(g24
g3
NtRp204
(dp205
g27
Nsg28
Nsg29
S'x'
sg31
Nsg13
Nsg32
S'double'
p206
sg12
Nsbag1
(g24
g3
NtRp207
(dp208
g27
Nsg28
Nsg29
S'y'
sg31
Nsg13
Nsg32
S'double'
p209
sg12
Nsbasg12
Nsg13
Nsbsg31
Nsg12
Nsg29
S'Point2D'
p210
sg13
Nsbag1
(g16
g3
NtRp211
(dp212
g19
g1
(g20
g3
NtRp213
(dp214
g10
(lp215
g1
(g24
g3
NtRp216
(dp217
g27
Nsg28
Nsg29
S'has_white_balance_mode'
p218
sg31
Nsg13
Nsg32
S'bool'
p219
sg12
Nsbag1
(g24
g3
NtRp220
(dp221
g27
Nsg28
Nsg29
S'white_balance_mode'
p222
sg31
Nsg13
Nsg32
S'MeteringMode'
p223
sg12
Nsbag1
(g24
g3
NtRp224
(dp225
g27
Nsg28
Nsg29
S'has_exposure_mode'
p226
sg31
Nsg13
Nsg32
S'bool'
p227
sg12
Nsbag1
(g24
g3
NtRp228
(dp229
g27
Nsg28
Nsg29
S'exposure_mode'
p230
sg31
Nsg13
Nsg32
S'MeteringMode'
p231
sg12
Nsbag1
(g24
g3
NtRp232
(dp233
g27
Nsg28
Nsg29
S'has_focus_mode'
p234
sg31
Nsg13
Nsg32
S'bool'
p235
sg12
Nsbag1
(g24
g3
NtRp236
(dp237
g27
Nsg28
Nsg29
S'focus_mode'
p238
sg31
Nsg13
Nsg32
S'MeteringMode'
p239
sg12
Nsbag1
(g24
g3
NtRp240
(dp241
g27
Nsg28
Nsg29
S'points_of_interest'
p242
sg31
Nsg13
Nsg32
S'Point2D[]'
p243
sg12
Nsbag1
(g24
g3
NtRp244
(dp245
g27
Nsg28
Nsg29
S'has_exposure_compensation'
p246
sg31
Nsg13
Nsg32
S'bool'
p247
sg12
Nsbag1
(g24
g3
NtRp248
(dp249
g27
Nsg28
Nsg29
S'exposure_compensation'
p250
sg31
Nsg13
Nsg32
S'double'
p251
sg12
Nsbag1
(g24
g3
NtRp252
(dp253
g27
Nsg28
Nsg29
S'has_exposure_time'
p254
sg31
Nsg13
Nsg32
S'bool'
p255
sg12
Nsbag1
(g24
g3
NtRp256
(dp257
g27
Nsg28
Nsg29
S'exposure_time'
p258
sg31
Nsg13
Nsg32
S'double'
p259
sg12
Nsbag1
(g24
g3
NtRp260
(dp261
g27
Nsg28
Nsg29
S'has_color_temperature'
p262
sg31
Nsg13
Nsg32
S'bool'
p263
sg12
Nsbag1
(g24
g3
NtRp264
(dp265
g27
Nsg28
Nsg29
S'color_temperature'
p266
sg31
Nsg13
Nsg32
S'double'
p267
sg12
Nsbag1
(g24
g3
NtRp268
(dp269
g27
Nsg28
Nsg29
S'has_iso'
p270
sg31
Nsg13
Nsg32
S'bool'
p271
sg12
Nsbag1
(g24
g3
NtRp272
(dp273
g27
Nsg28
Nsg29
S'iso'
p274
sg31
Nsg13
Nsg32
S'double'
p275
sg12
Nsbag1
(g24
g3
NtRp276
(dp277
g27
Nsg28
Nsg29
S'has_brightness'
p278
sg31
Nsg13
Nsg32
S'bool'
p279
sg12
Nsbag1
(g24
g3
NtRp280
(dp281
g27
Nsg28
Nsg29
S'brightness'
p282
sg31
Nsg13
Nsg32
S'double'
p283
sg12
Nsbag1
(g24
g3
NtRp284
(dp285
g27
Nsg28
Nsg29
S'has_contrast'
p286
sg31
Nsg13
Nsg32
S'bool'
p287
sg12
Nsbag1
(g24
g3
NtRp288
(dp289
g27
Nsg28
Nsg29
S'contrast'
p290
sg31
Nsg13
Nsg32
S'double'
p291
sg12
Nsbag1
(g24
g3
NtRp292
(dp293
g27
Nsg28
Nsg29
S'has_saturation'
p294
sg31
Nsg13
Nsg32
S'bool'
p295
sg12
Nsbag1
(g24
g3
NtRp296
(dp297
g27
Nsg28
Nsg29
S'saturation'
p298
sg31
Nsg13
Nsg32
S'double'
p299
sg12
Nsbag1
(g24
g3
NtRp300
(dp301
g27
Nsg28
Nsg29
S'has_sharpness'
p302
sg31
Nsg13
Nsg32
S'bool'
p303
sg12
Nsbag1
(g24
g3
NtRp304
(dp305
g27
Nsg28
Nsg29
S'sharpness'
p306
sg31
Nsg13
Nsg32
S'double'
p307
sg12
Nsbag1
(g24
g3
NtRp308
(dp309
g27
Nsg28
Nsg29
S'has_focus_distance'
p310
sg31
Nsg13
Nsg32
S'bool'
p311
sg12
Nsbag1
(g24
g3
NtRp312
(dp313
g27
Nsg28
Nsg29
S'focus_distance'
p314
sg31
Nsg13
Nsg32
S'double'
p315
sg12
Nsbag1
(g24
g3
NtRp316
(dp317
g27
Nsg28
Nsg29
S'has_zoom'
p318
sg31
Nsg13
Nsg32
S'bool'
p319
sg12
Nsbag1
(g24
g3
NtRp320
(dp321
g27
Nsg28
Nsg29
S'zoom'
p322
sg31
Nsg13
Nsg32
S'double'
p323
sg12
Nsbag1
(g24
g3
NtRp324
(dp325
g27
Nsg28
Nsg29
S'has_torch'
p326
sg31
Nsg13
Nsg32
S'bool'
p327
sg12
Nsbag1
(g24
g3
NtRp328
(dp329
g27
Nsg28
Nsg29
S'torch'
p330
sg31
Nsg13
Nsg32
S'bool'
p331
sg12
Nsbag1
(g24
g3
NtRp332
(dp333
g27
Nsg28
Nsg29
S'has_fill_light_mode'
p334
sg31
Nsg13
Nsg32
S'bool'
p335
sg12
Nsbag1
(g24
g3
NtRp336
(dp337
g27
Nsg28
Nsg29
S'fill_light_mode'
p338
sg31
Nsg13
Nsg32
S'FillLightMode'
p339
sg12
Nsbag1
(g24
g3
NtRp340
(dp341
g27
Nsg28
Nsg29
S'has_width'
p342
sg31
Nsg13
Nsg32
S'bool'
p343
sg12
Nsbag1
(g24
g3
NtRp344
(dp345
g27
Nsg28
Nsg29
S'width'
p346
sg31
Nsg13
Nsg32
S'double'
p347
sg12
Nsbag1
(g24
g3
NtRp348
(dp349
g27
Nsg28
Nsg29
S'has_height'
p350
sg31
Nsg13
Nsg32
S'bool'
p351
sg12
Nsbag1
(g24
g3
NtRp352
(dp353
g27
Nsg28
Nsg29
S'height'
p354
sg31
Nsg13
Nsg32
S'double'
p355
sg12
Nsbag1
(g24
g3
NtRp356
(dp357
g27
Nsg28
Nsg29
S'has_red_eye_reduction'
p358
sg31
Nsg13
Nsg32
S'bool'
p359
sg12
Nsbag1
(g24
g3
NtRp360
(dp361
g27
Nsg28
Nsg29
S'red_eye_reduction'
p362
sg31
Nsg13
Nsg32
S'bool'
p363
sg12
Nsbasg12
Nsg13
Nsbsg31
Nsg12
Nsg29
S'PhotoSettings'
p364
sg13
Nsbag1
(g16
g3
NtRp365
(dp366
g19
g1
(g20
g3
NtRp367
(dp368
g10
(lp369
g1
(g24
g3
NtRp370
(dp371
g27
Nsg28
Nsg29
S'mime_type'
p372
sg31
Nsg13
Nsg32
S'string'
p373
sg12
Nsbag1
(g24
g3
NtRp374
(dp375
g27
Nsg28
Nsg29
S'data'
p376
sg31
Nsg13
Nsg32
S'uint8[]'
p377
sg12
Nsbasg12
Nsg13
Nsbsg31
Nsg12
Nsg29
S'Blob'
p378
sg13
Nsbag1
(cmojom.parse.ast
Interface
p379
g3
NtRp380
(dp381
g19
g1
(cmojom.parse.ast
InterfaceBody
p382
g3
NtRp383
(dp384
g10
(lp385
g1
(cmojom.parse.ast
Method
p386
g3
NtRp387
(dp388
g27
Nsg29
S'GetPhotoState'
p389
sS'parameter_list'
p390
g1
(cmojom.parse.ast
ParameterList
p391
g3
NtRp392
(dp393
g10
(lp394
g1
(cmojom.parse.ast
Parameter
p395
g3
NtRp396
(dp397
g27
Nsg29
S'source_id'
p398
sg31
Nsg13
g60
sg32
S'string'
p399
sg12
I132
sbasg12
I132
sg13
g60
sbsg31
Nsg13
Nsg12
NsS'response_parameter_list'
p400
g1
(g391
g3
NtRp401
(dp402
g10
(lp403
g1
(g395
g3
NtRp404
(dp405
g27
Nsg29
S'state'
p406
sg31
Nsg13
g60
sg32
S'PhotoState'
p407
sg12
I133
sbasg12
I133
sg13
g60
sbsbag1
(g386
g3
NtRp408
(dp409
g27
Nsg29
S'SetOptions'
p410
sg390
g1
(g391
g3
NtRp411
(dp412
g10
(lp413
g1
(g395
g3
NtRp414
(dp415
g27
Nsg29
S'source_id'
p416
sg31
Nsg13
g60
sg32
S'string'
p417
sg12
I137
sbag1
(g395
g3
NtRp418
(dp419
g27
Nsg29
S'settings'
p420
sg31
Nsg13
g60
sg32
S'PhotoSettings'
p421
sg12
I137
sbasg12
I137
sg13
g60
sbsg31
Nsg13
Nsg12
Nsg400
g1
(g391
g3
NtRp422
(dp423
g10
(lp424
g1
(g395
g3
NtRp425
(dp426
g27
Nsg29
S'success'
p427
sg31
Nsg13
g60
sg32
S'bool'
p428
sg12
I138
sbasg12
I138
sg13
g60
sbsbag1
(g386
g3
NtRp429
(dp430
g27
Nsg29
S'TakePhoto'
p431
sg390
g1
(g391
g3
NtRp432
(dp433
g10
(lp434
g1
(g395
g3
NtRp435
(dp436
g27
Nsg29
S'source_id'
p437
sg31
Nsg13
g60
sg32
S'string'
p438
sg12
I143
sbasg12
I143
sg13
g60
sbsg31
Nsg13
Nsg12
Nsg400
g1
(g391
g3
NtRp439
(dp440
g10
(lp441
g1
(g395
g3
NtRp442
(dp443
g27
Nsg29
S'blob'
p444
sg31
Nsg13
g60
sg32
S'Blob'
p445
sg12
I144
sbasg12
I144
sg13
g60
sbsbasg12
Nsg13
Nsbsg31
Nsg12
Nsg29
S'ImageCapture'
p446
sg13
Nsbasg12
NsS'module'
p447
g1
(cmojom.parse.ast
Module
p448
g3
NtRp449
(dp450
S'mojom_namespace'
p451
(S'IDENTIFIER'
p452
S'media.mojom'
tp453
sg12
I5
sg31
Nsg13
g60
sbsg13
Nsb.