ccopy_reg
_reconstructor
p1
(cmojom.parse.ast
Mojom
p2
c__builtin__
object
p3
NtRp4
(dp5
S'import_list'
p6
g1
(cmojom.parse.ast
ImportList
p7
g3
NtRp8
(dp9
S'items'
p10
(lp11
sS'lineno'
p12
NsS'filename'
p13
NsbsS'definition_list'
p14
(lp15
g1
(cmojom.parse.ast
Struct
p16
g3
NtRp17
(dp18
S'body'
p19
g1
(cmojom.parse.ast
StructBody
p20
g3
NtRp21
(dp22
g10
(lp23
g1
(cmojom.parse.ast
StructField
p24
g3
NtRp25
(dp26
S'ordinal'
p27
NsS'default_value'
p28
NsS'mojom_name'
p29
S'x'
sS'attribute_list'
p30
Nsg13
NsS'typename'
p31
S'int32'
p32
sg12
Nsbag1
(g24
g3
NtRp33
(dp34
g27
Nsg28
Nsg29
S'y'
sg30
Nsg13
Nsg31
S'int32'
p35
sg12
Nsbasg12
Nsg13
Nsbsg30
Nsg12
Nsg29
S'Point'
p36
sg13
Nsbag1
(g16
g3
NtRp37
(dp38
g19
g1
(g20
g3
NtRp39
(dp40
g10
(lp41
g1
(g24
g3
NtRp42
(dp43
g27
Nsg28
Nsg29
S'x'
sg30
Nsg13
Nsg31
S'float'
p44
sg12
Nsbag1
(g24
g3
NtRp45
(dp46
g27
Nsg28
Nsg29
S'y'
sg30
Nsg13
Nsg31
S'float'
p47
sg12
Nsbasg12
Nsg13
Nsbsg30
Nsg12
Nsg29
S'PointF'
p48
sg13
Nsbag1
(g16
g3
NtRp49
(dp50
g19
g1
(g20
g3
NtRp51
(dp52
g10
(lp53
g1
(g24
g3
NtRp54
(dp55
g27
Nsg28
Nsg29
S'x'
sg30
Nsg13
Nsg31
S'float'
p56
sg12
Nsbag1
(g24
g3
NtRp57
(dp58
g27
Nsg28
Nsg29
S'y'
sg30
Nsg13
Nsg31
S'float'
p59
sg12
Nsbag1
(g24
g3
NtRp60
(dp61
g27
Nsg28
Nsg29
S'z'
sg30
Nsg13
Nsg31
S'float'
p62
sg12
Nsbasg12
Nsg13
Nsbsg30
Nsg12
Nsg29
S'Point3F'
p63
sg13
Nsbag1
(g16
g3
NtRp64
(dp65
g19
g1
(g20
g3
NtRp66
(dp67
g10
(lp68
g1
(g24
g3
NtRp69
(dp70
g27
Nsg28
Nsg29
S'width'
p71
sg30
Nsg13
Nsg31
S'int32'
p72
sg12
Nsbag1
(g24
g3
NtRp73
(dp74
g27
Nsg28
Nsg29
S'height'
p75
sg30
Nsg13
Nsg31
S'int32'
p76
sg12
Nsbasg12
Nsg13
Nsbsg30
Nsg12
Nsg29
S'Size'
p77
sg13
Nsbag1
(g16
g3
NtRp78
(dp79
g19
g1
(g20
g3
NtRp80
(dp81
g10
(lp82
g1
(g24
g3
NtRp83
(dp84
g27
Nsg28
Nsg29
S'width'
p85
sg30
Nsg13
Nsg31
S'float'
p86
sg12
Nsbag1
(g24
g3
NtRp87
(dp88
g27
Nsg28
Nsg29
S'height'
p89
sg30
Nsg13
Nsg31
S'float'
p90
sg12
Nsbasg12
Nsg13
Nsbsg30
Nsg12
Nsg29
S'SizeF'
p91
sg13
Nsbag1
(g16
g3
NtRp92
(dp93
g19
g1
(g20
g3
NtRp94
(dp95
g10
(lp96
g1
(g24
g3
NtRp97
(dp98
g27
Nsg28
Nsg29
S'x'
sg30
Nsg13
Nsg31
S'int32'
p99
sg12
Nsbag1
(g24
g3
NtRp100
(dp101
g27
Nsg28
Nsg29
S'y'
sg30
Nsg13
Nsg31
S'int32'
p102
sg12
Nsbag1
(g24
g3
NtRp103
(dp104
g27
Nsg28
Nsg29
S'width'
p105
sg30
Nsg13
Nsg31
S'int32'
p106
sg12
Nsbag1
(g24
g3
NtRp107
(dp108
g27
Nsg28
Nsg29
S'height'
p109
sg30
Nsg13
Nsg31
S'int32'
p110
sg12
Nsbasg12
Nsg13
Nsbsg30
Nsg12
Nsg29
S'Rect'
p111
sg13
Nsbag1
(g16
g3
NtRp112
(dp113
g19
g1
(g20
g3
NtRp114
(dp115
g10
(lp116
g1
(g24
g3
NtRp117
(dp118
g27
Nsg28
Nsg29
S'x'
sg30
Nsg13
Nsg31
S'float'
p119
sg12
Nsbag1
(g24
g3
NtRp120
(dp121
g27
Nsg28
Nsg29
S'y'
sg30
Nsg13
Nsg31
S'float'
p122
sg12
Nsbag1
(g24
g3
NtRp123
(dp124
g27
Nsg28
Nsg29
S'width'
p125
sg30
Nsg13
Nsg31
S'float'
p126
sg12
Nsbag1
(g24
g3
NtRp127
(dp128
g27
Nsg28
Nsg29
S'height'
p129
sg30
Nsg13
Nsg31
S'float'
p130
sg12
Nsbasg12
Nsg13
Nsbsg30
Nsg12
Nsg29
S'RectF'
p131
sg13
Nsbag1
(g16
g3
NtRp132
(dp133
g19
g1
(g20
g3
NtRp134
(dp135
g10
(lp136
g1
(g24
g3
NtRp137
(dp138
g27
Nsg28
Nsg29
S'top'
p139
sg30
Nsg13
Nsg31
S'int32'
p140
sg12
Nsbag1
(g24
g3
NtRp141
(dp142
g27
Nsg28
Nsg29
S'left'
p143
sg30
Nsg13
Nsg31
S'int32'
p144
sg12
Nsbag1
(g24
g3
NtRp145
(dp146
g27
Nsg28
Nsg29
S'bottom'
p147
sg30
Nsg13
Nsg31
S'int32'
p148
sg12
Nsbag1
(g24
g3
NtRp149
(dp150
g27
Nsg28
Nsg29
S'right'
p151
sg30
Nsg13
Nsg31
S'int32'
p152
sg12
Nsbasg12
Nsg13
Nsbsg30
Nsg12
Nsg29
S'Insets'
p153
sg13
Nsbag1
(g16
g3
NtRp154
(dp155
g19
g1
(g20
g3
NtRp156
(dp157
g10
(lp158
g1
(g24
g3
NtRp159
(dp160
g27
Nsg28
Nsg29
S'top'
p161
sg30
Nsg13
Nsg31
S'float'
p162
sg12
Nsbag1
(g24
g3
NtRp163
(dp164
g27
Nsg28
Nsg29
S'left'
p165
sg30
Nsg13
Nsg31
S'float'
p166
sg12
Nsbag1
(g24
g3
NtRp167
(dp168
g27
Nsg28
Nsg29
S'bottom'
p169
sg30
Nsg13
Nsg31
S'float'
p170
sg12
Nsbag1
(g24
g3
NtRp171
(dp172
g27
Nsg28
Nsg29
S'right'
p173
sg30
Nsg13
Nsg31
S'float'
p174
sg12
Nsbasg12
Nsg13
Nsbsg30
Nsg12
Nsg29
S'InsetsF'
p175
sg13
Nsbag1
(g16
g3
NtRp176
(dp177
g19
g1
(g20
g3
NtRp178
(dp179
g10
(lp180
g1
(g24
g3
NtRp181
(dp182
g27
Nsg28
Nsg29
S'x'
sg30
Nsg13
Nsg31
S'int32'
p183
sg12
Nsbag1
(g24
g3
NtRp184
(dp185
g27
Nsg28
Nsg29
S'y'
sg30
Nsg13
Nsg31
S'int32'
p186
sg12
Nsbasg12
Nsg13
Nsbsg30
Nsg12
Nsg29
S'Vector2d'
p187
sg13
Nsbag1
(g16
g3
NtRp188
(dp189
g19
g1
(g20
g3
NtRp190
(dp191
g10
(lp192
g1
(g24
g3
NtRp193
(dp194
g27
Nsg28
Nsg29
S'x'
sg30
Nsg13
Nsg31
S'float'
p195
sg12
Nsbag1
(g24
g3
NtRp196
(dp197
g27
Nsg28
Nsg29
S'y'
sg30
Nsg13
Nsg31
S'float'
p198
sg12
Nsbasg12
Nsg13
Nsbsg30
Nsg12
Nsg29
S'Vector2dF'
p199
sg13
Nsbag1
(g16
g3
NtRp200
(dp201
g19
g1
(g20
g3
NtRp202
(dp203
g10
(lp204
g1
(g24
g3
NtRp205
(dp206
g27
Nsg28
Nsg29
S'x'
sg30
Nsg13
Nsg31
S'float'
p207
sg12
Nsbag1
(g24
g3
NtRp208
(dp209
g27
Nsg28
Nsg29
S'y'
sg30
Nsg13
Nsg31
S'float'
p210
sg12
Nsbag1
(g24
g3
NtRp211
(dp212
g27
Nsg28
Nsg29
S'z'
sg30
Nsg13
Nsg31
S'float'
p213
sg12
Nsbasg12
Nsg13
Nsbsg30
Nsg12
Nsg29
S'Vector3dF'
p214
sg13
Nsbag1
(g16
g3
NtRp215
(dp216
g19
g1
(g20
g3
NtRp217
(dp218
g10
(lp219
g1
(g24
g3
NtRp220
(dp221
g27
Nsg28
Nsg29
S'x'
sg30
Nsg13
Nsg31
S'float'
p222
sg12
Nsbag1
(g24
g3
NtRp223
(dp224
g27
Nsg28
Nsg29
S'y'
sg30
Nsg13
Nsg31
S'float'
p225
sg12
Nsbasg12
Nsg13
Nsbsg30
Nsg12
Nsg29
S'ScrollOffset'
p226
sg13
Nsbasg12
NsS'module'
p227
g1
(cmojom.parse.ast
Module
p228
g3
NtRp229
(dp230
S'mojom_namespace'
p231
(S'IDENTIFIER'
p232
S'gfx.mojom'
tp233
sg12
I5
sg30
Nsg13
S'../../ui/gfx/geometry/mojo/geometry.mojom'
p234
sbsg13
Nsb.