ccopy_reg
_reconstructor
p1
(cmojom.parse.ast
Mojom
p2
c__builtin__
object
p3
NtRp4
(dp5
S'import_list'
p6
g1
(cmojom.parse.ast
ImportList
p7
g3
NtRp8
(dp9
S'items'
p10
(lp11
g1
(cmojom.parse.ast
Import
p12
g3
NtRp13
(dp14
S'attribute_list'
p15
NsS'lineno'
p16
I7
sS'import_filename'
p17
S'gpu/ipc/common/context_result.mojom'
p18
sS'filename'
p19
S'../../services/viz/privileged/interfaces/compositing/display_private.mojom'
p20
sbag1
(g12
g3
NtRp21
(dp22
g15
Nsg16
I8
sg17
S'mojo/public/mojom/base/time.mojom'
p23
sg19
g20
sbag1
(g12
g3
NtRp24
(dp25
g15
Nsg16
I9
sg17
S'ui/gfx/mojo/ca_layer_params.mojom'
p26
sg19
g20
sbag1
(g12
g3
NtRp27
(dp28
g15
Nsg16
I10
sg17
S'ui/gfx/mojo/color_space.mojom'
p29
sg19
g20
sbag1
(g12
g3
NtRp30
(dp31
g15
Nsg16
I11
sg17
S'ui/gfx/mojo/transform.mojom'
p32
sg19
g20
sbag1
(g12
g3
NtRp33
(dp34
g15
Nsg16
I12
sg17
S'ui/gfx/geometry/mojo/geometry.mojom'
p35
sg19
g20
sbag1
(g12
g3
NtRp36
(dp37
g15
Nsg16
I13
sg17
S'ui/latency/mojo/latency_info.mojom'
p38
sg19
g20
sbag1
(g12
g3
NtRp39
(dp40
g15
Nsg16
I14
sg17
S'services/viz/privileged/interfaces/compositing/layered_window_updater.mojom'
p41
sg19
g20
sbag1
(g12
g3
NtRp42
(dp43
g15
Nsg16
I15
sg17
S'services/viz/privileged/interfaces/compositing/vsync_parameter_observer.mojom'
p44
sg19
g20
sbasg16
I7
sg19
g20
sbsS'definition_list'
p45
(lp46
g1
(cmojom.parse.ast
Interface
p47
g3
NtRp48
(dp49
S'body'
p50
g1
(cmojom.parse.ast
InterfaceBody
p51
g3
NtRp52
(dp53
g10
(lp54
g1
(cmojom.parse.ast
Method
p55
g3
NtRp56
(dp57
S'ordinal'
p58
NsS'mojom_name'
p59
S'SetDisplayVisible'
p60
sS'parameter_list'
p61
g1
(cmojom.parse.ast
ParameterList
p62
g3
NtRp63
(dp64
g10
(lp65
g1
(cmojom.parse.ast
Parameter
p66
g3
NtRp67
(dp68
g58
Nsg59
S'visible'
p69
sg15
Nsg19
g20
sS'typename'
p70
S'bool'
p71
sg16
I21
sbasg16
I21
sg19
g20
sbsg15
Nsg19
Nsg16
NsS'response_parameter_list'
p72
Nsbag1
(g55
g3
NtRp73
(dp74
g58
Nsg59
S'DisableSwapUntilResize'
p75
sg61
g1
(g62
g3
NtRp76
(dp77
g10
(lp78
sg16
Nsg19
Nsbsg15
g1
(cmojom.parse.ast
AttributeList
p79
g3
NtRp80
(dp81
g10
(lp82
g1
(cmojom.parse.ast
Attribute
p83
g3
NtRp84
(dp85
S'value'
p86
I01
sg16
I25
sS'key'
p87
S'Sync'
p88
sg19
g20
sbasg16
I25
sg19
g20
sbsg19
Nsg16
Nsg72
g1
(g62
g3
NtRp89
(dp90
g10
(lp91
sg16
Nsg19
Nsbsbag1
(g55
g3
NtRp92
(dp93
g58
Nsg59
S'Resize'
p94
sg61
g1
(g62
g3
NtRp95
(dp96
g10
(lp97
g1
(g66
g3
NtRp98
(dp99
g58
Nsg59
S'size'
p100
sg15
Nsg19
g20
sg70
S'gfx.mojom.Size'
p101
sg16
I28
sbasg16
I28
sg19
g20
sbsg15
Nsg19
Nsg16
Nsg72
Nsbag1
(g55
g3
NtRp102
(dp103
g58
Nsg59
S'SetDisplayColorMatrix'
p104
sg61
g1
(g62
g3
NtRp105
(dp106
g10
(lp107
g1
(g66
g3
NtRp108
(dp109
g58
Nsg59
S'color_matrix'
p110
sg15
Nsg19
g20
sg70
S'gfx.mojom.Transform'
p111
sg16
I32
sbasg16
I32
sg19
g20
sbsg15
Nsg19
Nsg16
Nsg72
Nsbag1
(g55
g3
NtRp112
(dp113
g58
Nsg59
S'SetDisplayColorSpace'
p114
sg61
g1
(g62
g3
NtRp115
(dp116
g10
(lp117
g1
(g66
g3
NtRp118
(dp119
g58
Nsg59
S'blending_color_space'
p120
sg15
Nsg19
g20
sg70
S'gfx.mojom.ColorSpace'
p121
sg16
I34
sbag1
(g66
g3
NtRp122
(dp123
g58
Nsg59
S'device_color_space'
p124
sg15
Nsg19
g20
sg70
S'gfx.mojom.ColorSpace'
p125
sg16
I35
sbasg16
I34
sg19
g20
sbsg15
Nsg19
Nsg16
Nsg72
Nsbag1
(g55
g3
NtRp126
(dp127
g58
Nsg59
S'SetOutputIsSecure'
p128
sg61
g1
(g62
g3
NtRp129
(dp130
g10
(lp131
g1
(g66
g3
NtRp132
(dp133
g58
Nsg59
S'secure'
p134
sg15
Nsg19
g20
sg70
S'bool'
p135
sg16
I36
sbasg16
I36
sg19
g20
sbsg15
Nsg19
Nsg16
Nsg72
Nsbag1
(g55
g3
NtRp136
(dp137
g58
Nsg59
S'SetDisplayVSyncParameters'
p138
sg61
g1
(g62
g3
NtRp139
(dp140
g10
(lp141
g1
(g66
g3
NtRp142
(dp143
g58
Nsg59
S'timebase'
p144
sg15
Nsg19
g20
sg70
S'mojo_base.mojom.TimeTicks'
p145
sg16
I41
sbag1
(g66
g3
NtRp146
(dp147
g58
Nsg59
S'interval'
p148
sg15
Nsg19
g20
sg70
S'mojo_base.mojom.TimeDelta'
p149
sg16
I42
sbasg16
I41
sg19
g20
sbsg15
Nsg19
Nsg16
Nsg72
Nsbag1
(g55
g3
NtRp150
(dp151
g58
Nsg59
S'ForceImmediateDrawAndSwapIfPossible'
p152
sg61
g1
(g62
g3
NtRp153
(dp154
g10
(lp155
sg16
Nsg19
Nsbsg15
Nsg19
Nsg16
Nsg72
Nsbag1
(g55
g3
NtRp156
(dp157
g58
Nsg59
S'AddVSyncParameterObserver'
p158
sg61
g1
(g62
g3
NtRp159
(dp160
g10
(lp161
g1
(g66
g3
NtRp162
(dp163
g58
Nsg59
S'observer'
p164
sg15
Nsg19
g20
sg70
S'VSyncParameterObserver'
p165
sg16
I72
sbasg16
I72
sg19
g20
sbsg15
Nsg19
Nsg16
Nsg72
Nsbasg16
Nsg19
Nsbsg15
Nsg16
Nsg59
S'DisplayPrivate'
p166
sg19
Nsbag1
(g47
g3
NtRp167
(dp168
g50
g1
(g51
g3
NtRp169
(dp170
g10
(lp171
sg16
Nsg19
Nsbsg15
Nsg16
Nsg59
S'DisplayClient'
p172
sg19
Nsbasg16
NsS'module'
p173
g1
(cmojom.parse.ast
Module
p174
g3
NtRp175
(dp176
S'mojom_namespace'
p177
(S'IDENTIFIER'
p178
S'viz.mojom'
tp179
sg16
I5
sg15
Nsg19
g20
sbsg19
Nsb.