ccopy_reg
_reconstructor
p1
(cmojom.parse.ast
Mojom
p2
c__builtin__
object
p3
NtRp4
(dp5
S'import_list'
p6
g1
(cmojom.parse.ast
ImportList
p7
g3
NtRp8
(dp9
S'items'
p10
(lp11
g1
(cmojom.parse.ast
Import
p12
g3
NtRp13
(dp14
S'attribute_list'
p15
NsS'lineno'
p16
I7
sS'import_filename'
p17
S'services/viz/public/interfaces/compositing/begin_frame_args.mojom'
p18
sS'filename'
p19
S'../../services/viz/privileged/interfaces/compositing/external_begin_frame_controller.mojom'
p20
sbasg16
I7
sg19
g20
sbsS'definition_list'
p21
(lp22
g1
(cmojom.parse.ast
Interface
p23
g3
NtRp24
(dp25
S'body'
p26
g1
(cmojom.parse.ast
InterfaceBody
p27
g3
NtRp28
(dp29
g10
(lp30
g1
(cmojom.parse.ast
Method
p31
g3
NtRp32
(dp33
S'ordinal'
p34
NsS'mojom_name'
p35
S'IssueExternalBeginFrame'
p36
sS'parameter_list'
p37
g1
(cmojom.parse.ast
ParameterList
p38
g3
NtRp39
(dp40
g10
(lp41
g1
(cmojom.parse.ast
Parameter
p42
g3
NtRp43
(dp44
g34
Nsg35
S'args'
p45
sg15
Nsg19
g20
sS'typename'
p46
S'BeginFrameArgs'
p47
sg16
I12
sbasg16
I12
sg19
g20
sbsg15
Nsg19
Nsg16
NsS'response_parameter_list'
p48
Nsbasg16
Nsg19
Nsbsg15
Nsg16
Nsg35
S'ExternalBeginFrameController'
p49
sg19
Nsbag1
(g23
g3
NtRp50
(dp51
g26
g1
(g27
g3
NtRp52
(dp53
g10
(lp54
g1
(g31
g3
NtRp55
(dp56
g34
Nsg35
S'OnNeedsBeginFrames'
p57
sg37
g1
(g38
g3
NtRp58
(dp59
g10
(lp60
g1
(g42
g3
NtRp61
(dp62
g34
Nsg35
S'needs_begin_frames'
p63
sg15
Nsg19
g20
sg46
S'bool'
p64
sg16
I16
sbasg16
I16
sg19
g20
sbsg15
Nsg19
Nsg16
Nsg48
Nsbag1
(g31
g3
NtRp65
(dp66
g34
Nsg35
S'OnDisplayDidFinishFrame'
p67
sg37
g1
(g38
g3
NtRp68
(dp69
g10
(lp70
g1
(g42
g3
NtRp71
(dp72
g34
Nsg35
S'ack'
p73
sg15
Nsg19
g20
sg46
S'BeginFrameAck'
p74
sg16
I17
sbasg16
I17
sg19
g20
sbsg15
Nsg19
Nsg16
Nsg48
Nsbasg16
Nsg19
Nsbsg15
Nsg16
Nsg35
S'ExternalBeginFrameControllerClient'
p75
sg19
Nsbasg16
NsS'module'
p76
g1
(cmojom.parse.ast
Module
p77
g3
NtRp78
(dp79
S'mojom_namespace'
p80
(S'IDENTIFIER'
p81
S'viz.mojom'
tp82
sg16
I5
sg15
Nsg19
g20
sbsg19
Nsb.