ccopy_reg
_reconstructor
p1
(cmojom.parse.ast
Mojom
p2
c__builtin__
object
p3
NtRp4
(dp5
S'import_list'
p6
g1
(cmojom.parse.ast
ImportList
p7
g3
NtRp8
(dp9
S'items'
p10
(lp11
g1
(cmojom.parse.ast
Import
p12
g3
NtRp13
(dp14
S'attribute_list'
p15
NsS'lineno'
p16
I7
sS'import_filename'
p17
S'gpu/ipc/common/surface_handle.mojom'
p18
sS'filename'
p19
S'../../services/viz/privileged/interfaces/compositing/frame_sink_manager.mojom'
p20
sbag1
(g12
g3
NtRp21
(dp22
g15
Nsg16
I8
sg17
S'mojo/public/mojom/base/time.mojom'
p23
sg19
g20
sbag1
(g12
g3
NtRp24
(dp25
g15
Nsg16
I9
sg17
S'services/viz/privileged/interfaces/compositing/display_private.mojom'
p26
sg19
g20
sbag1
(g12
g3
NtRp27
(dp28
g15
Nsg16
I10
sg17
S'services/viz/privileged/interfaces/compositing/external_begin_frame_controller.mojom'
p29
sg19
g20
sbag1
(g12
g3
NtRp30
(dp31
g15
Nsg16
I11
sg17
S'services/viz/privileged/interfaces/compositing/frame_sink_video_capture.mojom'
p32
sg19
g20
sbag1
(g12
g3
NtRp33
(dp34
g15
Nsg16
I12
sg17
S'services/viz/privileged/interfaces/compositing/renderer_settings.mojom'
p35
sg19
g20
sbag1
(g12
g3
NtRp36
(dp37
g15
Nsg16
I13
sg17
S'services/viz/public/interfaces/compositing/compositor_frame_sink.mojom'
p38
sg19
g20
sbag1
(g12
g3
NtRp39
(dp40
g15
Nsg16
I14
sg17
S'services/viz/public/interfaces/compositing/copy_output_request.mojom'
p41
sg19
g20
sbag1
(g12
g3
NtRp42
(dp43
g15
Nsg16
I15
sg17
S'services/viz/public/interfaces/compositing/frame_sink_id.mojom'
p44
sg19
g20
sbag1
(g12
g3
NtRp45
(dp46
g15
Nsg16
I16
sg17
S'services/viz/public/interfaces/compositing/local_surface_id.mojom'
p47
sg19
g20
sbag1
(g12
g3
NtRp48
(dp49
g15
Nsg16
I17
sg17
S'services/viz/public/interfaces/compositing/surface_id.mojom'
p50
sg19
g20
sbag1
(g12
g3
NtRp51
(dp52
g15
Nsg16
I18
sg17
S'services/viz/public/interfaces/compositing/surface_info.mojom'
p53
sg19
g20
sbag1
(g12
g3
NtRp54
(dp55
g15
Nsg16
I19
sg17
S'services/viz/public/interfaces/hit_test/aggregated_hit_test_region.mojom'
p56
sg19
g20
sbag1
(g12
g3
NtRp57
(dp58
g15
Nsg16
I20
sg17
S'ui/gfx/geometry/mojo/geometry.mojom'
p59
sg19
g20
sbag1
(g12
g3
NtRp60
(dp61
g15
Nsg16
I21
sg17
S'services/viz/public/interfaces/compositing/video_detector_observer.mojom'
p62
sg19
g20
sbasg16
I7
sg19
g20
sbsS'definition_list'
p63
(lp64
g1
(cmojom.parse.ast
Struct
p65
g3
NtRp66
(dp67
S'body'
p68
g1
(cmojom.parse.ast
StructBody
p69
g3
NtRp70
(dp71
g10
(lp72
g1
(cmojom.parse.ast
StructField
p73
g3
NtRp74
(dp75
S'ordinal'
p76
NsS'default_value'
p77
NsS'mojom_name'
p78
S'frame_sink_id'
p79
sg15
Nsg19
NsS'typename'
p80
S'FrameSinkId'
p81
sg16
Nsbag1
(g73
g3
NtRp82
(dp83
g76
Nsg77
Nsg78
S'widget'
p84
sg15
Nsg19
Nsg80
S'gpu.mojom.SurfaceHandle'
p85
sg16
Nsbag1
(g73
g3
NtRp86
(dp87
g76
Nsg77
S'true'
p88
sg78
S'gpu_compositing'
p89
sg15
Nsg19
Nsg80
S'bool'
p90
sg16
Nsbag1
(g73
g3
NtRp91
(dp92
g76
Nsg77
Nsg78
S'renderer_settings'
p93
sg15
Nsg19
Nsg80
S'RendererSettings'
p94
sg16
Nsbag1
(g73
g3
NtRp95
(dp96
g76
Nsg77
S'false'
p97
sg78
S'send_swap_size_notifications'
p98
sg15
Nsg19
Nsg80
S'bool'
p99
sg16
Nsbag1
(g73
g3
NtRp100
(dp101
g76
Nsg77
S'false'
p102
sg78
S'disable_frame_rate_limit'
p103
sg15
Nsg19
Nsg80
S'bool'
p104
sg16
Nsbag1
(g73
g3
NtRp105
(dp106
g76
Nsg77
Nsg78
S'compositor_frame_sink'
p107
sg15
Nsg19
Nsg80
S'asso<CompositorFrameSink&>'
p108
sg16
Nsbag1
(g73
g3
NtRp109
(dp110
g76
Nsg77
Nsg78
S'compositor_frame_sink_client'
p111
sg15
Nsg19
Nsg80
S'CompositorFrameSinkClient'
p112
sg16
Nsbag1
(g73
g3
NtRp113
(dp114
g76
Nsg77
Nsg78
S'display_private'
p115
sg15
Nsg19
Nsg80
S'asso<DisplayPrivate&>'
p116
sg16
Nsbag1
(g73
g3
NtRp117
(dp118
g76
Nsg77
Nsg78
S'display_client'
p119
sg15
Nsg19
Nsg80
S'DisplayClient'
p120
sg16
Nsbag1
(g73
g3
NtRp121
(dp122
g76
Nsg77
Nsg78
S'external_begin_frame_controller'
p123
sg15
Nsg19
Nsg80
S'asso<ExternalBeginFrameController&>?'
p124
sg16
Nsbag1
(g73
g3
NtRp125
(dp126
g76
Nsg77
Nsg78
S'external_begin_frame_controller_client'
p127
sg15
Nsg19
Nsg80
S'ExternalBeginFrameControllerClient?'
p128
sg16
Nsbasg16
Nsg19
Nsbsg15
Nsg16
Nsg78
S'RootCompositorFrameSinkParams'
p129
sg19
Nsbag1
(cmojom.parse.ast
Interface
p130
g3
NtRp131
(dp132
g68
g1
(cmojom.parse.ast
InterfaceBody
p133
g3
NtRp134
(dp135
g10
(lp136
g1
(cmojom.parse.ast
Method
p137
g3
NtRp138
(dp139
g76
Nsg78
S'RegisterFrameSinkId'
p140
sS'parameter_list'
p141
g1
(cmojom.parse.ast
ParameterList
p142
g3
NtRp143
(dp144
g10
(lp145
g1
(cmojom.parse.ast
Parameter
p146
g3
NtRp147
(dp148
g76
Nsg78
S'frame_sink_id'
p149
sg15
Nsg19
g20
sg80
S'FrameSinkId'
p150
sg16
I65
sbag1
(g146
g3
NtRp151
(dp152
g76
Nsg78
S'report_activation'
p153
sg15
Nsg19
g20
sg80
S'bool'
p154
sg16
I65
sbasg16
I65
sg19
g20
sbsg15
Nsg19
Nsg16
NsS'response_parameter_list'
p155
Nsbag1
(g137
g3
NtRp156
(dp157
g76
Nsg78
S'InvalidateFrameSinkId'
p158
sg141
g1
(g142
g3
NtRp159
(dp160
g10
(lp161
g1
(g146
g3
NtRp162
(dp163
g76
Nsg78
S'frame_sink_id'
p164
sg15
Nsg19
g20
sg80
S'FrameSinkId'
p165
sg16
I71
sbasg16
I71
sg19
g20
sbsg15
Nsg19
Nsg16
Nsg155
Nsbag1
(g137
g3
NtRp166
(dp167
g76
Nsg78
S'EnableSynchronizationReporting'
p168
sg141
g1
(g142
g3
NtRp169
(dp170
g10
(lp171
g1
(g146
g3
NtRp172
(dp173
g76
Nsg78
S'frame_sink_id'
p174
sg15
Nsg19
g20
sg80
S'FrameSinkId'
p175
sg16
I78
sbag1
(g146
g3
NtRp176
(dp177
g76
Nsg78
S'reporting_label'
p178
sg15
Nsg19
g20
sg80
S'string'
p179
sg16
I79
sbasg16
I78
sg19
g20
sbsg15
Nsg19
Nsg16
Nsg155
Nsbag1
(g137
g3
NtRp180
(dp181
g76
Nsg78
S'SetFrameSinkDebugLabel'
p182
sg141
g1
(g142
g3
NtRp183
(dp184
g10
(lp185
g1
(g146
g3
NtRp186
(dp187
g76
Nsg78
S'frame_sink_id'
p188
sg15
Nsg19
g20
sg80
S'FrameSinkId'
p189
sg16
I83
sbag1
(g146
g3
NtRp190
(dp191
g76
Nsg78
S'debug_label'
p192
sg15
Nsg19
g20
sg80
S'string'
p193
sg16
I83
sbasg16
I83
sg19
g20
sbsg15
Nsg19
Nsg16
Nsg155
Nsbag1
(g137
g3
NtRp194
(dp195
g76
Nsg78
S'CreateRootCompositorFrameSink'
p196
sg141
g1
(g142
g3
NtRp197
(dp198
g10
(lp199
g1
(g146
g3
NtRp200
(dp201
g76
Nsg78
S'params'
p202
sg15
Nsg19
g20
sg80
S'RootCompositorFrameSinkParams'
p203
sg16
I94
sbasg16
I94
sg19
g20
sbsg15
Nsg19
Nsg16
Nsg155
Nsbag1
(g137
g3
NtRp204
(dp205
g76
Nsg78
S'CreateCompositorFrameSink'
p206
sg141
g1
(g142
g3
NtRp207
(dp208
g10
(lp209
g1
(g146
g3
NtRp210
(dp211
g76
Nsg78
S'frame_sink_id'
p212
sg15
Nsg19
g20
sg80
S'FrameSinkId'
p213
sg16
I100
sbag1
(g146
g3
NtRp214
(dp215
g76
Nsg78
S'compositor_frame_sink'
p216
sg15
Nsg19
g20
sg80
S'CompositorFrameSink&'
p217
sg16
I101
sbag1
(g146
g3
NtRp218
(dp219
g76
Nsg78
S'compositor_frame_sink_client'
p220
sg15
Nsg19
g20
sg80
S'CompositorFrameSinkClient'
p221
sg16
I102
sbasg16
I100
sg19
g20
sbsg15
Nsg19
Nsg16
Nsg155
Nsbag1
(g137
g3
NtRp222
(dp223
g76
Nsg78
S'DestroyCompositorFrameSink'
p224
sg141
g1
(g142
g3
NtRp225
(dp226
g10
(lp227
g1
(g146
g3
NtRp228
(dp229
g76
Nsg78
S'frame_sink_id'
p230
sg15
Nsg19
g20
sg80
S'FrameSinkId'
p231
sg16
I109
sbasg16
I109
sg19
g20
sbsg15
g1
(cmojom.parse.ast
AttributeList
p232
g3
NtRp233
(dp234
g10
(lp235
g1
(cmojom.parse.ast
Attribute
p236
g3
NtRp237
(dp238
S'value'
p239
I01
sg16
I108
sS'key'
p240
S'Sync'
p241
sg19
g20
sbasg16
I108
sg19
g20
sbsg19
Nsg16
Nsg155
g1
(g142
g3
NtRp242
(dp243
g10
(lp244
sg16
Nsg19
Nsbsbag1
(g137
g3
NtRp245
(dp246
g76
Nsg78
S'RegisterFrameSinkHierarchy'
p247
sg141
g1
(g142
g3
NtRp248
(dp249
g10
(lp250
g1
(g146
g3
NtRp251
(dp252
g76
Nsg78
S'parent_frame_sink_id'
p253
sg15
Nsg19
g20
sg80
S'FrameSinkId'
p254
sg16
I114
sbag1
(g146
g3
NtRp255
(dp256
g76
Nsg78
S'child_frame_sink_id'
p257
sg15
Nsg19
g20
sg80
S'FrameSinkId'
p258
sg16
I115
sbasg16
I114
sg19
g20
sbsg15
Nsg19
Nsg16
Nsg155
Nsbag1
(g137
g3
NtRp259
(dp260
g76
Nsg78
S'UnregisterFrameSinkHierarchy'
p261
sg141
g1
(g142
g3
NtRp262
(dp263
g10
(lp264
g1
(g146
g3
NtRp265
(dp266
g76
Nsg78
S'parent_frame_sink_id'
p267
sg15
Nsg19
g20
sg80
S'FrameSinkId'
p268
sg16
I118
sbag1
(g146
g3
NtRp269
(dp270
g76
Nsg78
S'child_frame_sink_id'
p271
sg15
Nsg19
g20
sg80
S'FrameSinkId'
p272
sg16
I119
sbasg16
I118
sg19
g20
sbsg15
Nsg19
Nsg16
Nsg155
Nsbag1
(g137
g3
NtRp273
(dp274
g76
Nsg78
S'AddVideoDetectorObserver'
p275
sg141
g1
(g142
g3
NtRp276
(dp277
g10
(lp278
g1
(g146
g3
NtRp279
(dp280
g76
Nsg78
S'observer'
p281
sg15
Nsg19
g20
sg80
S'VideoDetectorObserver'
p282
sg16
I123
sbasg16
I123
sg19
g20
sbsg15
Nsg19
Nsg16
Nsg155
Nsbag1
(g137
g3
NtRp283
(dp284
g76
Nsg78
S'CreateVideoCapturer'
p285
sg141
g1
(g142
g3
NtRp286
(dp287
g10
(lp288
g1
(g146
g3
NtRp289
(dp290
g76
Nsg78
S'request'
p291
sg15
Nsg19
g20
sg80
S'FrameSinkVideoCapturer&'
p292
sg16
I126
sbasg16
I126
sg19
g20
sbsg15
Nsg19
Nsg16
Nsg155
Nsbag1
(g137
g3
NtRp293
(dp294
g76
Nsg78
S'EvictSurfaces'
p295
sg141
g1
(g142
g3
NtRp296
(dp297
g10
(lp298
g1
(g146
g3
NtRp299
(dp300
g76
Nsg78
S'surface_ids'
p301
sg15
Nsg19
g20
sg80
S'SurfaceId[]'
p302
sg16
I129
sbasg16
I129
sg19
g20
sbsg15
Nsg19
Nsg16
Nsg155
Nsbag1
(g137
g3
NtRp303
(dp304
g76
Nsg78
S'RequestCopyOfOutput'
p305
sg141
g1
(g142
g3
NtRp306
(dp307
g10
(lp308
g1
(g146
g3
NtRp309
(dp310
g76
Nsg78
S'surface_id'
p311
sg15
Nsg19
g20
sg80
S'SurfaceId'
p312
sg16
I134
sbag1
(g146
g3
NtRp313
(dp314
g76
Nsg78
S'request'
p315
sg15
Nsg19
g20
sg80
S'CopyOutputRequest'
p316
sg16
I134
sbasg16
I134
sg19
g20
sbsg15
Nsg19
Nsg16
Nsg155
Nsbag1
(g137
g3
NtRp317
(dp318
g76
Nsg78
S'SetHitTestAsyncQueriedDebugRegions'
p319
sg141
g1
(g142
g3
NtRp320
(dp321
g10
(lp322
g1
(g146
g3
NtRp323
(dp324
g76
Nsg78
S'root_frame_sink_id'
p325
sg15
Nsg19
g20
sg80
S'FrameSinkId'
p326
sg16
I140
sbag1
(g146
g3
NtRp327
(dp328
g76
Nsg78
S'hit_test_async_queried_debug_queue'
p329
sg15
Nsg19
g20
sg80
S'FrameSinkId[]'
p330
sg16
I141
sbasg16
I140
sg19
g20
sbsg15
Nsg19
Nsg16
Nsg155
Nsbasg16
Nsg19
Nsbsg15
Nsg16
Nsg78
S'FrameSinkManager'
p331
sg19
Nsbag1
(g130
g3
NtRp332
(dp333
g68
g1
(g133
g3
NtRp334
(dp335
g10
(lp336
g1
(g137
g3
NtRp337
(dp338
g76
Nsg78
S'OnFirstSurfaceActivation'
p339
sg141
g1
(g142
g3
NtRp340
(dp341
g10
(lp342
g1
(g146
g3
NtRp343
(dp344
g76
Nsg78
S'surface_info'
p345
sg15
Nsg19
g20
sg80
S'SurfaceInfo'
p346
sg16
I151
sbasg16
I151
sg19
g20
sbsg15
Nsg19
Nsg16
Nsg155
Nsbag1
(g137
g3
NtRp347
(dp348
g76
Nsg78
S'OnAggregatedHitTestRegionListUpdated'
p349
sg141
g1
(g142
g3
NtRp350
(dp351
g10
(lp352
g1
(g146
g3
NtRp353
(dp354
g76
Nsg78
S'frame_sink_id'
p355
sg15
Nsg19
g20
sg80
S'FrameSinkId'
p356
sg16
I155
sbag1
(g146
g3
NtRp357
(dp358
g76
Nsg78
S'hit_test_data'
p359
sg15
Nsg19
g20
sg80
S'AggregatedHitTestRegion[]'
p360
sg16
I155
sbasg16
I155
sg19
g20
sbsg15
Nsg19
Nsg16
Nsg155
Nsbag1
(g137
g3
NtRp361
(dp362
g76
Nsg78
S'OnFrameTokenChanged'
p363
sg141
g1
(g142
g3
NtRp364
(dp365
g10
(lp366
g1
(g146
g3
NtRp367
(dp368
g76
Nsg78
S'frame_sink_id'
p369
sg15
Nsg19
g20
sg80
S'FrameSinkId'
p370
sg16
I159
sbag1
(g146
g3
NtRp371
(dp372
g76
Nsg78
S'frame_token'
p373
sg15
Nsg19
g20
sg80
S'uint32'
p374
sg16
I159
sbasg16
I159
sg19
g20
sbsg15
Nsg19
Nsg16
Nsg155
Nsbasg16
Nsg19
Nsbsg15
Nsg16
Nsg78
S'FrameSinkManagerClient'
p375
sg19
Nsbasg16
NsS'module'
p376
g1
(cmojom.parse.ast
Module
p377
g3
NtRp378
(dp379
S'mojom_namespace'
p380
(S'IDENTIFIER'
p381
S'viz.mojom'
tp382
sg16
I5
sg15
Nsg19
g20
sbsg19
Nsb.