ccopy_reg
_reconstructor
p1
(cmojom.parse.ast
Mojom
p2
c__builtin__
object
p3
NtRp4
(dp5
S'import_list'
p6
g1
(cmojom.parse.ast
ImportList
p7
g3
NtRp8
(dp9
S'items'
p10
(lp11
g1
(cmojom.parse.ast
Import
p12
g3
NtRp13
(dp14
S'attribute_list'
p15
NsS'lineno'
p16
I7
sS'import_filename'
p17
S'media/capture/mojom/video_capture_types.mojom'
p18
sS'filename'
p19
S'../../services/viz/privileged/interfaces/compositing/frame_sink_video_capture.mojom'
p20
sbag1
(g12
g3
NtRp21
(dp22
g15
Nsg16
I8
sg17
S'media/mojo/interfaces/media_types.mojom'
p23
sg19
g20
sbag1
(g12
g3
NtRp24
(dp25
g15
Nsg16
I9
sg17
S'mojo/public/mojom/base/time.mojom'
p26
sg19
g20
sbag1
(g12
g3
NtRp27
(dp28
g15
Nsg16
I10
sg17
S'mojo/public/mojom/base/shared_memory.mojom'
p29
sg19
g20
sbag1
(g12
g3
NtRp30
(dp31
g15
Nsg16
I11
sg17
S'services/viz/public/interfaces/compositing/frame_sink_id.mojom'
p32
sg19
g20
sbag1
(g12
g3
NtRp33
(dp34
g15
Nsg16
I12
sg17
S'skia/public/interfaces/bitmap.mojom'
p35
sg19
g20
sbag1
(g12
g3
NtRp36
(dp37
g15
Nsg16
I13
sg17
S'ui/gfx/geometry/mojo/geometry.mojom'
p38
sg19
g20
sbag1
(g12
g3
NtRp39
(dp40
g15
Nsg16
I14
sg17
S'ui/gfx/mojo/color_space.mojom'
p41
sg19
g20
sbasg16
I7
sg19
g20
sbsS'definition_list'
p42
(lp43
g1
(cmojom.parse.ast
Interface
p44
g3
NtRp45
(dp46
S'body'
p47
g1
(cmojom.parse.ast
InterfaceBody
p48
g3
NtRp49
(dp50
g10
(lp51
g1
(cmojom.parse.ast
Method
p52
g3
NtRp53
(dp54
S'ordinal'
p55
NsS'mojom_name'
p56
S'Done'
p57
sS'parameter_list'
p58
g1
(cmojom.parse.ast
ParameterList
p59
g3
NtRp60
(dp61
g10
(lp62
sg16
Nsg19
Nsbsg15
Nsg19
Nsg16
NsS'response_parameter_list'
p63
Nsbag1
(g52
g3
NtRp64
(dp65
g55
Nsg56
S'ProvideFeedback'
p66
sg58
g1
(g59
g3
NtRp67
(dp68
g10
(lp69
g1
(cmojom.parse.ast
Parameter
p70
g3
NtRp71
(dp72
g55
Nsg56
S'utilization'
p73
sg15
Nsg19
g20
sS'typename'
p74
S'double'
p75
sg16
I29
sbasg16
I29
sg19
g20
sbsg15
Nsg19
Nsg16
Nsg63
Nsbasg16
Nsg19
Nsbsg15
Nsg16
Nsg56
S'FrameSinkVideoConsumerFrameCallbacks'
p76
sg19
Nsbag1
(g44
g3
NtRp77
(dp78
g47
g1
(g48
g3
NtRp79
(dp80
g10
(lp81
g1
(g52
g3
NtRp82
(dp83
g55
Nsg56
S'OnFrameCaptured'
p84
sg58
g1
(g59
g3
NtRp85
(dp86
g10
(lp87
g1
(g70
g3
NtRp88
(dp89
g55
Nsg56
S'data'
p90
sg15
Nsg19
g20
sg74
S'mojo_base.mojom.ReadOnlySharedMemoryRegion'
p91
sg16
I46
sbag1
(g70
g3
NtRp92
(dp93
g55
Nsg56
S'info'
p94
sg15
Nsg19
g20
sg74
S'media.mojom.VideoFrameInfo'
p95
sg16
I47
sbag1
(g70
g3
NtRp96
(dp97
g55
Nsg56
S'content_rect'
p98
sg15
Nsg19
g20
sg74
S'gfx.mojom.Rect'
p99
sg16
I48
sbag1
(g70
g3
NtRp100
(dp101
g55
Nsg56
S'callbacks'
p102
sg15
Nsg19
g20
sg74
S'FrameSinkVideoConsumerFrameCallbacks'
p103
sg16
I49
sbasg16
I46
sg19
g20
sbsg15
Nsg19
Nsg16
Nsg63
Nsbag1
(g52
g3
NtRp104
(dp105
g55
Nsg56
S'OnStopped'
p106
sg58
g1
(g59
g3
NtRp107
(dp108
g10
(lp109
sg16
Nsg19
Nsbsg15
Nsg19
Nsg16
Nsg63
Nsbasg16
Nsg19
Nsbsg15
Nsg16
Nsg56
S'FrameSinkVideoConsumer'
p110
sg19
Nsbag1
(g44
g3
NtRp111
(dp112
g47
g1
(g48
g3
NtRp113
(dp114
g10
(lp115
g1
(g52
g3
NtRp116
(dp117
g55
Nsg56
S'SetFormat'
p118
sg58
g1
(g59
g3
NtRp119
(dp120
g10
(lp121
g1
(g70
g3
NtRp122
(dp123
g55
Nsg56
S'format'
p124
sg15
Nsg19
g20
sg74
S'media.mojom.VideoPixelFormat'
p125
sg16
I75
sbag1
(g70
g3
NtRp126
(dp127
g55
Nsg56
S'color_space'
p128
sg15
Nsg19
g20
sg74
S'gfx.mojom.ColorSpace'
p129
sg16
I76
sbasg16
I75
sg19
g20
sbsg15
Nsg19
Nsg16
Nsg63
Nsbag1
(g52
g3
NtRp130
(dp131
g55
Nsg56
S'SetMinCapturePeriod'
p132
sg58
g1
(g59
g3
NtRp133
(dp134
g10
(lp135
g1
(g70
g3
NtRp136
(dp137
g55
Nsg56
S'min_period'
p138
sg15
Nsg19
g20
sg74
S'mojo_base.mojom.TimeDelta'
p139
sg16
I84
sbasg16
I84
sg19
g20
sbsg15
Nsg19
Nsg16
Nsg63
Nsbag1
(g52
g3
NtRp140
(dp141
g55
Nsg56
S'SetMinSizeChangePeriod'
p142
sg58
g1
(g59
g3
NtRp143
(dp144
g10
(lp145
g1
(g70
g3
NtRp146
(dp147
g55
Nsg56
S'min_period'
p148
sg15
Nsg19
g20
sg74
S'mojo_base.mojom.TimeDelta'
p149
sg16
I93
sbasg16
I93
sg19
g20
sbsg15
Nsg19
Nsg16
Nsg63
Nsbag1
(g52
g3
NtRp150
(dp151
g55
Nsg56
S'SetResolutionConstraints'
p152
sg58
g1
(g59
g3
NtRp153
(dp154
g10
(lp155
g1
(g70
g3
NtRp156
(dp157
g55
Nsg56
S'min_size'
p158
sg15
Nsg19
g20
sg74
S'gfx.mojom.Size'
p159
sg16
I106
sbag1
(g70
g3
NtRp160
(dp161
g55
Nsg56
S'max_size'
p162
sg15
Nsg19
g20
sg74
S'gfx.mojom.Size'
p163
sg16
I106
sbag1
(g70
g3
NtRp164
(dp165
g55
Nsg56
S'use_fixed_aspect_ratio'
p166
sg15
Nsg19
g20
sg74
S'bool'
p167
sg16
I107
sbasg16
I106
sg19
g20
sbsg15
Nsg19
Nsg16
Nsg63
Nsbag1
(g52
g3
NtRp168
(dp169
g55
Nsg56
S'SetAutoThrottlingEnabled'
p170
sg58
g1
(g59
g3
NtRp171
(dp172
g10
(lp173
g1
(g70
g3
NtRp174
(dp175
g55
Nsg56
S'enabled'
p176
sg15
Nsg19
g20
sg74
S'bool'
p177
sg16
I116
sbasg16
I116
sg19
g20
sbsg15
Nsg19
Nsg16
Nsg63
Nsbag1
(g52
g3
NtRp178
(dp179
g55
Nsg56
S'ChangeTarget'
p180
sg58
g1
(g59
g3
NtRp181
(dp182
g10
(lp183
g1
(g70
g3
NtRp184
(dp185
g55
Nsg56
S'frame_sink_id'
p186
sg15
Nsg19
g20
sg74
S'FrameSinkId?'
p187
sg16
I121
sbasg16
I121
sg19
g20
sbsg15
Nsg19
Nsg16
Nsg63
Nsbag1
(g52
g3
NtRp188
(dp189
g55
Nsg56
S'Start'
p190
sg58
g1
(g59
g3
NtRp191
(dp192
g10
(lp193
g1
(g70
g3
NtRp194
(dp195
g55
Nsg56
S'consumer'
p196
sg15
Nsg19
g20
sg74
S'FrameSinkVideoConsumer'
p197
sg16
I124
sbasg16
I124
sg19
g20
sbsg15
Nsg19
Nsg16
Nsg63
Nsbag1
(g52
g3
NtRp198
(dp199
g55
Nsg56
S'Stop'
p200
sg58
g1
(g59
g3
NtRp201
(dp202
g10
(lp203
sg16
Nsg19
Nsbsg15
Nsg19
Nsg16
Nsg63
Nsbag1
(g52
g3
NtRp204
(dp205
g55
Nsg56
S'RequestRefreshFrame'
p206
sg58
g1
(g59
g3
NtRp207
(dp208
g10
(lp209
sg16
Nsg19
Nsbsg15
Nsg19
Nsg16
Nsg63
Nsbag1
(g52
g3
NtRp210
(dp211
g55
Nsg56
S'CreateOverlay'
p212
sg58
g1
(g59
g3
NtRp213
(dp214
g10
(lp215
g1
(g70
g3
NtRp216
(dp217
g55
Nsg56
S'stacking_index'
p218
sg15
Nsg19
g20
sg74
S'int32'
p219
sg16
I141
sbag1
(g70
g3
NtRp220
(dp221
g55
Nsg56
S'request'
p222
sg15
Nsg19
g20
sg74
S'FrameSinkVideoCaptureOverlay&'
p223
sg16
I141
sbasg16
I141
sg19
g20
sbsg15
Nsg19
Nsg16
Nsg63
Nsbasg16
Nsg19
Nsbsg15
Nsg16
Nsg56
S'FrameSinkVideoCapturer'
p224
sg19
Nsbag1
(g44
g3
NtRp225
(dp226
g47
g1
(g48
g3
NtRp227
(dp228
g10
(lp229
g1
(g52
g3
NtRp230
(dp231
g55
Nsg56
S'SetImageAndBounds'
p232
sg58
g1
(g59
g3
NtRp233
(dp234
g10
(lp235
g1
(g70
g3
NtRp236
(dp237
g55
Nsg56
S'image'
p238
sg15
Nsg19
g20
sg74
S'skia.mojom.Bitmap'
p239
sg16
I154
sbag1
(g70
g3
NtRp240
(dp241
g55
Nsg56
S'bounds'
p242
sg15
Nsg19
g20
sg74
S'gfx.mojom.RectF'
p243
sg16
I154
sbasg16
I154
sg19
g20
sbsg15
Nsg19
Nsg16
Nsg63
Nsbag1
(g52
g3
NtRp244
(dp245
g55
Nsg56
S'SetBounds'
p246
sg58
g1
(g59
g3
NtRp247
(dp248
g10
(lp249
g1
(g70
g3
NtRp250
(dp251
g55
Nsg56
S'bounds'
p252
sg15
Nsg19
g20
sg74
S'gfx.mojom.RectF'
p253
sg16
I159
sbasg16
I159
sg19
g20
sbsg15
Nsg19
Nsg16
Nsg63
Nsbasg16
Nsg19
Nsbsg15
Nsg16
Nsg56
S'FrameSinkVideoCaptureOverlay'
p254
sg19
Nsbasg16
NsS'module'
p255
g1
(cmojom.parse.ast
Module
p256
g3
NtRp257
(dp258
S'mojom_namespace'
p259
(S'IDENTIFIER'
p260
S'viz.mojom'
tp261
sg16
I5
sg15
Nsg19
g20
sbsg19
Nsb.