ccopy_reg
_reconstructor
p1
(cmojom.parse.ast
Mojom
p2
c__builtin__
object
p3
NtRp4
(dp5
S'import_list'
p6
g1
(cmojom.parse.ast
ImportList
p7
g3
NtRp8
(dp9
S'items'
p10
(lp11
g1
(cmojom.parse.ast
Import
p12
g3
NtRp13
(dp14
S'attribute_list'
p15
NsS'lineno'
p16
I7
sS'import_filename'
p17
S'services/viz/privileged/interfaces/compositing/overlay_strategy.mojom'
p18
sS'filename'
p19
S'../../services/viz/privileged/interfaces/compositing/renderer_settings.mojom'
p20
sbag1
(g12
g3
NtRp21
(dp22
g15
Nsg16
I8
sg17
S'ui/gfx/geometry/mojo/geometry.mojom'
p23
sg19
g20
sbag1
(g12
g3
NtRp24
(dp25
g15
Nsg16
I9
sg17
S'ui/gfx/mojo/color_space.mojom'
p26
sg19
g20
sbasg16
I7
sg19
g20
sbsS'definition_list'
p27
(lp28
g1
(cmojom.parse.ast
Struct
p29
g3
NtRp30
(dp31
S'body'
p32
g1
(cmojom.parse.ast
StructBody
p33
g3
NtRp34
(dp35
g10
(lp36
g1
(cmojom.parse.ast
StructField
p37
g3
NtRp38
(dp39
S'ordinal'
p40
NsS'default_value'
p41
NsS'mojom_name'
p42
S'allow_antialiasing'
p43
sg15
Nsg19
NsS'typename'
p44
S'bool'
p45
sg16
Nsbag1
(g37
g3
NtRp46
(dp47
g40
Nsg41
Nsg42
S'finish_rendering_on_resize'
p48
sg15
Nsg19
Nsg44
S'bool'
p49
sg16
Nsbag1
(g37
g3
NtRp50
(dp51
g40
Nsg41
Nsg42
S'force_antialiasing'
p52
sg15
Nsg19
Nsg44
S'bool'
p53
sg16
Nsbag1
(g37
g3
NtRp54
(dp55
g40
Nsg41
Nsg42
S'force_blending_with_shaders'
p56
sg15
Nsg19
Nsg44
S'bool'
p57
sg16
Nsbag1
(g37
g3
NtRp58
(dp59
g40
Nsg41
Nsg42
S'tint_gl_composited_content'
p60
sg15
Nsg19
Nsg44
S'bool'
p61
sg16
Nsbag1
(g37
g3
NtRp62
(dp63
g40
Nsg41
Nsg42
S'highp_threshold_min'
p64
sg15
Nsg19
Nsg44
S'int32'
p65
sg16
Nsbag1
(g37
g3
NtRp66
(dp67
g40
Nsg41
Nsg42
S'partial_swap_enabled'
p68
sg15
Nsg19
Nsg44
S'bool'
p69
sg16
Nsbag1
(g37
g3
NtRp70
(dp71
g40
Nsg41
Nsg42
S'release_overlay_resources_after_gpu_query'
p72
sg15
Nsg19
Nsg44
S'bool'
p73
sg16
Nsbag1
(g37
g3
NtRp74
(dp75
g40
Nsg41
Nsg42
S'should_clear_root_render_pass'
p76
sg15
Nsg19
Nsg44
S'bool'
p77
sg16
Nsbag1
(g37
g3
NtRp78
(dp79
g40
Nsg41
Nsg42
S'show_overdraw_feedback'
p80
sg15
Nsg19
Nsg44
S'bool'
p81
sg16
Nsbag1
(g37
g3
NtRp82
(dp83
g40
Nsg41
Nsg42
S'slow_down_compositing_scale_factor'
p84
sg15
Nsg19
Nsg44
S'int32'
p85
sg16
Nsbag1
(g37
g3
NtRp86
(dp87
g40
Nsg41
Nsg42
S'use_skia_renderer'
p88
sg15
Nsg19
Nsg44
S'bool'
p89
sg16
Nsbag1
(g37
g3
NtRp90
(dp91
g40
Nsg41
Nsg42
S'use_skia_renderer_non_ddl'
p92
sg15
Nsg19
Nsg44
S'bool'
p93
sg16
Nsbag1
(g37
g3
NtRp94
(dp95
g40
Nsg41
Nsg42
S'record_sk_picture'
p96
sg15
Nsg19
Nsg44
S'bool'
p97
sg16
Nsbag1
(g37
g3
NtRp98
(dp99
g40
Nsg41
Nsg42
S'allow_overlays'
p100
sg15
Nsg19
Nsg44
S'bool'
p101
sg16
Nsbag1
(g37
g3
NtRp102
(dp103
g40
Nsg41
Nsg42
S'requires_alpha_channel'
p104
sg15
Nsg19
Nsg44
S'bool'
p105
sg16
Nsbasg16
Nsg19
Nsbsg15
Nsg16
Nsg42
S'RendererSettings'
p106
sg19
Nsbasg16
NsS'module'
p107
g1
(cmojom.parse.ast
Module
p108
g3
NtRp109
(dp110
S'mojom_namespace'
p111
(S'IDENTIFIER'
p112
S'viz.mojom'
tp113
sg16
I5
sg15
Nsg19
g20
sbsg19
Nsb.