ccopy_reg
_reconstructor
p1
(cmojom.parse.ast
Mojom
p2
c__builtin__
object
p3
NtRp4
(dp5
S'import_list'
p6
g1
(cmojom.parse.ast
ImportList
p7
g3
NtRp8
(dp9
S'items'
p10
(lp11
sS'lineno'
p12
NsS'filename'
p13
NsbsS'definition_list'
p14
(lp15
g1
(cmojom.parse.ast
Struct
p16
g3
NtRp17
(dp18
S'body'
p19
g1
(cmojom.parse.ast
StructBody
p20
g3
NtRp21
(dp22
g10
(lp23
g1
(cmojom.parse.ast
StructField
p24
g3
NtRp25
(dp26
S'ordinal'
p27
NsS'default_value'
p28
S'true'
p29
sS'mojom_name'
p30
S'charging'
p31
sS'attribute_list'
p32
Nsg13
NsS'typename'
p33
S'bool'
p34
sg12
Nsbag1
(g24
g3
NtRp35
(dp36
g27
Nsg28
S'0.0'
p37
sg30
S'charging_time'
p38
sg32
Nsg13
Nsg33
S'double'
p39
sg12
Nsbag1
(g24
g3
NtRp40
(dp41
g27
Nsg28
(S'IDENTIFIER'
p42
S'double.INFINITY'
tp43
sg30
S'discharging_time'
p44
sg32
Nsg13
Nsg33
S'double'
p45
sg12
Nsbag1
(g24
g3
NtRp46
(dp47
g27
Nsg28
S'1.0'
p48
sg30
S'level'
p49
sg32
Nsg13
Nsg33
S'double'
p50
sg12
Nsbasg12
Nsg13
Nsbsg32
Nsg12
Nsg30
S'BatteryStatus'
p51
sg13
Nsbasg12
NsS'module'
p52
g1
(cmojom.parse.ast
Module
p53
g3
NtRp54
(dp55
S'mojom_namespace'
p56
(g42
S'device.mojom'
tp57
sg12
I5
sg32
Nsg13
S'../../services/device/public/mojom/battery_status.mojom'
p58
sbsg13
Nsb.