ccopy_reg
_reconstructor
p1
(cmojom.parse.ast
Mojom
p2
c__builtin__
object
p3
NtRp4
(dp5
S'import_list'
p6
g1
(cmojom.parse.ast
ImportList
p7
g3
NtRp8
(dp9
S'items'
p10
(lp11
sS'lineno'
p12
NsS'filename'
p13
NsbsS'definition_list'
p14
(lp15
g1
(cmojom.parse.ast
Enum
p16
g3
NtRp17
(dp18
S'attribute_list'
p19
NsS'enum_value_list'
p20
g1
(cmojom.parse.ast
EnumValueList
p21
g3
NtRp22
(dp23
g10
(lp24
g1
(cmojom.parse.ast
EnumValue
p25
g3
NtRp26
(dp27
g19
NsS'value'
p28
S'0'
sg12
I10
sS'mojom_name'
p29
S'SUCCESS'
p30
sg13
S'../../services/device/public/mojom/fingerprint.mojom'
p31
sbag1
(g25
g3
NtRp32
(dp33
g19
Nsg28
S'1'
sg12
I11
sg29
S'PARTIAL'
p34
sg13
g31
sbag1
(g25
g3
NtRp35
(dp36
g19
Nsg28
S'2'
sg12
I12
sg29
S'INSUFFICIENT'
p37
sg13
g31
sbag1
(g25
g3
NtRp38
(dp39
g19
Nsg28
S'3'
sg12
I13
sg29
S'SENSOR_DIRTY'
p40
sg13
g31
sbag1
(g25
g3
NtRp41
(dp42
g19
Nsg28
S'4'
sg12
I14
sg29
S'TOO_SLOW'
p43
sg13
g31
sbag1
(g25
g3
NtRp44
(dp45
g19
Nsg28
S'5'
sg12
I15
sg29
S'TOO_FAST'
p46
sg13
g31
sbag1
(g25
g3
NtRp47
(dp48
g19
Nsg28
S'6'
sg12
I16
sg29
S'IMMOBILE'
p49
sg13
g31
sbasg12
I10
sg13
g31
sbsg12
I9
sg29
S'ScanResult'
p50
sg13
g31
sbag1
(g16
g3
NtRp51
(dp52
g19
Nsg20
g1
(g21
g3
NtRp53
(dp54
g10
(lp55
g1
(g25
g3
NtRp56
(dp57
g19
Nsg28
S'0'
sg12
I23
sg29
S'UNKNOWN'
p58
sg13
g31
sbag1
(g25
g3
NtRp59
(dp60
g19
Nsg28
S'1'
sg12
I24
sg29
S'FINGERPRINT'
p61
sg13
g31
sbasg12
I23
sg13
g31
sbsg12
I22
sg29
S'BiometricType'
p62
sg13
g31
sbag1
(cmojom.parse.ast
Interface
p63
g3
NtRp64
(dp65
S'body'
p66
g1
(cmojom.parse.ast
InterfaceBody
p67
g3
NtRp68
(dp69
g10
(lp70
g1
(cmojom.parse.ast
Method
p71
g3
NtRp72
(dp73
S'ordinal'
p74
Nsg29
S'OnRestarted'
p75
sS'parameter_list'
p76
g1
(cmojom.parse.ast
ParameterList
p77
g3
NtRp78
(dp79
g10
(lp80
sg12
Nsg13
Nsbsg19
Nsg13
Nsg12
NsS'response_parameter_list'
p81
Nsbag1
(g71
g3
NtRp82
(dp83
g74
Nsg29
S'OnEnrollScanDone'
p84
sg76
g1
(g77
g3
NtRp85
(dp86
g10
(lp87
g1
(cmojom.parse.ast
Parameter
p88
g3
NtRp89
(dp90
g74
Nsg29
S'scan_result'
p91
sg19
Nsg13
g31
sS'typename'
p92
S'ScanResult'
p93
sg12
I40
sbag1
(g88
g3
NtRp94
(dp95
g74
Nsg29
S'is_complete'
p96
sg19
Nsg13
g31
sg92
S'bool'
p97
sg12
I41
sbag1
(g88
g3
NtRp98
(dp99
g74
Nsg29
S'percent_complete'
p100
sg19
Nsg13
g31
sg92
S'int32'
p101
sg12
I42
sbasg12
I40
sg13
g31
sbsg19
Nsg13
Nsg12
Nsg81
Nsbag1
(g71
g3
NtRp102
(dp103
g74
Nsg29
S'OnAuthScanDone'
p104
sg76
g1
(g77
g3
NtRp105
(dp106
g10
(lp107
g1
(g88
g3
NtRp108
(dp109
g74
Nsg29
S'scan_result'
p110
sg19
Nsg13
g31
sg92
S'ScanResult'
p111
sg12
I47
sbag1
(g88
g3
NtRp112
(dp113
g74
Nsg29
S'matches'
p114
sg19
Nsg13
g31
sg92
S'string[]{string}'
p115
sg12
I47
sbasg12
I47
sg13
g31
sbsg19
Nsg13
Nsg12
Nsg81
Nsbag1
(g71
g3
NtRp116
(dp117
g74
Nsg29
S'OnSessionFailed'
p118
sg76
g1
(g77
g3
NtRp119
(dp120
g10
(lp121
sg12
Nsg13
Nsbsg19
Nsg13
Nsg12
Nsg81
Nsbasg12
Nsg13
Nsbsg19
Nsg12
Nsg29
S'FingerprintObserver'
p122
sg13
Nsbag1
(g63
g3
NtRp123
(dp124
g66
g1
(g67
g3
NtRp125
(dp126
g10
(lp127
g1
(g71
g3
NtRp128
(dp129
g74
Nsg29
S'GetRecordsForUser'
p130
sg76
g1
(g77
g3
NtRp131
(dp132
g10
(lp133
g1
(g88
g3
NtRp134
(dp135
g74
Nsg29
S'user_id'
p136
sg19
Nsg13
g31
sg92
S'string'
p137
sg12
I59
sbasg12
I59
sg13
g31
sbsg19
Nsg13
Nsg12
Nsg81
g1
(g77
g3
NtRp138
(dp139
g10
(lp140
g1
(g88
g3
NtRp141
(dp142
g74
Nsg29
S'records'
p143
sg19
Nsg13
g31
sg92
S'string{string}'
p144
sg12
I59
sbasg12
I59
sg13
g31
sbsbag1
(g71
g3
NtRp145
(dp146
g74
Nsg29
S'StartEnrollSession'
p147
sg76
g1
(g77
g3
NtRp148
(dp149
g10
(lp150
g1
(g88
g3
NtRp151
(dp152
g74
Nsg29
S'user_id'
p153
sg19
Nsg13
g31
sg92
S'string'
p154
sg12
I62
sbag1
(g88
g3
NtRp155
(dp156
g74
Nsg29
S'label'
p157
sg19
Nsg13
g31
sg92
S'string'
p158
sg12
I62
sbasg12
I62
sg13
g31
sbsg19
Nsg13
Nsg12
Nsg81
Nsbag1
(g71
g3
NtRp159
(dp160
g74
Nsg29
S'CancelCurrentEnrollSession'
p161
sg76
g1
(g77
g3
NtRp162
(dp163
g10
(lp164
sg12
Nsg13
Nsbsg19
Nsg13
Nsg12
Nsg81
g1
(g77
g3
NtRp165
(dp166
g10
(lp167
g1
(g88
g3
NtRp168
(dp169
g74
Nsg29
S'success'
p170
sg19
Nsg13
g31
sg92
S'bool'
p171
sg12
I65
sbasg12
I65
sg13
g31
sbsbag1
(g71
g3
NtRp172
(dp173
g74
Nsg29
S'RequestRecordLabel'
p174
sg76
g1
(g77
g3
NtRp175
(dp176
g10
(lp177
g1
(g88
g3
NtRp178
(dp179
g74
Nsg29
S'record_path'
p180
sg19
Nsg13
g31
sg92
S'string'
p181
sg12
I68
sbasg12
I68
sg13
g31
sbsg19
Nsg13
Nsg12
Nsg81
g1
(g77
g3
NtRp182
(dp183
g10
(lp184
g1
(g88
g3
NtRp185
(dp186
g74
Nsg29
S'label'
p187
sg19
Nsg13
g31
sg92
S'string'
p188
sg12
I68
sbasg12
I68
sg13
g31
sbsbag1
(g71
g3
NtRp189
(dp190
g74
Nsg29
S'SetRecordLabel'
p191
sg76
g1
(g77
g3
NtRp192
(dp193
g10
(lp194
g1
(g88
g3
NtRp195
(dp196
g74
Nsg29
S'record_path'
p197
sg19
Nsg13
g31
sg92
S'string'
p198
sg12
I71
sbag1
(g88
g3
NtRp199
(dp200
g74
Nsg29
S'new_label'
p201
sg19
Nsg13
g31
sg92
S'string'
p202
sg12
I71
sbasg12
I71
sg13
g31
sbsg19
Nsg13
Nsg12
Nsg81
g1
(g77
g3
NtRp203
(dp204
g10
(lp205
g1
(g88
g3
NtRp206
(dp207
g74
Nsg29
S'success'
p208
sg19
Nsg13
g31
sg92
S'bool'
p209
sg12
I71
sbasg12
I71
sg13
g31
sbsbag1
(g71
g3
NtRp210
(dp211
g74
Nsg29
S'RemoveRecord'
p212
sg76
g1
(g77
g3
NtRp213
(dp214
g10
(lp215
g1
(g88
g3
NtRp216
(dp217
g74
Nsg29
S'record_path'
p218
sg19
Nsg13
g31
sg92
S'string'
p219
sg12
I75
sbasg12
I75
sg13
g31
sbsg19
Nsg13
Nsg12
Nsg81
g1
(g77
g3
NtRp220
(dp221
g10
(lp222
g1
(g88
g3
NtRp223
(dp224
g74
Nsg29
S'success'
p225
sg19
Nsg13
g31
sg92
S'bool'
p226
sg12
I75
sbasg12
I75
sg13
g31
sbsbag1
(g71
g3
NtRp227
(dp228
g74
Nsg29
S'StartAuthSession'
p229
sg76
g1
(g77
g3
NtRp230
(dp231
g10
(lp232
sg12
Nsg13
Nsbsg19
Nsg13
Nsg12
Nsg81
Nsbag1
(g71
g3
NtRp233
(dp234
g74
Nsg29
S'EndCurrentAuthSession'
p235
sg76
g1
(g77
g3
NtRp236
(dp237
g10
(lp238
sg12
Nsg13
Nsbsg19
Nsg13
Nsg12
Nsg81
g1
(g77
g3
NtRp239
(dp240
g10
(lp241
g1
(g88
g3
NtRp242
(dp243
g74
Nsg29
S'success'
p244
sg19
Nsg13
g31
sg92
S'bool'
p245
sg12
I81
sbasg12
I81
sg13
g31
sbsbag1
(g71
g3
NtRp246
(dp247
g74
Nsg29
S'DestroyAllRecords'
p248
sg76
g1
(g77
g3
NtRp249
(dp250
g10
(lp251
sg12
Nsg13
Nsbsg19
Nsg13
Nsg12
Nsg81
g1
(g77
g3
NtRp252
(dp253
g10
(lp254
g1
(g88
g3
NtRp255
(dp256
g74
Nsg29
S'success'
p257
sg19
Nsg13
g31
sg92
S'bool'
p258
sg12
I84
sbasg12
I84
sg13
g31
sbsbag1
(g71
g3
NtRp259
(dp260
g74
Nsg29
S'AddFingerprintObserver'
p261
sg76
g1
(g77
g3
NtRp262
(dp263
g10
(lp264
g1
(g88
g3
NtRp265
(dp266
g74
Nsg29
S'observer'
p267
sg19
Nsg13
g31
sg92
S'FingerprintObserver'
p268
sg12
I87
sbasg12
I87
sg13
g31
sbsg19
Nsg13
Nsg12
Nsg81
Nsbag1
(g71
g3
NtRp269
(dp270
g74
Nsg29
S'RequestType'
p271
sg76
g1
(g77
g3
NtRp272
(dp273
g10
(lp274
sg12
Nsg13
Nsbsg19
Nsg13
Nsg12
Nsg81
g1
(g77
g3
NtRp275
(dp276
g10
(lp277
g1
(g88
g3
NtRp278
(dp279
g74
Nsg29
S'type'
p280
sg19
Nsg13
g31
sg92
S'BiometricType'
p281
sg12
I90
sbasg12
I90
sg13
g31
sbsbasg12
Nsg13
Nsbsg19
Nsg12
Nsg29
S'Fingerprint'
p282
sg13
Nsbasg12
NsS'module'
p283
g1
(cmojom.parse.ast
Module
p284
g3
NtRp285
(dp286
S'mojom_namespace'
p287
(S'IDENTIFIER'
p288
S'device.mojom'
tp289
sg12
I5
sg19
Nsg13
g31
sbsg13
Nsb.