ccopy_reg
_reconstructor
p1
(cmojom.parse.ast
Mojom
p2
c__builtin__
object
p3
NtRp4
(dp5
S'import_list'
p6
g1
(cmojom.parse.ast
ImportList
p7
g3
NtRp8
(dp9
S'items'
p10
(lp11
sS'lineno'
p12
NsS'filename'
p13
NsbsS'definition_list'
p14
(lp15
g1
(cmojom.parse.ast
Interface
p16
g3
NtRp17
(dp18
S'body'
p19
g1
(cmojom.parse.ast
InterfaceBody
p20
g3
NtRp21
(dp22
g10
(lp23
g1
(cmojom.parse.ast
Method
p24
g3
NtRp25
(dp26
S'ordinal'
p27
NsS'mojom_name'
p28
S'IsHighAccuracyLocationBeingCaptured'
p29
sS'parameter_list'
p30
g1
(cmojom.parse.ast
ParameterList
p31
g3
NtRp32
(dp33
g10
(lp34
sg12
Nsg13
NsbsS'attribute_list'
p35
Nsg13
Nsg12
NsS'response_parameter_list'
p36
g1
(g31
g3
NtRp37
(dp38
g10
(lp39
g1
(cmojom.parse.ast
Parameter
p40
g3
NtRp41
(dp42
g27
Nsg28
S'high_accuracy'
p43
sg35
Nsg13
S'../../services/device/public/mojom/geolocation_config.mojom'
p44
sS'typename'
p45
S'bool'
p46
sg12
I12
sbasg12
I12
sg13
g44
sbsbasg12
Nsg13
Nsbsg35
Nsg12
Nsg28
S'GeolocationConfig'
p47
sg13
Nsbasg12
NsS'module'
p48
g1
(cmojom.parse.ast
Module
p49
g3
NtRp50
(dp51
S'mojom_namespace'
p52
(S'IDENTIFIER'
p53
S'device.mojom'
tp54
sg12
I5
sg35
Nsg13
g44
sbsg13
Nsb.