ccopy_reg
_reconstructor
p1
(cmojom.parse.ast
Mojom
p2
c__builtin__
object
p3
NtRp4
(dp5
S'import_list'
p6
g1
(cmojom.parse.ast
ImportList
p7
g3
NtRp8
(dp9
S'items'
p10
(lp11
g1
(cmojom.parse.ast
Import
p12
g3
NtRp13
(dp14
S'attribute_list'
p15
NsS'lineno'
p16
I7
sS'import_filename'
p17
S'services/device/public/mojom/geolocation.mojom'
p18
sS'filename'
p19
S'../../services/device/public/mojom/geolocation_context.mojom'
p20
sbag1
(g12
g3
NtRp21
(dp22
g15
Nsg16
I8
sg17
S'services/device/public/mojom/geoposition.mojom'
p23
sg19
g20
sbasg16
I7
sg19
g20
sbsS'definition_list'
p24
(lp25
g1
(cmojom.parse.ast
Interface
p26
g3
NtRp27
(dp28
S'body'
p29
g1
(cmojom.parse.ast
InterfaceBody
p30
g3
NtRp31
(dp32
g10
(lp33
g1
(cmojom.parse.ast
Method
p34
g3
NtRp35
(dp36
S'ordinal'
p37
NsS'mojom_name'
p38
S'BindGeolocation'
p39
sS'parameter_list'
p40
g1
(cmojom.parse.ast
ParameterList
p41
g3
NtRp42
(dp43
g10
(lp44
g1
(cmojom.parse.ast
Parameter
p45
g3
NtRp46
(dp47
g37
Nsg38
S'request'
p48
sg15
Nsg19
g20
sS'typename'
p49
S'Geolocation&'
p50
sg16
I15
sbasg16
I15
sg19
g20
sbsg15
Nsg19
Nsg16
NsS'response_parameter_list'
p51
Nsbag1
(g34
g3
NtRp52
(dp53
g37
Nsg38
S'SetOverride'
p54
sg40
g1
(g41
g3
NtRp55
(dp56
g10
(lp57
g1
(g45
g3
NtRp58
(dp59
g37
Nsg38
S'geoposition'
p60
sg15
Nsg19
g20
sg49
S'Geoposition'
p61
sg16
I20
sbasg16
I20
sg19
g20
sbsg15
Nsg19
Nsg16
Nsg51
Nsbag1
(g34
g3
NtRp62
(dp63
g37
Nsg38
S'ClearOverride'
p64
sg40
g1
(g41
g3
NtRp65
(dp66
g10
(lp67
sg16
Nsg19
Nsbsg15
Nsg19
Nsg16
Nsg51
Nsbasg16
Nsg19
Nsbsg15
Nsg16
Nsg38
S'GeolocationContext'
p68
sg19
Nsbasg16
NsS'module'
p69
g1
(cmojom.parse.ast
Module
p70
g3
NtRp71
(dp72
S'mojom_namespace'
p73
(S'IDENTIFIER'
p74
S'device.mojom'
tp75
sg16
I5
sg15
Nsg19
g20
sbsg19
Nsb.