ccopy_reg
_reconstructor
p1
(cmojom.parse.ast
Mojom
p2
c__builtin__
object
p3
NtRp4
(dp5
S'import_list'
p6
g1
(cmojom.parse.ast
ImportList
p7
g3
NtRp8
(dp9
S'items'
p10
(lp11
sS'lineno'
p12
NsS'filename'
p13
NsbsS'definition_list'
p14
(lp15
g1
(cmojom.parse.ast
Enum
p16
g3
NtRp17
(dp18
S'attribute_list'
p19
NsS'enum_value_list'
p20
g1
(cmojom.parse.ast
EnumValueList
p21
g3
NtRp22
(dp23
g10
(lp24
g1
(cmojom.parse.ast
EnumValue
p25
g3
NtRp26
(dp27
g19
NsS'value'
p28
S'0'
sg12
I8
sS'mojom_name'
p29
S'kHIDBusTypeUSB'
p30
sg13
S'../../services/device/public/mojom/hid.mojom'
p31
sbag1
(g25
g3
NtRp32
(dp33
g19
Nsg28
S'1'
sg12
I9
sg29
S'kHIDBusTypeBluetooth'
p34
sg13
g31
sbasg12
I8
sg13
g31
sbsg12
I7
sg29
S'HidBusType'
p35
sg13
g31
sbag1
(cmojom.parse.ast
Const
p36
g3
NtRp37
(dp38
g29
S'kPageUndefined'
p39
sg19
Nsg28
S'0x00'
p40
sg13
NsS'typename'
p41
S'uint16'
p42
sg12
Nsbag1
(g36
g3
NtRp43
(dp44
g29
S'kPageGenericDesktop'
p45
sg19
Nsg28
S'0x01'
p46
sg13
Nsg41
S'uint16'
p47
sg12
Nsbag1
(g36
g3
NtRp48
(dp49
g29
S'kPageSimulation'
p50
sg19
Nsg28
S'0x02'
p51
sg13
Nsg41
S'uint16'
p52
sg12
Nsbag1
(g36
g3
NtRp53
(dp54
g29
S'kPageVirtualReality'
p55
sg19
Nsg28
S'0x03'
p56
sg13
Nsg41
S'uint16'
p57
sg12
Nsbag1
(g36
g3
NtRp58
(dp59
g29
S'kPageSport'
p60
sg19
Nsg28
S'0x04'
p61
sg13
Nsg41
S'uint16'
p62
sg12
Nsbag1
(g36
g3
NtRp63
(dp64
g29
S'kPageGame'
p65
sg19
Nsg28
S'0x05'
p66
sg13
Nsg41
S'uint16'
p67
sg12
Nsbag1
(g36
g3
NtRp68
(dp69
g29
S'kPageGenericDevice'
p70
sg19
Nsg28
S'0x06'
p71
sg13
Nsg41
S'uint16'
p72
sg12
Nsbag1
(g36
g3
NtRp73
(dp74
g29
S'kPageKeyboard'
p75
sg19
Nsg28
S'0x07'
p76
sg13
Nsg41
S'uint16'
p77
sg12
Nsbag1
(g36
g3
NtRp78
(dp79
g29
S'kPageLed'
p80
sg19
Nsg28
S'0x08'
p81
sg13
Nsg41
S'uint16'
p82
sg12
Nsbag1
(g36
g3
NtRp83
(dp84
g29
S'kPageButton'
p85
sg19
Nsg28
S'0x09'
p86
sg13
Nsg41
S'uint16'
p87
sg12
Nsbag1
(g36
g3
NtRp88
(dp89
g29
S'kPageOrdinal'
p90
sg19
Nsg28
S'0x0A'
p91
sg13
Nsg41
S'uint16'
p92
sg12
Nsbag1
(g36
g3
NtRp93
(dp94
g29
S'kPageTelephony'
p95
sg19
Nsg28
S'0x0B'
p96
sg13
Nsg41
S'uint16'
p97
sg12
Nsbag1
(g36
g3
NtRp98
(dp99
g29
S'kPageConsumer'
p100
sg19
Nsg28
S'0x0C'
p101
sg13
Nsg41
S'uint16'
p102
sg12
Nsbag1
(g36
g3
NtRp103
(dp104
g29
S'kPageDigitizer'
p105
sg19
Nsg28
S'0x0D'
p106
sg13
Nsg41
S'uint16'
p107
sg12
Nsbag1
(g36
g3
NtRp108
(dp109
g29
S'kPagePidPage'
p110
sg19
Nsg28
S'0x0F'
p111
sg13
Nsg41
S'uint16'
p112
sg12
Nsbag1
(g36
g3
NtRp113
(dp114
g29
S'kPageUnicode'
p115
sg19
Nsg28
S'0x10'
p116
sg13
Nsg41
S'uint16'
p117
sg12
Nsbag1
(g36
g3
NtRp118
(dp119
g29
S'kPageAlphanumericDisplay'
p120
sg19
Nsg28
S'0x14'
p121
sg13
Nsg41
S'uint16'
p122
sg12
Nsbag1
(g36
g3
NtRp123
(dp124
g29
S'kPageMedicalInstruments'
p125
sg19
Nsg28
S'0x40'
p126
sg13
Nsg41
S'uint16'
p127
sg12
Nsbag1
(g36
g3
NtRp128
(dp129
g29
S'kPageMonitor0'
p130
sg19
Nsg28
S'0x80'
p131
sg13
Nsg41
S'uint16'
p132
sg12
Nsbag1
(g36
g3
NtRp133
(dp134
g29
S'kPageMonitor1'
p135
sg19
Nsg28
S'0x81'
p136
sg13
Nsg41
S'uint16'
p137
sg12
Nsbag1
(g36
g3
NtRp138
(dp139
g29
S'kPageMonitor2'
p140
sg19
Nsg28
S'0x82'
p141
sg13
Nsg41
S'uint16'
p142
sg12
Nsbag1
(g36
g3
NtRp143
(dp144
g29
S'kPageMonitor3'
p145
sg19
Nsg28
S'0x83'
p146
sg13
Nsg41
S'uint16'
p147
sg12
Nsbag1
(g36
g3
NtRp148
(dp149
g29
S'kPagePower0'
p150
sg19
Nsg28
S'0x84'
p151
sg13
Nsg41
S'uint16'
p152
sg12
Nsbag1
(g36
g3
NtRp153
(dp154
g29
S'kPagePower1'
p155
sg19
Nsg28
S'0x85'
p156
sg13
Nsg41
S'uint16'
p157
sg12
Nsbag1
(g36
g3
NtRp158
(dp159
g29
S'kPagePower2'
p160
sg19
Nsg28
S'0x86'
p161
sg13
Nsg41
S'uint16'
p162
sg12
Nsbag1
(g36
g3
NtRp163
(dp164
g29
S'kPagePower3'
p165
sg19
Nsg28
S'0x87'
p166
sg13
Nsg41
S'uint16'
p167
sg12
Nsbag1
(g36
g3
NtRp168
(dp169
g29
S'kPageBarCodeScanner'
p170
sg19
Nsg28
S'0x8C'
p171
sg13
Nsg41
S'uint16'
p172
sg12
Nsbag1
(g36
g3
NtRp173
(dp174
g29
S'kPageScale'
p175
sg19
Nsg28
S'0x8D'
p176
sg13
Nsg41
S'uint16'
p177
sg12
Nsbag1
(g36
g3
NtRp178
(dp179
g29
S'kPageMagneticStripeReader'
p180
sg19
Nsg28
S'0x8E'
p181
sg13
Nsg41
S'uint16'
p182
sg12
Nsbag1
(g36
g3
NtRp183
(dp184
g29
S'kPageReservedPointOfSale'
p185
sg19
Nsg28
S'0x8F'
p186
sg13
Nsg41
S'uint16'
p187
sg12
Nsbag1
(g36
g3
NtRp188
(dp189
g29
S'kPageCameraControl'
p190
sg19
Nsg28
S'0x90'
p191
sg13
Nsg41
S'uint16'
p192
sg12
Nsbag1
(g36
g3
NtRp193
(dp194
g29
S'kPageArcade'
p195
sg19
Nsg28
S'0x91'
p196
sg13
Nsg41
S'uint16'
p197
sg12
Nsbag1
(g36
g3
NtRp198
(dp199
g29
S'kPageFido'
p200
sg19
Nsg28
S'0xF1D0'
p201
sg13
Nsg41
S'uint16'
p202
sg12
Nsbag1
(g36
g3
NtRp203
(dp204
g29
S'kPageVendor'
p205
sg19
Nsg28
S'0xFF00'
p206
sg13
Nsg41
S'uint16'
p207
sg12
Nsbag1
(g36
g3
NtRp208
(dp209
g29
S'kPageMediaCenter'
p210
sg19
Nsg28
S'0xFFBC'
p211
sg13
Nsg41
S'uint16'
p212
sg12
Nsbag1
(g36
g3
NtRp213
(dp214
g29
S'kGenericDesktopUndefined'
p215
sg19
Nsg28
S'0x00'
p216
sg13
Nsg41
S'uint16'
p217
sg12
Nsbag1
(g36
g3
NtRp218
(dp219
g29
S'kGenericDesktopPointer'
p220
sg19
Nsg28
S'0x01'
p221
sg13
Nsg41
S'uint16'
p222
sg12
Nsbag1
(g36
g3
NtRp223
(dp224
g29
S'kGenericDesktopMouse'
p225
sg19
Nsg28
S'0x02'
p226
sg13
Nsg41
S'uint16'
p227
sg12
Nsbag1
(g36
g3
NtRp228
(dp229
g29
S'kGenericDesktopJoystick'
p230
sg19
Nsg28
S'0x04'
p231
sg13
Nsg41
S'uint16'
p232
sg12
Nsbag1
(g36
g3
NtRp233
(dp234
g29
S'kGenericDesktopGamePad'
p235
sg19
Nsg28
S'0x05'
p236
sg13
Nsg41
S'uint16'
p237
sg12
Nsbag1
(g36
g3
NtRp238
(dp239
g29
S'kGenericDesktopKeyboard'
p240
sg19
Nsg28
S'0x06'
p241
sg13
Nsg41
S'uint16'
p242
sg12
Nsbag1
(g36
g3
NtRp243
(dp244
g29
S'kGenericDesktopKeypad'
p245
sg19
Nsg28
S'0x07'
p246
sg13
Nsg41
S'uint16'
p247
sg12
Nsbag1
(g36
g3
NtRp248
(dp249
g29
S'kGenericDesktopMultiAxisController'
p250
sg19
Nsg28
S'0x08'
p251
sg13
Nsg41
S'uint16'
p252
sg12
Nsbag1
(g36
g3
NtRp253
(dp254
g29
S'kGenericDesktopX'
p255
sg19
Nsg28
S'0x30'
p256
sg13
Nsg41
S'uint16'
p257
sg12
Nsbag1
(g36
g3
NtRp258
(dp259
g29
S'kGenericDesktopY'
p260
sg19
Nsg28
S'0x31'
p261
sg13
Nsg41
S'uint16'
p262
sg12
Nsbag1
(g36
g3
NtRp263
(dp264
g29
S'kGenericDesktopZ'
p265
sg19
Nsg28
S'0x32'
p266
sg13
Nsg41
S'uint16'
p267
sg12
Nsbag1
(g36
g3
NtRp268
(dp269
g29
S'kGenericDesktopRx'
p270
sg19
Nsg28
S'0x33'
p271
sg13
Nsg41
S'uint16'
p272
sg12
Nsbag1
(g36
g3
NtRp273
(dp274
g29
S'kGenericDesktopRy'
p275
sg19
Nsg28
S'0x34'
p276
sg13
Nsg41
S'uint16'
p277
sg12
Nsbag1
(g36
g3
NtRp278
(dp279
g29
S'kGenericDesktopRz'
p280
sg19
Nsg28
S'0x35'
p281
sg13
Nsg41
S'uint16'
p282
sg12
Nsbag1
(g36
g3
NtRp283
(dp284
g29
S'kGenericDesktopSlider'
p285
sg19
Nsg28
S'0x36'
p286
sg13
Nsg41
S'uint16'
p287
sg12
Nsbag1
(g36
g3
NtRp288
(dp289
g29
S'kGenericDesktopDial'
p290
sg19
Nsg28
S'0x37'
p291
sg13
Nsg41
S'uint16'
p292
sg12
Nsbag1
(g36
g3
NtRp293
(dp294
g29
S'kGenericDesktopWheel'
p295
sg19
Nsg28
S'0x38'
p296
sg13
Nsg41
S'uint16'
p297
sg12
Nsbag1
(g36
g3
NtRp298
(dp299
g29
S'kGenericDesktopHatSwitch'
p300
sg19
Nsg28
S'0x39'
p301
sg13
Nsg41
S'uint16'
p302
sg12
Nsbag1
(g36
g3
NtRp303
(dp304
g29
S'kGenericDesktopCountedBuffer'
p305
sg19
Nsg28
S'0x3a'
p306
sg13
Nsg41
S'uint16'
p307
sg12
Nsbag1
(g36
g3
NtRp308
(dp309
g29
S'kGenericDesktopByteCount'
p310
sg19
Nsg28
S'0x3b'
p311
sg13
Nsg41
S'uint16'
p312
sg12
Nsbag1
(g36
g3
NtRp313
(dp314
g29
S'kGenericDesktopMotionWakeup'
p315
sg19
Nsg28
S'0x3c'
p316
sg13
Nsg41
S'uint16'
p317
sg12
Nsbag1
(g36
g3
NtRp318
(dp319
g29
S'kGenericDesktopStart'
p320
sg19
Nsg28
S'0x3d'
p321
sg13
Nsg41
S'uint16'
p322
sg12
Nsbag1
(g36
g3
NtRp323
(dp324
g29
S'kGenericDesktopSelect'
p325
sg19
Nsg28
S'0x3e'
p326
sg13
Nsg41
S'uint16'
p327
sg12
Nsbag1
(g36
g3
NtRp328
(dp329
g29
S'kGenericDesktopVx'
p330
sg19
Nsg28
S'0x40'
p331
sg13
Nsg41
S'uint16'
p332
sg12
Nsbag1
(g36
g3
NtRp333
(dp334
g29
S'kGenericDesktopVy'
p335
sg19
Nsg28
S'0x41'
p336
sg13
Nsg41
S'uint16'
p337
sg12
Nsbag1
(g36
g3
NtRp338
(dp339
g29
S'kGenericDesktopVz'
p340
sg19
Nsg28
S'0x42'
p341
sg13
Nsg41
S'uint16'
p342
sg12
Nsbag1
(g36
g3
NtRp343
(dp344
g29
S'kGenericDesktopVbrx'
p345
sg19
Nsg28
S'0x43'
p346
sg13
Nsg41
S'uint16'
p347
sg12
Nsbag1
(g36
g3
NtRp348
(dp349
g29
S'kGenericDesktopVbry'
p350
sg19
Nsg28
S'0x44'
p351
sg13
Nsg41
S'uint16'
p352
sg12
Nsbag1
(g36
g3
NtRp353
(dp354
g29
S'kGenericDesktopVbrz'
p355
sg19
Nsg28
S'0x45'
p356
sg13
Nsg41
S'uint16'
p357
sg12
Nsbag1
(g36
g3
NtRp358
(dp359
g29
S'kGenericDesktopVno'
p360
sg19
Nsg28
S'0x46'
p361
sg13
Nsg41
S'uint16'
p362
sg12
Nsbag1
(g36
g3
NtRp363
(dp364
g29
S'kGenericDesktopSystemControl'
p365
sg19
Nsg28
S'0x80'
p366
sg13
Nsg41
S'uint16'
p367
sg12
Nsbag1
(g36
g3
NtRp368
(dp369
g29
S'kGenericDesktopSystemPowerDown'
p370
sg19
Nsg28
S'0x81'
p371
sg13
Nsg41
S'uint16'
p372
sg12
Nsbag1
(g36
g3
NtRp373
(dp374
g29
S'kGenericDesktopSystemSleep'
p375
sg19
Nsg28
S'0x82'
p376
sg13
Nsg41
S'uint16'
p377
sg12
Nsbag1
(g36
g3
NtRp378
(dp379
g29
S'kGenericDesktopSystemWakeUp'
p380
sg19
Nsg28
S'0x83'
p381
sg13
Nsg41
S'uint16'
p382
sg12
Nsbag1
(g36
g3
NtRp383
(dp384
g29
S'kGenericDesktopSystemContextMenu'
p385
sg19
Nsg28
S'0x84'
p386
sg13
Nsg41
S'uint16'
p387
sg12
Nsbag1
(g36
g3
NtRp388
(dp389
g29
S'kGenericDesktopSystemMainMenu'
p390
sg19
Nsg28
S'0x85'
p391
sg13
Nsg41
S'uint16'
p392
sg12
Nsbag1
(g36
g3
NtRp393
(dp394
g29
S'kGenericDesktopSystemAppMenu'
p395
sg19
Nsg28
S'0x86'
p396
sg13
Nsg41
S'uint16'
p397
sg12
Nsbag1
(g36
g3
NtRp398
(dp399
g29
S'kGenericDesktopSystemMenuHelp'
p400
sg19
Nsg28
S'0x87'
p401
sg13
Nsg41
S'uint16'
p402
sg12
Nsbag1
(g36
g3
NtRp403
(dp404
g29
S'kGenericDesktopSystemMenuExit'
p405
sg19
Nsg28
S'0x88'
p406
sg13
Nsg41
S'uint16'
p407
sg12
Nsbag1
(g36
g3
NtRp408
(dp409
g29
S'kGenericDesktopSystemMenuSelect'
p410
sg19
Nsg28
S'0x89'
p411
sg13
Nsg41
S'uint16'
p412
sg12
Nsbag1
(g36
g3
NtRp413
(dp414
g29
S'kGenericDesktopSystemMenuRight'
p415
sg19
Nsg28
S'0x8a'
p416
sg13
Nsg41
S'uint16'
p417
sg12
Nsbag1
(g36
g3
NtRp418
(dp419
g29
S'kGenericDesktopSystemMenuLeft'
p420
sg19
Nsg28
S'0x8b'
p421
sg13
Nsg41
S'uint16'
p422
sg12
Nsbag1
(g36
g3
NtRp423
(dp424
g29
S'kGenericDesktopSystemMenuUp'
p425
sg19
Nsg28
S'0x8c'
p426
sg13
Nsg41
S'uint16'
p427
sg12
Nsbag1
(g36
g3
NtRp428
(dp429
g29
S'kGenericDesktopSystemMenuDown'
p430
sg19
Nsg28
S'0x8d'
p431
sg13
Nsg41
S'uint16'
p432
sg12
Nsbag1
(g36
g3
NtRp433
(dp434
g29
S'kGenericDesktopSystemColdRestart'
p435
sg19
Nsg28
S'0x8e'
p436
sg13
Nsg41
S'uint16'
p437
sg12
Nsbag1
(g36
g3
NtRp438
(dp439
g29
S'kGenericDesktopSystemWarmRestart'
p440
sg19
Nsg28
S'0x8f'
p441
sg13
Nsg41
S'uint16'
p442
sg12
Nsbag1
(g36
g3
NtRp443
(dp444
g29
S'kGenericDesktopDPadUp'
p445
sg19
Nsg28
S'0x90'
p446
sg13
Nsg41
S'uint16'
p447
sg12
Nsbag1
(g36
g3
NtRp448
(dp449
g29
S'kGenericDesktopDPadDown'
p450
sg19
Nsg28
S'0x91'
p451
sg13
Nsg41
S'uint16'
p452
sg12
Nsbag1
(g36
g3
NtRp453
(dp454
g29
S'kGenericDesktopDPadLeft'
p455
sg19
Nsg28
S'0x92'
p456
sg13
Nsg41
S'uint16'
p457
sg12
Nsbag1
(g36
g3
NtRp458
(dp459
g29
S'kGenericDesktopDPadRight'
p460
sg19
Nsg28
S'0x93'
p461
sg13
Nsg41
S'uint16'
p462
sg12
Nsbag1
(g36
g3
NtRp463
(dp464
g29
S'kGenericDesktopSystemDock'
p465
sg19
Nsg28
S'0xa0'
p466
sg13
Nsg41
S'uint16'
p467
sg12
Nsbag1
(g36
g3
NtRp468
(dp469
g29
S'kGenericDesktopSystemUndock'
p470
sg19
Nsg28
S'0xa1'
p471
sg13
Nsg41
S'uint16'
p472
sg12
Nsbag1
(g36
g3
NtRp473
(dp474
g29
S'kGenericDesktopSystemSetup'
p475
sg19
Nsg28
S'0xa2'
p476
sg13
Nsg41
S'uint16'
p477
sg12
Nsbag1
(g36
g3
NtRp478
(dp479
g29
S'kGenericDesktopSystemBreak'
p480
sg19
Nsg28
S'0xa3'
p481
sg13
Nsg41
S'uint16'
p482
sg12
Nsbag1
(g36
g3
NtRp483
(dp484
g29
S'kGenericDesktopSystemDebuggerBreak'
p485
sg19
Nsg28
S'0xa4'
p486
sg13
Nsg41
S'uint16'
p487
sg12
Nsbag1
(g36
g3
NtRp488
(dp489
g29
S'kGenericDesktopApplicationBreak'
p490
sg19
Nsg28
S'0xa5'
p491
sg13
Nsg41
S'uint16'
p492
sg12
Nsbag1
(g36
g3
NtRp493
(dp494
g29
S'kGenericDesktopApplicationDebuggerBreak'
p495
sg19
Nsg28
S'0xa6'
p496
sg13
Nsg41
S'uint16'
p497
sg12
Nsbag1
(g36
g3
NtRp498
(dp499
g29
S'kGenericDesktopSystemSpeakerMute'
p500
sg19
Nsg28
S'0xa7'
p501
sg13
Nsg41
S'uint16'
p502
sg12
Nsbag1
(g36
g3
NtRp503
(dp504
g29
S'kGenericDesktopSystemHibernate'
p505
sg19
Nsg28
S'0xa8'
p506
sg13
Nsg41
S'uint16'
p507
sg12
Nsbag1
(g36
g3
NtRp508
(dp509
g29
S'kGenericDesktopSystemDisplayInvert'
p510
sg19
Nsg28
S'0xb0'
p511
sg13
Nsg41
S'uint16'
p512
sg12
Nsbag1
(g36
g3
NtRp513
(dp514
g29
S'kGenericDesktopSystemDisplayInternal'
p515
sg19
Nsg28
S'0xb1'
p516
sg13
Nsg41
S'uint16'
p517
sg12
Nsbag1
(g36
g3
NtRp518
(dp519
g29
S'kGenericDesktopSystemDisplayExternal'
p520
sg19
Nsg28
S'0xb2'
p521
sg13
Nsg41
S'uint16'
p522
sg12
Nsbag1
(g36
g3
NtRp523
(dp524
g29
S'kGenericDesktopSystemDisplayBoth'
p525
sg19
Nsg28
S'0xb3'
p526
sg13
Nsg41
S'uint16'
p527
sg12
Nsbag1
(g36
g3
NtRp528
(dp529
g29
S'kGenericDesktopSystemDisplayDual'
p530
sg19
Nsg28
S'0xb4'
p531
sg13
Nsg41
S'uint16'
p532
sg12
Nsbag1
(g36
g3
NtRp533
(dp534
g29
S'kGenericDesktopSystemDisplayToggle'
p535
sg19
Nsg28
S'0xb5'
p536
sg13
Nsg41
S'uint16'
p537
sg12
Nsbag1
(g36
g3
NtRp538
(dp539
g29
S'kGenericDesktopSystemDisplaySwap'
p540
sg19
Nsg28
S'0xb6'
p541
sg13
Nsg41
S'uint16'
p542
sg12
Nsbag1
(g36
g3
NtRp543
(dp544
g29
S'kHIDCollectionTypePhysical'
p545
sg19
Nsg28
S'0x00'
p546
sg13
Nsg41
S'uint32'
p547
sg12
Nsbag1
(g36
g3
NtRp548
(dp549
g29
S'kHIDCollectionTypeApplication'
p550
sg19
Nsg28
S'0x01'
p551
sg13
Nsg41
S'uint32'
p552
sg12
Nsbag1
(g36
g3
NtRp553
(dp554
g29
S'kHIDCollectionTypeLogical'
p555
sg19
Nsg28
S'0x02'
p556
sg13
Nsg41
S'uint32'
p557
sg12
Nsbag1
(g36
g3
NtRp558
(dp559
g29
S'kHIDCollectionTypeReport'
p560
sg19
Nsg28
S'0x03'
p561
sg13
Nsg41
S'uint32'
p562
sg12
Nsbag1
(g36
g3
NtRp563
(dp564
g29
S'kHIDCollectionTypeNamedArray'
p565
sg19
Nsg28
S'0x04'
p566
sg13
Nsg41
S'uint32'
p567
sg12
Nsbag1
(g36
g3
NtRp568
(dp569
g29
S'kHIDCollectionTypeUsageSwitch'
p570
sg19
Nsg28
S'0x05'
p571
sg13
Nsg41
S'uint32'
p572
sg12
Nsbag1
(g36
g3
NtRp573
(dp574
g29
S'kHIDCollectionTypeUsageModifier'
p575
sg19
Nsg28
S'0x06'
p576
sg13
Nsg41
S'uint32'
p577
sg12
Nsbag1
(g36
g3
NtRp578
(dp579
g29
S'kHIDCollectionTypeVendorMin'
p580
sg19
Nsg28
S'0x80'
p581
sg13
Nsg41
S'uint32'
p582
sg12
Nsbag1
(g36
g3
NtRp583
(dp584
g29
S'kHIDCollectionTypeVendorMax'
p585
sg19
Nsg28
S'0xff'
p586
sg13
Nsg41
S'uint32'
p587
sg12
Nsbag1
(cmojom.parse.ast
Struct
p588
g3
NtRp589
(dp590
S'body'
p591
g1
(cmojom.parse.ast
StructBody
p592
g3
NtRp593
(dp594
g10
(lp595
g1
(cmojom.parse.ast
StructField
p596
g3
NtRp597
(dp598
S'ordinal'
p599
NsS'default_value'
p600
Nsg29
S'usage'
p601
sg19
Nsg13
Nsg41
S'uint16'
p602
sg12
Nsbag1
(g596
g3
NtRp603
(dp604
g599
Nsg600
Nsg29
S'usage_page'
p605
sg19
Nsg13
Nsg41
S'uint16'
p606
sg12
Nsbasg12
Nsg13
Nsbsg19
Nsg12
Nsg29
S'HidUsageAndPage'
p607
sg13
Nsbag1
(g588
g3
NtRp608
(dp609
g591
g1
(g592
g3
NtRp610
(dp611
g10
(lp612
g1
(g596
g3
NtRp613
(dp614
g599
Nsg600
Nsg29
S'is_range'
p615
sg19
Nsg13
Nsg41
S'bool'
p616
sg12
Nsbag1
(g596
g3
NtRp617
(dp618
g599
Nsg600
Nsg29
S'is_constant'
p619
sg19
Nsg13
Nsg41
S'bool'
p620
sg12
Nsbag1
(g596
g3
NtRp621
(dp622
g599
Nsg600
Nsg29
S'is_variable'
p623
sg19
Nsg13
Nsg41
S'bool'
p624
sg12
Nsbag1
(g596
g3
NtRp625
(dp626
g599
Nsg600
Nsg29
S'is_relative'
p627
sg19
Nsg13
Nsg41
S'bool'
p628
sg12
Nsbag1
(g596
g3
NtRp629
(dp630
g599
Nsg600
Nsg29
S'wrap'
p631
sg19
Nsg13
Nsg41
S'bool'
p632
sg12
Nsbag1
(g596
g3
NtRp633
(dp634
g599
Nsg600
Nsg29
S'is_non_linear'
p635
sg19
Nsg13
Nsg41
S'bool'
p636
sg12
Nsbag1
(g596
g3
NtRp637
(dp638
g599
Nsg600
Nsg29
S'no_preferred_state'
p639
sg19
Nsg13
Nsg41
S'bool'
p640
sg12
Nsbag1
(g596
g3
NtRp641
(dp642
g599
Nsg600
Nsg29
S'has_null_position'
p643
sg19
Nsg13
Nsg41
S'bool'
p644
sg12
Nsbag1
(g596
g3
NtRp645
(dp646
g599
Nsg600
Nsg29
S'is_volatile'
p647
sg19
Nsg13
Nsg41
S'bool'
p648
sg12
Nsbag1
(g596
g3
NtRp649
(dp650
g599
Nsg600
Nsg29
S'is_buffered_bytes'
p651
sg19
Nsg13
Nsg41
S'bool'
p652
sg12
Nsbag1
(g596
g3
NtRp653
(dp654
g599
Nsg600
Nsg29
S'usages'
p655
sg19
Nsg13
Nsg41
S'HidUsageAndPage[]'
p656
sg12
Nsbag1
(g596
g3
NtRp657
(dp658
g599
Nsg600
Nsg29
S'usage_minimum'
p659
sg19
Nsg13
Nsg41
S'HidUsageAndPage'
p660
sg12
Nsbag1
(g596
g3
NtRp661
(dp662
g599
Nsg600
Nsg29
S'usage_maximum'
p663
sg19
Nsg13
Nsg41
S'HidUsageAndPage'
p664
sg12
Nsbag1
(g596
g3
NtRp665
(dp666
g599
Nsg600
Nsg29
S'designator_minimum'
p667
sg19
Nsg13
Nsg41
S'uint32'
p668
sg12
Nsbag1
(g596
g3
NtRp669
(dp670
g599
Nsg600
Nsg29
S'designator_maximum'
p671
sg19
Nsg13
Nsg41
S'uint32'
p672
sg12
Nsbag1
(g596
g3
NtRp673
(dp674
g599
Nsg600
Nsg29
S'string_minimum'
p675
sg19
Nsg13
Nsg41
S'uint32'
p676
sg12
Nsbag1
(g596
g3
NtRp677
(dp678
g599
Nsg600
Nsg29
S'string_maximum'
p679
sg19
Nsg13
Nsg41
S'uint32'
p680
sg12
Nsbag1
(g596
g3
NtRp681
(dp682
g599
Nsg600
Nsg29
S'logical_minimum'
p683
sg19
Nsg13
Nsg41
S'int32'
p684
sg12
Nsbag1
(g596
g3
NtRp685
(dp686
g599
Nsg600
Nsg29
S'logical_maximum'
p687
sg19
Nsg13
Nsg41
S'int32'
p688
sg12
Nsbag1
(g596
g3
NtRp689
(dp690
g599
Nsg600
Nsg29
S'physical_minimum'
p691
sg19
Nsg13
Nsg41
S'int32'
p692
sg12
Nsbag1
(g596
g3
NtRp693
(dp694
g599
Nsg600
Nsg29
S'physical_maximum'
p695
sg19
Nsg13
Nsg41
S'int32'
p696
sg12
Nsbag1
(g596
g3
NtRp697
(dp698
g599
Nsg600
Nsg29
S'unit_exponent'
p699
sg19
Nsg13
Nsg41
S'uint32'
p700
sg12
Nsbag1
(g596
g3
NtRp701
(dp702
g599
Nsg600
Nsg29
S'unit'
p703
sg19
Nsg13
Nsg41
S'uint32'
p704
sg12
Nsbag1
(g596
g3
NtRp705
(dp706
g599
Nsg600
Nsg29
S'report_size'
p707
sg19
Nsg13
Nsg41
S'uint32'
p708
sg12
Nsbag1
(g596
g3
NtRp709
(dp710
g599
Nsg600
Nsg29
S'report_count'
p711
sg19
Nsg13
Nsg41
S'uint32'
p712
sg12
Nsbasg12
Nsg13
Nsbsg19
Nsg12
Nsg29
S'HidReportItem'
p713
sg13
Nsbag1
(g588
g3
NtRp714
(dp715
g591
g1
(g592
g3
NtRp716
(dp717
g10
(lp718
g1
(g596
g3
NtRp719
(dp720
g599
Nsg600
Nsg29
S'report_id'
p721
sg19
Nsg13
Nsg41
S'uint8'
p722
sg12
Nsbag1
(g596
g3
NtRp723
(dp724
g599
Nsg600
Nsg29
S'items'
p725
sg19
Nsg13
Nsg41
S'HidReportItem[]'
p726
sg12
Nsbasg12
Nsg13
Nsbsg19
Nsg12
Nsg29
S'HidReportDescription'
p727
sg13
Nsbag1
(g588
g3
NtRp728
(dp729
g591
g1
(g592
g3
NtRp730
(dp731
g10
(lp732
g1
(g596
g3
NtRp733
(dp734
g599
Nsg600
Nsg29
S'usage'
p735
sg19
Nsg13
Nsg41
S'HidUsageAndPage'
p736
sg12
Nsbag1
(g596
g3
NtRp737
(dp738
g599
Nsg600
Nsg29
S'report_ids'
p739
sg19
Nsg13
Nsg41
S'uint8[]'
p740
sg12
Nsbag1
(g596
g3
NtRp741
(dp742
g599
Nsg600
Nsg29
S'collection_type'
p743
sg19
Nsg13
Nsg41
S'uint32'
p744
sg12
Nsbag1
(g596
g3
NtRp745
(dp746
g599
Nsg600
Nsg29
S'input_reports'
p747
sg19
Nsg13
Nsg41
S'HidReportDescription[]'
p748
sg12
Nsbag1
(g596
g3
NtRp749
(dp750
g599
Nsg600
Nsg29
S'output_reports'
p751
sg19
Nsg13
Nsg41
S'HidReportDescription[]'
p752
sg12
Nsbag1
(g596
g3
NtRp753
(dp754
g599
Nsg600
Nsg29
S'feature_reports'
p755
sg19
Nsg13
Nsg41
S'HidReportDescription[]'
p756
sg12
Nsbag1
(g596
g3
NtRp757
(dp758
g599
Nsg600
Nsg29
S'children'
p759
sg19
Nsg13
Nsg41
S'HidCollectionInfo[]'
p760
sg12
Nsbasg12
Nsg13
Nsbsg19
Nsg12
Nsg29
S'HidCollectionInfo'
p761
sg13
Nsbag1
(g588
g3
NtRp762
(dp763
g591
g1
(g592
g3
NtRp764
(dp765
g10
(lp766
g1
(g596
g3
NtRp767
(dp768
g599
Nsg600
Nsg29
S'guid'
p769
sg19
Nsg13
Nsg41
S'string'
p770
sg12
Nsbag1
(g596
g3
NtRp771
(dp772
g599
Nsg600
Nsg29
S'vendor_id'
p773
sg19
Nsg13
Nsg41
S'uint16'
p774
sg12
Nsbag1
(g596
g3
NtRp775
(dp776
g599
Nsg600
Nsg29
S'product_id'
p777
sg19
Nsg13
Nsg41
S'uint16'
p778
sg12
Nsbag1
(g596
g3
NtRp779
(dp780
g599
Nsg600
Nsg29
S'product_name'
p781
sg19
Nsg13
Nsg41
S'string'
p782
sg12
Nsbag1
(g596
g3
NtRp783
(dp784
g599
Nsg600
Nsg29
S'serial_number'
p785
sg19
Nsg13
Nsg41
S'string'
p786
sg12
Nsbag1
(g596
g3
NtRp787
(dp788
g599
Nsg600
Nsg29
S'bus_type'
p789
sg19
Nsg13
Nsg41
S'HidBusType'
p790
sg12
Nsbag1
(g596
g3
NtRp791
(dp792
g599
Nsg600
Nsg29
S'report_descriptor'
p793
sg19
Nsg13
Nsg41
S'uint8[]'
p794
sg12
Nsbag1
(g596
g3
NtRp795
(dp796
g599
Nsg600
Nsg29
S'collections'
p797
sg19
Nsg13
Nsg41
S'HidCollectionInfo[]'
p798
sg12
Nsbag1
(g596
g3
NtRp799
(dp800
g599
Nsg600
Nsg29
S'has_report_id'
p801
sg19
Nsg13
Nsg41
S'bool'
p802
sg12
Nsbag1
(g596
g3
NtRp803
(dp804
g599
Nsg600
Nsg29
S'max_input_report_size'
p805
sg19
Nsg13
Nsg41
S'uint64'
p806
sg12
Nsbag1
(g596
g3
NtRp807
(dp808
g599
Nsg600
Nsg29
S'max_output_report_size'
p809
sg19
Nsg13
Nsg41
S'uint64'
p810
sg12
Nsbag1
(g596
g3
NtRp811
(dp812
g599
Nsg600
Nsg29
S'max_feature_report_size'
p813
sg19
Nsg13
Nsg41
S'uint64'
p814
sg12
Nsbag1
(g596
g3
NtRp815
(dp816
g599
Nsg600
Nsg29
S'device_node'
p817
sg19
Nsg13
Nsg41
S'string'
p818
sg12
Nsbasg12
Nsg13
Nsbsg19
Nsg12
Nsg29
S'HidDeviceInfo'
p819
sg13
Nsbag1
(cmojom.parse.ast
Interface
p820
g3
NtRp821
(dp822
g591
g1
(cmojom.parse.ast
InterfaceBody
p823
g3
NtRp824
(dp825
g10
(lp826
g1
(cmojom.parse.ast
Method
p827
g3
NtRp828
(dp829
g599
Nsg29
S'DeviceAdded'
p830
sS'parameter_list'
p831
g1
(cmojom.parse.ast
ParameterList
p832
g3
NtRp833
(dp834
g10
(lp835
g1
(cmojom.parse.ast
Parameter
p836
g3
NtRp837
(dp838
g599
Nsg29
S'device_info'
p839
sg19
Nsg13
g31
sg41
S'HidDeviceInfo'
p840
sg12
I303
sbasg12
I303
sg13
g31
sbsg19
Nsg13
Nsg12
NsS'response_parameter_list'
p841
Nsbag1
(g827
g3
NtRp842
(dp843
g599
Nsg29
S'DeviceRemoved'
p844
sg831
g1
(g832
g3
NtRp845
(dp846
g10
(lp847
g1
(g836
g3
NtRp848
(dp849
g599
Nsg29
S'device_info'
p850
sg19
Nsg13
g31
sg41
S'HidDeviceInfo'
p851
sg12
I307
sbasg12
I307
sg13
g31
sbsg19
Nsg13
Nsg12
Nsg841
Nsbasg12
Nsg13
Nsbsg19
Nsg12
Nsg29
S'HidManagerClient'
p852
sg13
Nsbag1
(g820
g3
NtRp853
(dp854
g591
g1
(g823
g3
NtRp855
(dp856
g10
(lp857
g1
(g827
g3
NtRp858
(dp859
g599
Nsg29
S'GetDevicesAndSetClient'
p860
sg831
g1
(g832
g3
NtRp861
(dp862
g10
(lp863
g1
(g836
g3
NtRp864
(dp865
g599
Nsg29
S'client'
p866
sg19
Nsg13
g31
sg41
S'asso<HidManagerClient>'
p867
sg12
I317
sbasg12
I317
sg13
g31
sbsg19
Nsg13
Nsg12
Nsg841
g1
(g832
g3
NtRp868
(dp869
g10
(lp870
g1
(g836
g3
NtRp871
(dp872
g599
Nsg29
S'devices'
p873
sg19
Nsg13
g31
sg41
S'HidDeviceInfo[]'
p874
sg12
I318
sbasg12
I318
sg13
g31
sbsbag1
(g827
g3
NtRp875
(dp876
g599
Nsg29
S'GetDevices'
p877
sg831
g1
(g832
g3
NtRp878
(dp879
g10
(lp880
sg12
Nsg13
Nsbsg19
Nsg13
Nsg12
Nsg841
g1
(g832
g3
NtRp881
(dp882
g10
(lp883
g1
(g836
g3
NtRp884
(dp885
g599
Nsg29
S'devices'
p886
sg19
Nsg13
g31
sg41
S'HidDeviceInfo[]'
p887
sg12
I321
sbasg12
I321
sg13
g31
sbsbag1
(g827
g3
NtRp888
(dp889
g599
Nsg29
S'Connect'
p890
sg831
g1
(g832
g3
NtRp891
(dp892
g10
(lp893
g1
(g836
g3
NtRp894
(dp895
g599
Nsg29
S'device_guid'
p896
sg19
Nsg13
g31
sg41
S'string'
p897
sg12
I326
sbag1
(g836
g3
NtRp898
(dp899
g599
Nsg29
S'connection_client'
p900
sg19
Nsg13
g31
sg41
S'HidConnectionClient?'
p901
sg12
I326
sbasg12
I326
sg13
g31
sbsg19
Nsg13
Nsg12
Nsg841
g1
(g832
g3
NtRp902
(dp903
g10
(lp904
g1
(g836
g3
NtRp905
(dp906
g599
Nsg29
S'connection'
p907
sg19
Nsg13
g31
sg41
S'HidConnection?'
p908
sg12
I327
sbasg12
I327
sg13
g31
sbsbasg12
Nsg13
Nsbsg19
Nsg12
Nsg29
S'HidManager'
p909
sg13
Nsbag1
(g820
g3
NtRp910
(dp911
g591
g1
(g823
g3
NtRp912
(dp913
g10
(lp914
g1
(g827
g3
NtRp915
(dp916
g599
Nsg29
S'Read'
p917
sg831
g1
(g832
g3
NtRp918
(dp919
g10
(lp920
sg12
Nsg13
Nsbsg19
Nsg13
Nsg12
Nsg841
g1
(g832
g3
NtRp921
(dp922
g10
(lp923
g1
(g836
g3
NtRp924
(dp925
g599
Nsg29
S'success'
p926
sg19
Nsg13
g31
sg41
S'bool'
p927
sg12
I337
sbag1
(g836
g3
NtRp928
(dp929
g599
Nsg29
S'report_id'
p930
sg19
Nsg13
g31
sg41
S'uint8'
p931
sg12
I337
sbag1
(g836
g3
NtRp932
(dp933
g599
Nsg29
S'buffer'
p934
sg19
Nsg13
g31
sg41
S'uint8[]?'
p935
sg12
I337
sbasg12
I337
sg13
g31
sbsbag1
(g827
g3
NtRp936
(dp937
g599
Nsg29
S'Write'
p938
sg831
g1
(g832
g3
NtRp939
(dp940
g10
(lp941
g1
(g836
g3
NtRp942
(dp943
g599
Nsg29
S'report_id'
p944
sg19
Nsg13
g31
sg41
S'uint8'
p945
sg12
I340
sbag1
(g836
g3
NtRp946
(dp947
g599
Nsg29
S'buffer'
p948
sg19
Nsg13
g31
sg41
S'uint8[]'
p949
sg12
I340
sbasg12
I340
sg13
g31
sbsg19
Nsg13
Nsg12
Nsg841
g1
(g832
g3
NtRp950
(dp951
g10
(lp952
g1
(g836
g3
NtRp953
(dp954
g599
Nsg29
S'success'
p955
sg19
Nsg13
g31
sg41
S'bool'
p956
sg12
I340
sbasg12
I340
sg13
g31
sbsbag1
(g827
g3
NtRp957
(dp958
g599
Nsg29
S'GetFeatureReport'
p959
sg831
g1
(g832
g3
NtRp960
(dp961
g10
(lp962
g1
(g836
g3
NtRp963
(dp964
g599
Nsg29
S'report_id'
p965
sg19
Nsg13
g31
sg41
S'uint8'
p966
sg12
I345
sbasg12
I345
sg13
g31
sbsg19
Nsg13
Nsg12
Nsg841
g1
(g832
g3
NtRp967
(dp968
g10
(lp969
g1
(g836
g3
NtRp970
(dp971
g599
Nsg29
S'success'
p972
sg19
Nsg13
g31
sg41
S'bool'
p973
sg12
I345
sbag1
(g836
g3
NtRp974
(dp975
g599
Nsg29
S'buffer'
p976
sg19
Nsg13
g31
sg41
S'uint8[]?'
p977
sg12
I345
sbasg12
I345
sg13
g31
sbsbag1
(g827
g3
NtRp978
(dp979
g599
Nsg29
S'SendFeatureReport'
p980
sg831
g1
(g832
g3
NtRp981
(dp982
g10
(lp983
g1
(g836
g3
NtRp984
(dp985
g599
Nsg29
S'report_id'
p986
sg19
Nsg13
g31
sg41
S'uint8'
p987
sg12
I348
sbag1
(g836
g3
NtRp988
(dp989
g599
Nsg29
S'buffer'
p990
sg19
Nsg13
g31
sg41
S'uint8[]'
p991
sg12
I348
sbasg12
I348
sg13
g31
sbsg19
Nsg13
Nsg12
Nsg841
g1
(g832
g3
NtRp992
(dp993
g10
(lp994
g1
(g836
g3
NtRp995
(dp996
g599
Nsg29
S'success'
p997
sg19
Nsg13
g31
sg41
S'bool'
p998
sg12
I348
sbasg12
I348
sg13
g31
sbsbasg12
Nsg13
Nsbsg19
Nsg12
Nsg29
S'HidConnection'
p999
sg13
Nsbag1
(g820
g3
NtRp1000
(dp1001
g591
g1
(g823
g3
NtRp1002
(dp1003
g10
(lp1004
g1
(g827
g3
NtRp1005
(dp1006
g599
Nsg29
S'OnInputReport'
p1007
sg831
g1
(g832
g3
NtRp1008
(dp1009
g10
(lp1010
g1
(g836
g3
NtRp1011
(dp1012
g599
Nsg29
S'report_id'
p1013
sg19
Nsg13
g31
sg41
S'uint8'
p1014
sg12
I356
sbag1
(g836
g3
NtRp1015
(dp1016
g599
Nsg29
S'buffer'
p1017
sg19
Nsg13
g31
sg41
S'uint8[]'
p1018
sg12
I356
sbasg12
I356
sg13
g31
sbsg19
Nsg13
Nsg12
Nsg841
Nsbasg12
Nsg13
Nsbsg19
Nsg12
Nsg29
S'HidConnectionClient'
p1019
sg13
Nsbasg12
NsS'module'
p1020
g1
(cmojom.parse.ast
Module
p1021
g3
NtRp1022
(dp1023
S'mojom_namespace'
p1024
(S'IDENTIFIER'
p1025
S'device.mojom'
tp1026
sg12
I5
sg19
Nsg13
g31
sbsg13
Nsb.