ccopy_reg
_reconstructor
p1
(cmojom.parse.ast
Mojom
p2
c__builtin__
object
p3
NtRp4
(dp5
S'import_list'
p6
g1
(cmojom.parse.ast
ImportList
p7
g3
NtRp8
(dp9
S'items'
p10
(lp11
sS'lineno'
p12
NsS'filename'
p13
NsbsS'definition_list'
p14
(lp15
g1
(cmojom.parse.ast
Interface
p16
g3
NtRp17
(dp18
S'body'
p19
g1
(cmojom.parse.ast
InterfaceBody
p20
g3
NtRp21
(dp22
g10
(lp23
g1
(cmojom.parse.ast
Method
p24
g3
NtRp25
(dp26
S'ordinal'
p27
NsS'mojom_name'
p28
S'AddClient'
p29
sS'parameter_list'
p30
g1
(cmojom.parse.ast
ParameterList
p31
g3
NtRp32
(dp33
g10
(lp34
g1
(cmojom.parse.ast
Parameter
p35
g3
NtRp36
(dp37
g27
Nsg28
S'client'
p38
sS'attribute_list'
p39
Nsg13
S'../../services/device/public/mojom/power_monitor.mojom'
p40
sS'typename'
p41
S'PowerMonitorClient'
p42
sg12
I9
sbasg12
I9
sg13
g40
sbsg39
Nsg13
Nsg12
NsS'response_parameter_list'
p43
Nsbasg12
Nsg13
Nsbsg39
Nsg12
Nsg28
S'PowerMonitor'
p44
sg13
Nsbag1
(g16
g3
NtRp45
(dp46
g19
g1
(g20
g3
NtRp47
(dp48
g10
(lp49
g1
(g24
g3
NtRp50
(dp51
g27
Nsg28
S'PowerStateChange'
p52
sg30
g1
(g31
g3
NtRp53
(dp54
g10
(lp55
g1
(g35
g3
NtRp56
(dp57
g27
Nsg28
S'on_battery_power'
p58
sg39
Nsg13
g40
sg41
S'bool'
p59
sg12
I15
sbasg12
I15
sg13
g40
sbsg39
Nsg13
Nsg12
Nsg43
Nsbag1
(g24
g3
NtRp60
(dp61
g27
Nsg28
S'Suspend'
p62
sg30
g1
(g31
g3
NtRp63
(dp64
g10
(lp65
sg12
Nsg13
Nsbsg39
Nsg13
Nsg12
Nsg43
Nsbag1
(g24
g3
NtRp66
(dp67
g27
Nsg28
S'Resume'
p68
sg30
g1
(g31
g3
NtRp69
(dp70
g10
(lp71
sg12
Nsg13
Nsbsg39
Nsg13
Nsg12
Nsg43
Nsbasg12
Nsg13
Nsbsg39
Nsg12
Nsg28
S'PowerMonitorClient'
p72
sg13
Nsbasg12
NsS'module'
p73
g1
(cmojom.parse.ast
Module
p74
g3
NtRp75
(dp76
S'mojom_namespace'
p77
(S'IDENTIFIER'
p78
S'device.mojom'
tp79
sg12
I5
sg39
Nsg13
g40
sbsg13
Nsb.