ccopy_reg
_reconstructor
p1
(cmojom.parse.ast
Mojom
p2
c__builtin__
object
p3
NtRp4
(dp5
S'import_list'
p6
g1
(cmojom.parse.ast
ImportList
p7
g3
NtRp8
(dp9
S'items'
p10
(lp11
sS'lineno'
p12
NsS'filename'
p13
NsbsS'definition_list'
p14
(lp15
g1
(cmojom.parse.ast
Enum
p16
g3
NtRp17
(dp18
S'attribute_list'
p19
NsS'enum_value_list'
p20
g1
(cmojom.parse.ast
EnumValueList
p21
g3
NtRp22
(dp23
g10
(lp24
g1
(cmojom.parse.ast
EnumValue
p25
g3
NtRp26
(dp27
g19
NsS'value'
p28
Nsg12
I9
sS'mojom_name'
p29
S'SCREEN_ORIENTATION_LOCK_RESULT_SUCCESS'
p30
sg13
S'../../services/device/public/mojom/screen_orientation_lock_types.mojom'
p31
sbag1
(g25
g3
NtRp32
(dp33
g19
Nsg28
Nsg12
I12
sg29
S'SCREEN_ORIENTATION_LOCK_RESULT_ERROR_NOT_AVAILABLE'
p34
sg13
g31
sbag1
(g25
g3
NtRp35
(dp36
g19
Nsg28
Nsg12
I15
sg29
S'SCREEN_ORIENTATION_LOCK_RESULT_ERROR_FULLSCREEN_REQUIRED'
p37
sg13
g31
sbag1
(g25
g3
NtRp38
(dp39
g19
Nsg28
Nsg12
I18
sg29
S'SCREEN_ORIENTATION_LOCK_RESULT_ERROR_CANCELED'
p40
sg13
g31
sbasg12
I9
sg13
g31
sbsg12
I7
sg29
S'ScreenOrientationLockResult'
p41
sg13
g31
sbag1
(g16
g3
NtRp42
(dp43
g19
Nsg20
g1
(g21
g3
NtRp44
(dp45
g10
(lp46
g1
(g25
g3
NtRp47
(dp48
g19
Nsg28
S'0'
sg12
I22
sg29
S'DEFAULT'
p49
sg13
g31
sbag1
(g25
g3
NtRp50
(dp51
g19
Nsg28
Nsg12
I23
sg29
S'PORTRAIT_PRIMARY'
p52
sg13
g31
sbag1
(g25
g3
NtRp53
(dp54
g19
Nsg28
Nsg12
I24
sg29
S'PORTRAIT_SECONDARY'
p55
sg13
g31
sbag1
(g25
g3
NtRp56
(dp57
g19
Nsg28
Nsg12
I25
sg29
S'LANDSCAPE_PRIMARY'
p58
sg13
g31
sbag1
(g25
g3
NtRp59
(dp60
g19
Nsg28
Nsg12
I26
sg29
S'LANDSCAPE_SECONDARY'
p61
sg13
g31
sbag1
(g25
g3
NtRp62
(dp63
g19
Nsg28
Nsg12
I27
sg29
S'ANY'
p64
sg13
g31
sbag1
(g25
g3
NtRp65
(dp66
g19
Nsg28
Nsg12
I28
sg29
S'LANDSCAPE'
p67
sg13
g31
sbag1
(g25
g3
NtRp68
(dp69
g19
Nsg28
Nsg12
I29
sg29
S'PORTRAIT'
p70
sg13
g31
sbag1
(g25
g3
NtRp71
(dp72
g19
Nsg28
Nsg12
I30
sg29
S'NATURAL'
p73
sg13
g31
sbasg12
I22
sg13
g31
sbsg12
I21
sg29
S'ScreenOrientationLockType'
p74
sg13
g31
sbasg12
NsS'module'
p75
g1
(cmojom.parse.ast
Module
p76
g3
NtRp77
(dp78
S'mojom_namespace'
p79
(S'IDENTIFIER'
p80
S'device.mojom'
tp81
sg12
I5
sg19
Nsg13
g31
sbsg13
Nsb.