ccopy_reg
_reconstructor
p1
(cmojom.parse.ast
Mojom
p2
c__builtin__
object
p3
NtRp4
(dp5
S'import_list'
p6
g1
(cmojom.parse.ast
ImportList
p7
g3
NtRp8
(dp9
S'items'
p10
(lp11
g1
(cmojom.parse.ast
Import
p12
g3
NtRp13
(dp14
S'attribute_list'
p15
NsS'lineno'
p16
I7
sS'import_filename'
p17
S'mojo/public/mojom/base/file_path.mojom'
p18
sS'filename'
p19
S'../../services/device/public/mojom/serial.mojom'
p20
sbag1
(g12
g3
NtRp21
(dp22
g15
Nsg16
I8
sg17
S'mojo/public/mojom/base/unguessable_token.mojom'
p23
sg19
g20
sbasg16
I7
sg19
g20
sbsS'definition_list'
p24
(lp25
g1
(cmojom.parse.ast
Struct
p26
g3
NtRp27
(dp28
S'body'
p29
g1
(cmojom.parse.ast
StructBody
p30
g3
NtRp31
(dp32
g10
(lp33
g1
(cmojom.parse.ast
StructField
p34
g3
NtRp35
(dp36
S'ordinal'
p37
NsS'default_value'
p38
NsS'mojom_name'
p39
S'token'
p40
sg15
Nsg19
NsS'typename'
p41
S'mojo_base.mojom.UnguessableToken'
p42
sg16
Nsbag1
(g34
g3
NtRp43
(dp44
g37
Nsg38
Nsg39
S'path'
p45
sg15
Nsg19
Nsg41
S'mojo_base.mojom.FilePath'
p46
sg16
Nsbag1
(g34
g3
NtRp47
(dp48
g37
Nsg38
Nsg39
S'vendor_id'
p49
sg15
Nsg19
Nsg41
S'uint16'
p50
sg16
Nsbag1
(g34
g3
NtRp51
(dp52
g37
Nsg38
S'false'
p53
sg39
S'has_vendor_id'
p54
sg15
Nsg19
Nsg41
S'bool'
p55
sg16
Nsbag1
(g34
g3
NtRp56
(dp57
g37
Nsg38
Nsg39
S'product_id'
p58
sg15
Nsg19
Nsg41
S'uint16'
p59
sg16
Nsbag1
(g34
g3
NtRp60
(dp61
g37
Nsg38
S'false'
p62
sg39
S'has_product_id'
p63
sg15
Nsg19
Nsg41
S'bool'
p64
sg16
Nsbag1
(g34
g3
NtRp65
(dp66
g37
Nsg38
Nsg39
S'display_name'
p67
sg15
Nsg19
Nsg41
S'string?'
p68
sg16
Nsbasg16
Nsg19
Nsbsg15
Nsg16
Nsg39
S'SerialPortInfo'
p69
sg19
Nsbag1
(cmojom.parse.ast
Enum
p70
g3
NtRp71
(dp72
g15
NsS'enum_value_list'
p73
g1
(cmojom.parse.ast
EnumValueList
p74
g3
NtRp75
(dp76
g10
(lp77
g1
(cmojom.parse.ast
EnumValue
p78
g3
NtRp79
(dp80
g15
NsS'value'
p81
Nsg16
I21
sg39
S'NONE'
p82
sg19
g20
sbag1
(g78
g3
NtRp83
(dp84
g15
Nsg81
Nsg16
I22
sg39
S'DISCONNECTED'
p85
sg19
g20
sbag1
(g78
g3
NtRp86
(dp87
g15
Nsg81
Nsg16
I23
sg39
S'PENDING'
p88
sg19
g20
sbag1
(g78
g3
NtRp89
(dp90
g15
Nsg81
Nsg16
I24
sg39
S'TIMEOUT'
p91
sg19
g20
sbag1
(g78
g3
NtRp92
(dp93
g15
Nsg81
Nsg16
I25
sg39
S'SYSTEM_ERROR'
p94
sg19
g20
sbasg16
I21
sg19
g20
sbsg16
I20
sg39
S'SerialSendError'
p95
sg19
g20
sbag1
(g70
g3
NtRp96
(dp97
g15
Nsg73
g1
(g74
g3
NtRp98
(dp99
g10
(lp100
g1
(g78
g3
NtRp101
(dp102
g15
Nsg81
Nsg16
I29
sg39
S'NONE'
p103
sg19
g20
sbag1
(g78
g3
NtRp104
(dp105
g15
Nsg81
Nsg16
I30
sg39
S'DISCONNECTED'
p106
sg19
g20
sbag1
(g78
g3
NtRp107
(dp108
g15
Nsg81
Nsg16
I31
sg39
S'TIMEOUT'
p109
sg19
g20
sbag1
(g78
g3
NtRp110
(dp111
g15
Nsg81
Nsg16
I32
sg39
S'DEVICE_LOST'
p112
sg19
g20
sbag1
(g78
g3
NtRp113
(dp114
g15
Nsg81
Nsg16
I33
sg39
S'BREAK'
p115
sg19
g20
sbag1
(g78
g3
NtRp116
(dp117
g15
Nsg81
Nsg16
I34
sg39
S'FRAME_ERROR'
p118
sg19
g20
sbag1
(g78
g3
NtRp119
(dp120
g15
Nsg81
Nsg16
I35
sg39
S'OVERRUN'
p121
sg19
g20
sbag1
(g78
g3
NtRp122
(dp123
g15
Nsg81
Nsg16
I36
sg39
S'BUFFER_OVERFLOW'
p124
sg19
g20
sbag1
(g78
g3
NtRp125
(dp126
g15
Nsg81
Nsg16
I37
sg39
S'PARITY_ERROR'
p127
sg19
g20
sbag1
(g78
g3
NtRp128
(dp129
g15
Nsg81
Nsg16
I38
sg39
S'SYSTEM_ERROR'
p130
sg19
g20
sbasg16
I29
sg19
g20
sbsg16
I28
sg39
S'SerialReceiveError'
p131
sg19
g20
sbag1
(g70
g3
NtRp132
(dp133
g15
Nsg73
g1
(g74
g3
NtRp134
(dp135
g10
(lp136
g1
(g78
g3
NtRp137
(dp138
g15
Nsg81
Nsg16
I42
sg39
S'NONE'
p139
sg19
g20
sbag1
(g78
g3
NtRp140
(dp141
g15
Nsg81
Nsg16
I43
sg39
S'SEVEN'
p142
sg19
g20
sbag1
(g78
g3
NtRp143
(dp144
g15
Nsg81
Nsg16
I44
sg39
S'EIGHT'
p145
sg19
g20
sbasg16
I42
sg19
g20
sbsg16
I41
sg39
S'SerialDataBits'
p146
sg19
g20
sbag1
(g70
g3
NtRp147
(dp148
g15
Nsg73
g1
(g74
g3
NtRp149
(dp150
g10
(lp151
g1
(g78
g3
NtRp152
(dp153
g15
Nsg81
Nsg16
I48
sg39
S'NONE'
p154
sg19
g20
sbag1
(g78
g3
NtRp155
(dp156
g15
Nsg81
Nsg16
I49
sg39
S'NO_PARITY'
p157
sg19
g20
sbag1
(g78
g3
NtRp158
(dp159
g15
Nsg81
Nsg16
I50
sg39
S'ODD'
p160
sg19
g20
sbag1
(g78
g3
NtRp161
(dp162
g15
Nsg81
Nsg16
I51
sg39
S'EVEN'
p163
sg19
g20
sbasg16
I48
sg19
g20
sbsg16
I47
sg39
S'SerialParityBit'
p164
sg19
g20
sbag1
(g70
g3
NtRp165
(dp166
g15
Nsg73
g1
(g74
g3
NtRp167
(dp168
g10
(lp169
g1
(g78
g3
NtRp170
(dp171
g15
Nsg81
Nsg16
I55
sg39
S'NONE'
p172
sg19
g20
sbag1
(g78
g3
NtRp173
(dp174
g15
Nsg81
Nsg16
I56
sg39
S'ONE'
p175
sg19
g20
sbag1
(g78
g3
NtRp176
(dp177
g15
Nsg81
Nsg16
I57
sg39
S'TWO'
p178
sg19
g20
sbasg16
I55
sg19
g20
sbsg16
I54
sg39
S'SerialStopBits'
p179
sg19
g20
sbag1
(g26
g3
NtRp180
(dp181
g29
g1
(g30
g3
NtRp182
(dp183
g10
(lp184
g1
(g34
g3
NtRp185
(dp186
g37
Nsg38
S'0'
sg39
S'bitrate'
p187
sg15
Nsg19
Nsg41
S'uint32'
p188
sg16
Nsbag1
(g34
g3
NtRp189
(dp190
g37
Nsg38
(S'IDENTIFIER'
p191
S'NONE'
tp192
sg39
S'data_bits'
p193
sg15
Nsg19
Nsg41
S'SerialDataBits'
p194
sg16
Nsbag1
(g34
g3
NtRp195
(dp196
g37
Nsg38
(g191
S'NONE'
tp197
sg39
S'parity_bit'
p198
sg15
Nsg19
Nsg41
S'SerialParityBit'
p199
sg16
Nsbag1
(g34
g3
NtRp200
(dp201
g37
Nsg38
(g191
S'NONE'
tp202
sg39
S'stop_bits'
p203
sg15
Nsg19
Nsg41
S'SerialStopBits'
p204
sg16
Nsbag1
(g34
g3
NtRp205
(dp206
g37
Nsg38
Nsg39
S'cts_flow_control'
p207
sg15
Nsg19
Nsg41
S'bool'
p208
sg16
Nsbag1
(g34
g3
NtRp209
(dp210
g37
Nsg38
S'false'
p211
sg39
S'has_cts_flow_control'
p212
sg15
Nsg19
Nsg41
S'bool'
p213
sg16
Nsbasg16
Nsg19
Nsbsg15
Nsg16
Nsg39
S'SerialConnectionOptions'
p214
sg19
Nsbag1
(g26
g3
NtRp215
(dp216
g29
g1
(g30
g3
NtRp217
(dp218
g10
(lp219
g1
(g34
g3
NtRp220
(dp221
g37
Nsg38
S'0'
sg39
S'bitrate'
p222
sg15
Nsg19
Nsg41
S'uint32'
p223
sg16
Nsbag1
(g34
g3
NtRp224
(dp225
g37
Nsg38
(g191
S'NONE'
tp226
sg39
S'data_bits'
p227
sg15
Nsg19
Nsg41
S'SerialDataBits'
p228
sg16
Nsbag1
(g34
g3
NtRp229
(dp230
g37
Nsg38
(g191
S'NONE'
tp231
sg39
S'parity_bit'
p232
sg15
Nsg19
Nsg41
S'SerialParityBit'
p233
sg16
Nsbag1
(g34
g3
NtRp234
(dp235
g37
Nsg38
(g191
S'NONE'
tp236
sg39
S'stop_bits'
p237
sg15
Nsg19
Nsg41
S'SerialStopBits'
p238
sg16
Nsbag1
(g34
g3
NtRp239
(dp240
g37
Nsg38
Nsg39
S'cts_flow_control'
p241
sg15
Nsg19
Nsg41
S'bool'
p242
sg16
Nsbasg16
Nsg19
Nsbsg15
Nsg16
Nsg39
S'SerialConnectionInfo'
p243
sg19
Nsbag1
(g26
g3
NtRp244
(dp245
g29
g1
(g30
g3
NtRp246
(dp247
g10
(lp248
g1
(g34
g3
NtRp249
(dp250
g37
Nsg38
Nsg39
S'dtr'
p251
sg15
Nsg19
Nsg41
S'bool'
p252
sg16
Nsbag1
(g34
g3
NtRp253
(dp254
g37
Nsg38
S'false'
p255
sg39
S'has_dtr'
p256
sg15
Nsg19
Nsg41
S'bool'
p257
sg16
Nsbag1
(g34
g3
NtRp258
(dp259
g37
Nsg38
Nsg39
S'rts'
p260
sg15
Nsg19
Nsg41
S'bool'
p261
sg16
Nsbag1
(g34
g3
NtRp262
(dp263
g37
Nsg38
S'false'
p264
sg39
S'has_rts'
p265
sg15
Nsg19
Nsg41
S'bool'
p266
sg16
Nsbasg16
Nsg19
Nsbsg15
Nsg16
Nsg39
S'SerialHostControlSignals'
p267
sg19
Nsbag1
(g26
g3
NtRp268
(dp269
g29
g1
(g30
g3
NtRp270
(dp271
g10
(lp272
g1
(g34
g3
NtRp273
(dp274
g37
Nsg38
Nsg39
S'dcd'
p275
sg15
Nsg19
Nsg41
S'bool'
p276
sg16
Nsbag1
(g34
g3
NtRp277
(dp278
g37
Nsg38
Nsg39
S'cts'
p279
sg15
Nsg19
Nsg41
S'bool'
p280
sg16
Nsbag1
(g34
g3
NtRp281
(dp282
g37
Nsg38
Nsg39
S'ri'
p283
sg15
Nsg19
Nsg41
S'bool'
p284
sg16
Nsbag1
(g34
g3
NtRp285
(dp286
g37
Nsg38
Nsg39
S'dsr'
p287
sg15
Nsg19
Nsg41
S'bool'
p288
sg16
Nsbasg16
Nsg19
Nsbsg15
Nsg16
Nsg39
S'SerialPortControlSignals'
p289
sg19
Nsbag1
(cmojom.parse.ast
Interface
p290
g3
NtRp291
(dp292
g29
g1
(cmojom.parse.ast
InterfaceBody
p293
g3
NtRp294
(dp295
g10
(lp296
g1
(cmojom.parse.ast
Method
p297
g3
NtRp298
(dp299
g37
Nsg39
S'GetDevices'
p300
sS'parameter_list'
p301
g1
(cmojom.parse.ast
ParameterList
p302
g3
NtRp303
(dp304
g10
(lp305
sg16
Nsg19
Nsbsg15
Nsg19
Nsg16
NsS'response_parameter_list'
p306
g1
(g302
g3
NtRp307
(dp308
g10
(lp309
g1
(cmojom.parse.ast
Parameter
p310
g3
NtRp311
(dp312
g37
Nsg39
S'devices'
p313
sg15
Nsg19
g20
sg41
S'SerialPortInfo[]'
p314
sg16
I93
sbasg16
I93
sg19
g20
sbsbag1
(g297
g3
NtRp315
(dp316
g37
Nsg39
S'GetPort'
p317
sg301
g1
(g302
g3
NtRp318
(dp319
g10
(lp320
g1
(g310
g3
NtRp321
(dp322
g37
Nsg39
S'token'
p323
sg15
Nsg19
g20
sg41
S'mojo_base.mojom.UnguessableToken'
p324
sg16
I98
sbag1
(g310
g3
NtRp325
(dp326
g37
Nsg39
S'port_request'
p327
sg15
Nsg19
g20
sg41
S'SerialPort&'
p328
sg16
I99
sbag1
(g310
g3
NtRp329
(dp330
g37
Nsg39
S'watcher'
p331
sg15
Nsg19
g20
sg41
S'SerialPortConnectionWatcher?'
p332
sg16
I100
sbasg16
I98
sg19
g20
sbsg15
Nsg19
Nsg16
Nsg306
Nsbasg16
Nsg19
Nsbsg15
Nsg16
Nsg39
S'SerialPortManager'
p333
sg19
Nsbag1
(g290
g3
NtRp334
(dp335
g29
g1
(g293
g3
NtRp336
(dp337
g10
(lp338
g1
(g297
g3
NtRp339
(dp340
g37
Nsg39
S'Open'
p341
sg301
g1
(g302
g3
NtRp342
(dp343
g10
(lp344
g1
(g310
g3
NtRp345
(dp346
g37
Nsg39
S'options'
p347
sg15
Nsg19
g20
sg41
S'SerialConnectionOptions'
p348
sg16
I106
sbag1
(g310
g3
NtRp349
(dp350
g37
Nsg39
S'in_stream'
p351
sg15
Nsg19
g20
sg41
S'handle<data_pipe_consumer>'
p352
sg16
I107
sbag1
(g310
g3
NtRp353
(dp354
g37
Nsg39
S'out_stream'
p355
sg15
Nsg19
g20
sg41
S'handle<data_pipe_producer>'
p356
sg16
I108
sbag1
(g310
g3
NtRp357
(dp358
g37
Nsg39
S'client'
p359
sg15
Nsg19
g20
sg41
S'asso<SerialPortClient>'
p360
sg16
I109
sbasg16
I106
sg19
g20
sbsg15
Nsg19
Nsg16
Nsg306
g1
(g302
g3
NtRp361
(dp362
g10
(lp363
g1
(g310
g3
NtRp364
(dp365
g37
Nsg39
S'success'
p366
sg15
Nsg19
g20
sg41
S'bool'
p367
sg16
I109
sbasg16
I109
sg19
g20
sbsbag1
(g297
g3
NtRp368
(dp369
g37
Nsg39
S'ClearSendError'
p370
sg301
g1
(g302
g3
NtRp371
(dp372
g10
(lp373
g1
(g310
g3
NtRp374
(dp375
g37
Nsg39
S'consumer'
p376
sg15
Nsg19
g20
sg41
S'handle<data_pipe_consumer>'
p377
sg16
I114
sbasg16
I114
sg19
g20
sbsg15
Nsg19
Nsg16
Nsg306
Nsbag1
(g297
g3
NtRp378
(dp379
g37
Nsg39
S'ClearReadError'
p380
sg301
g1
(g302
g3
NtRp381
(dp382
g10
(lp383
g1
(g310
g3
NtRp384
(dp385
g37
Nsg39
S'producer'
p386
sg15
Nsg19
g20
sg41
S'handle<data_pipe_producer>'
p387
sg16
I119
sbasg16
I119
sg19
g20
sbsg15
Nsg19
Nsg16
Nsg306
Nsbag1
(g297
g3
NtRp388
(dp389
g37
Nsg39
S'Flush'
p390
sg301
g1
(g302
g3
NtRp391
(dp392
g10
(lp393
sg16
Nsg19
Nsbsg15
Nsg19
Nsg16
Nsg306
g1
(g302
g3
NtRp394
(dp395
g10
(lp396
g1
(g310
g3
NtRp397
(dp398
g37
Nsg39
S'success'
p399
sg15
Nsg19
g20
sg41
S'bool'
p400
sg16
I122
sbasg16
I122
sg19
g20
sbsbag1
(g297
g3
NtRp401
(dp402
g37
Nsg39
S'GetControlSignals'
p403
sg301
g1
(g302
g3
NtRp404
(dp405
g10
(lp406
sg16
Nsg19
Nsbsg15
Nsg19
Nsg16
Nsg306
g1
(g302
g3
NtRp407
(dp408
g10
(lp409
g1
(g310
g3
NtRp410
(dp411
g37
Nsg39
S'signals'
p412
sg15
Nsg19
g20
sg41
S'SerialPortControlSignals'
p413
sg16
I125
sbasg16
I125
sg19
g20
sbsbag1
(g297
g3
NtRp414
(dp415
g37
Nsg39
S'SetControlSignals'
p416
sg301
g1
(g302
g3
NtRp417
(dp418
g10
(lp419
g1
(g310
g3
NtRp420
(dp421
g37
Nsg39
S'signals'
p422
sg15
Nsg19
g20
sg41
S'SerialHostControlSignals'
p423
sg16
I128
sbasg16
I128
sg19
g20
sbsg15
Nsg19
Nsg16
Nsg306
g1
(g302
g3
NtRp424
(dp425
g10
(lp426
g1
(g310
g3
NtRp427
(dp428
g37
Nsg39
S'success'
p429
sg15
Nsg19
g20
sg41
S'bool'
p430
sg16
I128
sbasg16
I128
sg19
g20
sbsbag1
(g297
g3
NtRp431
(dp432
g37
Nsg39
S'ConfigurePort'
p433
sg301
g1
(g302
g3
NtRp434
(dp435
g10
(lp436
g1
(g310
g3
NtRp437
(dp438
g37
Nsg39
S'options'
p439
sg15
Nsg19
g20
sg41
S'SerialConnectionOptions'
p440
sg16
I131
sbasg16
I131
sg19
g20
sbsg15
Nsg19
Nsg16
Nsg306
g1
(g302
g3
NtRp441
(dp442
g10
(lp443
g1
(g310
g3
NtRp444
(dp445
g37
Nsg39
S'success'
p446
sg15
Nsg19
g20
sg41
S'bool'
p447
sg16
I131
sbasg16
I131
sg19
g20
sbsbag1
(g297
g3
NtRp448
(dp449
g37
Nsg39
S'GetPortInfo'
p450
sg301
g1
(g302
g3
NtRp451
(dp452
g10
(lp453
sg16
Nsg19
Nsbsg15
Nsg19
Nsg16
Nsg306
g1
(g302
g3
NtRp454
(dp455
g10
(lp456
g1
(g310
g3
NtRp457
(dp458
g37
Nsg39
S'info'
p459
sg15
Nsg19
g20
sg41
S'SerialConnectionInfo'
p460
sg16
I134
sbasg16
I134
sg19
g20
sbsbag1
(g297
g3
NtRp461
(dp462
g37
Nsg39
S'SetBreak'
p463
sg301
g1
(g302
g3
NtRp464
(dp465
g10
(lp466
sg16
Nsg19
Nsbsg15
Nsg19
Nsg16
Nsg306
g1
(g302
g3
NtRp467
(dp468
g10
(lp469
g1
(g310
g3
NtRp470
(dp471
g37
Nsg39
S'success'
p472
sg15
Nsg19
g20
sg41
S'bool'
p473
sg16
I138
sbasg16
I138
sg19
g20
sbsbag1
(g297
g3
NtRp474
(dp475
g37
Nsg39
S'ClearBreak'
p476
sg301
g1
(g302
g3
NtRp477
(dp478
g10
(lp479
sg16
Nsg19
Nsbsg15
Nsg19
Nsg16
Nsg306
g1
(g302
g3
NtRp480
(dp481
g10
(lp482
g1
(g310
g3
NtRp483
(dp484
g37
Nsg39
S'success'
p485
sg15
Nsg19
g20
sg41
S'bool'
p486
sg16
I142
sbasg16
I142
sg19
g20
sbsbasg16
Nsg19
Nsbsg15
Nsg16
Nsg39
S'SerialPort'
p487
sg19
Nsbag1
(g290
g3
NtRp488
(dp489
g29
g1
(g293
g3
NtRp490
(dp491
g10
(lp492
g1
(g297
g3
NtRp493
(dp494
g37
Nsg39
S'OnReadError'
p495
sg301
g1
(g302
g3
NtRp496
(dp497
g10
(lp498
g1
(g310
g3
NtRp499
(dp500
g37
Nsg39
S'error'
p501
sg15
Nsg19
g20
sg41
S'SerialReceiveError'
p502
sg16
I146
sbasg16
I146
sg19
g20
sbsg15
Nsg19
Nsg16
Nsg306
Nsbag1
(g297
g3
NtRp503
(dp504
g37
Nsg39
S'OnSendError'
p505
sg301
g1
(g302
g3
NtRp506
(dp507
g10
(lp508
g1
(g310
g3
NtRp509
(dp510
g37
Nsg39
S'error'
p511
sg15
Nsg19
g20
sg41
S'SerialSendError'
p512
sg16
I147
sbasg16
I147
sg19
g20
sbsg15
Nsg19
Nsg16
Nsg306
Nsbasg16
Nsg19
Nsbsg15
Nsg16
Nsg39
S'SerialPortClient'
p513
sg19
Nsbag1
(g290
g3
NtRp514
(dp515
g29
g1
(g293
g3
NtRp516
(dp517
g10
(lp518
sg16
Nsg19
Nsbsg15
Nsg16
Nsg39
S'SerialPortConnectionWatcher'
p519
sg19
Nsbasg16
NsS'module'
p520
g1
(cmojom.parse.ast
Module
p521
g3
NtRp522
(dp523
S'mojom_namespace'
p524
(g191
S'device.mojom'
tp525
sg16
I5
sg15
Nsg19
g20
sbsg19
Nsb.