ccopy_reg
_reconstructor
p1
(cmojom.parse.ast
Mojom
p2
c__builtin__
object
p3
NtRp4
(dp5
S'import_list'
p6
g1
(cmojom.parse.ast
ImportList
p7
g3
NtRp8
(dp9
S'items'
p10
(lp11
sS'lineno'
p12
NsS'filename'
p13
NsbsS'definition_list'
p14
(lp15
g1
(cmojom.parse.ast
Interface
p16
g3
NtRp17
(dp18
S'body'
p19
g1
(cmojom.parse.ast
InterfaceBody
p20
g3
NtRp21
(dp22
g10
(lp23
g1
(cmojom.parse.ast
Method
p24
g3
NtRp25
(dp26
S'ordinal'
p27
NsS'mojom_name'
p28
S'Vibrate'
p29
sS'parameter_list'
p30
g1
(cmojom.parse.ast
ParameterList
p31
g3
NtRp32
(dp33
g10
(lp34
g1
(cmojom.parse.ast
Parameter
p35
g3
NtRp36
(dp37
g27
Nsg28
S'milliseconds'
p38
sS'attribute_list'
p39
Nsg13
S'../../services/device/public/mojom/vibration_manager.mojom'
p40
sS'typename'
p41
S'int64'
p42
sg12
I9
sbasg12
I9
sg13
g40
sbsg39
Nsg13
Nsg12
NsS'response_parameter_list'
p43
g1
(g31
g3
NtRp44
(dp45
g10
(lp46
sg12
Nsg13
Nsbsbag1
(g24
g3
NtRp47
(dp48
g27
Nsg28
S'Cancel'
p49
sg30
g1
(g31
g3
NtRp50
(dp51
g10
(lp52
sg12
Nsg13
Nsbsg39
Nsg13
Nsg12
Nsg43
g1
(g31
g3
NtRp53
(dp54
g10
(lp55
sg12
Nsg13
Nsbsbasg12
Nsg13
Nsbsg39
Nsg12
Nsg28
S'VibrationManager'
p56
sg13
Nsbasg12
NsS'module'
p57
g1
(cmojom.parse.ast
Module
p58
g3
NtRp59
(dp60
S'mojom_namespace'
p61
(S'IDENTIFIER'
p62
S'device.mojom'
tp63
sg12
I5
sg39
Nsg13
g40
sbsg13
Nsb.