ccopy_reg
_reconstructor
p1
(cmojom.parse.ast
Mojom
p2
c__builtin__
object
p3
NtRp4
(dp5
S'import_list'
p6
g1
(cmojom.parse.ast
ImportList
p7
g3
NtRp8
(dp9
S'items'
p10
(lp11
sS'lineno'
p12
NsS'filename'
p13
NsbsS'definition_list'
p14
(lp15
g1
(cmojom.parse.ast
Enum
p16
g3
NtRp17
(dp18
S'attribute_list'
p19
NsS'enum_value_list'
p20
g1
(cmojom.parse.ast
EnumValueList
p21
g3
NtRp22
(dp23
g10
(lp24
g1
(cmojom.parse.ast
EnumValue
p25
g3
NtRp26
(dp27
g19
NsS'value'
p28
S'0'
sg12
I13
sS'mojom_name'
p29
S'kPreventAppSuspension'
p30
sg13
S'../../services/device/public/mojom/wake_lock.mojom'
p31
sbag1
(g25
g3
NtRp32
(dp33
g19
Nsg28
S'1'
sg12
I19
sg29
S'kPreventDisplaySleep'
p34
sg13
g31
sbag1
(g25
g3
NtRp35
(dp36
g19
Nsg28
S'2'
sg12
I24
sg29
S'kPreventDisplaySleepAllowDimming'
p37
sg13
g31
sbasg12
I13
sg13
g31
sbsg12
I7
sg29
S'WakeLockType'
p38
sg13
g31
sbag1
(g16
g3
NtRp39
(dp40
g19
Nsg20
g1
(g21
g3
NtRp41
(dp42
g10
(lp43
g1
(g25
g3
NtRp44
(dp45
g19
Nsg28
S'0'
sg12
I29
sg29
S'kAudioPlayback'
p46
sg13
g31
sbag1
(g25
g3
NtRp47
(dp48
g19
Nsg28
S'1'
sg12
I31
sg29
S'kVideoPlayback'
p49
sg13
g31
sbag1
(g25
g3
NtRp50
(dp51
g19
Nsg28
S'2'
sg12
I33
sg29
S'kOther'
p52
sg13
g31
sbasg12
I29
sg13
g31
sbsg12
I27
sg29
S'WakeLockReason'
p53
sg13
g31
sbag1
(cmojom.parse.ast
Interface
p54
g3
NtRp55
(dp56
S'body'
p57
g1
(cmojom.parse.ast
InterfaceBody
p58
g3
NtRp59
(dp60
g10
(lp61
g1
(cmojom.parse.ast
Method
p62
g3
NtRp63
(dp64
S'ordinal'
p65
Nsg29
S'RequestWakeLock'
p66
sS'parameter_list'
p67
g1
(cmojom.parse.ast
ParameterList
p68
g3
NtRp69
(dp70
g10
(lp71
sg12
Nsg13
Nsbsg19
Nsg13
Nsg12
NsS'response_parameter_list'
p72
Nsbag1
(g62
g3
NtRp73
(dp74
g65
Nsg29
S'CancelWakeLock'
p75
sg67
g1
(g68
g3
NtRp76
(dp77
g10
(lp78
sg12
Nsg13
Nsbsg19
Nsg13
Nsg12
Nsg72
Nsbag1
(g62
g3
NtRp79
(dp80
g65
Nsg29
S'AddClient'
p81
sg67
g1
(g68
g3
NtRp82
(dp83
g10
(lp84
g1
(cmojom.parse.ast
Parameter
p85
g3
NtRp86
(dp87
g65
Nsg29
S'wake_lock'
p88
sg19
Nsg13
g31
sS'typename'
p89
S'WakeLock&'
p90
sg12
I53
sbasg12
I53
sg13
g31
sbsg19
Nsg13
Nsg12
Nsg72
Nsbag1
(g62
g3
NtRp91
(dp92
g65
Nsg29
S'ChangeType'
p93
sg67
g1
(g68
g3
NtRp94
(dp95
g10
(lp96
g1
(g85
g3
NtRp97
(dp98
g65
Nsg29
S'type'
p99
sg19
Nsg13
g31
sg89
S'WakeLockType'
p100
sg12
I63
sbasg12
I63
sg13
g31
sbsg19
Nsg13
Nsg12
Nsg72
g1
(g68
g3
NtRp101
(dp102
g10
(lp103
g1
(g85
g3
NtRp104
(dp105
g65
Nsg29
S'result'
p106
sg19
Nsg13
g31
sg89
S'bool'
p107
sg12
I63
sbasg12
I63
sg13
g31
sbsbag1
(g62
g3
NtRp108
(dp109
g65
Nsg29
S'HasWakeLockForTests'
p110
sg67
g1
(g68
g3
NtRp111
(dp112
g10
(lp113
sg12
Nsg13
Nsbsg19
Nsg13
Nsg12
Nsg72
g1
(g68
g3
NtRp114
(dp115
g10
(lp116
g1
(g85
g3
NtRp117
(dp118
g65
Nsg29
S'result'
p119
sg19
Nsg13
g31
sg89
S'bool'
p120
sg12
I66
sbasg12
I66
sg13
g31
sbsbasg12
Nsg13
Nsbsg19
Nsg12
Nsg29
S'WakeLock'
p121
sg13
Nsbasg12
NsS'module'
p122
g1
(cmojom.parse.ast
Module
p123
g3
NtRp124
(dp125
S'mojom_namespace'
p126
(S'IDENTIFIER'
p127
S'device.mojom'
tp128
sg12
I5
sg19
Nsg13
g31
sbsg13
Nsb.