ccopy_reg
_reconstructor
p1
(cmojom.parse.ast
Mojom
p2
c__builtin__
object
p3
NtRp4
(dp5
S'import_list'
p6
g1
(cmojom.parse.ast
ImportList
p7
g3
NtRp8
(dp9
S'items'
p10
(lp11
sS'lineno'
p12
NsS'filename'
p13
NsbsS'definition_list'
p14
(lp15
g1
(cmojom.parse.ast
Const
p16
g3
NtRp17
(dp18
S'mojom_name'
p19
S'kPerfettoProducerNamePrefix'
p20
sS'attribute_list'
p21
NsS'value'
p22
S'"org.chromium.perfetto_producer."'
p23
sg13
NsS'typename'
p24
S'string'
p25
sg12
Nsbag1
(g16
g3
NtRp26
(dp27
g19
S'kTraceEventDataSourceName'
p28
sg21
Nsg22
S'"org.chromium.trace_event"'
p29
sg13
Nsg24
S'string'
p30
sg12
Nsbag1
(g16
g3
NtRp31
(dp32
g19
S'kMetaDataSourceName'
p33
sg21
Nsg22
S'"org.chromium.trace_metadata"'
p34
sg13
Nsg24
S'string'
p35
sg12
Nsbag1
(g16
g3
NtRp36
(dp37
g19
S'kSystemTraceDataSourceName'
p38
sg21
Nsg22
S'"org.chromium.trace_system"'
p39
sg13
Nsg24
S'string'
p40
sg12
Nsbag1
(g16
g3
NtRp41
(dp42
g19
S'kArcTraceDataSourceName'
p43
sg21
Nsg22
S'"org.chromium.trace_arc"'
p44
sg13
Nsg24
S'string'
p45
sg12
Nsbag1
(cmojom.parse.ast
Struct
p46
g3
NtRp47
(dp48
S'body'
p49
g1
(cmojom.parse.ast
StructBody
p50
g3
NtRp51
(dp52
g10
(lp53
g1
(cmojom.parse.ast
StructField
p54
g3
NtRp55
(dp56
S'ordinal'
p57
NsS'default_value'
p58
Nsg19
S'page'
p59
sg21
Nsg13
Nsg24
S'uint32'
p60
sg12
Nsbag1
(g54
g3
NtRp61
(dp62
g57
Nsg58
Nsg19
S'chunk'
p63
sg21
Nsg13
Nsg24
S'uint32'
p64
sg12
Nsbag1
(g54
g3
NtRp65
(dp66
g57
Nsg58
Nsg19
S'target_buffer'
p67
sg21
Nsg13
Nsg24
S'uint32'
p68
sg12
Nsbasg12
Nsg13
Nsbsg21
Nsg12
Nsg19
S'ChunksToMove'
p69
sg13
Nsbag1
(g46
g3
NtRp70
(dp71
g49
g1
(g50
g3
NtRp72
(dp73
g10
(lp74
g1
(g54
g3
NtRp75
(dp76
g57
Nsg58
Nsg19
S'offset'
p77
sg21
Nsg13
Nsg24
S'uint32'
p78
sg12
Nsbag1
(g54
g3
NtRp79
(dp80
g57
Nsg58
Nsg19
S'data'
p81
sg21
Nsg13
Nsg24
S'string'
p82
sg12
Nsbasg12
Nsg13
Nsbsg21
Nsg12
Nsg19
S'ChunkPatch'
p83
sg13
Nsbag1
(g46
g3
NtRp84
(dp85
g49
g1
(g50
g3
NtRp86
(dp87
g10
(lp88
g1
(g54
g3
NtRp89
(dp90
g57
Nsg58
Nsg19
S'target_buffer'
p91
sg21
Nsg13
Nsg24
S'uint32'
p92
sg12
Nsbag1
(g54
g3
NtRp93
(dp94
g57
Nsg58
Nsg19
S'writer_id'
p95
sg21
Nsg13
Nsg24
S'uint32'
p96
sg12
Nsbag1
(g54
g3
NtRp97
(dp98
g57
Nsg58
Nsg19
S'chunk_id'
p99
sg21
Nsg13
Nsg24
S'uint32'
p100
sg12
Nsbag1
(g54
g3
NtRp101
(dp102
g57
Nsg58
Nsg19
S'patches'
p103
sg21
Nsg13
Nsg24
S'ChunkPatch[]'
p104
sg12
Nsbag1
(g54
g3
NtRp105
(dp106
g57
Nsg58
Nsg19
S'has_more_patches'
p107
sg21
Nsg13
Nsg24
S'bool'
p108
sg12
Nsbasg12
Nsg13
Nsbsg21
Nsg12
Nsg19
S'ChunksToPatch'
p109
sg13
Nsbag1
(g46
g3
NtRp110
(dp111
g49
g1
(g50
g3
NtRp112
(dp113
g10
(lp114
g1
(g54
g3
NtRp115
(dp116
g57
Nsg58
Nsg19
S'chunks_to_move'
p117
sg21
Nsg13
Nsg24
S'ChunksToMove[]'
p118
sg12
Nsbag1
(g54
g3
NtRp119
(dp120
g57
Nsg58
Nsg19
S'chunks_to_patch'
p121
sg21
Nsg13
Nsg24
S'ChunksToPatch[]'
p122
sg12
Nsbag1
(g54
g3
NtRp123
(dp124
g57
Nsg58
Nsg19
S'flush_request_id'
p125
sg21
Nsg13
Nsg24
S'uint64'
p126
sg12
Nsbasg12
Nsg13
Nsbsg21
Nsg12
Nsg19
S'CommitDataRequest'
p127
sg13
Nsbag1
(g46
g3
NtRp128
(dp129
g49
g1
(g50
g3
NtRp130
(dp131
g10
(lp132
g1
(g54
g3
NtRp133
(dp134
g57
Nsg58
Nsg19
S'trace_config'
p135
sg21
Nsg13
Nsg24
S'string'
p136
sg12
Nsbag1
(g54
g3
NtRp137
(dp138
g57
Nsg58
Nsg19
S'privacy_filtering_enabled'
p139
sg21
Nsg13
Nsg24
S'bool'
p140
sg12
Nsbasg12
Nsg13
Nsbsg21
Nsg12
Nsg19
S'ChromeConfig'
p141
sg13
Nsbag1
(g46
g3
NtRp142
(dp143
g49
g1
(g50
g3
NtRp144
(dp145
g10
(lp146
g1
(g54
g3
NtRp147
(dp148
g57
Nsg58
Nsg19
S'name'
p149
sg21
Nsg13
Nsg24
S'string'
p150
sg12
Nsbag1
(g54
g3
NtRp151
(dp152
g57
Nsg58
Nsg19
S'target_buffer'
p153
sg21
Nsg13
Nsg24
S'uint32'
p154
sg12
Nsbag1
(g54
g3
NtRp155
(dp156
g57
Nsg58
Nsg19
S'trace_duration_ms'
p157
sg21
Nsg13
Nsg24
S'uint32'
p158
sg12
Nsbag1
(g54
g3
NtRp159
(dp160
g57
Nsg58
Nsg19
S'tracing_session_id'
p161
sg21
Nsg13
Nsg24
S'uint64'
p162
sg12
Nsbag1
(g54
g3
NtRp163
(dp164
g57
Nsg58
Nsg19
S'chrome_config'
p165
sg21
Nsg13
Nsg24
S'ChromeConfig'
p166
sg12
Nsbag1
(g54
g3
NtRp167
(dp168
g57
Nsg58
Nsg19
S'legacy_config'
p169
sg21
Nsg13
Nsg24
S'string'
p170
sg12
Nsbasg12
Nsg13
Nsbsg21
Nsg12
Nsg19
S'DataSourceConfig'
p171
sg13
Nsbag1
(g46
g3
NtRp172
(dp173
g49
g1
(g50
g3
NtRp174
(dp175
g10
(lp176
g1
(g54
g3
NtRp177
(dp178
g57
Nsg58
Nsg19
S'name'
p179
sg21
Nsg13
Nsg24
S'string'
p180
sg12
Nsbag1
(g54
g3
NtRp181
(dp182
g57
Nsg58
Nsg19
S'will_notify_on_start'
p183
sg21
Nsg13
Nsg24
S'bool'
p184
sg12
Nsbag1
(g54
g3
NtRp185
(dp186
g57
Nsg58
Nsg19
S'will_notify_on_stop'
p187
sg21
Nsg13
Nsg24
S'bool'
p188
sg12
Nsbasg12
Nsg13
Nsbsg21
Nsg12
Nsg19
S'DataSourceRegistration'
p189
sg13
Nsbag1
(cmojom.parse.ast
Interface
p190
g3
NtRp191
(dp192
g49
g1
(cmojom.parse.ast
InterfaceBody
p193
g3
NtRp194
(dp195
g10
(lp196
g1
(cmojom.parse.ast
Method
p197
g3
NtRp198
(dp199
g57
Nsg19
S'CommitData'
p200
sS'parameter_list'
p201
g1
(cmojom.parse.ast
ParameterList
p202
g3
NtRp203
(dp204
g10
(lp205
g1
(cmojom.parse.ast
Parameter
p206
g3
NtRp207
(dp208
g57
Nsg19
S'data_request'
p209
sg21
Nsg13
S'../../services/tracing/public/mojom/perfetto_service.mojom'
p210
sg24
S'CommitDataRequest'
p211
sg12
I105
sbasg12
I105
sg13
g210
sbsg21
Nsg13
Nsg12
NsS'response_parameter_list'
p212
Nsbag1
(g197
g3
NtRp213
(dp214
g57
Nsg19
S'RegisterDataSource'
p215
sg201
g1
(g202
g3
NtRp216
(dp217
g10
(lp218
g1
(g206
g3
NtRp219
(dp220
g57
Nsg19
S'registration_info'
p221
sg21
Nsg13
g210
sg24
S'DataSourceRegistration'
p222
sg12
I109
sbasg12
I109
sg13
g210
sbsg21
Nsg13
Nsg12
Nsg212
Nsbag1
(g197
g3
NtRp223
(dp224
g57
Nsg19
S'RegisterTraceWriter'
p225
sg201
g1
(g202
g3
NtRp226
(dp227
g10
(lp228
g1
(g206
g3
NtRp229
(dp230
g57
Nsg19
S'writer_id'
p231
sg21
Nsg13
g210
sg24
S'uint32'
p232
sg12
I113
sbag1
(g206
g3
NtRp233
(dp234
g57
Nsg19
S'target_buffer'
p235
sg21
Nsg13
g210
sg24
S'uint32'
p236
sg12
I113
sbasg12
I113
sg13
g210
sbsg21
Nsg13
Nsg12
Nsg212
Nsbag1
(g197
g3
NtRp237
(dp238
g57
Nsg19
S'UnregisterTraceWriter'
p239
sg201
g1
(g202
g3
NtRp240
(dp241
g10
(lp242
g1
(g206
g3
NtRp243
(dp244
g57
Nsg19
S'writer_id'
p245
sg21
Nsg13
g210
sg24
S'uint32'
p246
sg12
I114
sbasg12
I114
sg13
g210
sbsg21
Nsg13
Nsg12
Nsg212
Nsbasg12
Nsg13
Nsbsg21
Nsg12
Nsg19
S'ProducerHost'
p247
sg13
Nsbag1
(g190
g3
NtRp248
(dp249
g49
g1
(g193
g3
NtRp250
(dp251
g10
(lp252
g1
(g197
g3
NtRp253
(dp254
g57
Nsg19
S'OnTracingStart'
p255
sg201
g1
(g202
g3
NtRp256
(dp257
g10
(lp258
g1
(g206
g3
NtRp259
(dp260
g57
Nsg19
S'shared_memory'
p261
sg21
Nsg13
g210
sg24
S'handle<shared_buffer>'
p262
sg12
I121
sbasg12
I121
sg13
g210
sbsg21
Nsg13
Nsg12
Nsg212
Nsbag1
(g197
g3
NtRp263
(dp264
g57
Nsg19
S'StartDataSource'
p265
sg201
g1
(g202
g3
NtRp266
(dp267
g10
(lp268
g1
(g206
g3
NtRp269
(dp270
g57
Nsg19
S'id'
p271
sg21
Nsg13
g210
sg24
S'uint64'
p272
sg12
I125
sbag1
(g206
g3
NtRp273
(dp274
g57
Nsg19
S'data_source_config'
p275
sg21
Nsg13
g210
sg24
S'DataSourceConfig'
p276
sg12
I125
sbasg12
I125
sg13
g210
sbsg21
Nsg13
Nsg12
Nsg212
g1
(g202
g3
NtRp277
(dp278
g10
(lp279
sg12
Nsg13
Nsbsbag1
(g197
g3
NtRp280
(dp281
g57
Nsg19
S'StopDataSource'
p282
sg201
g1
(g202
g3
NtRp283
(dp284
g10
(lp285
g1
(g206
g3
NtRp286
(dp287
g57
Nsg19
S'id'
p288
sg21
Nsg13
g210
sg24
S'uint64'
p289
sg12
I128
sbasg12
I128
sg13
g210
sbsg21
Nsg13
Nsg12
Nsg212
g1
(g202
g3
NtRp290
(dp291
g10
(lp292
sg12
Nsg13
Nsbsbag1
(g197
g3
NtRp293
(dp294
g57
Nsg19
S'Flush'
p295
sg201
g1
(g202
g3
NtRp296
(dp297
g10
(lp298
g1
(g206
g3
NtRp299
(dp300
g57
Nsg19
S'flush_request_id'
p301
sg21
Nsg13
g210
sg24
S'uint64'
p302
sg12
I129
sbag1
(g206
g3
NtRp303
(dp304
g57
Nsg19
S'data_source_ids'
p305
sg21
Nsg13
g210
sg24
S'uint64[]'
p306
sg12
I129
sbasg12
I129
sg13
g210
sbsg21
Nsg13
Nsg12
Nsg212
Nsbasg12
Nsg13
Nsbsg21
Nsg12
Nsg19
S'ProducerClient'
p307
sg13
Nsbag1
(g190
g3
NtRp308
(dp309
g49
g1
(g193
g3
NtRp310
(dp311
g10
(lp312
g1
(g197
g3
NtRp313
(dp314
g57
Nsg19
S'ConnectToProducerHost'
p315
sg201
g1
(g202
g3
NtRp316
(dp317
g10
(lp318
g1
(g206
g3
NtRp319
(dp320
g57
Nsg19
S'producer_client'
p321
sg21
Nsg13
g210
sg24
S'ProducerClient'
p322
sg12
I137
sbag1
(g206
g3
NtRp323
(dp324
g57
Nsg19
S'producer_host'
p325
sg21
Nsg13
g210
sg24
S'ProducerHost&'
p326
sg12
I138
sbasg12
I137
sg13
g210
sbsg21
Nsg13
Nsg12
Nsg212
Nsbasg12
Nsg13
Nsbsg21
Nsg12
Nsg19
S'PerfettoService'
p327
sg13
Nsbag1
(g46
g3
NtRp328
(dp329
g49
g1
(g50
g3
NtRp330
(dp331
g10
(lp332
g1
(g54
g3
NtRp333
(dp334
g57
Nsg58
Nsg19
S'size_kb'
p335
sg21
Nsg13
Nsg24
S'uint32'
p336
sg12
Nsbasg12
Nsg13
Nsbsg21
Nsg12
Nsg19
S'BufferConfig'
p337
sg13
Nsbag1
(g46
g3
NtRp338
(dp339
g49
g1
(g50
g3
NtRp340
(dp341
g10
(lp342
g1
(g54
g3
NtRp343
(dp344
g57
Nsg58
Nsg19
S'config'
p345
sg21
Nsg13
Nsg24
S'DataSourceConfig'
p346
sg12
Nsbag1
(g54
g3
NtRp347
(dp348
g57
Nsg58
Nsg19
S'producer_name_filter'
p349
sg21
Nsg13
Nsg24
S'string[]'
p350
sg12
Nsbasg12
Nsg13
Nsbsg21
Nsg12
Nsg19
S'DataSource'
p351
sg13
Nsbag1
(g46
g3
NtRp352
(dp353
g49
g1
(g50
g3
NtRp354
(dp355
g10
(lp356
g1
(g54
g3
NtRp357
(dp358
g57
Nsg58
Nsg19
S'disable_clock_snapshotting'
p359
sg21
Nsg13
Nsg24
S'bool'
p360
sg12
Nsbag1
(g54
g3
NtRp361
(dp362
g57
Nsg58
Nsg19
S'disable_trace_config'
p363
sg21
Nsg13
Nsg24
S'bool'
p364
sg12
Nsbag1
(g54
g3
NtRp365
(dp366
g57
Nsg58
Nsg19
S'disable_system_info'
p367
sg21
Nsg13
Nsg24
S'bool'
p368
sg12
Nsbasg12
Nsg13
Nsbsg21
Nsg12
Nsg19
S'PerfettoBuiltinDataSource'
p369
sg13
Nsbag1
(g46
g3
NtRp370
(dp371
g49
g1
(g50
g3
NtRp372
(dp373
g10
(lp374
g1
(g54
g3
NtRp375
(dp376
g57
Nsg58
Nsg19
S'data_sources'
p377
sg21
Nsg13
Nsg24
S'DataSource[]'
p378
sg12
Nsbag1
(g54
g3
NtRp379
(dp380
g57
Nsg58
Nsg19
S'perfetto_builtin_data_source'
p381
sg21
Nsg13
Nsg24
S'PerfettoBuiltinDataSource'
p382
sg12
Nsbag1
(g54
g3
NtRp383
(dp384
g57
Nsg58
Nsg19
S'buffers'
p385
sg21
Nsg13
Nsg24
S'BufferConfig[]'
p386
sg12
Nsbag1
(g54
g3
NtRp387
(dp388
g57
Nsg58
Nsg19
S'duration_ms'
p389
sg21
Nsg13
Nsg24
S'uint32'
p390
sg12
Nsbasg12
Nsg13
Nsbsg21
Nsg12
Nsg19
S'TraceConfig'
p391
sg13
Nsbag1
(cmojom.parse.ast
Enum
p392
g3
NtRp393
(dp394
g21
NsS'enum_value_list'
p395
g1
(cmojom.parse.ast
EnumValueList
p396
g3
NtRp397
(dp398
g10
(lp399
g1
(cmojom.parse.ast
EnumValue
p400
g3
NtRp401
(dp402
g21
Nsg22
Nsg12
I174
sg19
S'kUnknown'
p403
sg13
g210
sbag1
(g400
g3
NtRp404
(dp405
g21
Nsg22
Nsg12
I175
sg19
S'kBackground'
p406
sg13
g210
sbag1
(g400
g3
NtRp407
(dp408
g21
Nsg22
Nsg12
I176
sg19
S'kUserInitiated'
p409
sg13
g210
sbasg12
I174
sg13
g210
sbsg12
I173
sg19
S'TracingClientPriority'
p410
sg13
g210
sbag1
(g190
g3
NtRp411
(dp412
g49
g1
(g193
g3
NtRp413
(dp414
g10
(lp415
g1
(g197
g3
NtRp416
(dp417
g57
Nsg19
S'EnableTracing'
p418
sg201
g1
(g202
g3
NtRp419
(dp420
g10
(lp421
g1
(g206
g3
NtRp422
(dp423
g57
Nsg19
S'tracing_session_host'
p424
sg21
Nsg13
g210
sg24
S'TracingSessionHost&'
p425
sg12
I193
sbag1
(g206
g3
NtRp426
(dp427
g57
Nsg19
S'tracing_session_client'
p428
sg21
Nsg13
g210
sg24
S'TracingSessionClient'
p429
sg12
I194
sbag1
(g206
g3
NtRp430
(dp431
g57
Nsg19
S'config'
p432
sg21
Nsg13
g210
sg24
S'TraceConfig'
p433
sg12
I195
sbag1
(g206
g3
NtRp434
(dp435
g57
Nsg19
S'priority'
p436
sg21
Nsg13
g210
sg24
S'TracingClientPriority'
p437
sg12
I196
sbasg12
I193
sg13
g210
sbsg21
Nsg13
Nsg12
Nsg212
Nsbasg12
Nsg13
Nsbsg21
Nsg12
Nsg19
S'ConsumerHost'
p438
sg13
Nsbag1
(g190
g3
NtRp439
(dp440
g49
g1
(g193
g3
NtRp441
(dp442
g10
(lp443
g1
(g197
g3
NtRp444
(dp445
g57
Nsg19
S'ChangeTraceConfig'
p446
sg201
g1
(g202
g3
NtRp447
(dp448
g10
(lp449
g1
(g206
g3
NtRp450
(dp451
g57
Nsg19
S'config'
p452
sg21
Nsg13
g210
sg24
S'TraceConfig'
p453
sg12
I205
sbasg12
I205
sg13
g210
sbsg21
Nsg13
Nsg12
Nsg212
Nsbag1
(g197
g3
NtRp454
(dp455
g57
Nsg19
S'DisableTracing'
p456
sg201
g1
(g202
g3
NtRp457
(dp458
g10
(lp459
sg12
Nsg13
Nsbsg21
Nsg13
Nsg12
Nsg212
Nsbag1
(g197
g3
NtRp460
(dp461
g57
Nsg19
S'ReadBuffers'
p462
sg201
g1
(g202
g3
NtRp463
(dp464
g10
(lp465
g1
(g206
g3
NtRp466
(dp467
g57
Nsg19
S'stream'
p468
sg21
Nsg13
g210
sg24
S'handle<data_pipe_producer>'
p469
sg12
I217
sbasg12
I217
sg13
g210
sbsg21
Nsg13
Nsg12
Nsg212
g1
(g202
g3
NtRp470
(dp471
g10
(lp472
sg12
Nsg13
Nsbsbag1
(g197
g3
NtRp473
(dp474
g57
Nsg19
S'RequestBufferUsage'
p475
sg201
g1
(g202
g3
NtRp476
(dp477
g10
(lp478
sg12
Nsg13
Nsbsg21
Nsg13
Nsg12
Nsg212
g1
(g202
g3
NtRp479
(dp480
g10
(lp481
g1
(g206
g3
NtRp482
(dp483
g57
Nsg19
S'success'
p484
sg21
Nsg13
g210
sg24
S'bool'
p485
sg12
I221
sbag1
(g206
g3
NtRp486
(dp487
g57
Nsg19
S'percent_full'
p488
sg21
Nsg13
g210
sg24
S'float'
p489
sg12
I221
sbasg12
I221
sg13
g210
sbsbag1
(g197
g3
NtRp490
(dp491
g57
Nsg19
S'DisableTracingAndEmitJson'
p492
sg201
g1
(g202
g3
NtRp493
(dp494
g10
(lp495
g1
(g206
g3
NtRp496
(dp497
g57
Nsg19
S'agent_label_filter'
p498
sg21
Nsg13
g210
sg24
S'string'
p499
sg12
I230
sbag1
(g206
g3
NtRp500
(dp501
g57
Nsg19
S'stream'
p502
sg21
Nsg13
g210
sg24
S'handle<data_pipe_producer>'
p503
sg12
I231
sbasg12
I230
sg13
g210
sbsg21
Nsg13
Nsg12
Nsg212
g1
(g202
g3
NtRp504
(dp505
g10
(lp506
sg12
Nsg13
Nsbsbasg12
Nsg13
Nsbsg21
Nsg12
Nsg19
S'TracingSessionHost'
p507
sg13
Nsbag1
(g190
g3
NtRp508
(dp509
g49
g1
(g193
g3
NtRp510
(dp511
g10
(lp512
g1
(g197
g3
NtRp513
(dp514
g57
Nsg19
S'OnTracingEnabled'
p515
sg201
g1
(g202
g3
NtRp516
(dp517
g10
(lp518
sg12
Nsg13
Nsbsg21
Nsg13
Nsg12
Nsg212
Nsbag1
(g197
g3
NtRp519
(dp520
g57
Nsg19
S'OnTracingDisabled'
p521
sg201
g1
(g202
g3
NtRp522
(dp523
g10
(lp524
sg12
Nsg13
Nsbsg21
Nsg13
Nsg12
Nsg212
Nsbasg12
Nsg13
Nsbsg21
Nsg12
Nsg19
S'TracingSessionClient'
p525
sg13
Nsbasg12
NsS'module'
p526
g1
(cmojom.parse.ast
Module
p527
g3
NtRp528
(dp529
S'mojom_namespace'
p530
(S'IDENTIFIER'
p531
S'tracing.mojom'
tp532
sg12
I5
sg21
Nsg13
g210
sbsg13
Nsb.