ccopy_reg
_reconstructor
p1
(cmojom.parse.ast
Mojom
p2
c__builtin__
object
p3
NtRp4
(dp5
S'import_list'
p6
g1
(cmojom.parse.ast
ImportList
p7
g3
NtRp8
(dp9
S'items'
p10
(lp11
g1
(cmojom.parse.ast
Import
p12
g3
NtRp13
(dp14
S'attribute_list'
p15
NsS'lineno'
p16
I7
sS'import_filename'
p17
S'mojo/public/mojom/base/process_id.mojom'
p18
sS'filename'
p19
S'../../services/tracing/public/mojom/tracing.mojom'
p20
sbag1
(g12
g3
NtRp21
(dp22
g15
Nsg16
I8
sg17
S'mojo/public/mojom/base/time.mojom'
p23
sg19
g20
sbag1
(g12
g3
NtRp24
(dp25
g15
Nsg16
I9
sg17
S'mojo/public/mojom/base/values.mojom'
p26
sg19
g20
sbag1
(g12
g3
NtRp27
(dp28
g15
Nsg16
I10
sg17
S'services/tracing/public/mojom/perfetto_service.mojom'
p29
sg19
g20
sbasg16
I7
sg19
g20
sbsS'definition_list'
p30
(lp31
g1
(cmojom.parse.ast
Enum
p32
g3
NtRp33
(dp34
g15
NsS'enum_value_list'
p35
g1
(cmojom.parse.ast
EnumValueList
p36
g3
NtRp37
(dp38
g10
(lp39
g1
(cmojom.parse.ast
EnumValue
p40
g3
NtRp41
(dp42
g15
NsS'value'
p43
Nsg16
I20
sS'mojom_name'
p44
S'ARRAY'
p45
sg19
g20
sbag1
(g40
g3
NtRp46
(dp47
g15
Nsg43
Nsg16
I21
sg44
S'OBJECT'
p48
sg19
g20
sbag1
(g40
g3
NtRp49
(dp50
g15
Nsg43
Nsg16
I22
sg44
S'STRING'
p51
sg19
g20
sbasg16
I20
sg19
g20
sbsg16
I19
sg44
S'TraceDataType'
p52
sg19
g20
sbag1
(cmojom.parse.ast
Interface
p53
g3
NtRp54
(dp55
S'body'
p56
g1
(cmojom.parse.ast
InterfaceBody
p57
g3
NtRp58
(dp59
g10
(lp60
g1
(cmojom.parse.ast
Method
p61
g3
NtRp62
(dp63
S'ordinal'
p64
Nsg44
S'RegisterAgent'
p65
sS'parameter_list'
p66
g1
(cmojom.parse.ast
ParameterList
p67
g3
NtRp68
(dp69
g10
(lp70
g1
(cmojom.parse.ast
Parameter
p71
g3
NtRp72
(dp73
g64
Nsg44
S'agent'
p74
sg15
Nsg19
g20
sS'typename'
p75
S'Agent'
p76
sg16
I33
sbag1
(g71
g3
NtRp77
(dp78
g64
Nsg44
S'label'
p79
sg15
Nsg19
g20
sg75
S'string'
p80
sg16
I33
sbag1
(g71
g3
NtRp81
(dp82
g64
Nsg44
S'type'
p83
sg15
Nsg19
g20
sg75
S'TraceDataType'
p84
sg16
I33
sbag1
(g71
g3
NtRp85
(dp86
g64
Nsg44
S'pid'
p87
sg15
Nsg19
g20
sg75
S'mojo_base.mojom.ProcessId'
p88
sg16
I34
sbasg16
I33
sg19
g20
sbsg15
Nsg19
Nsg16
NsS'response_parameter_list'
p89
Nsbasg16
Nsg19
Nsbsg15
Nsg16
Nsg44
S'AgentRegistry'
p90
sg19
Nsbag1
(g53
g3
NtRp91
(dp92
g56
g1
(g57
g3
NtRp93
(dp94
g10
(lp95
g1
(g61
g3
NtRp96
(dp97
g64
Nsg44
S'StartTracing'
p98
sg66
g1
(g67
g3
NtRp99
(dp100
g10
(lp101
g1
(g71
g3
NtRp102
(dp103
g64
Nsg44
S'config'
p104
sg15
Nsg19
g20
sg75
S'string'
p105
sg16
I42
sbag1
(g71
g3
NtRp106
(dp107
g64
Nsg44
S'coordinator_time'
p108
sg15
Nsg19
g20
sg75
S'mojo_base.mojom.TimeTicks'
p109
sg16
I42
sbasg16
I42
sg19
g20
sbsg15
Nsg19
Nsg16
Nsg89
g1
(g67
g3
NtRp110
(dp111
g10
(lp112
g1
(g71
g3
NtRp113
(dp114
g64
Nsg44
S'success'
p115
sg15
Nsg19
g20
sg75
S'bool'
p116
sg16
I43
sbasg16
I43
sg19
g20
sbsbag1
(g61
g3
NtRp117
(dp118
g64
Nsg44
S'StopAndFlush'
p119
sg66
g1
(g67
g3
NtRp120
(dp121
g10
(lp122
g1
(g71
g3
NtRp123
(dp124
g64
Nsg44
S'recorder'
p125
sg15
Nsg19
g20
sg75
S'Recorder'
p126
sg16
I44
sbasg16
I44
sg19
g20
sbsg15
Nsg19
Nsg16
Nsg89
Nsbag1
(g61
g3
NtRp127
(dp128
g64
Nsg44
S'RequestBufferStatus'
p129
sg66
g1
(g67
g3
NtRp130
(dp131
g10
(lp132
sg16
Nsg19
Nsbsg15
Nsg19
Nsg16
Nsg89
g1
(g67
g3
NtRp133
(dp134
g10
(lp135
g1
(g71
g3
NtRp136
(dp137
g64
Nsg44
S'capacity'
p138
sg15
Nsg19
g20
sg75
S'uint32'
p139
sg16
I45
sbag1
(g71
g3
NtRp140
(dp141
g64
Nsg44
S'count'
p142
sg15
Nsg19
g20
sg75
S'uint32'
p143
sg16
I45
sbasg16
I45
sg19
g20
sbsbasg16
Nsg19
Nsbsg15
Nsg16
Nsg44
S'Agent'
p144
sg19
Nsbag1
(g53
g3
NtRp145
(dp146
g56
g1
(g57
g3
NtRp147
(dp148
g10
(lp149
g1
(g61
g3
NtRp150
(dp151
g64
Nsg44
S'AddChunk'
p152
sg66
g1
(g67
g3
NtRp153
(dp154
g10
(lp155
g1
(g71
g3
NtRp156
(dp157
g64
Nsg44
S'chunk'
p158
sg15
Nsg19
g20
sg75
S'string'
p159
sg16
I53
sbasg16
I53
sg19
g20
sbsg15
Nsg19
Nsg16
Nsg89
Nsbag1
(g61
g3
NtRp160
(dp161
g64
Nsg44
S'AddMetadata'
p162
sg66
g1
(g67
g3
NtRp163
(dp164
g10
(lp165
g1
(g71
g3
NtRp166
(dp167
g64
Nsg44
S'metadata'
p168
sg15
Nsg19
g20
sg75
S'mojo_base.mojom.DictionaryValue'
p169
sg16
I54
sbasg16
I54
sg19
g20
sbsg15
Nsg19
Nsg16
Nsg89
Nsbasg16
Nsg19
Nsbsg15
Nsg16
Nsg44
S'Recorder'
p170
sg19
Nsbag1
(g53
g3
NtRp171
(dp172
g56
g1
(g57
g3
NtRp173
(dp174
g10
(lp175
g1
(g61
g3
NtRp176
(dp177
g64
Nsg44
S'StartTracing'
p178
sg66
g1
(g67
g3
NtRp179
(dp180
g10
(lp181
g1
(g71
g3
NtRp182
(dp183
g64
Nsg44
S'config'
p184
sg15
Nsg19
g20
sg75
S'string'
p185
sg16
I64
sbasg16
I64
sg19
g20
sbsg15
Nsg19
Nsg16
Nsg89
g1
(g67
g3
NtRp186
(dp187
g10
(lp188
g1
(g71
g3
NtRp189
(dp190
g64
Nsg44
S'success'
p191
sg15
Nsg19
g20
sg75
S'bool'
p192
sg16
I64
sbasg16
I64
sg19
g20
sbsbag1
(g61
g3
NtRp193
(dp194
g64
Nsg44
S'StopAndFlush'
p195
sg66
g1
(g67
g3
NtRp196
(dp197
g10
(lp198
g1
(g71
g3
NtRp199
(dp200
g64
Nsg44
S'stream'
p201
sg15
Nsg19
g20
sg75
S'handle<data_pipe_producer>'
p202
sg16
I65
sbasg16
I65
sg19
g20
sbsg15
Nsg19
Nsg16
Nsg89
g1
(g67
g3
NtRp203
(dp204
g10
(lp205
g1
(g71
g3
NtRp206
(dp207
g64
Nsg44
S'metadata'
p208
sg15
Nsg19
g20
sg75
S'mojo_base.mojom.DictionaryValue'
p209
sg16
I66
sbasg16
I66
sg19
g20
sbsbag1
(g61
g3
NtRp210
(dp211
g64
Nsg44
S'StopAndFlushAgent'
p212
sg66
g1
(g67
g3
NtRp213
(dp214
g10
(lp215
g1
(g71
g3
NtRp216
(dp217
g64
Nsg44
S'stream'
p218
sg15
Nsg19
g20
sg75
S'handle<data_pipe_producer>'
p219
sg16
I69
sbag1
(g71
g3
NtRp220
(dp221
g64
Nsg44
S'agent_label'
p222
sg15
Nsg19
g20
sg75
S'string'
p223
sg16
I69
sbasg16
I69
sg19
g20
sbsg15
Nsg19
Nsg16
Nsg89
g1
(g67
g3
NtRp224
(dp225
g10
(lp226
g1
(g71
g3
NtRp227
(dp228
g64
Nsg44
S'metadata'
p229
sg15
Nsg19
g20
sg75
S'mojo_base.mojom.DictionaryValue'
p230
sg16
I70
sbasg16
I70
sg19
g20
sbsbag1
(g61
g3
NtRp231
(dp232
g64
Nsg44
S'IsTracing'
p233
sg66
g1
(g67
g3
NtRp234
(dp235
g10
(lp236
sg16
Nsg19
Nsbsg15
Nsg19
Nsg16
Nsg89
g1
(g67
g3
NtRp237
(dp238
g10
(lp239
g1
(g71
g3
NtRp240
(dp241
g64
Nsg44
S'is_tracing'
p242
sg15
Nsg19
g20
sg75
S'bool'
p243
sg16
I71
sbasg16
I71
sg19
g20
sbsbag1
(g61
g3
NtRp244
(dp245
g64
Nsg44
S'RequestBufferUsage'
p246
sg66
g1
(g67
g3
NtRp247
(dp248
g10
(lp249
sg16
Nsg19
Nsbsg15
Nsg19
Nsg16
Nsg89
g1
(g67
g3
NtRp250
(dp251
g10
(lp252
g1
(g71
g3
NtRp253
(dp254
g64
Nsg44
S'success'
p255
sg15
Nsg19
g20
sg75
S'bool'
p256
sg16
I72
sbag1
(g71
g3
NtRp257
(dp258
g64
Nsg44
S'percent_full'
p259
sg15
Nsg19
g20
sg75
S'float'
p260
sg16
I72
sbag1
(g71
g3
NtRp261
(dp262
g64
Nsg44
S'approximate_count'
p263
sg15
Nsg19
g20
sg75
S'uint32'
p264
sg16
I73
sbasg16
I72
sg19
g20
sbsbasg16
Nsg19
Nsbsg15
Nsg16
Nsg44
S'Coordinator'
p265
sg19
Nsbasg16
NsS'module'
p266
g1
(cmojom.parse.ast
Module
p267
g3
NtRp268
(dp269
S'mojom_namespace'
p270
(S'IDENTIFIER'
p271
S'tracing.mojom'
tp272
sg16
I5
sg15
Nsg19
g20
sbsg19
Nsb.