ccopy_reg
_reconstructor
p1
(cmojom.parse.ast
Mojom
p2
c__builtin__
object
p3
NtRp4
(dp5
S'import_list'
p6
g1
(cmojom.parse.ast
ImportList
p7
g3
NtRp8
(dp9
S'items'
p10
(lp11
sS'lineno'
p12
NsS'filename'
p13
NsbsS'definition_list'
p14
(lp15
g1
(cmojom.parse.ast
Struct
p16
g3
NtRp17
(dp18
S'body'
p19
g1
(cmojom.parse.ast
StructBody
p20
g3
NtRp21
(dp22
g10
(lp23
g1
(cmojom.parse.ast
StructField
p24
g3
NtRp25
(dp26
S'ordinal'
p27
NsS'default_value'
p28
NsS'mojom_name'
p29
S'address'
p30
sS'attribute_list'
p31
Nsg13
NsS'typename'
p32
S'uint8[6]'
p33
sg12
Nsbasg12
Nsg13
Nsbsg31
Nsg12
Nsg29
S'BluetoothAddress'
p34
sg13
Nsbag1
(g16
g3
NtRp35
(dp36
g19
g1
(g20
g3
NtRp37
(dp38
g10
(lp39
g1
(cmojom.parse.ast
Enum
p40
g3
NtRp41
(dp42
g31
NsS'enum_value_list'
p43
g1
(cmojom.parse.ast
EnumValueList
p44
g3
NtRp45
(dp46
g10
(lp47
g1
(cmojom.parse.ast
EnumValue
p48
g3
NtRp49
(dp50
g31
NsS'value'
p51
Nsg12
I17
sg29
S'kNotConnected'
p52
sg13
S'../../services/device/public/mojom/bluetooth_system.mojom'
p53
sbag1
(g48
g3
NtRp54
(dp55
g31
Nsg51
Nsg12
I18
sg29
S'kConnecting'
p56
sg13
g53
sbag1
(g48
g3
NtRp57
(dp58
g31
Nsg51
Nsg12
I19
sg29
S'kConnected'
p59
sg13
g53
sbasg12
I17
sg13
g53
sbsg12
I16
sg29
S'ConnectionState'
p60
sg13
g53
sbag1
(g40
g3
NtRp61
(dp62
g31
Nsg43
g1
(g44
g3
NtRp63
(dp64
g10
(lp65
g1
(g48
g3
NtRp66
(dp67
g31
Nsg51
Nsg12
I26
sg29
S'kUnknown'
p68
sg13
g53
sbag1
(g48
g3
NtRp69
(dp70
g31
Nsg51
Nsg12
I27
sg29
S'kComputer'
p71
sg13
g53
sbag1
(g48
g3
NtRp72
(dp73
g31
Nsg51
Nsg12
I28
sg29
S'kPhone'
p74
sg13
g53
sbag1
(g48
g3
NtRp75
(dp76
g31
Nsg51
Nsg12
I29
sg29
S'kModem'
p77
sg13
g53
sbag1
(g48
g3
NtRp78
(dp79
g31
Nsg51
Nsg12
I30
sg29
S'kAudio'
p80
sg13
g53
sbag1
(g48
g3
NtRp81
(dp82
g31
Nsg51
Nsg12
I31
sg29
S'kCarAudio'
p83
sg13
g53
sbag1
(g48
g3
NtRp84
(dp85
g31
Nsg51
Nsg12
I32
sg29
S'kVideo'
p86
sg13
g53
sbag1
(g48
g3
NtRp87
(dp88
g31
Nsg51
Nsg12
I33
sg29
S'kPeripheral'
p89
sg13
g53
sbag1
(g48
g3
NtRp90
(dp91
g31
Nsg51
Nsg12
I34
sg29
S'kJoystick'
p92
sg13
g53
sbag1
(g48
g3
NtRp93
(dp94
g31
Nsg51
Nsg12
I35
sg29
S'kGamepad'
p95
sg13
g53
sbag1
(g48
g3
NtRp96
(dp97
g31
Nsg51
Nsg12
I36
sg29
S'kKeyboard'
p98
sg13
g53
sbag1
(g48
g3
NtRp99
(dp100
g31
Nsg51
Nsg12
I37
sg29
S'kMouse'
p101
sg13
g53
sbag1
(g48
g3
NtRp102
(dp103
g31
Nsg51
Nsg12
I38
sg29
S'kTablet'
p104
sg13
g53
sbag1
(g48
g3
NtRp105
(dp106
g31
Nsg51
Nsg12
I39
sg29
S'kKeyboardMouseCombo'
p107
sg13
g53
sbasg12
I26
sg13
g53
sbsg12
I25
sg29
S'DeviceType'
p108
sg13
g53
sbag1
(g24
g3
NtRp109
(dp110
g27
Nsg28
Nsg29
S'address'
p111
sg31
Nsg13
Nsg32
S'BluetoothAddress'
p112
sg12
Nsbag1
(g24
g3
NtRp113
(dp114
g27
Nsg28
Nsg29
S'name'
p115
sg31
Nsg13
Nsg32
S'string?'
p116
sg12
Nsbag1
(g24
g3
NtRp117
(dp118
g27
Nsg28
Nsg29
S'connection_state'
p119
sg31
Nsg13
Nsg32
S'ConnectionState'
p120
sg12
Nsbag1
(g24
g3
NtRp121
(dp122
g27
Nsg28
Nsg29
S'is_paired'
p123
sg31
Nsg13
Nsg32
S'bool'
p124
sg12
Nsbag1
(g24
g3
NtRp125
(dp126
g27
Nsg28
Nsg29
S'device_type'
p127
sg31
Nsg13
Nsg32
S'DeviceType'
p128
sg12
Nsbasg12
I16
sg13
g53
sbsg31
Nsg12
Nsg29
S'BluetoothDeviceInfo'
p129
sg13
Nsbag1
(cmojom.parse.ast
Interface
p130
g3
NtRp131
(dp132
g19
g1
(cmojom.parse.ast
InterfaceBody
p133
g3
NtRp134
(dp135
g10
(lp136
g1
(cmojom.parse.ast
Method
p137
g3
NtRp138
(dp139
g27
Nsg29
S'Create'
p140
sS'parameter_list'
p141
g1
(cmojom.parse.ast
ParameterList
p142
g3
NtRp143
(dp144
g10
(lp145
g1
(cmojom.parse.ast
Parameter
p146
g3
NtRp147
(dp148
g27
Nsg29
S'system'
p149
sg31
Nsg13
g53
sg32
S'BluetoothSystem&'
p150
sg12
I67
sbag1
(g146
g3
NtRp151
(dp152
g27
Nsg29
S'system_client'
p153
sg31
Nsg13
g53
sg32
S'BluetoothSystemClient'
p154
sg12
I67
sbasg12
I67
sg13
g53
sbsg31
Nsg13
Nsg12
NsS'response_parameter_list'
p155
Nsbasg12
Nsg13
Nsbsg31
Nsg12
Nsg29
S'BluetoothSystemFactory'
p156
sg13
Nsbag1
(g130
g3
NtRp157
(dp158
g19
g1
(g133
g3
NtRp159
(dp160
g10
(lp161
g1
(g40
g3
NtRp162
(dp163
g31
Nsg43
g1
(g44
g3
NtRp164
(dp165
g10
(lp166
g1
(g48
g3
NtRp167
(dp168
g31
Nsg51
Nsg12
I83
sg29
S'kUnsupported'
p169
sg13
g53
sbag1
(g48
g3
NtRp170
(dp171
g31
Nsg51
Nsg12
I86
sg29
S'kUnavailable'
p172
sg13
g53
sbag1
(g48
g3
NtRp173
(dp174
g31
Nsg51
Nsg12
I88
sg29
S'kPoweredOff'
p175
sg13
g53
sbag1
(g48
g3
NtRp176
(dp177
g31
Nsg51
Nsg12
I90
sg29
S'kTransitioning'
p178
sg13
g53
sbag1
(g48
g3
NtRp179
(dp180
g31
Nsg51
Nsg12
I92
sg29
S'kPoweredOn'
p181
sg13
g53
sbasg12
I83
sg13
g53
sbsg12
I81
sg29
S'State'
p182
sg13
g53
sbag1
(g137
g3
NtRp183
(dp184
g27
Nsg29
S'GetState'
p185
sg141
g1
(g142
g3
NtRp186
(dp187
g10
(lp188
sg12
Nsg13
Nsbsg31
Nsg13
Nsg12
Nsg155
g1
(g142
g3
NtRp189
(dp190
g10
(lp191
g1
(g146
g3
NtRp192
(dp193
g27
Nsg29
S'state'
p194
sg31
Nsg13
g53
sg32
S'State'
p195
sg12
I95
sbasg12
I95
sg13
g53
sbsbag1
(g40
g3
NtRp196
(dp197
g31
Nsg43
g1
(g44
g3
NtRp198
(dp199
g10
(lp200
g1
(g48
g3
NtRp201
(dp202
g31
Nsg51
Nsg12
I100
sg29
S'kSuccess'
p203
sg13
g53
sbag1
(g48
g3
NtRp204
(dp205
g31
Nsg51
Nsg12
I102
sg29
S'kFailedUnknownReason'
p206
sg13
g53
sbag1
(g48
g3
NtRp207
(dp208
g31
Nsg51
Nsg12
I104
sg29
S'kFailedBluetoothUnavailable'
p209
sg13
g53
sbag1
(g48
g3
NtRp210
(dp211
g31
Nsg51
Nsg12
I106
sg29
S'kFailedInProgress'
p212
sg13
g53
sbasg12
I100
sg13
g53
sbsg12
I97
sg29
S'SetPoweredResult'
p213
sg13
g53
sbag1
(g137
g3
NtRp214
(dp215
g27
Nsg29
S'SetPowered'
p216
sg141
g1
(g142
g3
NtRp217
(dp218
g10
(lp219
g1
(g146
g3
NtRp220
(dp221
g27
Nsg29
S'powered'
p222
sg31
Nsg13
g53
sg32
S'bool'
p223
sg12
I125
sbasg12
I125
sg13
g53
sbsg31
Nsg13
Nsg12
Nsg155
g1
(g142
g3
NtRp224
(dp225
g10
(lp226
g1
(g146
g3
NtRp227
(dp228
g27
Nsg29
S'result'
p229
sg31
Nsg13
g53
sg32
S'SetPoweredResult'
p230
sg12
I125
sbasg12
I125
sg13
g53
sbsbag1
(g40
g3
NtRp231
(dp232
g31
Nsg43
g1
(g44
g3
NtRp233
(dp234
g10
(lp235
g1
(g48
g3
NtRp236
(dp237
g31
Nsg51
Nsg12
I131
sg29
S'kNotScanning'
p238
sg13
g53
sbag1
(g48
g3
NtRp239
(dp240
g31
Nsg51
Nsg12
I133
sg29
S'kTransitioning'
p241
sg13
g53
sbag1
(g48
g3
NtRp242
(dp243
g31
Nsg51
Nsg12
I135
sg29
S'kScanning'
p244
sg13
g53
sbasg12
I131
sg13
g53
sbsg12
I128
sg29
S'ScanState'
p245
sg13
g53
sbag1
(g137
g3
NtRp246
(dp247
g27
Nsg29
S'GetScanState'
p248
sg141
g1
(g142
g3
NtRp249
(dp250
g10
(lp251
sg12
Nsg13
Nsbsg31
Nsg13
Nsg12
Nsg155
g1
(g142
g3
NtRp252
(dp253
g10
(lp254
g1
(g146
g3
NtRp255
(dp256
g27
Nsg29
S'scan_state'
p257
sg31
Nsg13
g53
sg32
S'ScanState'
p258
sg12
I138
sbasg12
I138
sg13
g53
sbsbag1
(g40
g3
NtRp259
(dp260
g31
Nsg43
g1
(g44
g3
NtRp261
(dp262
g10
(lp263
g1
(g48
g3
NtRp264
(dp265
g31
Nsg51
Nsg12
I143
sg29
S'kSuccess'
p266
sg13
g53
sbag1
(g48
g3
NtRp267
(dp268
g31
Nsg51
Nsg12
I145
sg29
S'kFailedUnknownReason'
p269
sg13
g53
sbag1
(g48
g3
NtRp270
(dp271
g31
Nsg51
Nsg12
I148
sg29
S'kFailedBluetoothUnavailable'
p272
sg13
g53
sbasg12
I143
sg13
g53
sbsg12
I140
sg29
S'StartScanResult'
p273
sg13
g53
sbag1
(g137
g3
NtRp274
(dp275
g27
Nsg29
S'StartScan'
p276
sg141
g1
(g142
g3
NtRp277
(dp278
g10
(lp279
sg12
Nsg13
Nsbsg31
Nsg13
Nsg12
Nsg155
g1
(g142
g3
NtRp280
(dp281
g10
(lp282
g1
(g146
g3
NtRp283
(dp284
g27
Nsg29
S'result'
p285
sg31
Nsg13
g53
sg32
S'StartScanResult'
p286
sg12
I160
sbasg12
I160
sg13
g53
sbsbag1
(g40
g3
NtRp287
(dp288
g31
Nsg43
g1
(g44
g3
NtRp289
(dp290
g10
(lp291
g1
(g48
g3
NtRp292
(dp293
g31
Nsg51
Nsg12
I164
sg29
S'kSuccess'
p294
sg13
g53
sbag1
(g48
g3
NtRp295
(dp296
g31
Nsg51
Nsg12
I166
sg29
S'kFailedUnknownReason'
p297
sg13
g53
sbag1
(g48
g3
NtRp298
(dp299
g31
Nsg51
Nsg12
I168
sg29
S'kFailedBluetoothUnavailable'
p300
sg13
g53
sbasg12
I164
sg13
g53
sbsg12
I162
sg29
S'StopScanResult'
p301
sg13
g53
sbag1
(g137
g3
NtRp302
(dp303
g27
Nsg29
S'StopScan'
p304
sg141
g1
(g142
g3
NtRp305
(dp306
g10
(lp307
sg12
Nsg13
Nsbsg31
Nsg13
Nsg12
Nsg155
g1
(g142
g3
NtRp308
(dp309
g10
(lp310
g1
(g146
g3
NtRp311
(dp312
g27
Nsg29
S'result'
p313
sg31
Nsg13
g53
sg32
S'StopScanResult'
p314
sg12
I180
sbasg12
I180
sg13
g53
sbsbag1
(g137
g3
NtRp315
(dp316
g27
Nsg29
S'GetAvailableDevices'
p317
sg141
g1
(g142
g3
NtRp318
(dp319
g10
(lp320
sg12
Nsg13
Nsbsg31
Nsg13
Nsg12
Nsg155
g1
(g142
g3
NtRp321
(dp322
g10
(lp323
g1
(g146
g3
NtRp324
(dp325
g27
Nsg29
S'devices'
p326
sg31
Nsg13
g53
sg32
S'BluetoothDeviceInfo[]'
p327
sg12
I184
sbasg12
I184
sg13
g53
sbsbasg12
I81
sg13
g53
sbsg31
Nsg12
Nsg29
S'BluetoothSystem'
p328
sg13
Nsbag1
(g130
g3
NtRp329
(dp330
g19
g1
(g133
g3
NtRp331
(dp332
g10
(lp333
g1
(g137
g3
NtRp334
(dp335
g27
Nsg29
S'OnStateChanged'
p336
sg141
g1
(g142
g3
NtRp337
(dp338
g10
(lp339
g1
(g146
g3
NtRp340
(dp341
g27
Nsg29
S'new_state'
p342
sg31
Nsg13
g53
sg32
S'BluetoothSystem.State'
p343
sg12
I190
sbasg12
I190
sg13
g53
sbsg31
Nsg13
Nsg12
Nsg155
Nsbag1
(g137
g3
NtRp344
(dp345
g27
Nsg29
S'OnScanStateChanged'
p346
sg141
g1
(g142
g3
NtRp347
(dp348
g10
(lp349
g1
(g146
g3
NtRp350
(dp351
g27
Nsg29
S'new_state'
p352
sg31
Nsg13
g53
sg32
S'BluetoothSystem.ScanState'
p353
sg12
I191
sbasg12
I191
sg13
g53
sbsg31
Nsg13
Nsg12
Nsg155
Nsbasg12
Nsg13
Nsbsg31
Nsg12
Nsg29
S'BluetoothSystemClient'
p354
sg13
Nsbasg12
NsS'module'
p355
g1
(cmojom.parse.ast
Module
p356
g3
NtRp357
(dp358
S'mojom_namespace'
p359
(S'IDENTIFIER'
p360
S'device.mojom'
tp361
sg12
I5
sg31
Nsg13
g53
sbsg13
Nsb.