ccopy_reg
_reconstructor
p1
(cmojom.parse.ast
Mojom
p2
c__builtin__
object
p3
NtRp4
(dp5
S'import_list'
p6
g1
(cmojom.parse.ast
ImportList
p7
g3
NtRp8
(dp9
S'items'
p10
(lp11
g1
(cmojom.parse.ast
Import
p12
g3
NtRp13
(dp14
S'attribute_list'
p15
NsS'lineno'
p16
I7
sS'import_filename'
p17
S'services/device/public/mojom/geoposition.mojom'
p18
sS'filename'
p19
S'../../services/device/public/mojom/geolocation.mojom'
p20
sbasg16
I7
sg19
g20
sbsS'definition_list'
p21
(lp22
g1
(cmojom.parse.ast
Interface
p23
g3
NtRp24
(dp25
S'body'
p26
g1
(cmojom.parse.ast
InterfaceBody
p27
g3
NtRp28
(dp29
g10
(lp30
g1
(cmojom.parse.ast
Method
p31
g3
NtRp32
(dp33
S'ordinal'
p34
NsS'mojom_name'
p35
S'SetHighAccuracy'
p36
sS'parameter_list'
p37
g1
(cmojom.parse.ast
ParameterList
p38
g3
NtRp39
(dp40
g10
(lp41
g1
(cmojom.parse.ast
Parameter
p42
g3
NtRp43
(dp44
g34
Nsg35
S'high_accuracy'
p45
sg15
Nsg19
g20
sS'typename'
p46
S'bool'
p47
sg16
I15
sbasg16
I15
sg19
g20
sbsg15
Nsg19
Nsg16
NsS'response_parameter_list'
p48
Nsbag1
(g31
g3
NtRp49
(dp50
g34
Nsg35
S'QueryNextPosition'
p51
sg37
g1
(g38
g3
NtRp52
(dp53
g10
(lp54
sg16
Nsg19
Nsbsg15
Nsg19
Nsg16
Nsg48
g1
(g38
g3
NtRp55
(dp56
g10
(lp57
g1
(g42
g3
NtRp58
(dp59
g34
Nsg35
S'geoposition'
p60
sg15
Nsg19
g20
sg46
S'Geoposition'
p61
sg16
I29
sbasg16
I29
sg19
g20
sbsbasg16
Nsg19
Nsbsg15
Nsg16
Nsg35
S'Geolocation'
p62
sg19
Nsbasg16
NsS'module'
p63
g1
(cmojom.parse.ast
Module
p64
g3
NtRp65
(dp66
S'mojom_namespace'
p67
(S'IDENTIFIER'
p68
S'device.mojom'
tp69
sg16
I5
sg15
Nsg19
g20
sbsg19
Nsb.