ccopy_reg
_reconstructor
p1
(cmojom.parse.ast
Mojom
p2
c__builtin__
object
p3
NtRp4
(dp5
S'import_list'
p6
g1
(cmojom.parse.ast
ImportList
p7
g3
NtRp8
(dp9
S'items'
p10
(lp11
g1
(cmojom.parse.ast
Import
p12
g3
NtRp13
(dp14
S'attribute_list'
p15
NsS'lineno'
p16
I7
sS'import_filename'
p17
S'mojo/public/mojom/base/time.mojom'
p18
sS'filename'
p19
S'../../services/device/public/mojom/geoposition.mojom'
p20
sbasg16
I7
sg19
g20
sbsS'definition_list'
p21
(lp22
g1
(cmojom.parse.ast
Const
p23
g3
NtRp24
(dp25
S'mojom_name'
p26
S'kBadLatitudeLongitude'
p27
sg15
NsS'value'
p28
S'200'
p29
sg19
NsS'typename'
p30
S'double'
p31
sg16
Nsbag1
(g23
g3
NtRp32
(dp33
g26
S'kBadAltitude'
p34
sg15
Nsg28
S'-10000'
p35
sg19
Nsg30
S'double'
p36
sg16
Nsbag1
(g23
g3
NtRp37
(dp38
g26
S'kBadAccuracy'
p39
sg15
Nsg28
S'-1'
p40
sg19
Nsg30
S'double'
p41
sg16
Nsbag1
(g23
g3
NtRp42
(dp43
g26
S'kBadHeading'
p44
sg15
Nsg28
S'-1'
p45
sg19
Nsg30
S'double'
p46
sg16
Nsbag1
(g23
g3
NtRp47
(dp48
g26
S'kBadSpeed'
p49
sg15
Nsg28
S'-1'
p50
sg19
Nsg30
S'double'
p51
sg16
Nsbag1
(cmojom.parse.ast
Struct
p52
g3
NtRp53
(dp54
S'body'
p55
g1
(cmojom.parse.ast
StructBody
p56
g3
NtRp57
(dp58
g10
(lp59
g1
(cmojom.parse.ast
Enum
p60
g3
NtRp61
(dp62
g15
NsS'enum_value_list'
p63
g1
(cmojom.parse.ast
EnumValueList
p64
g3
NtRp65
(dp66
g10
(lp67
g1
(cmojom.parse.ast
EnumValue
p68
g3
NtRp69
(dp70
g15
Nsg28
S'0'
sg16
I25
sg26
S'NONE'
p71
sg19
g20
sbag1
(g68
g3
NtRp72
(dp73
g15
Nsg28
S'1'
sg16
I26
sg26
S'PERMISSION_DENIED'
p74
sg19
g20
sbag1
(g68
g3
NtRp75
(dp76
g15
Nsg28
S'2'
sg16
I27
sg26
S'POSITION_UNAVAILABLE'
p77
sg19
g20
sbag1
(g68
g3
NtRp78
(dp79
g15
Nsg28
S'3'
sg16
I28
sg26
S'TIMEOUT'
p80
sg19
g20
sbag1
(g68
g3
NtRp81
(dp82
g15
Nsg28
(S'IDENTIFIER'
p83
S'TIMEOUT'
tp84
sg16
I29
sg26
S'LAST'
p85
sg19
g20
sbasg16
I25
sg19
g20
sbsg16
I24
sg26
S'ErrorCode'
p86
sg19
g20
sbag1
(cmojom.parse.ast
StructField
p87
g3
NtRp88
(dp89
S'ordinal'
p90
NsS'default_value'
p91
Nsg26
S'valid'
p92
sg15
Nsg19
Nsg30
S'bool'
p93
sg16
Nsbag1
(g87
g3
NtRp94
(dp95
g90
Nsg91
(g83
S'kBadLatitudeLongitude'
tp96
sg26
S'latitude'
p97
sg15
Nsg19
Nsg30
S'double'
p98
sg16
Nsbag1
(g87
g3
NtRp99
(dp100
g90
Nsg91
(g83
S'kBadLatitudeLongitude'
tp101
sg26
S'longitude'
p102
sg15
Nsg19
Nsg30
S'double'
p103
sg16
Nsbag1
(g87
g3
NtRp104
(dp105
g90
Nsg91
(g83
S'kBadAltitude'
tp106
sg26
S'altitude'
p107
sg15
Nsg19
Nsg30
S'double'
p108
sg16
Nsbag1
(g87
g3
NtRp109
(dp110
g90
Nsg91
(g83
S'kBadAccuracy'
tp111
sg26
S'accuracy'
p112
sg15
Nsg19
Nsg30
S'double'
p113
sg16
Nsbag1
(g87
g3
NtRp114
(dp115
g90
Nsg91
(g83
S'kBadAccuracy'
tp116
sg26
S'altitude_accuracy'
p117
sg15
Nsg19
Nsg30
S'double'
p118
sg16
Nsbag1
(g87
g3
NtRp119
(dp120
g90
Nsg91
(g83
S'kBadHeading'
tp121
sg26
S'heading'
p122
sg15
Nsg19
Nsg30
S'double'
p123
sg16
Nsbag1
(g87
g3
NtRp124
(dp125
g90
Nsg91
(g83
S'kBadSpeed'
tp126
sg26
S'speed'
p127
sg15
Nsg19
Nsg30
S'double'
p128
sg16
Nsbag1
(g87
g3
NtRp129
(dp130
g90
Nsg91
Nsg26
S'timestamp'
p131
sg15
Nsg19
Nsg30
S'mojo_base.mojom.Time'
p132
sg16
Nsbag1
(g87
g3
NtRp133
(dp134
g90
Nsg91
(g83
S'NONE'
tp135
sg26
S'error_code'
p136
sg15
Nsg19
Nsg30
S'ErrorCode'
p137
sg16
Nsbag1
(g87
g3
NtRp138
(dp139
g90
Nsg91
Nsg26
S'error_message'
p140
sg15
Nsg19
Nsg30
S'string'
p141
sg16
Nsbasg16
I24
sg19
g20
sbsg15
Nsg16
Nsg26
S'Geoposition'
p142
sg19
Nsbasg16
NsS'module'
p143
g1
(cmojom.parse.ast
Module
p144
g3
NtRp145
(dp146
S'mojom_namespace'
p147
(g83
S'device.mojom'
tp148
sg16
I5
sg15
Nsg19
g20
sbsg19
Nsb.