ccopy_reg
_reconstructor
p1
(cmojom.parse.ast
Mojom
p2
c__builtin__
object
p3
NtRp4
(dp5
S'import_list'
p6
g1
(cmojom.parse.ast
ImportList
p7
g3
NtRp8
(dp9
S'items'
p10
(lp11
sS'lineno'
p12
NsS'filename'
p13
NsbsS'definition_list'
p14
(lp15
g1
(cmojom.parse.ast
Enum
p16
g3
NtRp17
(dp18
S'attribute_list'
p19
NsS'enum_value_list'
p20
g1
(cmojom.parse.ast
EnumValueList
p21
g3
NtRp22
(dp23
g10
(lp24
g1
(cmojom.parse.ast
EnumValue
p25
g3
NtRp26
(dp27
g19
NsS'value'
p28
S'0'
sg12
I12
sS'mojom_name'
p29
S'SUBSYSTEM_HID'
p30
sg13
S'../../services/device/public/mojom/input_service.mojom'
p31
sbag1
(g25
g3
NtRp32
(dp33
g19
Nsg28
S'1'
sg12
I13
sg29
S'SUBSYSTEM_INPUT'
p34
sg13
g31
sbag1
(g25
g3
NtRp35
(dp36
g19
Nsg28
S'2'
sg12
I14
sg29
S'SUBSYSTEM_UNKNOWN'
p37
sg13
g31
sbasg12
I12
sg13
g31
sbsg12
I11
sg29
S'InputDeviceSubsystem'
p38
sg13
g31
sbag1
(g16
g3
NtRp39
(dp40
g19
Nsg20
g1
(g21
g3
NtRp41
(dp42
g10
(lp43
g1
(g25
g3
NtRp44
(dp45
g19
Nsg28
S'0'
sg12
I18
sg29
S'TYPE_BLUETOOTH'
p46
sg13
g31
sbag1
(g25
g3
NtRp47
(dp48
g19
Nsg28
S'1'
sg12
I19
sg29
S'TYPE_USB'
p49
sg13
g31
sbag1
(g25
g3
NtRp50
(dp51
g19
Nsg28
S'2'
sg12
I20
sg29
S'TYPE_SERIO'
p52
sg13
g31
sbag1
(g25
g3
NtRp53
(dp54
g19
Nsg28
S'3'
sg12
I21
sg29
S'TYPE_UNKNOWN'
p55
sg13
g31
sbasg12
I18
sg13
g31
sbsg12
I17
sg29
S'InputDeviceType'
p56
sg13
g31
sbag1
(cmojom.parse.ast
Struct
p57
g3
NtRp58
(dp59
S'body'
p60
g1
(cmojom.parse.ast
StructBody
p61
g3
NtRp62
(dp63
g10
(lp64
g1
(cmojom.parse.ast
StructField
p65
g3
NtRp66
(dp67
S'ordinal'
p68
NsS'default_value'
p69
Nsg29
S'id'
p70
sg19
Nsg13
NsS'typename'
p71
S'string'
p72
sg12
Nsbag1
(g65
g3
NtRp73
(dp74
g68
Nsg69
Nsg29
S'name'
p75
sg19
Nsg13
Nsg71
S'string'
p76
sg12
Nsbag1
(g65
g3
NtRp77
(dp78
g68
Nsg69
Nsg29
S'subsystem'
p79
sg19
Nsg13
Nsg71
S'InputDeviceSubsystem'
p80
sg12
Nsbag1
(g65
g3
NtRp81
(dp82
g68
Nsg69
Nsg29
S'type'
p83
sg19
Nsg13
Nsg71
S'InputDeviceType'
p84
sg12
Nsbag1
(g65
g3
NtRp85
(dp86
g68
Nsg69
Nsg29
S'is_accelerometer'
p87
sg19
Nsg13
Nsg71
S'bool'
p88
sg12
Nsbag1
(g65
g3
NtRp89
(dp90
g68
Nsg69
Nsg29
S'is_joystick'
p91
sg19
Nsg13
Nsg71
S'bool'
p92
sg12
Nsbag1
(g65
g3
NtRp93
(dp94
g68
Nsg69
Nsg29
S'is_key'
p95
sg19
Nsg13
Nsg71
S'bool'
p96
sg12
Nsbag1
(g65
g3
NtRp97
(dp98
g68
Nsg69
Nsg29
S'is_keyboard'
p99
sg19
Nsg13
Nsg71
S'bool'
p100
sg12
Nsbag1
(g65
g3
NtRp101
(dp102
g68
Nsg69
Nsg29
S'is_mouse'
p103
sg19
Nsg13
Nsg71
S'bool'
p104
sg12
Nsbag1
(g65
g3
NtRp105
(dp106
g68
Nsg69
Nsg29
S'is_tablet'
p107
sg19
Nsg13
Nsg71
S'bool'
p108
sg12
Nsbag1
(g65
g3
NtRp109
(dp110
g68
Nsg69
Nsg29
S'is_touchpad'
p111
sg19
Nsg13
Nsg71
S'bool'
p112
sg12
Nsbag1
(g65
g3
NtRp113
(dp114
g68
Nsg69
Nsg29
S'is_touchscreen'
p115
sg19
Nsg13
Nsg71
S'bool'
p116
sg12
Nsbasg12
Nsg13
Nsbsg19
Nsg12
Nsg29
S'InputDeviceInfo'
p117
sg13
Nsbag1
(cmojom.parse.ast
Interface
p118
g3
NtRp119
(dp120
g60
g1
(cmojom.parse.ast
InterfaceBody
p121
g3
NtRp122
(dp123
g10
(lp124
g1
(cmojom.parse.ast
Method
p125
g3
NtRp126
(dp127
g68
Nsg29
S'InputDeviceAdded'
p128
sS'parameter_list'
p129
g1
(cmojom.parse.ast
ParameterList
p130
g3
NtRp131
(dp132
g10
(lp133
g1
(cmojom.parse.ast
Parameter
p134
g3
NtRp135
(dp136
g68
Nsg29
S'device_info'
p137
sg19
Nsg13
g31
sg71
S'InputDeviceInfo'
p138
sg12
I42
sbasg12
I42
sg13
g31
sbsg19
Nsg13
Nsg12
NsS'response_parameter_list'
p139
Nsbag1
(g125
g3
NtRp140
(dp141
g68
Nsg29
S'InputDeviceRemoved'
p142
sg129
g1
(g130
g3
NtRp143
(dp144
g10
(lp145
g1
(g134
g3
NtRp146
(dp147
g68
Nsg29
S'id'
p148
sg19
Nsg13
g31
sg71
S'string'
p149
sg12
I45
sbasg12
I45
sg13
g31
sbsg19
Nsg13
Nsg12
Nsg139
Nsbasg12
Nsg13
Nsbsg19
Nsg12
Nsg29
S'InputDeviceManagerClient'
p150
sg13
Nsbag1
(g118
g3
NtRp151
(dp152
g60
g1
(g121
g3
NtRp153
(dp154
g10
(lp155
g1
(g125
g3
NtRp156
(dp157
g68
Nsg29
S'GetDevicesAndSetClient'
p158
sg129
g1
(g130
g3
NtRp159
(dp160
g10
(lp161
g1
(g134
g3
NtRp162
(dp163
g68
Nsg29
S'client'
p164
sg19
Nsg13
g31
sg71
S'asso<InputDeviceManagerClient>'
p165
sg12
I53
sbasg12
I53
sg13
g31
sbsg19
Nsg13
Nsg12
Nsg139
g1
(g130
g3
NtRp166
(dp167
g10
(lp168
g1
(g134
g3
NtRp169
(dp170
g68
Nsg29
S'devices'
p171
sg19
Nsg13
g31
sg71
S'InputDeviceInfo[]'
p172
sg12
I54
sbasg12
I54
sg13
g31
sbsbag1
(g125
g3
NtRp173
(dp174
g68
Nsg29
S'GetDevices'
p175
sg129
g1
(g130
g3
NtRp176
(dp177
g10
(lp178
sg12
Nsg13
Nsbsg19
Nsg13
Nsg12
Nsg139
g1
(g130
g3
NtRp179
(dp180
g10
(lp181
g1
(g134
g3
NtRp182
(dp183
g68
Nsg29
S'devices'
p184
sg19
Nsg13
g31
sg71
S'InputDeviceInfo[]'
p185
sg12
I57
sbasg12
I57
sg13
g31
sbsbasg12
Nsg13
Nsbsg19
Nsg12
Nsg29
S'InputDeviceManager'
p186
sg13
Nsbasg12
NsS'module'
p187
g1
(cmojom.parse.ast
Module
p188
g3
NtRp189
(dp190
S'mojom_namespace'
p191
(S'IDENTIFIER'
p192
S'device.mojom'
tp193
sg12
I5
sg19
Nsg13
g31
sbsg13
Nsb.