ccopy_reg
_reconstructor
p1
(cmojom.parse.ast
Mojom
p2
c__builtin__
object
p3
NtRp4
(dp5
S'import_list'
p6
g1
(cmojom.parse.ast
ImportList
p7
g3
NtRp8
(dp9
S'items'
p10
(lp11
sS'lineno'
p12
NsS'filename'
p13
NsbsS'definition_list'
p14
(lp15
g1
(cmojom.parse.ast
Enum
p16
g3
NtRp17
(dp18
S'attribute_list'
p19
NsS'enum_value_list'
p20
g1
(cmojom.parse.ast
EnumValueList
p21
g3
NtRp22
(dp23
g10
(lp24
g1
(cmojom.parse.ast
EnumValue
p25
g3
NtRp26
(dp27
g19
NsS'value'
p28
Nsg12
I8
sS'mojom_name'
p29
S'SECURITY'
p30
sg13
S'../../services/device/public/mojom/nfc.mojom'
p31
sbag1
(g25
g3
NtRp32
(dp33
g19
Nsg28
Nsg12
I9
sg29
S'NOT_SUPPORTED'
p34
sg13
g31
sbag1
(g25
g3
NtRp35
(dp36
g19
Nsg28
Nsg12
I10
sg29
S'DEVICE_DISABLED'
p37
sg13
g31
sbag1
(g25
g3
NtRp38
(dp39
g19
Nsg28
Nsg12
I11
sg29
S'NOT_FOUND'
p40
sg13
g31
sbag1
(g25
g3
NtRp41
(dp42
g19
Nsg28
Nsg12
I12
sg29
S'INVALID_MESSAGE'
p43
sg13
g31
sbag1
(g25
g3
NtRp44
(dp45
g19
Nsg28
Nsg12
I13
sg29
S'OPERATION_CANCELLED'
p46
sg13
g31
sbag1
(g25
g3
NtRp47
(dp48
g19
Nsg28
Nsg12
I14
sg29
S'TIMER_EXPIRED'
p49
sg13
g31
sbag1
(g25
g3
NtRp50
(dp51
g19
Nsg28
Nsg12
I15
sg29
S'CANNOT_CANCEL'
p52
sg13
g31
sbag1
(g25
g3
NtRp53
(dp54
g19
Nsg28
Nsg12
I16
sg29
S'IO_ERROR'
p55
sg13
g31
sbasg12
I8
sg13
g31
sbsg12
I7
sg29
S'NFCErrorType'
p56
sg13
g31
sbag1
(g16
g3
NtRp57
(dp58
g19
Nsg20
g1
(g21
g3
NtRp59
(dp60
g10
(lp61
g1
(g25
g3
NtRp62
(dp63
g19
Nsg28
Nsg12
I20
sg29
S'EMPTY'
p64
sg13
g31
sbag1
(g25
g3
NtRp65
(dp66
g19
Nsg28
Nsg12
I21
sg29
S'TEXT'
p67
sg13
g31
sbag1
(g25
g3
NtRp68
(dp69
g19
Nsg28
Nsg12
I22
sg29
S'URL'
p70
sg13
g31
sbag1
(g25
g3
NtRp71
(dp72
g19
Nsg28
Nsg12
I23
sg29
S'JSON'
p73
sg13
g31
sbag1
(g25
g3
NtRp74
(dp75
g19
Nsg28
Nsg12
I24
sg29
S'OPAQUE_RECORD'
p76
sg13
g31
sbasg12
I20
sg13
g31
sbsg12
I19
sg29
S'NDEFRecordType'
p77
sg13
g31
sbag1
(g16
g3
NtRp78
(dp79
g19
Nsg20
g1
(g21
g3
NtRp80
(dp81
g10
(lp82
g1
(g25
g3
NtRp83
(dp84
g19
Nsg28
Nsg12
I29
sg29
S'TAG'
p85
sg13
g31
sbag1
(g25
g3
NtRp86
(dp87
g19
Nsg28
Nsg12
I31
sg29
S'PEER'
p88
sg13
g31
sbag1
(g25
g3
NtRp89
(dp90
g19
Nsg28
Nsg12
I33
sg29
S'ANY'
p91
sg13
g31
sbasg12
I29
sg13
g31
sbsg12
I27
sg29
S'NFCPushTarget'
p92
sg13
g31
sbag1
(g16
g3
NtRp93
(dp94
g19
Nsg20
g1
(g21
g3
NtRp95
(dp96
g10
(lp97
g1
(g25
g3
NtRp98
(dp99
g19
Nsg28
Nsg12
I39
sg29
S'WEBNFC_ONLY'
p100
sg13
g31
sbag1
(g25
g3
NtRp101
(dp102
g19
Nsg28
Nsg12
I42
sg29
S'ANY'
p103
sg13
g31
sbasg12
I39
sg13
g31
sbsg12
I36
sg29
S'NFCWatchMode'
p104
sg13
g31
sbag1
(cmojom.parse.ast
Struct
p105
g3
NtRp106
(dp107
S'body'
p108
g1
(cmojom.parse.ast
StructBody
p109
g3
NtRp110
(dp111
g10
(lp112
g1
(cmojom.parse.ast
StructField
p113
g3
NtRp114
(dp115
S'ordinal'
p116
NsS'default_value'
p117
Nsg29
S'error_type'
p118
sg19
Nsg13
NsS'typename'
p119
S'NFCErrorType'
p120
sg12
Nsbasg12
Nsg13
Nsbsg19
Nsg12
Nsg29
S'NFCError'
p121
sg13
Nsbag1
(g105
g3
NtRp122
(dp123
g108
g1
(g109
g3
NtRp124
(dp125
g10
(lp126
g1
(g113
g3
NtRp127
(dp128
g116
Nsg117
Nsg29
S'record_type'
p129
sg19
Nsg13
Nsg119
S'NDEFRecordType'
p130
sg12
Nsbag1
(g113
g3
NtRp131
(dp132
g116
Nsg117
Nsg29
S'media_type'
p133
sg19
Nsg13
Nsg119
S'string?'
p134
sg12
Nsbag1
(g113
g3
NtRp135
(dp136
g116
Nsg117
Nsg29
S'data'
p137
sg19
Nsg13
Nsg119
S'uint8[]'
p138
sg12
Nsbasg12
Nsg13
Nsbsg19
Nsg12
Nsg29
S'NDEFRecord'
p139
sg13
Nsbag1
(g105
g3
NtRp140
(dp141
g108
g1
(g109
g3
NtRp142
(dp143
g10
(lp144
g1
(g113
g3
NtRp145
(dp146
g116
Nsg117
Nsg29
S'data'
p147
sg19
Nsg13
Nsg119
S'NDEFRecord[]'
p148
sg12
Nsbag1
(g113
g3
NtRp149
(dp150
g116
Nsg117
Nsg29
S'url'
p151
sg19
Nsg13
Nsg119
S'string?'
p152
sg12
Nsbag1
(cmojom.parse.ast
Const
p153
g3
NtRp154
(dp155
g29
S'kMaxSize'
p156
sg19
Nsg28
S'32768'
p157
sg13
Nsg119
S'uint32'
p158
sg12
Nsbasg12
Nsg13
Nsbsg19
Nsg12
Nsg29
S'NDEFMessage'
p159
sg13
Nsbag1
(g105
g3
NtRp160
(dp161
g108
g1
(g109
g3
NtRp162
(dp163
g10
(lp164
g1
(g113
g3
NtRp165
(dp166
g116
Nsg117
Nsg29
S'target'
p167
sg19
Nsg13
Nsg119
S'NFCPushTarget'
p168
sg12
Nsbag1
(g113
g3
NtRp169
(dp170
g116
Nsg117
Nsg29
S'timeout'
p171
sg19
Nsg13
Nsg119
S'double'
p172
sg12
Nsbag1
(g113
g3
NtRp173
(dp174
g116
Nsg117
Nsg29
S'ignore_read'
p175
sg19
Nsg13
Nsg119
S'bool'
p176
sg12
Nsbasg12
Nsg13
Nsbsg19
Nsg12
Nsg29
S'NFCPushOptions'
p177
sg13
Nsbag1
(g105
g3
NtRp178
(dp179
g108
g1
(g109
g3
NtRp180
(dp181
g10
(lp182
g1
(g113
g3
NtRp183
(dp184
g116
Nsg117
Nsg29
S'record_type'
p185
sg19
Nsg13
Nsg119
S'NDEFRecordType'
p186
sg12
Nsbasg12
Nsg13
Nsbsg19
Nsg12
Nsg29
S'NDEFRecordTypeFilter'
p187
sg13
Nsbag1
(g105
g3
NtRp188
(dp189
g108
g1
(g109
g3
NtRp190
(dp191
g10
(lp192
g1
(g113
g3
NtRp193
(dp194
g116
Nsg117
Nsg29
S'url'
p195
sg19
Nsg13
Nsg119
S'string?'
p196
sg12
Nsbag1
(g113
g3
NtRp197
(dp198
g116
Nsg117
Nsg29
S'record_filter'
p199
sg19
Nsg13
Nsg119
S'NDEFRecordTypeFilter?'
p200
sg12
Nsbag1
(g113
g3
NtRp201
(dp202
g116
Nsg117
Nsg29
S'media_type'
p203
sg19
Nsg13
Nsg119
S'string?'
p204
sg12
Nsbag1
(g113
g3
NtRp205
(dp206
g116
Nsg117
Nsg29
S'mode'
p207
sg19
Nsg13
Nsg119
S'NFCWatchMode'
p208
sg12
Nsbasg12
Nsg13
Nsbsg19
Nsg12
Nsg29
S'NFCWatchOptions'
p209
sg13
Nsbag1
(cmojom.parse.ast
Interface
p210
g3
NtRp211
(dp212
g108
g1
(cmojom.parse.ast
InterfaceBody
p213
g3
NtRp214
(dp215
g10
(lp216
g1
(cmojom.parse.ast
Method
p217
g3
NtRp218
(dp219
g116
Nsg29
S'SetClient'
p220
sS'parameter_list'
p221
g1
(cmojom.parse.ast
ParameterList
p222
g3
NtRp223
(dp224
g10
(lp225
g1
(cmojom.parse.ast
Parameter
p226
g3
NtRp227
(dp228
g116
Nsg29
S'client'
p229
sg19
Nsg13
g31
sg119
S'NFCClient'
p230
sg12
I106
sbasg12
I106
sg13
g31
sbsg19
Nsg13
Nsg12
NsS'response_parameter_list'
p231
Nsbag1
(g217
g3
NtRp232
(dp233
g116
Nsg29
S'Push'
p234
sg221
g1
(g222
g3
NtRp235
(dp236
g10
(lp237
g1
(g226
g3
NtRp238
(dp239
g116
Nsg29
S'message'
p240
sg19
Nsg13
g31
sg119
S'NDEFMessage'
p241
sg12
I112
sbag1
(g226
g3
NtRp242
(dp243
g116
Nsg29
S'options'
p244
sg19
Nsg13
g31
sg119
S'NFCPushOptions?'
p245
sg12
I112
sbasg12
I112
sg13
g31
sbsg19
Nsg13
Nsg12
Nsg231
g1
(g222
g3
NtRp246
(dp247
g10
(lp248
g1
(g226
g3
NtRp249
(dp250
g116
Nsg29
S'error'
p251
sg19
Nsg13
g31
sg119
S'NFCError?'
p252
sg12
I112
sbasg12
I112
sg13
g31
sbsbag1
(g217
g3
NtRp253
(dp254
g116
Nsg29
S'CancelPush'
p255
sg221
g1
(g222
g3
NtRp256
(dp257
g10
(lp258
g1
(g226
g3
NtRp259
(dp260
g116
Nsg29
S'target'
p261
sg19
Nsg13
g31
sg119
S'NFCPushTarget'
p262
sg12
I115
sbasg12
I115
sg13
g31
sbsg19
Nsg13
Nsg12
Nsg231
g1
(g222
g3
NtRp263
(dp264
g10
(lp265
g1
(g226
g3
NtRp266
(dp267
g116
Nsg29
S'error'
p268
sg19
Nsg13
g31
sg119
S'NFCError?'
p269
sg12
I115
sbasg12
I115
sg13
g31
sbsbag1
(g217
g3
NtRp270
(dp271
g116
Nsg29
S'Watch'
p272
sg221
g1
(g222
g3
NtRp273
(dp274
g10
(lp275
g1
(g226
g3
NtRp276
(dp277
g116
Nsg29
S'options'
p278
sg19
Nsg13
g31
sg119
S'NFCWatchOptions'
p279
sg12
I119
sbasg12
I119
sg13
g31
sbsg19
Nsg13
Nsg12
Nsg231
g1
(g222
g3
NtRp280
(dp281
g10
(lp282
g1
(g226
g3
NtRp283
(dp284
g116
Nsg29
S'id'
p285
sg19
Nsg13
g31
sg119
S'uint32'
p286
sg12
I119
sbag1
(g226
g3
NtRp287
(dp288
g116
Nsg29
S'error'
p289
sg19
Nsg13
g31
sg119
S'NFCError?'
p290
sg12
I119
sbasg12
I119
sg13
g31
sbsbag1
(g217
g3
NtRp291
(dp292
g116
Nsg29
S'CancelWatch'
p293
sg221
g1
(g222
g3
NtRp294
(dp295
g10
(lp296
g1
(g226
g3
NtRp297
(dp298
g116
Nsg29
S'id'
p299
sg19
Nsg13
g31
sg119
S'uint32'
p300
sg12
I122
sbasg12
I122
sg13
g31
sbsg19
Nsg13
Nsg12
Nsg231
g1
(g222
g3
NtRp301
(dp302
g10
(lp303
g1
(g226
g3
NtRp304
(dp305
g116
Nsg29
S'error'
p306
sg19
Nsg13
g31
sg119
S'NFCError?'
p307
sg12
I122
sbasg12
I122
sg13
g31
sbsbag1
(g217
g3
NtRp308
(dp309
g116
Nsg29
S'CancelAllWatches'
p310
sg221
g1
(g222
g3
NtRp311
(dp312
g10
(lp313
sg12
Nsg13
Nsbsg19
Nsg13
Nsg12
Nsg231
g1
(g222
g3
NtRp314
(dp315
g10
(lp316
g1
(g226
g3
NtRp317
(dp318
g116
Nsg29
S'error'
p319
sg19
Nsg13
g31
sg119
S'NFCError?'
p320
sg12
I125
sbasg12
I125
sg13
g31
sbsbag1
(g217
g3
NtRp321
(dp322
g116
Nsg29
S'SuspendNFCOperations'
p323
sg221
g1
(g222
g3
NtRp324
(dp325
g10
(lp326
sg12
Nsg13
Nsbsg19
Nsg13
Nsg12
Nsg231
Nsbag1
(g217
g3
NtRp327
(dp328
g116
Nsg29
S'ResumeNFCOperations'
p329
sg221
g1
(g222
g3
NtRp330
(dp331
g10
(lp332
sg12
Nsg13
Nsbsg19
Nsg13
Nsg12
Nsg231
Nsbasg12
Nsg13
Nsbsg19
Nsg12
Nsg29
S'NFC'
p333
sg13
Nsbag1
(g210
g3
NtRp334
(dp335
g108
g1
(g213
g3
NtRp336
(dp337
g10
(lp338
g1
(g217
g3
NtRp339
(dp340
g116
Nsg29
S'OnWatch'
p341
sg221
g1
(g222
g3
NtRp342
(dp343
g10
(lp344
g1
(g226
g3
NtRp345
(dp346
g116
Nsg29
S'watch_ids'
p347
sg19
Nsg13
g31
sg119
S'uint32[]'
p348
sg12
I136
sbag1
(g226
g3
NtRp349
(dp350
g116
Nsg29
S'message'
p351
sg19
Nsg13
g31
sg119
S'NDEFMessage'
p352
sg12
I136
sbasg12
I136
sg13
g31
sbsg19
Nsg13
Nsg12
Nsg231
Nsbasg12
Nsg13
Nsbsg19
Nsg12
Nsg29
S'NFCClient'
p353
sg13
Nsbasg12
NsS'module'
p354
g1
(cmojom.parse.ast
Module
p355
g3
NtRp356
(dp357
S'mojom_namespace'
p358
(S'IDENTIFIER'
p359
S'device.mojom'
tp360
sg12
I5
sg19
Nsg13
g31
sbsg13
Nsb.