ccopy_reg
_reconstructor
p1
(cmojom.parse.ast
Mojom
p2
c__builtin__
object
p3
NtRp4
(dp5
S'import_list'
p6
g1
(cmojom.parse.ast
ImportList
p7
g3
NtRp8
(dp9
S'items'
p10
(lp11
g1
(cmojom.parse.ast
Import
p12
g3
NtRp13
(dp14
S'attribute_list'
p15
NsS'lineno'
p16
I7
sS'import_filename'
p17
S'services/network/public/mojom/mutable_partial_network_traffic_annotation_tag.mojom'
p18
sS'filename'
p19
S'../../services/device/public/mojom/public_ip_address_geolocation_provider.mojom'
p20
sbag1
(g12
g3
NtRp21
(dp22
g15
Nsg16
I8
sg17
S'services/device/public/mojom/geolocation.mojom'
p23
sg19
g20
sbasg16
I7
sg19
g20
sbsS'definition_list'
p24
(lp25
g1
(cmojom.parse.ast
Interface
p26
g3
NtRp27
(dp28
S'body'
p29
g1
(cmojom.parse.ast
InterfaceBody
p30
g3
NtRp31
(dp32
g10
(lp33
g1
(cmojom.parse.ast
Method
p34
g3
NtRp35
(dp36
S'ordinal'
p37
NsS'mojom_name'
p38
S'CreateGeolocation'
p39
sS'parameter_list'
p40
g1
(cmojom.parse.ast
ParameterList
p41
g3
NtRp42
(dp43
g10
(lp44
g1
(cmojom.parse.ast
Parameter
p45
g3
NtRp46
(dp47
g37
Nsg38
S'tag'
p48
sg15
Nsg19
g20
sS'typename'
p49
S'network.mojom.MutablePartialNetworkTrafficAnnotationTag'
p50
sg16
I16
sbag1
(g45
g3
NtRp51
(dp52
g37
Nsg38
S'request'
p53
sg15
Nsg19
g20
sg49
S'Geolocation&'
p54
sg16
I17
sbasg16
I16
sg19
g20
sbsg15
Nsg19
Nsg16
NsS'response_parameter_list'
p55
Nsbasg16
Nsg19
Nsbsg15
Nsg16
Nsg38
S'PublicIpAddressGeolocationProvider'
p56
sg19
Nsbasg16
NsS'module'
p57
g1
(cmojom.parse.ast
Module
p58
g3
NtRp59
(dp60
S'mojom_namespace'
p61
(S'IDENTIFIER'
p62
S'device.mojom'
tp63
sg16
I5
sg15
Nsg19
g20
sbsg19
Nsb.