ccopy_reg
_reconstructor
p1
(cmojom.parse.ast
Mojom
p2
c__builtin__
object
p3
NtRp4
(dp5
S'import_list'
p6
g1
(cmojom.parse.ast
ImportList
p7
g3
NtRp8
(dp9
S'items'
p10
(lp11
sS'lineno'
p12
NsS'filename'
p13
NsbsS'definition_list'
p14
(lp15
g1
(cmojom.parse.ast
Enum
p16
g3
NtRp17
(dp18
S'attribute_list'
p19
NsS'enum_value_list'
p20
g1
(cmojom.parse.ast
EnumValueList
p21
g3
NtRp22
(dp23
g10
(lp24
g1
(cmojom.parse.ast
EnumValue
p25
g3
NtRp26
(dp27
g19
NsS'value'
p28
Nsg12
I11
sS'mojom_name'
p29
S'AMBIENT_LIGHT'
p30
sg13
S'../../services/device/public/mojom/sensor.mojom'
p31
sbag1
(g25
g3
NtRp32
(dp33
g19
Nsg28
Nsg12
I12
sg29
S'PROXIMITY'
p34
sg13
g31
sbag1
(g25
g3
NtRp35
(dp36
g19
Nsg28
Nsg12
I13
sg29
S'ACCELEROMETER'
p37
sg13
g31
sbag1
(g25
g3
NtRp38
(dp39
g19
Nsg28
Nsg12
I14
sg29
S'LINEAR_ACCELERATION'
p40
sg13
g31
sbag1
(g25
g3
NtRp41
(dp42
g19
Nsg28
Nsg12
I15
sg29
S'GYROSCOPE'
p43
sg13
g31
sbag1
(g25
g3
NtRp44
(dp45
g19
Nsg28
Nsg12
I16
sg29
S'MAGNETOMETER'
p46
sg13
g31
sbag1
(g25
g3
NtRp47
(dp48
g19
Nsg28
Nsg12
I17
sg29
S'PRESSURE'
p49
sg13
g31
sbag1
(g25
g3
NtRp50
(dp51
g19
Nsg28
Nsg12
I19
sg29
S'ABSOLUTE_ORIENTATION_EULER_ANGLES'
p52
sg13
g31
sbag1
(g25
g3
NtRp53
(dp54
g19
Nsg28
Nsg12
I21
sg29
S'ABSOLUTE_ORIENTATION_QUATERNION'
p55
sg13
g31
sbag1
(g25
g3
NtRp56
(dp57
g19
Nsg28
Nsg12
I23
sg29
S'RELATIVE_ORIENTATION_EULER_ANGLES'
p58
sg13
g31
sbag1
(g25
g3
NtRp59
(dp60
g19
Nsg28
Nsg12
I25
sg29
S'RELATIVE_ORIENTATION_QUATERNION'
p61
sg13
g31
sbasg12
I11
sg13
g31
sbsg12
I10
sg29
S'SensorType'
p62
sg13
g31
sbag1
(g16
g3
NtRp63
(dp64
g19
Nsg20
g1
(g21
g3
NtRp65
(dp66
g10
(lp67
g1
(g25
g3
NtRp68
(dp69
g19
Nsg28
Nsg12
I36
sg29
S'ON_CHANGE'
p70
sg13
g31
sbag1
(g25
g3
NtRp71
(dp72
g19
Nsg28
Nsg12
I37
sg29
S'CONTINUOUS'
p73
sg13
g31
sbasg12
I36
sg13
g31
sbsg12
I35
sg29
S'ReportingMode'
p74
sg13
g31
sbag1
(cmojom.parse.ast
Struct
p75
g3
NtRp76
(dp77
S'body'
p78
g1
(cmojom.parse.ast
StructBody
p79
g3
NtRp80
(dp81
g10
(lp82
g1
(cmojom.parse.ast
StructField
p83
g3
NtRp84
(dp85
S'ordinal'
p86
NsS'default_value'
p87
Nsg29
S'frequency'
p88
sg19
Nsg13
NsS'typename'
p89
S'double'
p90
sg12
Nsbasg12
Nsg13
Nsbsg19
Nsg12
Nsg29
S'SensorConfiguration'
p91
sg13
Nsbag1
(cmojom.parse.ast
Interface
p92
g3
NtRp93
(dp94
g78
g1
(cmojom.parse.ast
InterfaceBody
p95
g3
NtRp96
(dp97
g10
(lp98
g1
(cmojom.parse.ast
Method
p99
g3
NtRp100
(dp101
g86
Nsg29
S'GetDefaultConfiguration'
p102
sS'parameter_list'
p103
g1
(cmojom.parse.ast
ParameterList
p104
g3
NtRp105
(dp106
g10
(lp107
sg12
Nsg13
Nsbsg19
Nsg13
Nsg12
NsS'response_parameter_list'
p108
g1
(g104
g3
NtRp109
(dp110
g10
(lp111
g1
(cmojom.parse.ast
Parameter
p112
g3
NtRp113
(dp114
g86
Nsg29
S'configuration'
p115
sg19
Nsg13
g31
sg89
S'SensorConfiguration'
p116
sg12
I50
sbasg12
I50
sg13
g31
sbsbag1
(g99
g3
NtRp117
(dp118
g86
Nsg29
S'AddConfiguration'
p119
sg103
g1
(g104
g3
NtRp120
(dp121
g10
(lp122
g1
(g112
g3
NtRp123
(dp124
g86
Nsg29
S'configuration'
p125
sg19
Nsg13
g31
sg89
S'SensorConfiguration'
p126
sg12
I61
sbasg12
I61
sg13
g31
sbsg19
Nsg13
Nsg12
Nsg108
g1
(g104
g3
NtRp127
(dp128
g10
(lp129
g1
(g112
g3
NtRp130
(dp131
g86
Nsg29
S'success'
p132
sg19
Nsg13
g31
sg89
S'bool'
p133
sg12
I61
sbasg12
I61
sg13
g31
sbsbag1
(g99
g3
NtRp134
(dp135
g86
Nsg29
S'RemoveConfiguration'
p136
sg103
g1
(g104
g3
NtRp137
(dp138
g10
(lp139
g1
(g112
g3
NtRp140
(dp141
g86
Nsg29
S'configuration'
p142
sg19
Nsg13
g31
sg89
S'SensorConfiguration'
p143
sg12
I71
sbasg12
I71
sg13
g31
sbsg19
Nsg13
Nsg12
Nsg108
Nsbag1
(g99
g3
NtRp144
(dp145
g86
Nsg29
S'Suspend'
p146
sg103
g1
(g104
g3
NtRp147
(dp148
g10
(lp149
sg12
Nsg13
Nsbsg19
Nsg13
Nsg12
Nsg108
Nsbag1
(g99
g3
NtRp150
(dp151
g86
Nsg29
S'Resume'
p152
sg103
g1
(g104
g3
NtRp153
(dp154
g10
(lp155
sg12
Nsg13
Nsbsg19
Nsg13
Nsg12
Nsg108
Nsbag1
(g99
g3
NtRp156
(dp157
g86
Nsg29
S'ConfigureReadingChangeNotifications'
p158
sg103
g1
(g104
g3
NtRp159
(dp160
g10
(lp161
g1
(g112
g3
NtRp162
(dp163
g86
Nsg29
S'enabled'
p164
sg19
Nsg13
g31
sg89
S'bool'
p165
sg12
I84
sbasg12
I84
sg13
g31
sbsg19
Nsg13
Nsg12
Nsg108
Nsbasg12
Nsg13
Nsbsg19
Nsg12
Nsg29
S'Sensor'
p166
sg13
Nsbag1
(g92
g3
NtRp167
(dp168
g78
g1
(g95
g3
NtRp169
(dp170
g10
(lp171
g1
(g99
g3
NtRp172
(dp173
g86
Nsg29
S'RaiseError'
p174
sg103
g1
(g104
g3
NtRp175
(dp176
g10
(lp177
sg12
Nsg13
Nsbsg19
Nsg13
Nsg12
Nsg108
Nsbag1
(g99
g3
NtRp178
(dp179
g86
Nsg29
S'SensorReadingChanged'
p180
sg103
g1
(g104
g3
NtRp181
(dp182
g10
(lp183
sg12
Nsg13
Nsbsg19
Nsg13
Nsg12
Nsg108
Nsbasg12
Nsg13
Nsbsg19
Nsg12
Nsg29
S'SensorClient'
p184
sg13
Nsbasg12
NsS'module'
p185
g1
(cmojom.parse.ast
Module
p186
g3
NtRp187
(dp188
S'mojom_namespace'
p189
(S'IDENTIFIER'
p190
S'device.mojom'
tp191
sg12
I5
sg19
Nsg13
g31
sbsg13
Nsb.