ccopy_reg
_reconstructor
p1
(cmojom.parse.ast
Mojom
p2
c__builtin__
object
p3
NtRp4
(dp5
S'import_list'
p6
g1
(cmojom.parse.ast
ImportList
p7
g3
NtRp8
(dp9
S'items'
p10
(lp11
g1
(cmojom.parse.ast
Import
p12
g3
NtRp13
(dp14
S'attribute_list'
p15
NsS'lineno'
p16
I7
sS'import_filename'
p17
S'services/device/public/mojom/sensor.mojom'
p18
sS'filename'
p19
S'../../services/device/public/mojom/sensor_provider.mojom'
p20
sbasg16
I7
sg19
g20
sbsS'definition_list'
p21
(lp22
g1
(cmojom.parse.ast
Struct
p23
g3
NtRp24
(dp25
S'body'
p26
g1
(cmojom.parse.ast
StructBody
p27
g3
NtRp28
(dp29
g10
(lp30
g1
(cmojom.parse.ast
StructField
p31
g3
NtRp32
(dp33
S'ordinal'
p34
NsS'default_value'
p35
NsS'mojom_name'
p36
S'sensor'
p37
sg15
Nsg19
NsS'typename'
p38
S'Sensor'
p39
sg16
Nsbag1
(g31
g3
NtRp40
(dp41
g34
Nsg35
Nsg36
S'client_request'
p42
sg15
Nsg19
Nsg38
S'SensorClient&'
p43
sg16
Nsbag1
(g31
g3
NtRp44
(dp45
g34
Nsg35
Nsg36
S'memory'
p46
sg15
Nsg19
Nsg38
S'handle<shared_buffer>'
p47
sg16
Nsbag1
(g31
g3
NtRp48
(dp49
g34
Nsg35
Nsg36
S'buffer_offset'
p50
sg15
Nsg19
Nsg38
S'uint64'
p51
sg16
Nsbag1
(g31
g3
NtRp52
(dp53
g34
Nsg35
Nsg36
S'mode'
p54
sg15
Nsg19
Nsg38
S'ReportingMode'
p55
sg16
Nsbag1
(g31
g3
NtRp56
(dp57
g34
Nsg35
Nsg36
S'default_configuration'
p58
sg15
Nsg19
Nsg38
S'SensorConfiguration'
p59
sg16
Nsbag1
(g31
g3
NtRp60
(dp61
g34
Nsg35
Nsg36
S'maximum_frequency'
p62
sg15
Nsg19
Nsg38
S'double'
p63
sg16
Nsbag1
(g31
g3
NtRp64
(dp65
g34
Nsg35
Nsg36
S'minimum_frequency'
p66
sg15
Nsg19
Nsg38
S'double'
p67
sg16
Nsbag1
(cmojom.parse.ast
Const
p68
g3
NtRp69
(dp70
g36
S'kReadBufferSizeForTests'
p71
sg15
NsS'value'
p72
S'48'
p73
sg19
Nsg38
S'uint64'
p74
sg16
Nsbasg16
Nsg19
Nsbsg15
Nsg16
Nsg36
S'SensorInitParams'
p75
sg19
Nsbag1
(cmojom.parse.ast
Enum
p76
g3
NtRp77
(dp78
g15
NsS'enum_value_list'
p79
g1
(cmojom.parse.ast
EnumValueList
p80
g3
NtRp81
(dp82
g10
(lp83
g1
(cmojom.parse.ast
EnumValue
p84
g3
NtRp85
(dp86
g15
Nsg72
Nsg16
I43
sg36
S'SUCCESS'
p87
sg19
g20
sbag1
(g84
g3
NtRp88
(dp89
g15
Nsg72
Nsg16
I44
sg36
S'ERROR_NOT_AVAILABLE'
p90
sg19
g20
sbag1
(g84
g3
NtRp91
(dp92
g15
Nsg72
Nsg16
I45
sg36
S'ERROR_NOT_ALLOWED'
p93
sg19
g20
sbasg16
I43
sg19
g20
sbsg16
I42
sg36
S'SensorCreationResult'
p94
sg19
g20
sbag1
(cmojom.parse.ast
Interface
p95
g3
NtRp96
(dp97
g26
g1
(cmojom.parse.ast
InterfaceBody
p98
g3
NtRp99
(dp100
g10
(lp101
g1
(cmojom.parse.ast
Method
p102
g3
NtRp103
(dp104
g34
Nsg36
S'GetSensor'
p105
sS'parameter_list'
p106
g1
(cmojom.parse.ast
ParameterList
p107
g3
NtRp108
(dp109
g10
(lp110
g1
(cmojom.parse.ast
Parameter
p111
g3
NtRp112
(dp113
g34
Nsg36
S'type'
p114
sg15
Nsg19
g20
sg38
S'SensorType'
p115
sg16
I57
sbasg16
I57
sg19
g20
sbsg15
Nsg19
Nsg16
NsS'response_parameter_list'
p116
g1
(g107
g3
NtRp117
(dp118
g10
(lp119
g1
(g111
g3
NtRp120
(dp121
g34
Nsg36
S'result'
p122
sg15
Nsg19
g20
sg38
S'SensorCreationResult'
p123
sg16
I57
sbag1
(g111
g3
NtRp124
(dp125
g34
Nsg36
S'init_params'
p126
sg15
Nsg19
g20
sg38
S'SensorInitParams?'
p127
sg16
I58
sbasg16
I57
sg19
g20
sbsbasg16
Nsg19
Nsbsg15
Nsg16
Nsg36
S'SensorProvider'
p128
sg19
Nsbasg16
NsS'module'
p129
g1
(cmojom.parse.ast
Module
p130
g3
NtRp131
(dp132
S'mojom_namespace'
p133
(S'IDENTIFIER'
p134
S'device.mojom'
tp135
sg16
I5
sg15
Nsg19
g20
sbsg19
Nsb.