ccopy_reg
_reconstructor
p1
(cmojom.parse.ast
Mojom
p2
c__builtin__
object
p3
NtRp4
(dp5
S'import_list'
p6
g1
(cmojom.parse.ast
ImportList
p7
g3
NtRp8
(dp9
S'items'
p10
(lp11
sS'lineno'
p12
NsS'filename'
p13
NsbsS'definition_list'
p14
(lp15
g1
(cmojom.parse.ast
Interface
p16
g3
NtRp17
(dp18
S'body'
p19
g1
(cmojom.parse.ast
InterfaceBody
p20
g3
NtRp21
(dp22
g10
(lp23
g1
(cmojom.parse.ast
Method
p24
g3
NtRp25
(dp26
S'ordinal'
p27
NsS'mojom_name'
p28
S'AddClient'
p29
sS'parameter_list'
p30
g1
(cmojom.parse.ast
ParameterList
p31
g3
NtRp32
(dp33
g10
(lp34
g1
(cmojom.parse.ast
Parameter
p35
g3
NtRp36
(dp37
g27
Nsg28
S'client'
p38
sS'attribute_list'
p39
Nsg13
S'../../services/device/public/mojom/time_zone_monitor.mojom'
p40
sS'typename'
p41
S'TimeZoneMonitorClient'
p42
sg12
I11
sbasg12
I11
sg13
g40
sbsg39
Nsg13
Nsg12
NsS'response_parameter_list'
p43
Nsbasg12
Nsg13
Nsbsg39
Nsg12
Nsg28
S'TimeZoneMonitor'
p44
sg13
Nsbag1
(g16
g3
NtRp45
(dp46
g19
g1
(g20
g3
NtRp47
(dp48
g10
(lp49
g1
(g24
g3
NtRp50
(dp51
g27
Nsg28
S'OnTimeZoneChange'
p52
sg30
g1
(g31
g3
NtRp53
(dp54
g10
(lp55
g1
(g35
g3
NtRp56
(dp57
g27
Nsg28
S'tz_info'
p58
sg39
Nsg13
g40
sg41
S'string'
p59
sg12
I16
sbasg12
I16
sg13
g40
sbsg39
Nsg13
Nsg12
Nsg43
Nsbasg12
Nsg13
Nsbsg39
Nsg12
Nsg28
S'TimeZoneMonitorClient'
p60
sg13
Nsbasg12
NsS'module'
p61
g1
(cmojom.parse.ast
Module
p62
g3
NtRp63
(dp64
S'mojom_namespace'
p65
(S'IDENTIFIER'
p66
S'device.mojom'
tp67
sg12
I5
sg39
Nsg13
g40
sbsg13
Nsb.