ccopy_reg
_reconstructor
p1
(cmojom.parse.ast
Mojom
p2
c__builtin__
object
p3
NtRp4
(dp5
S'import_list'
p6
g1
(cmojom.parse.ast
ImportList
p7
g3
NtRp8
(dp9
S'items'
p10
(lp11
g1
(cmojom.parse.ast
Import
p12
g3
NtRp13
(dp14
S'attribute_list'
p15
NsS'lineno'
p16
I7
sS'import_filename'
p17
S'services/device/public/mojom/wake_lock_context.mojom'
p18
sS'filename'
p19
S'../../services/device/public/mojom/wake_lock_provider.mojom'
p20
sbag1
(g12
g3
NtRp21
(dp22
g15
Nsg16
I8
sg17
S'services/device/public/mojom/wake_lock.mojom'
p23
sg19
g20
sbasg16
I7
sg19
g20
sbsS'definition_list'
p24
(lp25
g1
(cmojom.parse.ast
Interface
p26
g3
NtRp27
(dp28
S'body'
p29
g1
(cmojom.parse.ast
InterfaceBody
p30
g3
NtRp31
(dp32
g10
(lp33
g1
(cmojom.parse.ast
Method
p34
g3
NtRp35
(dp36
S'ordinal'
p37
NsS'mojom_name'
p38
S'GetWakeLockContextForID'
p39
sS'parameter_list'
p40
g1
(cmojom.parse.ast
ParameterList
p41
g3
NtRp42
(dp43
g10
(lp44
g1
(cmojom.parse.ast
Parameter
p45
g3
NtRp46
(dp47
g37
Nsg38
S'context_id'
p48
sg15
Nsg19
g20
sS'typename'
p49
S'int32'
p50
sg16
I15
sbag1
(g45
g3
NtRp51
(dp52
g37
Nsg38
S'context'
p53
sg15
Nsg19
g20
sg49
S'WakeLockContext&'
p54
sg16
I15
sbasg16
I15
sg19
g20
sbsg15
Nsg19
Nsg16
NsS'response_parameter_list'
p55
Nsbag1
(g34
g3
NtRp56
(dp57
g37
Nsg38
S'GetWakeLockWithoutContext'
p58
sg40
g1
(g41
g3
NtRp59
(dp60
g10
(lp61
g1
(g45
g3
NtRp62
(dp63
g37
Nsg38
S'type'
p64
sg15
Nsg19
g20
sg49
S'WakeLockType'
p65
sg16
I21
sbag1
(g45
g3
NtRp66
(dp67
g37
Nsg38
S'reason'
p68
sg15
Nsg19
g20
sg49
S'WakeLockReason'
p69
sg16
I22
sbag1
(g45
g3
NtRp70
(dp71
g37
Nsg38
S'description'
p72
sg15
Nsg19
g20
sg49
S'string'
p73
sg16
I23
sbag1
(g45
g3
NtRp74
(dp75
g37
Nsg38
S'wake_lock'
p76
sg15
Nsg19
g20
sg49
S'WakeLock&'
p77
sg16
I24
sbasg16
I21
sg19
g20
sbsg15
Nsg19
Nsg16
Nsg55
Nsbag1
(g34
g3
NtRp78
(dp79
g37
Nsg38
S'NotifyOnWakeLockDeactivation'
p80
sg40
g1
(g41
g3
NtRp81
(dp82
g10
(lp83
g1
(g45
g3
NtRp84
(dp85
g37
Nsg38
S'type'
p86
sg15
Nsg19
g20
sg49
S'WakeLockType'
p87
sg16
I29
sbag1
(g45
g3
NtRp88
(dp89
g37
Nsg38
S'observer'
p90
sg15
Nsg19
g20
sg49
S'WakeLockObserver'
p91
sg16
I29
sbasg16
I29
sg19
g20
sbsg15
Nsg19
Nsg16
Nsg55
Nsbag1
(g34
g3
NtRp92
(dp93
g37
Nsg38
S'GetActiveWakeLocksForTests'
p94
sg40
g1
(g41
g3
NtRp95
(dp96
g10
(lp97
g1
(g45
g3
NtRp98
(dp99
g37
Nsg38
S'type'
p100
sg15
Nsg19
g20
sg49
S'WakeLockType'
p101
sg16
I33
sbasg16
I33
sg19
g20
sbsg15
Nsg19
Nsg16
Nsg55
g1
(g41
g3
NtRp102
(dp103
g10
(lp104
g1
(g45
g3
NtRp105
(dp106
g37
Nsg38
S'count'
p107
sg15
Nsg19
g20
sg49
S'int32'
p108
sg16
I33
sbasg16
I33
sg19
g20
sbsbasg16
Nsg19
Nsbsg15
Nsg16
Nsg38
S'WakeLockProvider'
p109
sg19
Nsbag1
(g26
g3
NtRp110
(dp111
g29
g1
(g30
g3
NtRp112
(dp113
g10
(lp114
g1
(g34
g3
NtRp115
(dp116
g37
Nsg38
S'OnWakeLockDeactivated'
p117
sg40
g1
(g41
g3
NtRp118
(dp119
g10
(lp120
g1
(g45
g3
NtRp121
(dp122
g37
Nsg38
S'type'
p123
sg15
Nsg19
g20
sg49
S'WakeLockType'
p124
sg16
I39
sbasg16
I39
sg19
g20
sbsg15
Nsg19
Nsg16
Nsg55
Nsbasg16
Nsg19
Nsbsg15
Nsg16
Nsg38
S'WakeLockObserver'
p125
sg19
Nsbasg16
NsS'module'
p126
g1
(cmojom.parse.ast
Module
p127
g3
NtRp128
(dp129
S'mojom_namespace'
p130
(S'IDENTIFIER'
p131
S'device.mojom'
tp132
sg16
I5
sg15
Nsg19
g20
sbsg19
Nsb.