ccopy_reg
_reconstructor
p1
(cmojom.parse.ast
Mojom
p2
c__builtin__
object
p3
NtRp4
(dp5
S'import_list'
p6
g1
(cmojom.parse.ast
ImportList
p7
g3
NtRp8
(dp9
S'items'
p10
(lp11
sS'lineno'
p12
NsS'filename'
p13
NsbsS'definition_list'
p14
(lp15
g1
(cmojom.parse.ast
Interface
p16
g3
NtRp17
(dp18
S'body'
p19
g1
(cmojom.parse.ast
InterfaceBody
p20
g3
NtRp21
(dp22
g10
(lp23
g1
(cmojom.parse.ast
Method
p24
g3
NtRp25
(dp26
S'ordinal'
p27
NsS'mojom_name'
p28
S'GetJpgImageData'
p29
sS'parameter_list'
p30
g1
(cmojom.parse.ast
ParameterList
p31
g3
NtRp32
(dp33
g10
(lp34
sg12
Nsg13
NsbsS'attribute_list'
p35
Nsg13
Nsg12
NsS'response_parameter_list'
p36
g1
(g31
g3
NtRp37
(dp38
g10
(lp39
g1
(cmojom.parse.ast
Parameter
p40
g3
NtRp41
(dp42
g27
Nsg28
S'bytes'
p43
sg35
Nsg13
S'../../services/image_annotation/public/mojom/image_annotation.mojom'
p44
sS'typename'
p45
S'uint8[]'
p46
sg12
I13
sbag1
(g40
g3
NtRp47
(dp48
g27
Nsg28
S'width'
p49
sg35
Nsg13
g44
sg45
S'int32'
p50
sg12
I13
sbag1
(g40
g3
NtRp51
(dp52
g27
Nsg28
S'height'
p53
sg35
Nsg13
g44
sg45
S'int32'
p54
sg12
I13
sbasg12
I13
sg13
g44
sbsbasg12
Nsg13
Nsbsg35
Nsg12
Nsg28
S'ImageProcessor'
p55
sg13
Nsbag1
(cmojom.parse.ast
Enum
p56
g3
NtRp57
(dp58
g35
NsS'enum_value_list'
p59
g1
(cmojom.parse.ast
EnumValueList
p60
g3
NtRp61
(dp62
g10
(lp63
g1
(cmojom.parse.ast
EnumValue
p64
g3
NtRp65
(dp66
g35
NsS'value'
p67
Nsg12
I18
sg28
S'kCanceled'
p68
sg13
g44
sbag1
(g64
g3
NtRp69
(dp70
g35
Nsg67
Nsg12
I19
sg28
S'kFailure'
p71
sg13
g44
sbag1
(g64
g3
NtRp72
(dp73
g35
Nsg67
Nsg12
I20
sg28
S'kAdult'
p74
sg13
g44
sbasg12
I18
sg13
g44
sbsg12
I17
sg28
S'AnnotateImageError'
p75
sg13
g44
sbag1
(g56
g3
NtRp76
(dp77
g35
Nsg59
g1
(g60
g3
NtRp78
(dp79
g10
(lp80
g1
(g64
g3
NtRp81
(dp82
g35
Nsg67
S'1'
sg12
I27
sg28
S'kOcr'
p83
sg13
g44
sbag1
(g64
g3
NtRp84
(dp85
g35
Nsg67
S'2'
sg12
I28
sg28
S'kLabel'
p86
sg13
g44
sbag1
(g64
g3
NtRp87
(dp88
g35
Nsg67
S'3'
sg12
I29
sg28
S'kCaption'
p89
sg13
g44
sbasg12
I27
sg13
g44
sbsg12
I26
sg28
S'AnnotationType'
p90
sg13
g44
sbag1
(cmojom.parse.ast
Struct
p91
g3
NtRp92
(dp93
g19
g1
(cmojom.parse.ast
StructBody
p94
g3
NtRp95
(dp96
g10
(lp97
g1
(cmojom.parse.ast
StructField
p98
g3
NtRp99
(dp100
g27
NsS'default_value'
p101
Nsg28
S'type'
p102
sg35
Nsg13
Nsg45
S'AnnotationType'
p103
sg12
Nsbag1
(g98
g3
NtRp104
(dp105
g27
Nsg101
Nsg28
S'score'
p106
sg35
Nsg13
Nsg45
S'double'
p107
sg12
Nsbag1
(g98
g3
NtRp108
(dp109
g27
Nsg101
Nsg28
S'text'
p110
sg35
Nsg13
Nsg45
S'string'
p111
sg12
Nsbasg12
Nsg13
Nsbsg35
Nsg12
Nsg28
S'Annotation'
p112
sg13
Nsbag1
(cmojom.parse.ast
Union
p113
g3
NtRp114
(dp115
g19
g1
(cmojom.parse.ast
UnionBody
p116
g3
NtRp117
(dp118
g10
(lp119
g1
(cmojom.parse.ast
UnionField
p120
g3
NtRp121
(dp122
g27
Nsg28
S'error_code'
p123
sg35
Nsg13
Nsg45
S'AnnotateImageError'
p124
sg12
Nsbag1
(g120
g3
NtRp125
(dp126
g27
Nsg28
S'annotations'
p127
sg35
Nsg13
Nsg45
S'Annotation[]'
p128
sg12
Nsbasg12
Nsg13
Nsbsg35
Nsg12
Nsg28
S'AnnotateImageResult'
p129
sg13
Nsbag1
(g16
g3
NtRp130
(dp131
g19
g1
(g20
g3
NtRp132
(dp133
g10
(lp134
g1
(g24
g3
NtRp135
(dp136
g27
Nsg28
S'AnnotateImage'
p137
sg30
g1
(g31
g3
NtRp138
(dp139
g10
(lp140
g1
(g40
g3
NtRp141
(dp142
g27
Nsg28
S'source_id'
p143
sg35
Nsg13
g44
sg45
S'string'
p144
sg12
I63
sbag1
(g40
g3
NtRp145
(dp146
g27
Nsg28
S'description_language_tag'
p147
sg35
Nsg13
g44
sg45
S'string'
p148
sg12
I63
sbag1
(g40
g3
NtRp149
(dp150
g27
Nsg28
S'image_processor'
p151
sg35
Nsg13
g44
sg45
S'ImageProcessor'
p152
sg12
I64
sbasg12
I63
sg13
g44
sbsg35
Nsg13
Nsg12
Nsg36
g1
(g31
g3
NtRp153
(dp154
g10
(lp155
g1
(g40
g3
NtRp156
(dp157
g27
Nsg28
S'result'
p158
sg35
Nsg13
g44
sg45
S'AnnotateImageResult'
p159
sg12
I64
sbasg12
I64
sg13
g44
sbsbasg12
Nsg13
Nsbsg35
Nsg12
Nsg28
S'Annotator'
p160
sg13
Nsbasg12
NsS'module'
p161
g1
(cmojom.parse.ast
Module
p162
g3
NtRp163
(dp164
S'mojom_namespace'
p165
(S'IDENTIFIER'
p166
S'image_annotation.mojom'
tp167
sg12
I5
sg35
Nsg13
g44
sbsg13
Nsb.