ccopy_reg
_reconstructor
p1
(cmojom.parse.ast
Mojom
p2
c__builtin__
object
p3
NtRp4
(dp5
S'import_list'
p6
g1
(cmojom.parse.ast
ImportList
p7
g3
NtRp8
(dp9
S'items'
p10
(lp11
g1
(cmojom.parse.ast
Import
p12
g3
NtRp13
(dp14
S'attribute_list'
p15
NsS'lineno'
p16
I7
sS'import_filename'
p17
S'mojo/public/mojom/base/time.mojom'
p18
sS'filename'
p19
S'../../content/public/common/load_timing_info.mojom'
p20
sbasg16
I7
sg19
g20
sbsS'definition_list'
p21
(lp22
g1
(cmojom.parse.ast
Struct
p23
g3
NtRp24
(dp25
S'body'
p26
g1
(cmojom.parse.ast
StructBody
p27
g3
NtRp28
(dp29
g10
(lp30
g1
(cmojom.parse.ast
StructField
p31
g3
NtRp32
(dp33
S'ordinal'
p34
NsS'default_value'
p35
NsS'mojom_name'
p36
S'dns_start'
p37
sg15
Nsg19
NsS'typename'
p38
S'mojo_base.mojom.TimeTicks'
p39
sg16
Nsbag1
(g31
g3
NtRp40
(dp41
g34
Nsg35
Nsg36
S'dns_end'
p42
sg15
Nsg19
Nsg38
S'mojo_base.mojom.TimeTicks'
p43
sg16
Nsbag1
(g31
g3
NtRp44
(dp45
g34
Nsg35
Nsg36
S'connect_start'
p46
sg15
Nsg19
Nsg38
S'mojo_base.mojom.TimeTicks'
p47
sg16
Nsbag1
(g31
g3
NtRp48
(dp49
g34
Nsg35
Nsg36
S'connect_end'
p50
sg15
Nsg19
Nsg38
S'mojo_base.mojom.TimeTicks'
p51
sg16
Nsbag1
(g31
g3
NtRp52
(dp53
g34
Nsg35
Nsg36
S'ssl_start'
p54
sg15
Nsg19
Nsg38
S'mojo_base.mojom.TimeTicks'
p55
sg16
Nsbag1
(g31
g3
NtRp56
(dp57
g34
Nsg35
Nsg36
S'ssl_end'
p58
sg15
Nsg19
Nsg38
S'mojo_base.mojom.TimeTicks'
p59
sg16
Nsbasg16
Nsg19
Nsbsg15
Nsg16
Nsg36
S'LoadTimingInfoConnectTiming'
p60
sg19
Nsbag1
(g23
g3
NtRp61
(dp62
g26
g1
(g27
g3
NtRp63
(dp64
g10
(lp65
g1
(g31
g3
NtRp66
(dp67
g34
Nsg35
Nsg36
S'socket_reused'
p68
sg15
Nsg19
Nsg38
S'bool'
p69
sg16
Nsbag1
(g31
g3
NtRp70
(dp71
g34
Nsg35
Nsg36
S'socket_log_id'
p72
sg15
Nsg19
Nsg38
S'uint32'
p73
sg16
Nsbag1
(g31
g3
NtRp74
(dp75
g34
Nsg35
Nsg36
S'request_start_time'
p76
sg15
Nsg19
Nsg38
S'mojo_base.mojom.Time'
p77
sg16
Nsbag1
(g31
g3
NtRp78
(dp79
g34
Nsg35
Nsg36
S'request_start'
p80
sg15
Nsg19
Nsg38
S'mojo_base.mojom.TimeTicks'
p81
sg16
Nsbag1
(g31
g3
NtRp82
(dp83
g34
Nsg35
Nsg36
S'proxy_resolve_start'
p84
sg15
Nsg19
Nsg38
S'mojo_base.mojom.TimeTicks'
p85
sg16
Nsbag1
(g31
g3
NtRp86
(dp87
g34
Nsg35
Nsg36
S'proxy_resolve_end'
p88
sg15
Nsg19
Nsg38
S'mojo_base.mojom.TimeTicks'
p89
sg16
Nsbag1
(g31
g3
NtRp90
(dp91
g34
Nsg35
Nsg36
S'connect_timing'
p92
sg15
Nsg19
Nsg38
S'LoadTimingInfoConnectTiming'
p93
sg16
Nsbag1
(g31
g3
NtRp94
(dp95
g34
Nsg35
Nsg36
S'send_start'
p96
sg15
Nsg19
Nsg38
S'mojo_base.mojom.TimeTicks'
p97
sg16
Nsbag1
(g31
g3
NtRp98
(dp99
g34
Nsg35
Nsg36
S'send_end'
p100
sg15
Nsg19
Nsg38
S'mojo_base.mojom.TimeTicks'
p101
sg16
Nsbag1
(g31
g3
NtRp102
(dp103
g34
Nsg35
Nsg36
S'receive_headers_start'
p104
sg15
Nsg19
Nsg38
S'mojo_base.mojom.TimeTicks'
p105
sg16
Nsbag1
(g31
g3
NtRp106
(dp107
g34
Nsg35
Nsg36
S'receive_headers_end'
p108
sg15
Nsg19
Nsg38
S'mojo_base.mojom.TimeTicks'
p109
sg16
Nsbag1
(g31
g3
NtRp110
(dp111
g34
Nsg35
Nsg36
S'push_start'
p112
sg15
Nsg19
Nsg38
S'mojo_base.mojom.TimeTicks'
p113
sg16
Nsbag1
(g31
g3
NtRp114
(dp115
g34
Nsg35
Nsg36
S'push_end'
p116
sg15
Nsg19
Nsg38
S'mojo_base.mojom.TimeTicks'
p117
sg16
Nsbasg16
Nsg19
Nsbsg15
Nsg16
Nsg36
S'LoadTimingInfo'
p118
sg19
Nsbasg16
NsS'module'
p119
g1
(cmojom.parse.ast
Module
p120
g3
NtRp121
(dp122
S'mojom_namespace'
p123
(S'IDENTIFIER'
p124
S'content.mojom'
tp125
sg16
I5
sg15
Nsg19
g20
sbsg19
Nsb.