ccopy_reg
_reconstructor
p1
(cmojom.parse.ast
Mojom
p2
c__builtin__
object
p3
NtRp4
(dp5
S'import_list'
p6
g1
(cmojom.parse.ast
ImportList
p7
g3
NtRp8
(dp9
S'items'
p10
(lp11
g1
(cmojom.parse.ast
Import
p12
g3
NtRp13
(dp14
S'attribute_list'
p15
NsS'lineno'
p16
I7
sS'import_filename'
p17
S'content/public/common/load_timing_info.mojom'
p18
sS'filename'
p19
S'../../content/public/common/resource_load_info.mojom'
p20
sbag1
(g12
g3
NtRp21
(dp22
g15
Nsg16
I8
sg17
S'content/public/common/resource_type.mojom'
p23
sg19
g20
sbag1
(g12
g3
NtRp24
(dp25
g15
Nsg16
I9
sg17
S'services/network/public/mojom/ip_address.mojom'
p26
sg19
g20
sbag1
(g12
g3
NtRp27
(dp28
g15
Nsg16
I10
sg17
S'services/network/public/mojom/ip_endpoint.mojom'
p29
sg19
g20
sbag1
(g12
g3
NtRp30
(dp31
g15
Nsg16
I11
sg17
S'services/network/public/mojom/network_param.mojom'
p32
sg19
g20
sbag1
(g12
g3
NtRp33
(dp34
g15
Nsg16
I12
sg17
S'url/mojom/url.mojom'
p35
sg19
g20
sbasg16
I7
sg19
g20
sbsS'definition_list'
p36
(lp37
g1
(cmojom.parse.ast
Struct
p38
g3
NtRp39
(dp40
S'body'
p41
g1
(cmojom.parse.ast
StructBody
p42
g3
NtRp43
(dp44
g10
(lp45
g1
(cmojom.parse.ast
StructField
p46
g3
NtRp47
(dp48
S'ordinal'
p49
NsS'default_value'
p50
NsS'mojom_name'
p51
S'network_accessed'
p52
sg15
Nsg19
NsS'typename'
p53
S'bool'
p54
sg16
Nsbag1
(g46
g3
NtRp55
(dp56
g49
Nsg50
Nsg51
S'always_access_network'
p57
sg15
Nsg19
Nsg53
S'bool'
p58
sg16
Nsbag1
(g46
g3
NtRp59
(dp60
g49
Nsg50
Nsg51
S'remote_endpoint'
p61
sg15
Nsg19
Nsg53
S'network.mojom.IPEndPoint?'
p62
sg16
Nsbasg16
Nsg19
Nsbsg15
Nsg16
Nsg51
S'CommonNetworkInfo'
p63
sg19
Nsbag1
(g38
g3
NtRp64
(dp65
g41
g1
(g42
g3
NtRp66
(dp67
g10
(lp68
g1
(g46
g3
NtRp69
(dp70
g49
Nsg50
Nsg51
S'url'
p71
sg15
Nsg19
Nsg53
S'url.mojom.Url'
p72
sg16
Nsbag1
(g46
g3
NtRp73
(dp74
g49
Nsg50
Nsg51
S'network_info'
p75
sg15
Nsg19
Nsg53
S'CommonNetworkInfo'
p76
sg16
Nsbasg16
Nsg19
Nsbsg15
Nsg16
Nsg51
S'RedirectInfo'
p77
sg19
Nsbag1
(g38
g3
NtRp78
(dp79
g41
g1
(g42
g3
NtRp80
(dp81
g10
(lp82
g1
(g46
g3
NtRp83
(dp84
g49
Nsg50
Nsg51
S'request_id'
p85
sg15
Nsg19
Nsg53
S'int64'
p86
sg16
Nsbag1
(g46
g3
NtRp87
(dp88
g49
Nsg50
Nsg51
S'url'
p89
sg15
Nsg19
Nsg53
S'url.mojom.Url'
p90
sg16
Nsbag1
(g46
g3
NtRp91
(dp92
g49
Nsg50
Nsg51
S'referrer'
p93
sg15
Nsg19
Nsg53
S'url.mojom.Url'
p94
sg16
Nsbag1
(g46
g3
NtRp95
(dp96
g49
Nsg50
Nsg51
S'original_url'
p97
sg15
Nsg19
Nsg53
S'url.mojom.Url'
p98
sg16
Nsbag1
(g46
g3
NtRp99
(dp100
g49
Nsg50
Nsg51
S'method'
p101
sg15
Nsg19
Nsg53
S'string'
p102
sg16
Nsbag1
(g46
g3
NtRp103
(dp104
g49
Nsg50
Nsg51
S'resource_type'
p105
sg15
Nsg19
Nsg53
S'ResourceType'
p106
sg16
Nsbag1
(g46
g3
NtRp107
(dp108
g49
Nsg50
Nsg51
S'mime_type'
p109
sg15
Nsg19
Nsg53
S'string'
p110
sg16
Nsbag1
(g46
g3
NtRp111
(dp112
g49
Nsg50
Nsg51
S'was_cached'
p113
sg15
Nsg19
Nsg53
S'bool'
p114
sg16
Nsbag1
(g46
g3
NtRp115
(dp116
g49
Nsg50
Nsg51
S'network_info'
p117
sg15
Nsg19
Nsg53
S'CommonNetworkInfo'
p118
sg16
Nsbag1
(g46
g3
NtRp119
(dp120
g49
Nsg50
Nsg51
S'net_error'
p121
sg15
Nsg19
Nsg53
S'int32'
p122
sg16
Nsbag1
(g46
g3
NtRp123
(dp124
g49
Nsg50
Nsg51
S'load_timing_info'
p125
sg15
Nsg19
Nsg53
S'content.mojom.LoadTimingInfo'
p126
sg16
Nsbag1
(g46
g3
NtRp127
(dp128
g49
Nsg50
Nsg51
S'raw_body_bytes'
p129
sg15
Nsg19
Nsg53
S'int64'
p130
sg16
Nsbag1
(g46
g3
NtRp131
(dp132
g49
Nsg50
Nsg51
S'total_received_bytes'
p133
sg15
Nsg19
Nsg53
S'int64'
p134
sg16
Nsbag1
(g46
g3
NtRp135
(dp136
g49
Nsg50
Nsg51
S'redirect_info_chain'
p137
sg15
Nsg19
Nsg53
S'RedirectInfo[]'
p138
sg16
Nsbasg16
Nsg19
Nsbsg15
Nsg16
Nsg51
S'ResourceLoadInfo'
p139
sg19
Nsbasg16
NsS'module'
p140
g1
(cmojom.parse.ast
Module
p141
g3
NtRp142
(dp143
S'mojom_namespace'
p144
(S'IDENTIFIER'
p145
S'content.mojom'
tp146
sg16
I5
sg15
Nsg19
g20
sbsg19
Nsb.