ccopy_reg
_reconstructor
p1
(cmojom.parse.ast
Mojom
p2
c__builtin__
object
p3
NtRp4
(dp5
S'import_list'
p6
g1
(cmojom.parse.ast
ImportList
p7
g3
NtRp8
(dp9
S'items'
p10
(lp11
sS'lineno'
p12
NsS'filename'
p13
NsbsS'definition_list'
p14
(lp15
g1
(cmojom.parse.ast
Enum
p16
g3
NtRp17
(dp18
S'attribute_list'
p19
NsS'enum_value_list'
p20
g1
(cmojom.parse.ast
EnumValueList
p21
g3
NtRp22
(dp23
g10
(lp24
g1
(cmojom.parse.ast
EnumValue
p25
g3
NtRp26
(dp27
g19
NsS'value'
p28
S'0'
sg12
I9
sS'mojom_name'
p29
S'kMainFrame'
p30
sg13
S'../../content/public/common/resource_type.mojom'
p31
sbag1
(g25
g3
NtRp32
(dp33
g19
Nsg28
S'1'
sg12
I10
sg29
S'kSubFrame'
p34
sg13
g31
sbag1
(g25
g3
NtRp35
(dp36
g19
Nsg28
S'2'
sg12
I11
sg29
S'kStylesheet'
p37
sg13
g31
sbag1
(g25
g3
NtRp38
(dp39
g19
Nsg28
S'3'
sg12
I12
sg29
S'kScript'
p40
sg13
g31
sbag1
(g25
g3
NtRp41
(dp42
g19
Nsg28
S'4'
sg12
I13
sg29
S'kImage'
p43
sg13
g31
sbag1
(g25
g3
NtRp44
(dp45
g19
Nsg28
S'5'
sg12
I14
sg29
S'kFontResource'
p46
sg13
g31
sbag1
(g25
g3
NtRp47
(dp48
g19
Nsg28
S'6'
sg12
I15
sg29
S'kSubResource'
p49
sg13
g31
sbag1
(g25
g3
NtRp50
(dp51
g19
Nsg28
S'7'
sg12
I16
sg29
S'kObject'
p52
sg13
g31
sbag1
(g25
g3
NtRp53
(dp54
g19
Nsg28
S'8'
sg12
I17
sg29
S'kMedia'
p55
sg13
g31
sbag1
(g25
g3
NtRp56
(dp57
g19
Nsg28
S'9'
sg12
I18
sg29
S'kWorker'
p58
sg13
g31
sbag1
(g25
g3
NtRp59
(dp60
g19
Nsg28
S'10'
p61
sg12
I19
sg29
S'kSharedWorker'
p62
sg13
g31
sbag1
(g25
g3
NtRp63
(dp64
g19
Nsg28
S'11'
p65
sg12
I20
sg29
S'kPrefetch'
p66
sg13
g31
sbag1
(g25
g3
NtRp67
(dp68
g19
Nsg28
S'12'
p69
sg12
I21
sg29
S'kFavicon'
p70
sg13
g31
sbag1
(g25
g3
NtRp71
(dp72
g19
Nsg28
S'13'
p73
sg12
I22
sg29
S'kXhr'
p74
sg13
g31
sbag1
(g25
g3
NtRp75
(dp76
g19
Nsg28
S'14'
p77
sg12
I23
sg29
S'kPing'
p78
sg13
g31
sbag1
(g25
g3
NtRp79
(dp80
g19
Nsg28
S'15'
p81
sg12
I24
sg29
S'kServiceWorker'
p82
sg13
g31
sbag1
(g25
g3
NtRp83
(dp84
g19
Nsg28
S'16'
p85
sg12
I25
sg29
S'kCspReport'
p86
sg13
g31
sbag1
(g25
g3
NtRp87
(dp88
g19
Nsg28
S'17'
p89
sg12
I26
sg29
S'kPluginResource'
p90
sg13
g31
sbag1
(g25
g3
NtRp91
(dp92
g19
Nsg28
S'18'
p93
sg12
I27
sg29
S'kNavigationPreload'
p94
sg13
g31
sbasg12
I9
sg13
g31
sbsg12
I8
sg29
S'ResourceType'
p95
sg13
g31
sbasg12
NsS'module'
p96
g1
(cmojom.parse.ast
Module
p97
g3
NtRp98
(dp99
S'mojom_namespace'
p100
(S'IDENTIFIER'
p101
S'content.mojom'
tp102
sg12
I5
sg19
Nsg13
g31
sbsg13
Nsb.