ccopy_reg
_reconstructor
p1
(cmojom.parse.ast
Mojom
p2
c__builtin__
object
p3
NtRp4
(dp5
S'import_list'
p6
g1
(cmojom.parse.ast
ImportList
p7
g3
NtRp8
(dp9
S'items'
p10
(lp11
sS'lineno'
p12
NsS'filename'
p13
NsbsS'definition_list'
p14
(lp15
g1
(cmojom.parse.ast
Struct
p16
g3
NtRp17
(dp18
S'body'
p19
g1
(cmojom.parse.ast
StructBody
p20
g3
NtRp21
(dp22
g10
(lp23
g1
(cmojom.parse.ast
StructField
p24
g3
NtRp25
(dp26
S'ordinal'
p27
NsS'default_value'
p28
S'0'
sS'mojom_name'
p29
S'count'
p30
sS'attribute_list'
p31
Nsg13
NsS'typename'
p32
S'uint64'
p33
sg12
Nsbag1
(g24
g3
NtRp34
(dp35
g27
Nsg28
S'0'
sg29
S'size'
p36
sg31
Nsg13
Nsg32
S'uint64'
p37
sg12
Nsbag1
(g24
g3
NtRp38
(dp39
g27
Nsg28
S'0'
sg29
S'live_size'
p40
sg31
Nsg13
Nsg32
S'uint64'
p41
sg12
Nsbag1
(g24
g3
NtRp42
(dp43
g27
Nsg28
S'0'
sg29
S'decoded_size'
p44
sg31
Nsg13
Nsg32
S'uint64'
p45
sg12
Nsbasg12
Nsg13
Nsbsg31
Nsg12
Nsg29
S'ResourceTypeStat'
p46
sg13
Nsbag1
(g16
g3
NtRp47
(dp48
g19
g1
(g20
g3
NtRp49
(dp50
g10
(lp51
g1
(g24
g3
NtRp52
(dp53
g27
Nsg28
Nsg29
S'images'
p54
sg31
Nsg13
Nsg32
S'ResourceTypeStat'
p55
sg12
Nsbag1
(g24
g3
NtRp56
(dp57
g27
Nsg28
Nsg29
S'css_style_sheets'
p58
sg31
Nsg13
Nsg32
S'ResourceTypeStat'
p59
sg12
Nsbag1
(g24
g3
NtRp60
(dp61
g27
Nsg28
Nsg29
S'scripts'
p62
sg31
Nsg13
Nsg32
S'ResourceTypeStat'
p63
sg12
Nsbag1
(g24
g3
NtRp64
(dp65
g27
Nsg28
Nsg29
S'xsl_style_sheets'
p66
sg31
Nsg13
Nsg32
S'ResourceTypeStat'
p67
sg12
Nsbag1
(g24
g3
NtRp68
(dp69
g27
Nsg28
Nsg29
S'fonts'
p70
sg31
Nsg13
Nsg32
S'ResourceTypeStat'
p71
sg12
Nsbag1
(g24
g3
NtRp72
(dp73
g27
Nsg28
Nsg29
S'other'
p74
sg31
Nsg13
Nsg32
S'ResourceTypeStat'
p75
sg12
Nsbasg12
Nsg13
Nsbsg31
Nsg12
Nsg29
S'ResourceTypeStats'
p76
sg13
Nsbag1
(g16
g3
NtRp77
(dp78
g19
g1
(g20
g3
NtRp79
(dp80
g10
(lp81
g1
(g24
g3
NtRp82
(dp83
g27
Nsg28
S'false'
p84
sg29
S'reports_v8_stats'
p85
sg31
Nsg13
Nsg32
S'bool'
p86
sg12
Nsbag1
(g24
g3
NtRp87
(dp88
g27
Nsg28
S'0'
sg29
S'v8_bytes_allocated'
p89
sg31
Nsg13
Nsg32
S'uint64'
p90
sg12
Nsbag1
(g24
g3
NtRp91
(dp92
g27
Nsg28
S'0'
sg29
S'v8_bytes_used'
p93
sg31
Nsg13
Nsg32
S'uint64'
p94
sg12
Nsbag1
(g24
g3
NtRp95
(dp96
g27
Nsg28
Nsg29
S'web_cache_stats'
p97
sg31
Nsg13
Nsg32
S'ResourceTypeStats?'
p98
sg12
Nsbasg12
Nsg13
Nsbsg31
Nsg12
Nsg29
S'ResourceUsageData'
p99
sg13
Nsbag1
(cmojom.parse.ast
Interface
p100
g3
NtRp101
(dp102
g19
g1
(cmojom.parse.ast
InterfaceBody
p103
g3
NtRp104
(dp105
g10
(lp106
g1
(cmojom.parse.ast
Method
p107
g3
NtRp108
(dp109
g27
Nsg29
S'GetUsageData'
p110
sS'parameter_list'
p111
g1
(cmojom.parse.ast
ParameterList
p112
g3
NtRp113
(dp114
g10
(lp115
sg12
Nsg13
Nsbsg31
Nsg13
Nsg12
NsS'response_parameter_list'
p116
g1
(g112
g3
NtRp117
(dp118
g10
(lp119
g1
(cmojom.parse.ast
Parameter
p120
g3
NtRp121
(dp122
g27
Nsg29
S'data'
p123
sg31
Nsg13
S'../../content/public/common/resource_usage_reporter.mojom'
p124
sg32
S'ResourceUsageData'
p125
sg12
I40
sbasg12
I40
sg13
g124
sbsbasg12
Nsg13
Nsbsg31
Nsg12
Nsg29
S'ResourceUsageReporter'
p126
sg13
Nsbasg12
NsS'module'
p127
g1
(cmojom.parse.ast
Module
p128
g3
NtRp129
(dp130
S'mojom_namespace'
p131
(S'IDENTIFIER'
p132
S'content.mojom'
tp133
sg12
I5
sg31
Nsg13
g124
sbsg13
Nsb.