ccopy_reg
_reconstructor
p1
(cmojom.parse.ast
Mojom
p2
c__builtin__
object
p3
NtRp4
(dp5
S'import_list'
p6
g1
(cmojom.parse.ast
ImportList
p7
g3
NtRp8
(dp9
S'items'
p10
(lp11
sS'lineno'
p12
NsS'filename'
p13
NsbsS'definition_list'
p14
(lp15
g1
(cmojom.parse.ast
Const
p16
g3
NtRp17
(dp18
S'mojom_name'
p19
S'kBrowserServiceName'
p20
sS'attribute_list'
p21
NsS'value'
p22
S'"content_browser"'
p23
sg13
NsS'typename'
p24
S'string'
p25
sg12
Nsbag1
(g16
g3
NtRp26
(dp27
g19
S'kGpuServiceName'
p28
sg21
Nsg22
S'"content_gpu"'
p29
sg13
Nsg24
S'string'
p30
sg12
Nsbag1
(g16
g3
NtRp31
(dp32
g19
S'kPackagedServicesServiceName'
p33
sg21
Nsg22
S'"content_packaged_services"'
p34
sg13
Nsg24
S'string'
p35
sg12
Nsbag1
(g16
g3
NtRp36
(dp37
g19
S'kPluginServiceName'
p38
sg21
Nsg22
S'"content_plugin"'
p39
sg13
Nsg24
S'string'
p40
sg12
Nsbag1
(g16
g3
NtRp41
(dp42
g19
S'kRendererServiceName'
p43
sg21
Nsg22
S'"content_renderer"'
p44
sg13
Nsg24
S'string'
p45
sg12
Nsbag1
(g16
g3
NtRp46
(dp47
g19
S'kUtilityServiceName'
p48
sg21
Nsg22
S'"content_utility"'
p49
sg13
Nsg24
S'string'
p50
sg12
Nsbag1
(g16
g3
NtRp51
(dp52
g19
S'kNetworkServiceName'
p53
sg21
Nsg22
S'"network"'
p54
sg13
Nsg24
S'string'
p55
sg12
Nsbasg12
NsS'module'
p56
g1
(cmojom.parse.ast
Module
p57
g3
NtRp58
(dp59
S'mojom_namespace'
p60
(S'IDENTIFIER'
p61
S'content.mojom'
tp62
sg12
I5
sg21
Nsg13
S'../../content/public/common/service_names.mojom'
p63
sbsg13
Nsb.