ccopy_reg
_reconstructor
p1
(cmojom.parse.ast
Mojom
p2
c__builtin__
object
p3
NtRp4
(dp5
S'import_list'
p6
g1
(cmojom.parse.ast
ImportList
p7
g3
NtRp8
(dp9
S'items'
p10
(lp11
g1
(cmojom.parse.ast
Import
p12
g3
NtRp13
(dp14
S'attribute_list'
p15
NsS'lineno'
p16
I7
sS'import_filename'
p17
S'url/mojom/url.mojom'
p18
sS'filename'
p19
S'../../services/metrics/public/mojom/ukm_interface.mojom'
p20
sbasg16
I7
sg19
g20
sbsS'definition_list'
p21
(lp22
g1
(cmojom.parse.ast
Struct
p23
g3
NtRp24
(dp25
S'body'
p26
g1
(cmojom.parse.ast
StructBody
p27
g3
NtRp28
(dp29
g10
(lp30
g1
(cmojom.parse.ast
StructField
p31
g3
NtRp32
(dp33
S'ordinal'
p34
NsS'default_value'
p35
NsS'mojom_name'
p36
S'source_id'
p37
sg15
Nsg19
NsS'typename'
p38
S'int64'
p39
sg16
Nsbag1
(g31
g3
NtRp40
(dp41
g34
Nsg35
Nsg36
S'event_hash'
p42
sg15
Nsg19
Nsg38
S'uint64'
p43
sg16
Nsbag1
(g31
g3
NtRp44
(dp45
g34
Nsg35
Nsg36
S'metrics'
p46
sg15
Nsg19
Nsg38
S'int64{uint64}'
p47
sg16
Nsbasg16
Nsg19
Nsbsg15
Nsg16
Nsg36
S'UkmEntry'
p48
sg19
Nsbag1
(cmojom.parse.ast
Interface
p49
g3
NtRp50
(dp51
g26
g1
(cmojom.parse.ast
InterfaceBody
p52
g3
NtRp53
(dp54
g10
(lp55
g1
(cmojom.parse.ast
Method
p56
g3
NtRp57
(dp58
g34
Nsg36
S'AddEntry'
p59
sS'parameter_list'
p60
g1
(cmojom.parse.ast
ParameterList
p61
g3
NtRp62
(dp63
g10
(lp64
g1
(cmojom.parse.ast
Parameter
p65
g3
NtRp66
(dp67
g34
Nsg36
S'entry'
p68
sg15
Nsg19
g20
sg38
S'UkmEntry'
p69
sg16
I16
sbasg16
I16
sg19
g20
sbsg15
Nsg19
Nsg16
NsS'response_parameter_list'
p70
Nsbag1
(g56
g3
NtRp71
(dp72
g34
Nsg36
S'UpdateSourceURL'
p73
sg60
g1
(g61
g3
NtRp74
(dp75
g10
(lp76
g1
(g65
g3
NtRp77
(dp78
g34
Nsg36
S'source_id'
p79
sg15
Nsg19
g20
sg38
S'int64'
p80
sg16
I17
sbag1
(g65
g3
NtRp81
(dp82
g34
Nsg36
S'url'
p83
sg15
Nsg19
g20
sg38
S'string'
p84
sg16
I17
sbasg16
I17
sg19
g20
sbsg15
Nsg19
Nsg16
Nsg70
Nsbasg16
Nsg19
Nsbsg15
Nsg16
Nsg36
S'UkmRecorderInterface'
p85
sg19
Nsbasg16
NsS'module'
p86
g1
(cmojom.parse.ast
Module
p87
g3
NtRp88
(dp89
S'mojom_namespace'
p90
(S'IDENTIFIER'
p91
S'ukm.mojom'
tp92
sg16
I5
sg15
Nsg19
g20
sbsg19
Nsb.