ccopy_reg
_reconstructor
p1
(cmojom.parse.ast
Mojom
p2
c__builtin__
object
p3
NtRp4
(dp5
S'import_list'
p6
g1
(cmojom.parse.ast
ImportList
p7
g3
NtRp8
(dp9
S'items'
p10
(lp11
g1
(cmojom.parse.ast
Import
p12
g3
NtRp13
(dp14
S'attribute_list'
p15
NsS'lineno'
p16
I12
sS'import_filename'
p17
S'components/services/filesystem/public/interfaces/types.mojom'
p18
sS'filename'
p19
S'../../components/services/filesystem/public/interfaces/file.mojom'
p20
sbag1
(g12
g3
NtRp21
(dp22
g15
Nsg16
I13
sg17
S'mojo/public/mojom/base/file.mojom'
p23
sg19
g20
sbag1
(g12
g3
NtRp24
(dp25
g15
Nsg16
I14
sg17
S'mojo/public/mojom/base/file_error.mojom'
p26
sg19
g20
sbasg16
I12
sg19
g20
sbsS'definition_list'
p27
(lp28
g1
(cmojom.parse.ast
Interface
p29
g3
NtRp30
(dp31
S'body'
p32
g1
(cmojom.parse.ast
InterfaceBody
p33
g3
NtRp34
(dp35
g10
(lp36
g1
(cmojom.parse.ast
Method
p37
g3
NtRp38
(dp39
S'ordinal'
p40
NsS'mojom_name'
p41
S'Close'
p42
sS'parameter_list'
p43
g1
(cmojom.parse.ast
ParameterList
p44
g3
NtRp45
(dp46
g10
(lp47
sg16
Nsg19
Nsbsg15
g1
(cmojom.parse.ast
AttributeList
p48
g3
NtRp49
(dp50
g10
(lp51
g1
(cmojom.parse.ast
Attribute
p52
g3
NtRp53
(dp54
S'value'
p55
I01
sg16
I21
sS'key'
p56
S'Sync'
p57
sg19
g20
sbasg16
I21
sg19
g20
sbsg19
Nsg16
NsS'response_parameter_list'
p58
g1
(g44
g3
NtRp59
(dp60
g10
(lp61
g1
(cmojom.parse.ast
Parameter
p62
g3
NtRp63
(dp64
g40
Nsg41
S'err'
p65
sg15
Nsg19
g20
sS'typename'
p66
S'mojo_base.mojom.FileError'
p67
sg16
I22
sbasg16
I22
sg19
g20
sbsbag1
(g37
g3
NtRp68
(dp69
g40
Nsg41
S'Read'
p70
sg43
g1
(g44
g3
NtRp71
(dp72
g10
(lp73
g1
(g62
g3
NtRp74
(dp75
g40
Nsg41
S'num_bytes_to_read'
p76
sg15
Nsg19
g20
sg66
S'uint32'
p77
sg16
I31
sbag1
(g62
g3
NtRp78
(dp79
g40
Nsg41
S'offset'
p80
sg15
Nsg19
g20
sg66
S'int64'
p81
sg16
I31
sbag1
(g62
g3
NtRp82
(dp83
g40
Nsg41
S'whence'
p84
sg15
Nsg19
g20
sg66
S'Whence'
p85
sg16
I31
sbasg16
I31
sg19
g20
sbsg15
g1
(g48
g3
NtRp86
(dp87
g10
(lp88
g1
(g52
g3
NtRp89
(dp90
g55
I01
sg16
I30
sg56
S'Sync'
p91
sg19
g20
sbasg16
I30
sg19
g20
sbsg19
Nsg16
Nsg58
g1
(g44
g3
NtRp92
(dp93
g10
(lp94
g1
(g62
g3
NtRp95
(dp96
g40
Nsg41
S'error'
p97
sg15
Nsg19
g20
sg66
S'mojo_base.mojom.FileError'
p98
sg16
I32
sbag1
(g62
g3
NtRp99
(dp100
g40
Nsg41
S'bytes_read'
p101
sg15
Nsg19
g20
sg66
S'uint8[]?'
p102
sg16
I32
sbasg16
I32
sg19
g20
sbsbag1
(g37
g3
NtRp103
(dp104
g40
Nsg41
S'Write'
p105
sg43
g1
(g44
g3
NtRp106
(dp107
g10
(lp108
g1
(g62
g3
NtRp109
(dp110
g40
Nsg41
S'bytes_to_write'
p111
sg15
Nsg19
g20
sg66
S'uint8[]'
p112
sg16
I38
sbag1
(g62
g3
NtRp113
(dp114
g40
Nsg41
S'offset'
p115
sg15
Nsg19
g20
sg66
S'int64'
p116
sg16
I38
sbag1
(g62
g3
NtRp117
(dp118
g40
Nsg41
S'whence'
p119
sg15
Nsg19
g20
sg66
S'Whence'
p120
sg16
I38
sbasg16
I38
sg19
g20
sbsg15
g1
(g48
g3
NtRp121
(dp122
g10
(lp123
g1
(g52
g3
NtRp124
(dp125
g55
I01
sg16
I37
sg56
S'Sync'
p126
sg19
g20
sbasg16
I37
sg19
g20
sbsg19
Nsg16
Nsg58
g1
(g44
g3
NtRp127
(dp128
g10
(lp129
g1
(g62
g3
NtRp130
(dp131
g40
Nsg41
S'error'
p132
sg15
Nsg19
g20
sg66
S'mojo_base.mojom.FileError'
p133
sg16
I39
sbag1
(g62
g3
NtRp134
(dp135
g40
Nsg41
S'num_bytes_written'
p136
sg15
Nsg19
g20
sg66
S'uint32'
p137
sg16
I39
sbasg16
I39
sg19
g20
sbsbag1
(g37
g3
NtRp138
(dp139
g40
Nsg41
S'Tell'
p140
sg43
g1
(g44
g3
NtRp141
(dp142
g10
(lp143
sg16
Nsg19
Nsbsg15
g1
(g48
g3
NtRp144
(dp145
g10
(lp146
g1
(g52
g3
NtRp147
(dp148
g55
I01
sg16
I43
sg56
S'Sync'
p149
sg19
g20
sbasg16
I43
sg19
g20
sbsg19
Nsg16
Nsg58
g1
(g44
g3
NtRp150
(dp151
g10
(lp152
g1
(g62
g3
NtRp153
(dp154
g40
Nsg41
S'error'
p155
sg15
Nsg19
g20
sg66
S'mojo_base.mojom.FileError'
p156
sg16
I44
sbag1
(g62
g3
NtRp157
(dp158
g40
Nsg41
S'position'
p159
sg15
Nsg19
g20
sg66
S'int64'
p160
sg16
I44
sbasg16
I44
sg19
g20
sbsbag1
(g37
g3
NtRp161
(dp162
g40
Nsg41
S'Seek'
p163
sg43
g1
(g44
g3
NtRp164
(dp165
g10
(lp166
g1
(g62
g3
NtRp167
(dp168
g40
Nsg41
S'offset'
p169
sg15
Nsg19
g20
sg66
S'int64'
p170
sg16
I50
sbag1
(g62
g3
NtRp171
(dp172
g40
Nsg41
S'whence'
p173
sg15
Nsg19
g20
sg66
S'Whence'
p174
sg16
I50
sbasg16
I50
sg19
g20
sbsg15
g1
(g48
g3
NtRp175
(dp176
g10
(lp177
g1
(g52
g3
NtRp178
(dp179
g55
I01
sg16
I49
sg56
S'Sync'
p180
sg19
g20
sbasg16
I49
sg19
g20
sbsg19
Nsg16
Nsg58
g1
(g44
g3
NtRp181
(dp182
g10
(lp183
g1
(g62
g3
NtRp184
(dp185
g40
Nsg41
S'error'
p186
sg15
Nsg19
g20
sg66
S'mojo_base.mojom.FileError'
p187
sg16
I51
sbag1
(g62
g3
NtRp188
(dp189
g40
Nsg41
S'position'
p190
sg15
Nsg19
g20
sg66
S'int64'
p191
sg16
I51
sbasg16
I51
sg19
g20
sbsbag1
(g37
g3
NtRp192
(dp193
g40
Nsg41
S'Stat'
p194
sg43
g1
(g44
g3
NtRp195
(dp196
g10
(lp197
sg16
Nsg19
Nsbsg15
g1
(g48
g3
NtRp198
(dp199
g10
(lp200
g1
(g52
g3
NtRp201
(dp202
g55
I01
sg16
I55
sg56
S'Sync'
p203
sg19
g20
sbasg16
I55
sg19
g20
sbsg19
Nsg16
Nsg58
g1
(g44
g3
NtRp204
(dp205
g10
(lp206
g1
(g62
g3
NtRp207
(dp208
g40
Nsg41
S'error'
p209
sg15
Nsg19
g20
sg66
S'mojo_base.mojom.FileError'
p210
sg16
I57
sbag1
(g62
g3
NtRp211
(dp212
g40
Nsg41
S'file_information'
p213
sg15
Nsg19
g20
sg66
S'FileInformation?'
p214
sg16
I57
sbasg16
I57
sg19
g20
sbsbag1
(g37
g3
NtRp215
(dp216
g40
Nsg41
S'Truncate'
p217
sg43
g1
(g44
g3
NtRp218
(dp219
g10
(lp220
g1
(g62
g3
NtRp221
(dp222
g40
Nsg41
S'size'
p223
sg15
Nsg19
g20
sg66
S'int64'
p224
sg16
I61
sbasg16
I61
sg19
g20
sbsg15
g1
(g48
g3
NtRp225
(dp226
g10
(lp227
g1
(g52
g3
NtRp228
(dp229
g55
I01
sg16
I60
sg56
S'Sync'
p230
sg19
g20
sbasg16
I60
sg19
g20
sbsg19
Nsg16
Nsg58
g1
(g44
g3
NtRp231
(dp232
g10
(lp233
g1
(g62
g3
NtRp234
(dp235
g40
Nsg41
S'error'
p236
sg15
Nsg19
g20
sg66
S'mojo_base.mojom.FileError'
p237
sg16
I61
sbasg16
I61
sg19
g20
sbsbag1
(g37
g3
NtRp238
(dp239
g40
Nsg41
S'Touch'
p240
sg43
g1
(g44
g3
NtRp241
(dp242
g10
(lp243
g1
(g62
g3
NtRp244
(dp245
g40
Nsg41
S'atime'
p246
sg15
Nsg19
g20
sg66
S'TimespecOrNow?'
p247
sg16
I67
sbag1
(g62
g3
NtRp248
(dp249
g40
Nsg41
S'mtime'
p250
sg15
Nsg19
g20
sg66
S'TimespecOrNow?'
p251
sg16
I67
sbasg16
I67
sg19
g20
sbsg15
g1
(g48
g3
NtRp252
(dp253
g10
(lp254
g1
(g52
g3
NtRp255
(dp256
g55
I01
sg16
I66
sg56
S'Sync'
p257
sg19
g20
sbasg16
I66
sg19
g20
sbsg19
Nsg16
Nsg58
g1
(g44
g3
NtRp258
(dp259
g10
(lp260
g1
(g62
g3
NtRp261
(dp262
g40
Nsg41
S'error'
p263
sg15
Nsg19
g20
sg66
S'mojo_base.mojom.FileError'
p264
sg16
I68
sbasg16
I68
sg19
g20
sbsbag1
(g37
g3
NtRp265
(dp266
g40
Nsg41
S'Dup'
p267
sg43
g1
(g44
g3
NtRp268
(dp269
g10
(lp270
g1
(g62
g3
NtRp271
(dp272
g40
Nsg41
S'file'
p273
sg15
Nsg19
g20
sg66
S'File&'
p274
sg16
I74
sbasg16
I74
sg19
g20
sbsg15
g1
(g48
g3
NtRp275
(dp276
g10
(lp277
g1
(g52
g3
NtRp278
(dp279
g55
I01
sg16
I73
sg56
S'Sync'
p280
sg19
g20
sbasg16
I73
sg19
g20
sbsg19
Nsg16
Nsg58
g1
(g44
g3
NtRp281
(dp282
g10
(lp283
g1
(g62
g3
NtRp284
(dp285
g40
Nsg41
S'error'
p286
sg15
Nsg19
g20
sg66
S'mojo_base.mojom.FileError'
p287
sg16
I74
sbasg16
I74
sg19
g20
sbsbag1
(g37
g3
NtRp288
(dp289
g40
Nsg41
S'Flush'
p290
sg43
g1
(g44
g3
NtRp291
(dp292
g10
(lp293
sg16
Nsg19
Nsbsg15
g1
(g48
g3
NtRp294
(dp295
g10
(lp296
g1
(g52
g3
NtRp297
(dp298
g55
I01
sg16
I77
sg56
S'Sync'
p299
sg19
g20
sbasg16
I77
sg19
g20
sbsg19
Nsg16
Nsg58
g1
(g44
g3
NtRp300
(dp301
g10
(lp302
g1
(g62
g3
NtRp303
(dp304
g40
Nsg41
S'error'
p305
sg15
Nsg19
g20
sg66
S'mojo_base.mojom.FileError'
p306
sg16
I78
sbasg16
I78
sg19
g20
sbsbag1
(g37
g3
NtRp307
(dp308
g40
Nsg41
S'Lock'
p309
sg43
g1
(g44
g3
NtRp310
(dp311
g10
(lp312
sg16
Nsg19
Nsbsg15
g1
(g48
g3
NtRp313
(dp314
g10
(lp315
g1
(g52
g3
NtRp316
(dp317
g55
I01
sg16
I83
sg56
S'Sync'
p318
sg19
g20
sbasg16
I83
sg19
g20
sbsg19
Nsg16
Nsg58
g1
(g44
g3
NtRp319
(dp320
g10
(lp321
g1
(g62
g3
NtRp322
(dp323
g40
Nsg41
S'error'
p324
sg15
Nsg19
g20
sg66
S'mojo_base.mojom.FileError'
p325
sg16
I84
sbasg16
I84
sg19
g20
sbsbag1
(g37
g3
NtRp326
(dp327
g40
Nsg41
S'Unlock'
p328
sg43
g1
(g44
g3
NtRp329
(dp330
g10
(lp331
sg16
Nsg19
Nsbsg15
g1
(g48
g3
NtRp332
(dp333
g10
(lp334
g1
(g52
g3
NtRp335
(dp336
g55
I01
sg16
I87
sg56
S'Sync'
p337
sg19
g20
sbasg16
I87
sg19
g20
sbsg19
Nsg16
Nsg58
g1
(g44
g3
NtRp338
(dp339
g10
(lp340
g1
(g62
g3
NtRp341
(dp342
g40
Nsg41
S'error'
p343
sg15
Nsg19
g20
sg66
S'mojo_base.mojom.FileError'
p344
sg16
I88
sbasg16
I88
sg19
g20
sbsbag1
(g37
g3
NtRp345
(dp346
g40
Nsg41
S'AsHandle'
p347
sg43
g1
(g44
g3
NtRp348
(dp349
g10
(lp350
sg16
Nsg19
Nsbsg15
g1
(g48
g3
NtRp351
(dp352
g10
(lp353
g1
(g52
g3
NtRp354
(dp355
g55
I01
sg16
I91
sg56
S'Sync'
p356
sg19
g20
sbasg16
I91
sg19
g20
sbsg19
Nsg16
Nsg58
g1
(g44
g3
NtRp357
(dp358
g10
(lp359
g1
(g62
g3
NtRp360
(dp361
g40
Nsg41
S'error'
p362
sg15
Nsg19
g20
sg66
S'mojo_base.mojom.FileError'
p363
sg16
I92
sbag1
(g62
g3
NtRp364
(dp365
g40
Nsg41
S'file_handle'
p366
sg15
Nsg19
g20
sg66
S'mojo_base.mojom.File?'
p367
sg16
I93
sbasg16
I92
sg19
g20
sbsbasg16
Nsg19
Nsbsg15
Nsg16
Nsg41
S'File'
p368
sg19
Nsbasg16
NsS'module'
p369
g1
(cmojom.parse.ast
Module
p370
g3
NtRp371
(dp372
S'mojom_namespace'
p373
(S'IDENTIFIER'
p374
S'filesystem.mojom'
tp375
sg16
I10
sg15
Nsg19
g20
sbsg19
Nsb.