ccopy_reg
_reconstructor
p1
(cmojom.parse.ast
Mojom
p2
c__builtin__
object
p3
NtRp4
(dp5
S'import_list'
p6
g1
(cmojom.parse.ast
ImportList
p7
g3
NtRp8
(dp9
S'items'
p10
(lp11
g1
(cmojom.parse.ast
Import
p12
g3
NtRp13
(dp14
S'attribute_list'
p15
NsS'lineno'
p16
I7
sS'import_filename'
p17
S'components/services/filesystem/public/interfaces/directory.mojom'
p18
sS'filename'
p19
S'../../services/file/public/mojom/file_system.mojom'
p20
sbag1
(g12
g3
NtRp21
(dp22
g15
Nsg16
I8
sg17
S'mojo/public/mojom/base/file_error.mojom'
p23
sg19
g20
sbasg16
I7
sg19
g20
sbsS'definition_list'
p24
(lp25
g1
(cmojom.parse.ast
Interface
p26
g3
NtRp27
(dp28
S'body'
p29
g1
(cmojom.parse.ast
InterfaceBody
p30
g3
NtRp31
(dp32
g10
(lp33
g1
(cmojom.parse.ast
Method
p34
g3
NtRp35
(dp36
S'ordinal'
p37
NsS'mojom_name'
p38
S'GetDirectory'
p39
sS'parameter_list'
p40
g1
(cmojom.parse.ast
ParameterList
p41
g3
NtRp42
(dp43
g10
(lp44
g1
(cmojom.parse.ast
Parameter
p45
g3
NtRp46
(dp47
g37
Nsg38
S'dir'
p48
sg15
Nsg19
g20
sS'typename'
p49
S'filesystem.mojom.Directory&'
p50
sg16
I13
sbasg16
I13
sg19
g20
sbsg15
Nsg19
Nsg16
NsS'response_parameter_list'
p51
g1
(g41
g3
NtRp52
(dp53
g10
(lp54
sg16
Nsg19
Nsbsbag1
(g34
g3
NtRp55
(dp56
g37
Nsg38
S'GetSubDirectory'
p57
sg40
g1
(g41
g3
NtRp58
(dp59
g10
(lp60
g1
(g45
g3
NtRp61
(dp62
g37
Nsg38
S'dir_path'
p63
sg15
Nsg19
g20
sg49
S'string'
p64
sg16
I17
sbag1
(g45
g3
NtRp65
(dp66
g37
Nsg38
S'dir'
p67
sg15
Nsg19
g20
sg49
S'filesystem.mojom.Directory&'
p68
sg16
I17
sbasg16
I17
sg19
g20
sbsg15
Nsg19
Nsg16
Nsg51
g1
(g41
g3
NtRp69
(dp70
g10
(lp71
g1
(g45
g3
NtRp72
(dp73
g37
Nsg38
S'err'
p74
sg15
Nsg19
g20
sg49
S'mojo_base.mojom.FileError'
p75
sg16
I18
sbasg16
I18
sg19
g20
sbsbasg16
Nsg19
Nsbsg15
Nsg16
Nsg38
S'FileSystem'
p76
sg19
Nsbasg16
NsS'module'
p77
g1
(cmojom.parse.ast
Module
p78
g3
NtRp79
(dp80
S'mojom_namespace'
p81
(S'IDENTIFIER'
p82
S'file.mojom'
tp83
sg16
I5
sg15
Nsg19
g20
sbsg19
Nsb.