ccopy_reg
_reconstructor
p1
(cmojom.parse.ast
Mojom
p2
c__builtin__
object
p3
NtRp4
(dp5
S'import_list'
p6
g1
(cmojom.parse.ast
ImportList
p7
g3
NtRp8
(dp9
S'items'
p10
(lp11
g1
(cmojom.parse.ast
Import
p12
g3
NtRp13
(dp14
S'attribute_list'
p15
NsS'lineno'
p16
I7
sS'import_filename'
p17
S'components/services/filesystem/public/interfaces/file.mojom'
p18
sS'filename'
p19
S'../../components/services/filesystem/public/interfaces/directory.mojom'
p20
sbag1
(g12
g3
NtRp21
(dp22
g15
Nsg16
I8
sg17
S'components/services/filesystem/public/interfaces/types.mojom'
p23
sg19
g20
sbag1
(g12
g3
NtRp24
(dp25
g15
Nsg16
I9
sg17
S'mojo/public/mojom/base/file.mojom'
p26
sg19
g20
sbag1
(g12
g3
NtRp27
(dp28
g15
Nsg16
I10
sg17
S'mojo/public/mojom/base/file_error.mojom'
p29
sg19
g20
sbasg16
I7
sg19
g20
sbsS'definition_list'
p30
(lp31
g1
(cmojom.parse.ast
Struct
p32
g3
NtRp33
(dp34
S'body'
p35
g1
(cmojom.parse.ast
StructBody
p36
g3
NtRp37
(dp38
g10
(lp39
g1
(cmojom.parse.ast
StructField
p40
g3
NtRp41
(dp42
S'ordinal'
p43
NsS'default_value'
p44
NsS'mojom_name'
p45
S'path'
p46
sg15
Nsg19
NsS'typename'
p47
S'string'
p48
sg16
Nsbag1
(g40
g3
NtRp49
(dp50
g43
Nsg44
Nsg45
S'open_flags'
p51
sg15
Nsg19
Nsg47
S'uint32'
p52
sg16
Nsbasg16
Nsg19
Nsbsg15
Nsg16
Nsg45
S'FileOpenDetails'
p53
sg19
Nsbag1
(g32
g3
NtRp54
(dp55
g35
g1
(g36
g3
NtRp56
(dp57
g10
(lp58
g1
(g40
g3
NtRp59
(dp60
g43
Nsg44
Nsg45
S'path'
p61
sg15
Nsg19
Nsg47
S'string'
p62
sg16
Nsbag1
(g40
g3
NtRp63
(dp64
g43
Nsg44
Nsg45
S'error'
p65
sg15
Nsg19
Nsg47
S'mojo_base.mojom.FileError'
p66
sg16
Nsbag1
(g40
g3
NtRp67
(dp68
g43
Nsg44
Nsg45
S'file_handle'
p69
sg15
Nsg19
Nsg47
S'mojo_base.mojom.File?'
p70
sg16
Nsbasg16
Nsg19
Nsbsg15
Nsg16
Nsg45
S'FileOpenResult'
p71
sg19
Nsbag1
(cmojom.parse.ast
Interface
p72
g3
NtRp73
(dp74
g35
g1
(cmojom.parse.ast
InterfaceBody
p75
g3
NtRp76
(dp77
g10
(lp78
g1
(cmojom.parse.ast
Method
p79
g3
NtRp80
(dp81
g43
Nsg45
S'Read'
p82
sS'parameter_list'
p83
g1
(cmojom.parse.ast
ParameterList
p84
g3
NtRp85
(dp86
g10
(lp87
sg16
Nsg19
Nsbsg15
g1
(cmojom.parse.ast
AttributeList
p88
g3
NtRp89
(dp90
g10
(lp91
g1
(cmojom.parse.ast
Attribute
p92
g3
NtRp93
(dp94
S'value'
p95
I01
sg16
I35
sS'key'
p96
S'Sync'
p97
sg19
g20
sbasg16
I35
sg19
g20
sbsg19
Nsg16
NsS'response_parameter_list'
p98
g1
(g84
g3
NtRp99
(dp100
g10
(lp101
g1
(cmojom.parse.ast
Parameter
p102
g3
NtRp103
(dp104
g43
Nsg45
S'error'
p105
sg15
Nsg19
g20
sg47
S'mojo_base.mojom.FileError'
p106
sg16
I36
sbag1
(g102
g3
NtRp107
(dp108
g43
Nsg45
S'directory_contents'
p109
sg15
Nsg19
g20
sg47
S'DirectoryEntry[]?'
p110
sg16
I37
sbasg16
I36
sg19
g20
sbsbag1
(g79
g3
NtRp111
(dp112
g43
Nsg45
S'OpenFile'
p113
sg83
g1
(g84
g3
NtRp114
(dp115
g10
(lp116
g1
(g102
g3
NtRp117
(dp118
g43
Nsg45
S'path'
p119
sg15
Nsg19
g20
sg47
S'string'
p120
sg16
I45
sbag1
(g102
g3
NtRp121
(dp122
g43
Nsg45
S'file'
p123
sg15
Nsg19
g20
sg47
S'File&?'
p124
sg16
I45
sbag1
(g102
g3
NtRp125
(dp126
g43
Nsg45
S'open_flags'
p127
sg15
Nsg19
g20
sg47
S'uint32'
p128
sg16
I45
sbasg16
I45
sg19
g20
sbsg15
g1
(g88
g3
NtRp129
(dp130
g10
(lp131
g1
(g92
g3
NtRp132
(dp133
g95
I01
sg16
I44
sg96
S'Sync'
p134
sg19
g20
sbasg16
I44
sg19
g20
sbsg19
Nsg16
Nsg98
g1
(g84
g3
NtRp135
(dp136
g10
(lp137
g1
(g102
g3
NtRp138
(dp139
g43
Nsg45
S'error'
p140
sg15
Nsg19
g20
sg47
S'mojo_base.mojom.FileError'
p141
sg16
I46
sbasg16
I46
sg19
g20
sbsbag1
(g79
g3
NtRp142
(dp143
g43
Nsg45
S'OpenFileHandle'
p144
sg83
g1
(g84
g3
NtRp145
(dp146
g10
(lp147
g1
(g102
g3
NtRp148
(dp149
g43
Nsg45
S'path'
p150
sg15
Nsg19
g20
sg47
S'string'
p151
sg16
I51
sbag1
(g102
g3
NtRp152
(dp153
g43
Nsg45
S'open_flags'
p154
sg15
Nsg19
g20
sg47
S'uint32'
p155
sg16
I51
sbasg16
I51
sg19
g20
sbsg15
g1
(g88
g3
NtRp156
(dp157
g10
(lp158
g1
(g92
g3
NtRp159
(dp160
g95
I01
sg16
I50
sg96
S'Sync'
p161
sg19
g20
sbasg16
I50
sg19
g20
sbsg19
Nsg16
Nsg98
g1
(g84
g3
NtRp162
(dp163
g10
(lp164
g1
(g102
g3
NtRp165
(dp166
g43
Nsg45
S'error'
p167
sg15
Nsg19
g20
sg47
S'mojo_base.mojom.FileError'
p168
sg16
I52
sbag1
(g102
g3
NtRp169
(dp170
g43
Nsg45
S'file_handle'
p171
sg15
Nsg19
g20
sg47
S'mojo_base.mojom.File?'
p172
sg16
I53
sbasg16
I52
sg19
g20
sbsbag1
(g79
g3
NtRp173
(dp174
g43
Nsg45
S'OpenFileHandles'
p175
sg83
g1
(g84
g3
NtRp176
(dp177
g10
(lp178
g1
(g102
g3
NtRp179
(dp180
g43
Nsg45
S'files'
p181
sg15
Nsg19
g20
sg47
S'FileOpenDetails[]'
p182
sg16
I57
sbasg16
I57
sg19
g20
sbsg15
g1
(g88
g3
NtRp183
(dp184
g10
(lp185
g1
(g92
g3
NtRp186
(dp187
g95
I01
sg16
I56
sg96
S'Sync'
p188
sg19
g20
sbasg16
I56
sg19
g20
sbsg19
Nsg16
Nsg98
g1
(g84
g3
NtRp189
(dp190
g10
(lp191
g1
(g102
g3
NtRp192
(dp193
g43
Nsg45
S'results'
p194
sg15
Nsg19
g20
sg47
S'FileOpenResult[]'
p195
sg16
I58
sbasg16
I58
sg19
g20
sbsbag1
(g79
g3
NtRp196
(dp197
g43
Nsg45
S'OpenDirectory'
p198
sg83
g1
(g84
g3
NtRp199
(dp200
g10
(lp201
g1
(g102
g3
NtRp202
(dp203
g43
Nsg45
S'path'
p204
sg15
Nsg19
g20
sg47
S'string'
p205
sg16
I63
sbag1
(g102
g3
NtRp206
(dp207
g43
Nsg45
S'directory'
p208
sg15
Nsg19
g20
sg47
S'Directory&?'
p209
sg16
I64
sbag1
(g102
g3
NtRp210
(dp211
g43
Nsg45
S'open_flags'
p212
sg15
Nsg19
g20
sg47
S'uint32'
p213
sg16
I65
sbasg16
I63
sg19
g20
sbsg15
g1
(g88
g3
NtRp214
(dp215
g10
(lp216
g1
(g92
g3
NtRp217
(dp218
g95
I01
sg16
I62
sg96
S'Sync'
p219
sg19
g20
sbasg16
I62
sg19
g20
sbsg19
Nsg16
Nsg98
g1
(g84
g3
NtRp220
(dp221
g10
(lp222
g1
(g102
g3
NtRp223
(dp224
g43
Nsg45
S'error'
p225
sg15
Nsg19
g20
sg47
S'mojo_base.mojom.FileError'
p226
sg16
I65
sbasg16
I65
sg19
g20
sbsbag1
(g79
g3
NtRp227
(dp228
g43
Nsg45
S'Rename'
p229
sg83
g1
(g84
g3
NtRp230
(dp231
g10
(lp232
g1
(g102
g3
NtRp233
(dp234
g43
Nsg45
S'path'
p235
sg15
Nsg19
g20
sg47
S'string'
p236
sg16
I69
sbag1
(g102
g3
NtRp237
(dp238
g43
Nsg45
S'new_path'
p239
sg15
Nsg19
g20
sg47
S'string'
p240
sg16
I69
sbasg16
I69
sg19
g20
sbsg15
g1
(g88
g3
NtRp241
(dp242
g10
(lp243
g1
(g92
g3
NtRp244
(dp245
g95
I01
sg16
I68
sg96
S'Sync'
p246
sg19
g20
sbasg16
I68
sg19
g20
sbsg19
Nsg16
Nsg98
g1
(g84
g3
NtRp247
(dp248
g10
(lp249
g1
(g102
g3
NtRp250
(dp251
g43
Nsg45
S'error'
p252
sg15
Nsg19
g20
sg47
S'mojo_base.mojom.FileError'
p253
sg16
I69
sbasg16
I69
sg19
g20
sbsbag1
(g79
g3
NtRp254
(dp255
g43
Nsg45
S'Replace'
p256
sg83
g1
(g84
g3
NtRp257
(dp258
g10
(lp259
g1
(g102
g3
NtRp260
(dp261
g43
Nsg45
S'path'
p262
sg15
Nsg19
g20
sg47
S'string'
p263
sg16
I76
sbag1
(g102
g3
NtRp264
(dp265
g43
Nsg45
S'new_path'
p266
sg15
Nsg19
g20
sg47
S'string'
p267
sg16
I76
sbasg16
I76
sg19
g20
sbsg15
g1
(g88
g3
NtRp268
(dp269
g10
(lp270
g1
(g92
g3
NtRp271
(dp272
g95
I01
sg16
I75
sg96
S'Sync'
p273
sg19
g20
sbasg16
I75
sg19
g20
sbsg19
Nsg16
Nsg98
g1
(g84
g3
NtRp274
(dp275
g10
(lp276
g1
(g102
g3
NtRp277
(dp278
g43
Nsg45
S'error'
p279
sg15
Nsg19
g20
sg47
S'mojo_base.mojom.FileError'
p280
sg16
I76
sbasg16
I76
sg19
g20
sbsbag1
(g79
g3
NtRp281
(dp282
g43
Nsg45
S'Delete'
p283
sg83
g1
(g84
g3
NtRp284
(dp285
g10
(lp286
g1
(g102
g3
NtRp287
(dp288
g43
Nsg45
S'path'
p289
sg15
Nsg19
g20
sg47
S'string'
p290
sg16
I81
sbag1
(g102
g3
NtRp291
(dp292
g43
Nsg45
S'delete_flags'
p293
sg15
Nsg19
g20
sg47
S'uint32'
p294
sg16
I81
sbasg16
I81
sg19
g20
sbsg15
g1
(g88
g3
NtRp295
(dp296
g10
(lp297
g1
(g92
g3
NtRp298
(dp299
g95
I01
sg16
I80
sg96
S'Sync'
p300
sg19
g20
sbasg16
I80
sg19
g20
sbsg19
Nsg16
Nsg98
g1
(g84
g3
NtRp301
(dp302
g10
(lp303
g1
(g102
g3
NtRp304
(dp305
g43
Nsg45
S'error'
p306
sg15
Nsg19
g20
sg47
S'mojo_base.mojom.FileError'
p307
sg16
I82
sbasg16
I82
sg19
g20
sbsbag1
(g79
g3
NtRp308
(dp309
g43
Nsg45
S'Exists'
p310
sg83
g1
(g84
g3
NtRp311
(dp312
g10
(lp313
g1
(g102
g3
NtRp314
(dp315
g43
Nsg45
S'path'
p316
sg15
Nsg19
g20
sg47
S'string'
p317
sg16
I86
sbasg16
I86
sg19
g20
sbsg15
g1
(g88
g3
NtRp318
(dp319
g10
(lp320
g1
(g92
g3
NtRp321
(dp322
g95
I01
sg16
I85
sg96
S'Sync'
p323
sg19
g20
sbasg16
I85
sg19
g20
sbsg19
Nsg16
Nsg98
g1
(g84
g3
NtRp324
(dp325
g10
(lp326
g1
(g102
g3
NtRp327
(dp328
g43
Nsg45
S'error'
p329
sg15
Nsg19
g20
sg47
S'mojo_base.mojom.FileError'
p330
sg16
I86
sbag1
(g102
g3
NtRp331
(dp332
g43
Nsg45
S'exists'
p333
sg15
Nsg19
g20
sg47
S'bool'
p334
sg16
I86
sbasg16
I86
sg19
g20
sbsbag1
(g79
g3
NtRp335
(dp336
g43
Nsg45
S'IsWritable'
p337
sg83
g1
(g84
g3
NtRp338
(dp339
g10
(lp340
g1
(g102
g3
NtRp341
(dp342
g43
Nsg45
S'path'
p343
sg15
Nsg19
g20
sg47
S'string'
p344
sg16
I90
sbasg16
I90
sg19
g20
sbsg15
g1
(g88
g3
NtRp345
(dp346
g10
(lp347
g1
(g92
g3
NtRp348
(dp349
g95
I01
sg16
I89
sg96
S'Sync'
p350
sg19
g20
sbasg16
I89
sg19
g20
sbsg19
Nsg16
Nsg98
g1
(g84
g3
NtRp351
(dp352
g10
(lp353
g1
(g102
g3
NtRp354
(dp355
g43
Nsg45
S'error'
p356
sg15
Nsg19
g20
sg47
S'mojo_base.mojom.FileError'
p357
sg16
I91
sbag1
(g102
g3
NtRp358
(dp359
g43
Nsg45
S'is_writable'
p360
sg15
Nsg19
g20
sg47
S'bool'
p361
sg16
I91
sbasg16
I91
sg19
g20
sbsbag1
(g79
g3
NtRp362
(dp363
g43
Nsg45
S'Flush'
p364
sg83
g1
(g84
g3
NtRp365
(dp366
g10
(lp367
sg16
Nsg19
Nsbsg15
g1
(g88
g3
NtRp368
(dp369
g10
(lp370
g1
(g92
g3
NtRp371
(dp372
g95
I01
sg16
I95
sg96
S'Sync'
p373
sg19
g20
sbasg16
I95
sg19
g20
sbsg19
Nsg16
Nsg98
g1
(g84
g3
NtRp374
(dp375
g10
(lp376
g1
(g102
g3
NtRp377
(dp378
g43
Nsg45
S'error'
p379
sg15
Nsg19
g20
sg47
S'mojo_base.mojom.FileError'
p380
sg16
I96
sbasg16
I96
sg19
g20
sbsbag1
(g79
g3
NtRp381
(dp382
g43
Nsg45
S'StatFile'
p383
sg83
g1
(g84
g3
NtRp384
(dp385
g10
(lp386
g1
(g102
g3
NtRp387
(dp388
g43
Nsg45
S'path'
p389
sg15
Nsg19
g20
sg47
S'string'
p390
sg16
I101
sbasg16
I101
sg19
g20
sbsg15
g1
(g88
g3
NtRp391
(dp392
g10
(lp393
g1
(g92
g3
NtRp394
(dp395
g95
I01
sg16
I100
sg96
S'Sync'
p396
sg19
g20
sbasg16
I100
sg19
g20
sbsg19
Nsg16
Nsg98
g1
(g84
g3
NtRp397
(dp398
g10
(lp399
g1
(g102
g3
NtRp400
(dp401
g43
Nsg45
S'error'
p402
sg15
Nsg19
g20
sg47
S'mojo_base.mojom.FileError'
p403
sg16
I102
sbag1
(g102
g3
NtRp404
(dp405
g43
Nsg45
S'file_information'
p406
sg15
Nsg19
g20
sg47
S'FileInformation?'
p407
sg16
I102
sbasg16
I102
sg19
g20
sbsbag1
(g79
g3
NtRp408
(dp409
g43
Nsg45
S'Clone'
p410
sg83
g1
(g84
g3
NtRp411
(dp412
g10
(lp413
g1
(g102
g3
NtRp414
(dp415
g43
Nsg45
S'directory'
p416
sg15
Nsg19
g20
sg47
S'Directory&'
p417
sg16
I105
sbasg16
I105
sg19
g20
sbsg15
Nsg19
Nsg16
Nsg98
Nsbag1
(g79
g3
NtRp418
(dp419
g43
Nsg45
S'ReadEntireFile'
p420
sg83
g1
(g84
g3
NtRp421
(dp422
g10
(lp423
g1
(g102
g3
NtRp424
(dp425
g43
Nsg45
S'path'
p426
sg15
Nsg19
g20
sg47
S'string'
p427
sg16
I109
sbasg16
I109
sg19
g20
sbsg15
g1
(g88
g3
NtRp428
(dp429
g10
(lp430
g1
(g92
g3
NtRp431
(dp432
g95
I01
sg16
I108
sg96
S'Sync'
p433
sg19
g20
sbasg16
I108
sg19
g20
sbsg19
Nsg16
Nsg98
g1
(g84
g3
NtRp434
(dp435
g10
(lp436
g1
(g102
g3
NtRp437
(dp438
g43
Nsg45
S'error'
p439
sg15
Nsg19
g20
sg47
S'mojo_base.mojom.FileError'
p440
sg16
I110
sbag1
(g102
g3
NtRp441
(dp442
g43
Nsg45
S'data'
p443
sg15
Nsg19
g20
sg47
S'uint8[]'
p444
sg16
I110
sbasg16
I110
sg19
g20
sbsbag1
(g79
g3
NtRp445
(dp446
g43
Nsg45
S'WriteFile'
p447
sg83
g1
(g84
g3
NtRp448
(dp449
g10
(lp450
g1
(g102
g3
NtRp451
(dp452
g43
Nsg45
S'path'
p453
sg15
Nsg19
g20
sg47
S'string'
p454
sg16
I114
sbag1
(g102
g3
NtRp455
(dp456
g43
Nsg45
S'data'
p457
sg15
Nsg19
g20
sg47
S'uint8[]'
p458
sg16
I114
sbasg16
I114
sg19
g20
sbsg15
g1
(g88
g3
NtRp459
(dp460
g10
(lp461
g1
(g92
g3
NtRp462
(dp463
g95
I01
sg16
I113
sg96
S'Sync'
p464
sg19
g20
sbasg16
I113
sg19
g20
sbsg19
Nsg16
Nsg98
g1
(g84
g3
NtRp465
(dp466
g10
(lp467
g1
(g102
g3
NtRp468
(dp469
g43
Nsg45
S'error'
p470
sg15
Nsg19
g20
sg47
S'mojo_base.mojom.FileError'
p471
sg16
I115
sbasg16
I115
sg19
g20
sbsbasg16
Nsg19
Nsbsg15
Nsg16
Nsg45
S'Directory'
p472
sg19
Nsbasg16
NsS'module'
p473
g1
(cmojom.parse.ast
Module
p474
g3
NtRp475
(dp476
S'mojom_namespace'
p477
(S'IDENTIFIER'
p478
S'filesystem.mojom'
tp479
sg16
I5
sg15
Nsg19
g20
sbsg19
Nsb.