ccopy_reg
_reconstructor
p1
(cmojom.parse.ast
Mojom
p2
c__builtin__
object
p3
NtRp4
(dp5
S'import_list'
p6
g1
(cmojom.parse.ast
ImportList
p7
g3
NtRp8
(dp9
S'items'
p10
(lp11
g1
(cmojom.parse.ast
Import
p12
g3
NtRp13
(dp14
S'attribute_list'
p15
NsS'lineno'
p16
I7
sS'import_filename'
p17
S'mojo/public/mojom/base/file_path.mojom'
p18
sS'filename'
p19
S'../../components/services/filesystem/public/interfaces/types.mojom'
p20
sbasg16
I7
sg19
g20
sbsS'definition_list'
p21
(lp22
g1
(cmojom.parse.ast
Enum
p23
g3
NtRp24
(dp25
g15
NsS'enum_value_list'
p26
g1
(cmojom.parse.ast
EnumValueList
p27
g3
NtRp28
(dp29
g10
(lp30
g1
(cmojom.parse.ast
EnumValue
p31
g3
NtRp32
(dp33
g15
NsS'value'
p34
S'0'
sg16
I13
sS'mojom_name'
p35
S'FROM_BEGIN'
p36
sg19
g20
sbag1
(g31
g3
NtRp37
(dp38
g15
Nsg34
S'1'
sg16
I15
sg35
S'FROM_CURRENT'
p39
sg19
g20
sbag1
(g31
g3
NtRp40
(dp41
g15
Nsg34
S'2'
sg16
I17
sg35
S'FROM_END'
p42
sg19
g20
sbasg16
I13
sg19
g20
sbsg16
I11
sg35
S'Whence'
p43
sg19
g20
sbag1
(cmojom.parse.ast
Struct
p44
g3
NtRp45
(dp46
S'body'
p47
g1
(cmojom.parse.ast
StructBody
p48
g3
NtRp49
(dp50
g10
(lp51
g1
(cmojom.parse.ast
StructField
p52
g3
NtRp53
(dp54
S'ordinal'
p55
NsS'default_value'
p56
Nsg35
S'now'
p57
sg15
Nsg19
NsS'typename'
p58
S'bool'
p59
sg16
Nsbag1
(g52
g3
NtRp60
(dp61
g55
Nsg56
Nsg35
S'seconds'
p62
sg15
Nsg19
Nsg58
S'double'
p63
sg16
Nsbasg16
Nsg19
Nsbsg15
Nsg16
Nsg35
S'TimespecOrNow'
p64
sg19
Nsbag1
(g44
g3
NtRp65
(dp66
g47
g1
(g48
g3
NtRp67
(dp68
g10
(lp69
g1
(g52
g3
NtRp70
(dp71
g55
Nsg56
Nsg35
S'type'
p72
sg15
Nsg19
Nsg58
S'FsFileType'
p73
sg16
Nsbag1
(g52
g3
NtRp74
(dp75
g55
Nsg56
Nsg35
S'size'
p76
sg15
Nsg19
Nsg58
S'int64'
p77
sg16
Nsbag1
(g52
g3
NtRp78
(dp79
g55
Nsg56
Nsg35
S'atime'
p80
sg15
Nsg19
Nsg58
S'double'
p81
sg16
Nsbag1
(g52
g3
NtRp82
(dp83
g55
Nsg56
Nsg35
S'mtime'
p84
sg15
Nsg19
Nsg58
S'double'
p85
sg16
Nsbag1
(g52
g3
NtRp86
(dp87
g55
Nsg56
Nsg35
S'ctime'
p88
sg15
Nsg19
Nsg58
S'double'
p89
sg16
Nsbasg16
Nsg19
Nsbsg15
Nsg16
Nsg35
S'FileInformation'
p90
sg19
Nsbag1
(cmojom.parse.ast
Const
p91
g3
NtRp92
(dp93
g35
S'kFlagOpen'
p94
sg15
Nsg34
S'0x1'
p95
sg19
Nsg58
S'uint32'
p96
sg16
Nsbag1
(g91
g3
NtRp97
(dp98
g35
S'kFlagCreate'
p99
sg15
Nsg34
S'0x2'
p100
sg19
Nsg58
S'uint32'
p101
sg16
Nsbag1
(g91
g3
NtRp102
(dp103
g35
S'kFlagOpenAlways'
p104
sg15
Nsg34
S'0x4'
p105
sg19
Nsg58
S'uint32'
p106
sg16
Nsbag1
(g91
g3
NtRp107
(dp108
g35
S'kCreateAlways'
p109
sg15
Nsg34
S'0x8'
p110
sg19
Nsg58
S'uint32'
p111
sg16
Nsbag1
(g91
g3
NtRp112
(dp113
g35
S'kFlagOpenTruncated'
p114
sg15
Nsg34
S'0x10'
p115
sg19
Nsg58
S'uint32'
p116
sg16
Nsbag1
(g91
g3
NtRp117
(dp118
g35
S'kFlagRead'
p119
sg15
Nsg34
S'0x20'
p120
sg19
Nsg58
S'uint32'
p121
sg16
Nsbag1
(g91
g3
NtRp122
(dp123
g35
S'kFlagWrite'
p124
sg15
Nsg34
S'0x40'
p125
sg19
Nsg58
S'uint32'
p126
sg16
Nsbag1
(g91
g3
NtRp127
(dp128
g35
S'kFlagAppend'
p129
sg15
Nsg34
S'0x80'
p130
sg19
Nsg58
S'uint32'
p131
sg16
Nsbag1
(g91
g3
NtRp132
(dp133
g35
S'kDeleteOnClose'
p134
sg15
Nsg34
S'0x2000'
p135
sg19
Nsg58
S'uint32'
p136
sg16
Nsbag1
(g91
g3
NtRp137
(dp138
g35
S'kFlagWriteAttributes'
p139
sg15
Nsg34
S'0x4000'
p140
sg19
Nsg58
S'uint32'
p141
sg16
Nsbag1
(g23
g3
NtRp142
(dp143
g15
Nsg26
g1
(g27
g3
NtRp144
(dp145
g10
(lp146
g1
(g31
g3
NtRp147
(dp148
g15
Nsg34
S'0'
sg16
I70
sg35
S'UNKNOWN'
p149
sg19
g20
sbag1
(g31
g3
NtRp150
(dp151
g15
Nsg34
Nsg16
I71
sg35
S'REGULAR_FILE'
p152
sg19
g20
sbag1
(g31
g3
NtRp153
(dp154
g15
Nsg34
Nsg16
I72
sg35
S'DIRECTORY'
p155
sg19
g20
sbasg16
I70
sg19
g20
sbsg16
I69
sg35
S'FsFileType'
p156
sg19
g20
sbag1
(g44
g3
NtRp157
(dp158
g47
g1
(g48
g3
NtRp159
(dp160
g10
(lp161
g1
(g52
g3
NtRp162
(dp163
g55
Nsg56
Nsg35
S'name'
p164
sg15
Nsg19
Nsg58
S'mojo_base.mojom.FilePath'
p165
sg16
Nsbag1
(g52
g3
NtRp166
(dp167
g55
Nsg56
Nsg35
S'type'
p168
sg15
Nsg19
Nsg58
S'FsFileType'
p169
sg16
Nsbasg16
Nsg19
Nsbsg15
Nsg16
Nsg35
S'DirectoryEntry'
p170
sg19
Nsbag1
(g91
g3
NtRp171
(dp172
g35
S'kDeleteFlagRecursive'
p173
sg15
Nsg34
S'0x1'
p174
sg19
Nsg58
S'uint32'
p175
sg16
Nsbasg16
NsS'module'
p176
g1
(cmojom.parse.ast
Module
p177
g3
NtRp178
(dp179
S'mojom_namespace'
p180
(S'IDENTIFIER'
p181
S'filesystem.mojom'
tp182
sg16
I5
sg15
Nsg19
g20
sbsg19
Nsb.