ccopy_reg
_reconstructor
p1
(cmojom.parse.ast
Mojom
p2
c__builtin__
object
p3
NtRp4
(dp5
S'import_list'
p6
g1
(cmojom.parse.ast
ImportList
p7
g3
NtRp8
(dp9
S'items'
p10
(lp11
g1
(cmojom.parse.ast
Import
p12
g3
NtRp13
(dp14
S'attribute_list'
p15
NsS'lineno'
p16
I7
sS'import_filename'
p17
S'media/mojo/interfaces/audio_data_pipe.mojom'
p18
sS'filename'
p19
S'../../content/common/media/renderer_audio_input_stream_factory.mojom'
p20
sbag1
(g12
g3
NtRp21
(dp22
g15
Nsg16
I8
sg17
S'media/mojo/interfaces/audio_input_stream.mojom'
p23
sg19
g20
sbag1
(g12
g3
NtRp24
(dp25
g15
Nsg16
I9
sg17
S'media/mojo/interfaces/audio_parameters.mojom'
p26
sg19
g20
sbag1
(g12
g3
NtRp27
(dp28
g15
Nsg16
I10
sg17
S'media/mojo/interfaces/media_types.mojom'
p29
sg19
g20
sbag1
(g12
g3
NtRp30
(dp31
g15
Nsg16
I11
sg17
S'mojo/public/mojom/base/unguessable_token.mojom'
p32
sg19
g20
sbag1
(g12
g3
NtRp33
(dp34
g15
Nsg16
I12
sg17
S'services/audio/public/mojom/audio_processing.mojom'
p35
sg19
g20
sbasg16
I7
sg19
g20
sbsS'definition_list'
p36
(lp37
g1
(cmojom.parse.ast
Interface
p38
g3
NtRp39
(dp40
S'body'
p41
g1
(cmojom.parse.ast
InterfaceBody
p42
g3
NtRp43
(dp44
g10
(lp45
g1
(cmojom.parse.ast
Method
p46
g3
NtRp47
(dp48
S'ordinal'
p49
NsS'mojom_name'
p50
S'CreateStream'
p51
sS'parameter_list'
p52
g1
(cmojom.parse.ast
ParameterList
p53
g3
NtRp54
(dp55
g10
(lp56
g1
(cmojom.parse.ast
Parameter
p57
g3
NtRp58
(dp59
g49
Nsg50
S'client'
p60
sg15
Nsg19
g20
sS'typename'
p61
S'RendererAudioInputStreamFactoryClient'
p62
sg16
I20
sbag1
(g57
g3
NtRp63
(dp64
g49
Nsg50
S'session_id'
p65
sg15
Nsg19
g20
sg61
S'int32'
p66
sg16
I21
sbag1
(g57
g3
NtRp67
(dp68
g49
Nsg50
S'params'
p69
sg15
Nsg19
g20
sg61
S'media.mojom.AudioParameters'
p70
sg16
I22
sbag1
(g57
g3
NtRp71
(dp72
g49
Nsg50
S'automatic_gain_control'
p73
sg15
Nsg19
g20
sg61
S'bool'
p74
sg16
I23
sbag1
(g57
g3
NtRp75
(dp76
g49
Nsg50
S'shared_memory_count'
p77
sg15
Nsg19
g20
sg61
S'uint32'
p78
sg16
I24
sbag1
(g57
g3
NtRp79
(dp80
g49
Nsg50
S'processing_config'
p81
sg15
Nsg19
g20
sg61
S'audio.mojom.AudioProcessingConfig?'
p82
sg16
I25
sbasg16
I20
sg19
g20
sbsg15
Nsg19
Nsg16
NsS'response_parameter_list'
p83
Nsbag1
(g46
g3
NtRp84
(dp85
g49
Nsg50
S'AssociateInputAndOutputForAec'
p86
sg52
g1
(g53
g3
NtRp87
(dp88
g10
(lp89
g1
(g57
g3
NtRp90
(dp91
g49
Nsg50
S'input_stream_id'
p92
sg15
Nsg19
g20
sg61
S'mojo_base.mojom.UnguessableToken'
p93
sg16
I33
sbag1
(g57
g3
NtRp94
(dp95
g49
Nsg50
S'output_device_id'
p96
sg15
Nsg19
g20
sg61
S'string'
p97
sg16
I34
sbasg16
I33
sg19
g20
sbsg15
Nsg19
Nsg16
Nsg83
Nsbasg16
Nsg19
Nsbsg15
Nsg16
Nsg50
S'RendererAudioInputStreamFactory'
p98
sg19
Nsbag1
(g38
g3
NtRp99
(dp100
g41
g1
(g42
g3
NtRp101
(dp102
g10
(lp103
g1
(g46
g3
NtRp104
(dp105
g49
Nsg50
S'StreamCreated'
p106
sg52
g1
(g53
g3
NtRp107
(dp108
g10
(lp109
g1
(g57
g3
NtRp110
(dp111
g49
Nsg50
S'stream'
p112
sg15
Nsg19
g20
sg61
S'media.mojom.AudioInputStream'
p113
sg16
I47
sbag1
(g57
g3
NtRp114
(dp115
g49
Nsg50
S'client_request'
p116
sg15
Nsg19
g20
sg61
S'media.mojom.AudioInputStreamClient&'
p117
sg16
I48
sbag1
(g57
g3
NtRp118
(dp119
g49
Nsg50
S'data_pipe'
p120
sg15
Nsg19
g20
sg61
S'media.mojom.ReadOnlyAudioDataPipe'
p121
sg16
I49
sbag1
(g57
g3
NtRp122
(dp123
g49
Nsg50
S'initially_muted'
p124
sg15
Nsg19
g20
sg61
S'bool'
p125
sg16
I50
sbag1
(g57
g3
NtRp126
(dp127
g49
Nsg50
S'stream_id'
p128
sg15
Nsg19
g20
sg61
S'mojo_base.mojom.UnguessableToken?'
p129
sg16
I51
sbasg16
I47
sg19
g20
sbsg15
Nsg19
Nsg16
Nsg83
Nsbasg16
Nsg19
Nsbsg15
Nsg16
Nsg50
S'RendererAudioInputStreamFactoryClient'
p130
sg19
Nsbasg16
NsS'module'
p131
g1
(cmojom.parse.ast
Module
p132
g3
NtRp133
(dp134
S'mojom_namespace'
p135
(S'IDENTIFIER'
p136
S'content.mojom'
tp137
sg16
I5
sg15
Nsg19
g20
sbsg19
Nsb.