ccopy_reg
_reconstructor
p1
(cmojom.parse.ast
Mojom
p2
c__builtin__
object
p3
NtRp4
(dp5
S'import_list'
p6
g1
(cmojom.parse.ast
ImportList
p7
g3
NtRp8
(dp9
S'items'
p10
(lp11
g1
(cmojom.parse.ast
Import
p12
g3
NtRp13
(dp14
S'attribute_list'
p15
NsS'lineno'
p16
I7
sS'import_filename'
p17
S'media/mojo/interfaces/audio_output_stream.mojom'
p18
sS'filename'
p19
S'../../content/common/media/renderer_audio_output_stream_factory.mojom'
p20
sbag1
(g12
g3
NtRp21
(dp22
g15
Nsg16
I8
sg17
S'media/mojo/interfaces/audio_parameters.mojom'
p23
sg19
g20
sbag1
(g12
g3
NtRp24
(dp25
g15
Nsg16
I9
sg17
S'media/mojo/interfaces/media_types.mojom'
p26
sg19
g20
sbasg16
I7
sg19
g20
sbsS'definition_list'
p27
(lp28
g1
(cmojom.parse.ast
Interface
p29
g3
NtRp30
(dp31
S'body'
p32
g1
(cmojom.parse.ast
InterfaceBody
p33
g3
NtRp34
(dp35
g10
(lp36
g1
(cmojom.parse.ast
Method
p37
g3
NtRp38
(dp39
S'ordinal'
p40
NsS'mojom_name'
p41
S'RequestDeviceAuthorization'
p42
sS'parameter_list'
p43
g1
(cmojom.parse.ast
ParameterList
p44
g3
NtRp45
(dp46
g10
(lp47
g1
(cmojom.parse.ast
Parameter
p48
g3
NtRp49
(dp50
g40
Nsg41
S'stream_provider_request'
p51
sg15
Nsg19
g20
sS'typename'
p52
S'media.mojom.AudioOutputStreamProvider&'
p53
sg16
I19
sbag1
(g48
g3
NtRp54
(dp55
g40
Nsg41
S'session_id'
p56
sg15
Nsg19
g20
sg52
S'int32'
p57
sg16
I20
sbag1
(g48
g3
NtRp58
(dp59
g40
Nsg41
S'device_id'
p60
sg15
Nsg19
g20
sg52
S'string'
p61
sg16
I21
sbasg16
I19
sg19
g20
sbsg15
Nsg19
Nsg16
NsS'response_parameter_list'
p62
g1
(g44
g3
NtRp63
(dp64
g10
(lp65
g1
(g48
g3
NtRp66
(dp67
g40
Nsg41
S'state'
p68
sg15
Nsg19
g20
sg52
S'media.mojom.OutputDeviceStatus'
p69
sg16
I22
sbag1
(g48
g3
NtRp70
(dp71
g40
Nsg41
S'output_params'
p72
sg15
Nsg19
g20
sg52
S'media.mojom.AudioParameters'
p73
sg16
I23
sbag1
(g48
g3
NtRp74
(dp75
g40
Nsg41
S'matched_device_id'
p76
sg15
Nsg19
g20
sg52
S'string'
p77
sg16
I24
sbasg16
I22
sg19
g20
sbsbasg16
Nsg19
Nsbsg15
Nsg16
Nsg41
S'RendererAudioOutputStreamFactory'
p78
sg19
Nsbasg16
NsS'module'
p79
g1
(cmojom.parse.ast
Module
p80
g3
NtRp81
(dp82
S'mojom_namespace'
p83
(S'IDENTIFIER'
p84
S'content.mojom'
tp85
sg16
I5
sg15
Nsg19
g20
sbsg19
Nsb.