ccopy_reg
_reconstructor
p1
(cmojom.parse.ast
Mojom
p2
c__builtin__
object
p3
NtRp4
(dp5
S'import_list'
p6
g1
(cmojom.parse.ast
ImportList
p7
g3
NtRp8
(dp9
S'items'
p10
(lp11
g1
(cmojom.parse.ast
Import
p12
g3
NtRp13
(dp14
S'attribute_list'
p15
NsS'lineno'
p16
I7
sS'import_filename'
p17
S'mojo/public/mojom/base/time.mojom'
p18
sS'filename'
p19
S'../../services/data_decoder/public/mojom/image_decoder.mojom'
p20
sbag1
(g12
g3
NtRp21
(dp22
g15
Nsg16
I8
sg17
S'skia/public/interfaces/bitmap.mojom'
p23
sg19
g20
sbag1
(g12
g3
NtRp24
(dp25
g15
Nsg16
I9
sg17
S'ui/gfx/geometry/mojo/geometry.mojom'
p26
sg19
g20
sbasg16
I7
sg19
g20
sbsS'definition_list'
p27
(lp28
g1
(cmojom.parse.ast
Enum
p29
g3
NtRp30
(dp31
g15
NsS'enum_value_list'
p32
g1
(cmojom.parse.ast
EnumValueList
p33
g3
NtRp34
(dp35
g10
(lp36
g1
(cmojom.parse.ast
EnumValue
p37
g3
NtRp38
(dp39
g15
NsS'value'
p40
Nsg16
I12
sS'mojom_name'
p41
S'DEFAULT'
p42
sg19
g20
sbag1
(g37
g3
NtRp43
(dp44
g15
Nsg40
Nsg16
I13
sg41
S'ROBUST_JPEG'
p45
sg19
g20
sbag1
(g37
g3
NtRp46
(dp47
g15
Nsg40
Nsg16
I14
sg41
S'ROBUST_PNG'
p48
sg19
g20
sbasg16
I12
sg19
g20
sbsg16
I11
sg41
S'ImageCodec'
p49
sg19
g20
sbag1
(cmojom.parse.ast
Struct
p50
g3
NtRp51
(dp52
S'body'
p53
g1
(cmojom.parse.ast
StructBody
p54
g3
NtRp55
(dp56
g10
(lp57
g1
(cmojom.parse.ast
StructField
p58
g3
NtRp59
(dp60
S'ordinal'
p61
NsS'default_value'
p62
Nsg41
S'bitmap'
p63
sg15
Nsg19
NsS'typename'
p64
S'skia.mojom.InlineBitmap'
p65
sg16
Nsbag1
(g58
g3
NtRp66
(dp67
g61
Nsg62
Nsg41
S'duration'
p68
sg15
Nsg19
Nsg64
S'mojo_base.mojom.TimeDelta'
p69
sg16
Nsbasg16
Nsg19
Nsbsg15
Nsg16
Nsg41
S'AnimationFrame'
p70
sg19
Nsbag1
(cmojom.parse.ast
Interface
p71
g3
NtRp72
(dp73
g53
g1
(cmojom.parse.ast
InterfaceBody
p74
g3
NtRp75
(dp76
g10
(lp77
g1
(cmojom.parse.ast
Method
p78
g3
NtRp79
(dp80
g61
Nsg41
S'DecodeImage'
p81
sS'parameter_list'
p82
g1
(cmojom.parse.ast
ParameterList
p83
g3
NtRp84
(dp85
g10
(lp86
g1
(cmojom.parse.ast
Parameter
p87
g3
NtRp88
(dp89
g61
Nsg41
S'encoded_data'
p90
sg15
Nsg19
g20
sg64
S'uint8[]'
p91
sg16
I34
sbag1
(g87
g3
NtRp92
(dp93
g61
Nsg41
S'codec'
p94
sg15
Nsg19
g20
sg64
S'ImageCodec'
p95
sg16
I34
sbag1
(g87
g3
NtRp96
(dp97
g61
Nsg41
S'shrink_to_fit'
p98
sg15
Nsg19
g20
sg64
S'bool'
p99
sg16
I34
sbag1
(g87
g3
NtRp100
(dp101
g61
Nsg41
S'max_size_in_bytes'
p102
sg15
Nsg19
g20
sg64
S'int64'
p103
sg16
I35
sbag1
(g87
g3
NtRp104
(dp105
g61
Nsg41
S'desired_image_frame_size'
p106
sg15
Nsg19
g20
sg64
S'gfx.mojom.Size'
p107
sg16
I35
sbasg16
I34
sg19
g20
sbsg15
Nsg19
Nsg16
NsS'response_parameter_list'
p108
g1
(g83
g3
NtRp109
(dp110
g10
(lp111
g1
(g87
g3
NtRp112
(dp113
g61
Nsg41
S'decoded_image'
p114
sg15
Nsg19
g20
sg64
S'skia.mojom.Bitmap?'
p115
sg16
I36
sbasg16
I36
sg19
g20
sbsbag1
(g78
g3
NtRp116
(dp117
g61
Nsg41
S'DecodeAnimation'
p118
sg82
g1
(g83
g3
NtRp119
(dp120
g10
(lp121
g1
(g87
g3
NtRp122
(dp123
g61
Nsg41
S'encoded_data'
p124
sg15
Nsg19
g20
sg64
S'uint8[]'
p125
sg16
I48
sbag1
(g87
g3
NtRp126
(dp127
g61
Nsg41
S'shrink_to_fit'
p128
sg15
Nsg19
g20
sg64
S'bool'
p129
sg16
I48
sbag1
(g87
g3
NtRp130
(dp131
g61
Nsg41
S'max_size_in_bytes'
p132
sg15
Nsg19
g20
sg64
S'int64'
p133
sg16
I49
sbasg16
I48
sg19
g20
sbsg15
Nsg19
Nsg16
Nsg108
g1
(g83
g3
NtRp134
(dp135
g10
(lp136
g1
(g87
g3
NtRp137
(dp138
g61
Nsg41
S'decoded_image'
p139
sg15
Nsg19
g20
sg64
S'AnimationFrame[]'
p140
sg16
I50
sbasg16
I50
sg19
g20
sbsbasg16
Nsg19
Nsbsg15
Nsg16
Nsg41
S'ImageDecoder'
p141
sg19
Nsbasg16
NsS'module'
p142
g1
(cmojom.parse.ast
Module
p143
g3
NtRp144
(dp145
S'mojom_namespace'
p146
(S'IDENTIFIER'
p147
S'data_decoder.mojom'
tp148
sg16
I5
sg15
Nsg19
g20
sbsg19
Nsb.