ccopy_reg
_reconstructor
p1
(cmojom.parse.ast
Mojom
p2
c__builtin__
object
p3
NtRp4
(dp5
S'import_list'
p6
g1
(cmojom.parse.ast
ImportList
p7
g3
NtRp8
(dp9
S'items'
p10
(lp11
g1
(cmojom.parse.ast
Import
p12
g3
NtRp13
(dp14
S'attribute_list'
p15
NsS'lineno'
p16
I13
sS'import_filename'
p17
S'mojo/public/mojom/base/values.mojom'
p18
sS'filename'
p19
S'../../services/data_decoder/public/mojom/xml_parser.mojom'
p20
sbasg16
I13
sg19
g20
sbsS'definition_list'
p21
(lp22
g1
(cmojom.parse.ast
Interface
p23
g3
NtRp24
(dp25
S'body'
p26
g1
(cmojom.parse.ast
InterfaceBody
p27
g3
NtRp28
(dp29
g10
(lp30
g1
(cmojom.parse.ast
Const
p31
g3
NtRp32
(dp33
S'mojom_name'
p34
S'kTypeKey'
p35
sg15
NsS'value'
p36
S'"type"'
p37
sg19
NsS'typename'
p38
S'string'
p39
sg16
Nsbag1
(g31
g3
NtRp40
(dp41
g34
S'kTagKey'
p42
sg15
Nsg36
S'"tag"'
p43
sg19
Nsg38
S'string'
p44
sg16
Nsbag1
(g31
g3
NtRp45
(dp46
g34
S'kTextKey'
p47
sg15
Nsg36
S'"text"'
p48
sg19
Nsg38
S'string'
p49
sg16
Nsbag1
(g31
g3
NtRp50
(dp51
g34
S'kAttributesKey'
p52
sg15
Nsg36
S'"attributes"'
p53
sg19
Nsg38
S'string'
p54
sg16
Nsbag1
(g31
g3
NtRp55
(dp56
g34
S'kChildrenKey'
p57
sg15
Nsg36
S'"children"'
p58
sg19
Nsg38
S'string'
p59
sg16
Nsbag1
(g31
g3
NtRp60
(dp61
g34
S'kNamespacesKey'
p62
sg15
Nsg36
S'"namespaces"'
p63
sg19
Nsg38
S'string'
p64
sg16
Nsbag1
(g31
g3
NtRp65
(dp66
g34
S'kElementType'
p67
sg15
Nsg36
S'"element"'
p68
sg19
Nsg38
S'string'
p69
sg16
Nsbag1
(g31
g3
NtRp70
(dp71
g34
S'kTextNodeType'
p72
sg15
Nsg36
S'"text"'
p73
sg19
Nsg38
S'string'
p74
sg16
Nsbag1
(g31
g3
NtRp75
(dp76
g34
S'kCDataNodeType'
p77
sg15
Nsg36
S'"cdata"'
p78
sg19
Nsg38
S'string'
p79
sg16
Nsbag1
(cmojom.parse.ast
Method
p80
g3
NtRp81
(dp82
S'ordinal'
p83
Nsg34
S'Parse'
p84
sS'parameter_list'
p85
g1
(cmojom.parse.ast
ParameterList
p86
g3
NtRp87
(dp88
g10
(lp89
g1
(cmojom.parse.ast
Parameter
p90
g3
NtRp91
(dp92
g83
Nsg34
S'xml'
p93
sg15
Nsg19
g20
sg38
S'string'
p94
sg16
I90
sbasg16
I90
sg19
g20
sbsg15
Nsg19
Nsg16
NsS'response_parameter_list'
p95
g1
(g86
g3
NtRp96
(dp97
g10
(lp98
g1
(g90
g3
NtRp99
(dp100
g83
Nsg34
S'result'
p101
sg15
Nsg19
g20
sg38
S'mojo_base.mojom.Value?'
p102
sg16
I90
sbag1
(g90
g3
NtRp103
(dp104
g83
Nsg34
S'error'
p105
sg15
Nsg19
g20
sg38
S'string?'
p106
sg16
I90
sbasg16
I90
sg19
g20
sbsbasg16
Nsg19
Nsbsg15
Nsg16
Nsg34
S'XmlParser'
p107
sg19
Nsbasg16
NsS'module'
p108
g1
(cmojom.parse.ast
Module
p109
g3
NtRp110
(dp111
S'mojom_namespace'
p112
(S'IDENTIFIER'
p113
S'data_decoder.mojom'
tp114
sg16
I11
sg15
Nsg19
g20
sbsg19
Nsb.