ccopy_reg
_reconstructor
p1
(cmojom.parse.ast
Mojom
p2
c__builtin__
object
p3
NtRp4
(dp5
S'import_list'
p6
g1
(cmojom.parse.ast
ImportList
p7
g3
NtRp8
(dp9
S'items'
p10
(lp11
g1
(cmojom.parse.ast
Import
p12
g3
NtRp13
(dp14
S'attribute_list'
p15
NsS'lineno'
p16
I7
sS'import_filename'
p17
S'content/common/native_types.mojom'
p18
sS'filename'
p19
S'../../content/common/input/input_injector.mojom'
p20
sbasg16
I7
sg19
g20
sbsS'definition_list'
p21
(lp22
g1
(cmojom.parse.ast
Interface
p23
g3
NtRp24
(dp25
S'body'
p26
g1
(cmojom.parse.ast
InterfaceBody
p27
g3
NtRp28
(dp29
g10
(lp30
g1
(cmojom.parse.ast
Method
p31
g3
NtRp32
(dp33
S'ordinal'
p34
NsS'mojom_name'
p35
S'QueueSyntheticSmoothDrag'
p36
sS'parameter_list'
p37
g1
(cmojom.parse.ast
ParameterList
p38
g3
NtRp39
(dp40
g10
(lp41
g1
(cmojom.parse.ast
Parameter
p42
g3
NtRp43
(dp44
g34
Nsg35
S'drag'
p45
sg15
Nsg19
g20
sS'typename'
p46
S'SyntheticSmoothDrag'
p47
sg16
I13
sbasg16
I13
sg19
g20
sbsg15
Nsg19
Nsg16
NsS'response_parameter_list'
p48
g1
(g38
g3
NtRp49
(dp50
g10
(lp51
sg16
Nsg19
Nsbsbag1
(g31
g3
NtRp52
(dp53
g34
Nsg35
S'QueueSyntheticSmoothScroll'
p54
sg37
g1
(g38
g3
NtRp55
(dp56
g10
(lp57
g1
(g42
g3
NtRp58
(dp59
g34
Nsg35
S'scroll'
p60
sg15
Nsg19
g20
sg46
S'SyntheticSmoothScroll'
p61
sg16
I14
sbasg16
I14
sg19
g20
sbsg15
Nsg19
Nsg16
Nsg48
g1
(g38
g3
NtRp62
(dp63
g10
(lp64
sg16
Nsg19
Nsbsbag1
(g31
g3
NtRp65
(dp66
g34
Nsg35
S'QueueSyntheticPinch'
p67
sg37
g1
(g38
g3
NtRp68
(dp69
g10
(lp70
g1
(g42
g3
NtRp71
(dp72
g34
Nsg35
S'pinch'
p73
sg15
Nsg19
g20
sg46
S'SyntheticPinch'
p74
sg16
I15
sbasg16
I15
sg19
g20
sbsg15
Nsg19
Nsg16
Nsg48
g1
(g38
g3
NtRp75
(dp76
g10
(lp77
sg16
Nsg19
Nsbsbag1
(g31
g3
NtRp78
(dp79
g34
Nsg35
S'QueueSyntheticTap'
p80
sg37
g1
(g38
g3
NtRp81
(dp82
g10
(lp83
g1
(g42
g3
NtRp84
(dp85
g34
Nsg35
S'tap'
p86
sg15
Nsg19
g20
sg46
S'SyntheticTap'
p87
sg16
I16
sbasg16
I16
sg19
g20
sbsg15
Nsg19
Nsg16
Nsg48
g1
(g38
g3
NtRp88
(dp89
g10
(lp90
sg16
Nsg19
Nsbsbag1
(g31
g3
NtRp91
(dp92
g34
Nsg35
S'QueueSyntheticPointerAction'
p93
sg37
g1
(g38
g3
NtRp94
(dp95
g10
(lp96
g1
(g42
g3
NtRp97
(dp98
g34
Nsg35
S'pointer_action'
p99
sg15
Nsg19
g20
sg46
S'SyntheticPointerAction'
p100
sg16
I17
sbasg16
I17
sg19
g20
sbsg15
Nsg19
Nsg16
Nsg48
g1
(g38
g3
NtRp101
(dp102
g10
(lp103
sg16
Nsg19
Nsbsbasg16
Nsg19
Nsbsg15
Nsg16
Nsg35
S'InputInjector'
p104
sg19
Nsbasg16
NsS'module'
p105
g1
(cmojom.parse.ast
Module
p106
g3
NtRp107
(dp108
S'mojom_namespace'
p109
(S'IDENTIFIER'
p110
S'content.mojom'
tp111
sg16
I5
sg15
Nsg19
g20
sbsg19
Nsb.