ccopy_reg
_reconstructor
p1
(cmojom.parse.ast
Mojom
p2
c__builtin__
object
p3
NtRp4
(dp5
S'import_list'
p6
g1
(cmojom.parse.ast
ImportList
p7
g3
NtRp8
(dp9
S'items'
p10
(lp11
g1
(cmojom.parse.ast
Import
p12
g3
NtRp13
(dp14
S'attribute_list'
p15
NsS'lineno'
p16
I7
sS'import_filename'
p17
S'content/common/input/synchronous_compositor.mojom'
p18
sS'filename'
p19
S'../../content/common/input/input_handler.mojom'
p20
sbag1
(g12
g3
NtRp21
(dp22
g15
Nsg16
I8
sg17
S'content/common/native_types.mojom'
p23
sg19
g20
sbag1
(g12
g3
NtRp24
(dp25
g15
Nsg16
I9
sg17
S'mojo/public/mojom/base/string16.mojom'
p26
sg19
g20
sbag1
(g12
g3
NtRp27
(dp28
g15
Nsg16
I10
sg17
S'mojo/public/mojom/base/time.mojom'
p29
sg19
g20
sbag1
(g12
g3
NtRp30
(dp31
g15
Nsg16
I11
sg17
S'third_party/blink/public/mojom/selection_menu/selection_menu_behavior.mojom'
p32
sg19
g20
sbag1
(g12
g3
NtRp33
(dp34
g15
Nsg16
I12
sg17
S'ui/base/ime/mojo/ime_types.mojom'
p35
sg19
g20
sbag1
(g12
g3
NtRp36
(dp37
g15
Nsg16
I13
sg17
S'ui/events/mojo/event.mojom'
p38
sg19
g20
sbag1
(g12
g3
NtRp39
(dp40
g15
Nsg16
I14
sg17
S'ui/events/mojo/event_constants.mojom'
p41
sg19
g20
sbag1
(g12
g3
NtRp42
(dp43
g15
Nsg16
I15
sg17
S'ui/gfx/geometry/mojo/geometry.mojom'
p44
sg19
g20
sbag1
(g12
g3
NtRp45
(dp46
g15
Nsg16
I16
sg17
S'ui/gfx/range/mojo/range.mojom'
p47
sg19
g20
sbag1
(g12
g3
NtRp48
(dp49
g15
Nsg16
I17
sg17
S'ui/latency/mojo/latency_info.mojom'
p50
sg19
g20
sbasg16
I7
sg19
g20
sbsS'definition_list'
p51
(lp52
g1
(cmojom.parse.ast
Struct
p53
g3
NtRp54
(dp55
S'body'
p56
g1
(cmojom.parse.ast
StructBody
p57
g3
NtRp58
(dp59
g10
(lp60
g1
(cmojom.parse.ast
StructField
p61
g3
NtRp62
(dp63
S'ordinal'
p64
NsS'default_value'
p65
NsS'mojom_name'
p66
S'dom_key'
p67
sg15
Nsg19
NsS'typename'
p68
S'int32'
p69
sg16
Nsbag1
(g61
g3
NtRp70
(dp71
g64
Nsg65
Nsg66
S'dom_code'
p72
sg15
Nsg19
Nsg68
S'int32'
p73
sg16
Nsbag1
(g61
g3
NtRp74
(dp75
g64
Nsg65
Nsg66
S'windows_key_code'
p76
sg15
Nsg19
Nsg68
S'int32'
p77
sg16
Nsbag1
(g61
g3
NtRp78
(dp79
g64
Nsg65
Nsg66
S'native_key_code'
p80
sg15
Nsg19
Nsg68
S'int32'
p81
sg16
Nsbag1
(g61
g3
NtRp82
(dp83
g64
Nsg65
Nsg66
S'is_system_key'
p84
sg15
Nsg19
Nsg68
S'bool'
p85
sg16
Nsbag1
(g61
g3
NtRp86
(dp87
g64
Nsg65
Nsg66
S'is_browser_shortcut'
p88
sg15
Nsg19
Nsg68
S'bool'
p89
sg16
Nsbag1
(g61
g3
NtRp90
(dp91
g64
Nsg65
Nsg66
S'text'
p92
sg15
Nsg19
Nsg68
S'mojo_base.mojom.String16'
p93
sg16
Nsbag1
(g61
g3
NtRp94
(dp95
g64
Nsg65
Nsg66
S'unmodified_text'
p96
sg15
Nsg19
Nsg68
S'mojo_base.mojom.String16'
p97
sg16
Nsbasg16
Nsg19
Nsbsg15
Nsg16
Nsg66
S'KeyData'
p98
sg19
Nsbag1
(g53
g3
NtRp99
(dp100
g56
g1
(g57
g3
NtRp101
(dp102
g10
(lp103
g1
(g61
g3
NtRp104
(dp105
g64
Nsg65
Nsg66
S'pointer_id'
p106
sg15
Nsg19
Nsg68
S'int32'
p107
sg16
Nsbag1
(g61
g3
NtRp108
(dp109
g64
Nsg65
Nsg66
S'force'
p110
sg15
Nsg19
Nsg68
S'float'
p111
sg16
Nsbag1
(g61
g3
NtRp112
(dp113
g64
Nsg65
Nsg66
S'tilt_x'
p114
sg15
Nsg19
Nsg68
S'int32'
p115
sg16
Nsbag1
(g61
g3
NtRp116
(dp117
g64
Nsg65
Nsg66
S'tilt_y'
p118
sg15
Nsg19
Nsg68
S'int32'
p119
sg16
Nsbag1
(g61
g3
NtRp120
(dp121
g64
Nsg65
Nsg66
S'tangential_pressure'
p122
sg15
Nsg19
Nsg68
S'float'
p123
sg16
Nsbag1
(g61
g3
NtRp124
(dp125
g64
Nsg65
Nsg66
S'twist'
p126
sg15
Nsg19
Nsg68
S'int32'
p127
sg16
Nsbag1
(g61
g3
NtRp128
(dp129
g64
Nsg65
Nsg66
S'button'
p130
sg15
Nsg19
Nsg68
S'Button'
p131
sg16
Nsbag1
(g61
g3
NtRp132
(dp133
g64
Nsg65
Nsg66
S'pointer_type'
p134
sg15
Nsg19
Nsg68
S'PointerType'
p135
sg16
Nsbag1
(g61
g3
NtRp136
(dp137
g64
Nsg65
Nsg66
S'movement_x'
p138
sg15
Nsg19
Nsg68
S'int32'
p139
sg16
Nsbag1
(g61
g3
NtRp140
(dp141
g64
Nsg65
Nsg66
S'movement_y'
p142
sg15
Nsg19
Nsg68
S'int32'
p143
sg16
Nsbag1
(g61
g3
NtRp144
(dp145
g64
Nsg65
Nsg66
S'widget_position'
p146
sg15
Nsg19
Nsg68
S'gfx.mojom.PointF'
p147
sg16
Nsbag1
(g61
g3
NtRp148
(dp149
g64
Nsg65
Nsg66
S'screen_position'
p150
sg15
Nsg19
Nsg68
S'gfx.mojom.PointF'
p151
sg16
Nsbag1
(g61
g3
NtRp152
(dp153
g64
Nsg65
Nsg66
S'mouse_data'
p154
sg15
Nsg19
Nsg68
S'MouseData?'
p155
sg16
Nsbasg16
Nsg19
Nsbsg15
Nsg16
Nsg66
S'PointerData'
p156
sg19
Nsbag1
(g53
g3
NtRp157
(dp158
g56
g1
(g57
g3
NtRp159
(dp160
g10
(lp161
g1
(g61
g3
NtRp162
(dp163
g64
Nsg65
Nsg66
S'delta_x'
p164
sg15
Nsg19
Nsg68
S'float'
p165
sg16
Nsbag1
(g61
g3
NtRp166
(dp167
g64
Nsg65
Nsg66
S'delta_y'
p168
sg15
Nsg19
Nsg68
S'float'
p169
sg16
Nsbag1
(g61
g3
NtRp170
(dp171
g64
Nsg65
Nsg66
S'wheel_ticks_x'
p172
sg15
Nsg19
Nsg68
S'float'
p173
sg16
Nsbag1
(g61
g3
NtRp174
(dp175
g64
Nsg65
Nsg66
S'wheel_ticks_y'
p176
sg15
Nsg19
Nsg68
S'float'
p177
sg16
Nsbag1
(g61
g3
NtRp178
(dp179
g64
Nsg65
Nsg66
S'acceleration_ratio_x'
p180
sg15
Nsg19
Nsg68
S'float'
p181
sg16
Nsbag1
(g61
g3
NtRp182
(dp183
g64
Nsg65
Nsg66
S'acceleration_ratio_y'
p184
sg15
Nsg19
Nsg68
S'float'
p185
sg16
Nsbag1
(g61
g3
NtRp186
(dp187
g64
Nsg65
Nsg66
S'resending_plugin_id'
p188
sg15
Nsg19
Nsg68
S'int32'
p189
sg16
Nsbag1
(g61
g3
NtRp190
(dp191
g64
Nsg65
Nsg66
S'phase'
p192
sg15
Nsg19
Nsg68
S'uint8'
p193
sg16
Nsbag1
(g61
g3
NtRp194
(dp195
g64
Nsg65
Nsg66
S'momentum_phase'
p196
sg15
Nsg19
Nsg68
S'uint8'
p197
sg16
Nsbag1
(g61
g3
NtRp198
(dp199
g64
Nsg65
Nsg66
S'scroll_by_page'
p200
sg15
Nsg19
Nsg68
S'bool'
p201
sg16
Nsbag1
(g61
g3
NtRp202
(dp203
g64
Nsg65
Nsg66
S'has_precise_scrolling_deltas'
p204
sg15
Nsg19
Nsg68
S'bool'
p205
sg16
Nsbag1
(g61
g3
NtRp206
(dp207
g64
Nsg65
Nsg66
S'cancelable'
p208
sg15
Nsg19
Nsg68
S'Cancelability'
p209
sg16
Nsbag1
(g61
g3
NtRp210
(dp211
g64
Nsg65
Nsg66
S'event_action'
p212
sg15
Nsg19
Nsg68
S'uint8'
p213
sg16
Nsbasg16
Nsg19
Nsbsg15
Nsg16
Nsg66
S'WheelData'
p214
sg19
Nsbag1
(g53
g3
NtRp215
(dp216
g56
g1
(g57
g3
NtRp217
(dp218
g10
(lp219
g1
(g61
g3
NtRp220
(dp221
g64
Nsg65
Nsg66
S'click_count'
p222
sg15
Nsg19
Nsg68
S'int32'
p223
sg16
Nsbag1
(g61
g3
NtRp224
(dp225
g64
Nsg65
Nsg66
S'wheel_data'
p226
sg15
Nsg19
Nsg68
S'WheelData?'
p227
sg16
Nsbasg16
Nsg19
Nsbsg15
Nsg16
Nsg66
S'MouseData'
p228
sg19
Nsbag1
(g53
g3
NtRp229
(dp230
g56
g1
(g57
g3
NtRp231
(dp232
g10
(lp233
g1
(g61
g3
NtRp234
(dp235
g64
Nsg65
Nsg66
S'velocity_x'
p236
sg15
Nsg19
Nsg68
S'float'
p237
sg16
Nsbag1
(g61
g3
NtRp238
(dp239
g64
Nsg65
Nsg66
S'velocity_y'
p240
sg15
Nsg19
Nsg68
S'float'
p241
sg16
Nsbasg16
Nsg19
Nsbsg15
Nsg16
Nsg66
S'ScrollUpdate'
p242
sg19
Nsbag1
(g53
g3
NtRp243
(dp244
g56
g1
(g57
g3
NtRp245
(dp246
g10
(lp247
g1
(g61
g3
NtRp248
(dp249
g64
Nsg65
Nsg66
S'delta_x'
p250
sg15
Nsg19
Nsg68
S'float'
p251
sg16
Nsbag1
(g61
g3
NtRp252
(dp253
g64
Nsg65
Nsg66
S'delta_y'
p254
sg15
Nsg19
Nsg68
S'float'
p255
sg16
Nsbag1
(g61
g3
NtRp256
(dp257
g64
Nsg65
Nsg66
S'delta_units'
p258
sg15
Nsg19
Nsg68
S'WebScrollGranularity'
p259
sg16
Nsbag1
(g61
g3
NtRp260
(dp261
g64
Nsg65
Nsg66
S'target_viewport'
p262
sg15
Nsg19
Nsg68
S'bool'
p263
sg16
Nsbag1
(g61
g3
NtRp264
(dp265
g64
Nsg65
Nsg66
S'inertial_phase'
p266
sg15
Nsg19
Nsg68
S'InertialPhaseState'
p267
sg16
Nsbag1
(g61
g3
NtRp268
(dp269
g64
Nsg65
Nsg66
S'synthetic'
p270
sg15
Nsg19
Nsg68
S'bool'
p271
sg16
Nsbag1
(g61
g3
NtRp272
(dp273
g64
Nsg65
Nsg66
S'pointer_count'
p274
sg15
Nsg19
Nsg68
S'int32'
p275
sg16
Nsbag1
(g61
g3
NtRp276
(dp277
g64
Nsg65
Nsg66
S'update_details'
p278
sg15
Nsg19
Nsg68
S'ScrollUpdate?'
p279
sg16
Nsbasg16
Nsg19
Nsbsg15
Nsg16
Nsg66
S'ScrollData'
p280
sg19
Nsbag1
(g53
g3
NtRp281
(dp282
g56
g1
(g57
g3
NtRp283
(dp284
g10
(lp285
g1
(g61
g3
NtRp286
(dp287
g64
Nsg65
Nsg66
S'scale'
p288
sg15
Nsg19
Nsg68
S'float'
p289
sg16
Nsbasg16
Nsg19
Nsbsg15
Nsg16
Nsg66
S'PinchData'
p290
sg19
Nsbag1
(g53
g3
NtRp291
(dp292
g56
g1
(g57
g3
NtRp293
(dp294
g10
(lp295
g1
(g61
g3
NtRp296
(dp297
g64
Nsg65
Nsg66
S'velocity_x'
p298
sg15
Nsg19
Nsg68
S'float'
p299
sg16
Nsbag1
(g61
g3
NtRp300
(dp301
g64
Nsg65
Nsg66
S'velocity_y'
p302
sg15
Nsg19
Nsg68
S'float'
p303
sg16
Nsbag1
(g61
g3
NtRp304
(dp305
g64
Nsg65
Nsg66
S'target_viewport'
p306
sg15
Nsg19
Nsg68
S'bool'
p307
sg16
Nsbag1
(g61
g3
NtRp308
(dp309
g64
Nsg65
Nsg66
S'prevent_boosting'
p310
sg15
Nsg19
Nsg68
S'bool'
p311
sg16
Nsbasg16
Nsg19
Nsbsg15
Nsg16
Nsg66
S'FlingData'
p312
sg19
Nsbag1
(g53
g3
NtRp313
(dp314
g56
g1
(g57
g3
NtRp315
(dp316
g10
(lp317
g1
(g61
g3
NtRp318
(dp319
g64
Nsg65
Nsg66
S'tap_count'
p320
sg15
Nsg19
Nsg68
S'int32'
p321
sg16
Nsbasg16
Nsg19
Nsbsg15
Nsg16
Nsg66
S'TapData'
p322
sg19
Nsbag1
(g53
g3
NtRp323
(dp324
g56
g1
(g57
g3
NtRp325
(dp326
g10
(lp327
g1
(g61
g3
NtRp328
(dp329
g64
Nsg65
Nsg66
S'screen_position'
p330
sg15
Nsg19
Nsg68
S'gfx.mojom.PointF'
p331
sg16
Nsbag1
(g61
g3
NtRp332
(dp333
g64
Nsg65
Nsg66
S'widget_position'
p334
sg15
Nsg19
Nsg68
S'gfx.mojom.PointF'
p335
sg16
Nsbag1
(g61
g3
NtRp336
(dp337
g64
Nsg65
Nsg66
S'source_device'
p338
sg15
Nsg19
Nsg68
S'GestureDevice'
p339
sg16
Nsbag1
(g61
g3
NtRp340
(dp341
g64
Nsg65
Nsg66
S'is_source_touch_event_set_non_blocking'
p342
sg15
Nsg19
Nsg68
S'bool'
p343
sg16
Nsbag1
(g61
g3
NtRp344
(dp345
g64
Nsg65
Nsg66
S'primary_pointer_type'
p346
sg15
Nsg19
Nsg68
S'PointerType'
p347
sg16
Nsbag1
(g61
g3
NtRp348
(dp349
g64
Nsg65
Nsg66
S'unique_touch_event_id'
p350
sg15
Nsg19
Nsg68
S'int32'
p351
sg16
Nsbag1
(g61
g3
NtRp352
(dp353
g64
Nsg65
Nsg66
S'resending_plugin_id'
p354
sg15
Nsg19
Nsg68
S'int32'
p355
sg16
Nsbag1
(g61
g3
NtRp356
(dp357
g64
Nsg65
Nsg66
S'contact_size'
p358
sg15
Nsg19
Nsg68
S'gfx.mojom.Size?'
p359
sg16
Nsbag1
(g61
g3
NtRp360
(dp361
g64
Nsg65
Nsg66
S'scroll_data'
p362
sg15
Nsg19
Nsg68
S'ScrollData?'
p363
sg16
Nsbag1
(g61
g3
NtRp364
(dp365
g64
Nsg65
Nsg66
S'pinch_data'
p366
sg15
Nsg19
Nsg68
S'PinchData?'
p367
sg16
Nsbag1
(g61
g3
NtRp368
(dp369
g64
Nsg65
Nsg66
S'tap_data'
p370
sg15
Nsg19
Nsg68
S'TapData?'
p371
sg16
Nsbag1
(g61
g3
NtRp372
(dp373
g64
Nsg65
Nsg66
S'fling_data'
p374
sg15
Nsg19
Nsg68
S'FlingData?'
p375
sg16
Nsbasg16
Nsg19
Nsbsg15
Nsg16
Nsg66
S'GestureData'
p376
sg19
Nsbag1
(g53
g3
NtRp377
(dp378
g56
g1
(g57
g3
NtRp379
(dp380
g10
(lp381
g1
(g61
g3
NtRp382
(dp383
g64
Nsg65
Nsg66
S'state'
p384
sg15
Nsg19
Nsg68
S'TouchState'
p385
sg16
Nsbag1
(g61
g3
NtRp386
(dp387
g64
Nsg65
Nsg66
S'radius_x'
p388
sg15
Nsg19
Nsg68
S'float'
p389
sg16
Nsbag1
(g61
g3
NtRp390
(dp391
g64
Nsg65
Nsg66
S'radius_y'
p392
sg15
Nsg19
Nsg68
S'float'
p393
sg16
Nsbag1
(g61
g3
NtRp394
(dp395
g64
Nsg65
Nsg66
S'rotation_angle'
p396
sg15
Nsg19
Nsg68
S'float'
p397
sg16
Nsbag1
(g61
g3
NtRp398
(dp399
g64
Nsg65
Nsg66
S'pointer_data'
p400
sg15
Nsg19
Nsg68
S'PointerData'
p401
sg16
Nsbasg16
Nsg19
Nsbsg15
Nsg16
Nsg66
S'TouchPoint'
p402
sg19
Nsbag1
(g53
g3
NtRp403
(dp404
g56
g1
(g57
g3
NtRp405
(dp406
g10
(lp407
g1
(g61
g3
NtRp408
(dp409
g64
Nsg65
Nsg66
S'cancelable'
p410
sg15
Nsg19
Nsg68
S'Cancelability'
p411
sg16
Nsbag1
(g61
g3
NtRp412
(dp413
g64
Nsg65
Nsg66
S'moved_beyond_slop_region'
p414
sg15
Nsg19
Nsg68
S'bool'
p415
sg16
Nsbag1
(g61
g3
NtRp416
(dp417
g64
Nsg65
Nsg66
S'touch_start_or_first_move'
p418
sg15
Nsg19
Nsg68
S'bool'
p419
sg16
Nsbag1
(g61
g3
NtRp420
(dp421
g64
Nsg65
Nsg66
S'hovering'
p422
sg15
Nsg19
Nsg68
S'bool'
p423
sg16
Nsbag1
(g61
g3
NtRp424
(dp425
g64
Nsg65
Nsg66
S'unique_touch_event_id'
p426
sg15
Nsg19
Nsg68
S'uint32'
p427
sg16
Nsbag1
(g61
g3
NtRp428
(dp429
g64
Nsg65
Nsg66
S'touches'
p430
sg15
Nsg19
Nsg68
S'TouchPoint[]'
p431
sg16
Nsbasg16
Nsg19
Nsbsg15
Nsg16
Nsg66
S'TouchData'
p432
sg19
Nsbag1
(g53
g3
NtRp433
(dp434
g56
g1
(g57
g3
NtRp435
(dp436
g10
(lp437
g1
(g61
g3
NtRp438
(dp439
g64
Nsg65
Nsg66
S'type'
p440
sg15
Nsg19
Nsg68
S'EventType'
p441
sg16
Nsbag1
(g61
g3
NtRp442
(dp443
g64
Nsg65
Nsg66
S'modifiers'
p444
sg15
Nsg19
Nsg68
S'int32'
p445
sg16
Nsbag1
(g61
g3
NtRp446
(dp447
g64
Nsg65
Nsg66
S'timestamp'
p448
sg15
Nsg19
Nsg68
S'mojo_base.mojom.TimeTicks'
p449
sg16
Nsbag1
(g61
g3
NtRp450
(dp451
g64
Nsg65
Nsg66
S'latency'
p452
sg15
Nsg19
Nsg68
S'ui.mojom.LatencyInfo'
p453
sg16
Nsbag1
(g61
g3
NtRp454
(dp455
g64
Nsg65
Nsg66
S'key_data'
p456
sg15
Nsg19
Nsg68
S'KeyData?'
p457
sg16
Nsbag1
(g61
g3
NtRp458
(dp459
g64
Nsg65
Nsg66
S'pointer_data'
p460
sg15
Nsg19
Nsg68
S'PointerData?'
p461
sg16
Nsbag1
(g61
g3
NtRp462
(dp463
g64
Nsg65
Nsg66
S'gesture_data'
p464
sg15
Nsg19
Nsg68
S'GestureData?'
p465
sg16
Nsbag1
(g61
g3
NtRp466
(dp467
g64
Nsg65
Nsg66
S'touch_data'
p468
sg15
Nsg19
Nsg68
S'TouchData?'
p469
sg16
Nsbasg16
Nsg19
Nsbsg15
Nsg16
Nsg66
S'Event'
p470
sg19
Nsbag1
(g53
g3
NtRp471
(dp472
g56
g1
(g57
g3
NtRp473
(dp474
g10
(lp475
g1
(g61
g3
NtRp476
(dp477
g64
Nsg65
Nsg66
S'touch_action'
p478
sg15
Nsg19
Nsg68
S'TouchAction'
p479
sg16
Nsbasg16
Nsg19
Nsbsg15
Nsg16
Nsg66
S'TouchActionOptional'
p480
sg19
Nsbag1
(cmojom.parse.ast
Interface
p481
g3
NtRp482
(dp483
g56
g1
(cmojom.parse.ast
InterfaceBody
p484
g3
NtRp485
(dp486
g10
(lp487
g1
(cmojom.parse.ast
Method
p488
g3
NtRp489
(dp490
g64
Nsg66
S'SetTouchActionFromMain'
p491
sS'parameter_list'
p492
g1
(cmojom.parse.ast
ParameterList
p493
g3
NtRp494
(dp495
g10
(lp496
g1
(cmojom.parse.ast
Parameter
p497
g3
NtRp498
(dp499
g64
Nsg66
S'touch_action'
p500
sg15
Nsg19
g20
sg68
S'TouchAction'
p501
sg16
I166
sbasg16
I166
sg19
g20
sbsg15
Nsg19
Nsg16
NsS'response_parameter_list'
p502
Nsbag1
(g488
g3
NtRp503
(dp504
g64
Nsg66
S'SetWhiteListedTouchAction'
p505
sg492
g1
(g493
g3
NtRp506
(dp507
g10
(lp508
g1
(g497
g3
NtRp509
(dp510
g64
Nsg66
S'touch_action'
p511
sg15
Nsg19
g20
sg68
S'TouchAction'
p512
sg16
I174
sbag1
(g497
g3
NtRp513
(dp514
g64
Nsg66
S'unique_touch_event_id'
p515
sg15
Nsg19
g20
sg68
S'uint32'
p516
sg16
I175
sbag1
(g497
g3
NtRp517
(dp518
g64
Nsg66
S'state'
p519
sg15
Nsg19
g20
sg68
S'InputEventAckState'
p520
sg16
I176
sbasg16
I174
sg19
g20
sbsg15
Nsg19
Nsg16
Nsg502
Nsbag1
(g488
g3
NtRp521
(dp522
g64
Nsg66
S'DidOverscroll'
p523
sg492
g1
(g493
g3
NtRp524
(dp525
g10
(lp526
g1
(g497
g3
NtRp527
(dp528
g64
Nsg66
S'params'
p529
sg15
Nsg19
g20
sg68
S'DidOverscrollParams'
p530
sg16
I180
sbasg16
I180
sg19
g20
sbsg15
Nsg19
Nsg16
Nsg502
Nsbag1
(g488
g3
NtRp531
(dp532
g64
Nsg66
S'DidStartScrollingViewport'
p533
sg492
g1
(g493
g3
NtRp534
(dp535
g10
(lp536
sg16
Nsg19
Nsbsg15
Nsg19
Nsg16
Nsg502
Nsbag1
(g488
g3
NtRp537
(dp538
g64
Nsg66
S'ImeCancelComposition'
p539
sg492
g1
(g493
g3
NtRp540
(dp541
g10
(lp542
sg16
Nsg19
Nsbsg15
Nsg19
Nsg16
Nsg502
Nsbag1
(g488
g3
NtRp543
(dp544
g64
Nsg66
S'ImeCompositionRangeChanged'
p545
sg492
g1
(g493
g3
NtRp546
(dp547
g10
(lp548
g1
(g497
g3
NtRp549
(dp550
g64
Nsg66
S'range'
p551
sg15
Nsg19
g20
sg68
S'gfx.mojom.Range'
p552
sg16
I190
sbag1
(g497
g3
NtRp553
(dp554
g64
Nsg66
S'bounds'
p555
sg15
Nsg19
g20
sg68
S'gfx.mojom.Rect[]'
p556
sg16
I191
sbasg16
I190
sg19
g20
sbsg15
Nsg19
Nsg16
Nsg502
Nsbag1
(g488
g3
NtRp557
(dp558
g64
Nsg66
S'SetMouseCapture'
p559
sg492
g1
(g493
g3
NtRp560
(dp561
g10
(lp562
g1
(g497
g3
NtRp563
(dp564
g64
Nsg66
S'capture'
p565
sg15
Nsg19
g20
sg68
S'bool'
p566
sg16
I198
sbasg16
I198
sg19
g20
sbsg15
Nsg19
Nsg16
Nsg502
Nsbasg16
Nsg19
Nsbsg15
Nsg16
Nsg66
S'WidgetInputHandlerHost'
p567
sg19
Nsbag1
(g481
g3
NtRp568
(dp569
g56
g1
(g484
g3
NtRp570
(dp571
g10
(lp572
g1
(g488
g3
NtRp573
(dp574
g64
Nsg66
S'SetFocus'
p575
sg492
g1
(g493
g3
NtRp576
(dp577
g10
(lp578
g1
(g497
g3
NtRp579
(dp580
g64
Nsg66
S'focused'
p581
sg15
Nsg19
g20
sg68
S'bool'
p582
sg16
I206
sbasg16
I206
sg19
g20
sbsg15
Nsg19
Nsg16
Nsg502
Nsbag1
(g488
g3
NtRp583
(dp584
g64
Nsg66
S'MouseCaptureLost'
p585
sg492
g1
(g493
g3
NtRp586
(dp587
g10
(lp588
sg16
Nsg19
Nsbsg15
Nsg19
Nsg16
Nsg502
Nsbag1
(g488
g3
NtRp589
(dp590
g64
Nsg66
S'SetEditCommandsForNextKeyEvent'
p591
sg492
g1
(g493
g3
NtRp592
(dp593
g10
(lp594
g1
(g497
g3
NtRp595
(dp596
g64
Nsg66
S'commands'
p597
sg15
Nsg19
g20
sg68
S'content.mojom.EditCommand[]'
p598
sg16
I223
sbasg16
I223
sg19
g20
sbsg15
Nsg19
Nsg16
Nsg502
Nsbag1
(g488
g3
NtRp599
(dp600
g64
Nsg66
S'CursorVisibilityChanged'
p601
sg492
g1
(g493
g3
NtRp602
(dp603
g10
(lp604
g1
(g497
g3
NtRp605
(dp606
g64
Nsg66
S'visible'
p607
sg15
Nsg19
g20
sg68
S'bool'
p608
sg16
I226
sbasg16
I226
sg19
g20
sbsg15
Nsg19
Nsg16
Nsg502
Nsbag1
(g488
g3
NtRp609
(dp610
g64
Nsg66
S'FallbackCursorModeToggled'
p611
sg492
g1
(g493
g3
NtRp612
(dp613
g10
(lp614
g1
(g497
g3
NtRp615
(dp616
g64
Nsg66
S'is_on'
p617
sg15
Nsg19
g20
sg68
S'bool'
p618
sg16
I229
sbasg16
I229
sg19
g20
sbsg15
Nsg19
Nsg16
Nsg502
Nsbag1
(g488
g3
NtRp619
(dp620
g64
Nsg66
S'ImeSetComposition'
p621
sg492
g1
(g493
g3
NtRp622
(dp623
g10
(lp624
g1
(g497
g3
NtRp625
(dp626
g64
Nsg66
S'text'
p627
sg15
Nsg19
g20
sg68
S'mojo_base.mojom.String16'
p628
sg16
I232
sbag1
(g497
g3
NtRp629
(dp630
g64
Nsg66
S'ime_text_spans'
p631
sg15
Nsg19
g20
sg68
S'ui.mojom.ImeTextSpan[]'
p632
sg16
I233
sbag1
(g497
g3
NtRp633
(dp634
g64
Nsg66
S'range'
p635
sg15
Nsg19
g20
sg68
S'gfx.mojom.Range'
p636
sg16
I234
sbag1
(g497
g3
NtRp637
(dp638
g64
Nsg66
S'start'
p639
sg15
Nsg19
g20
sg68
S'int32'
p640
sg16
I234
sbag1
(g497
g3
NtRp641
(dp642
g64
Nsg66
S'end'
p643
sg15
Nsg19
g20
sg68
S'int32'
p644
sg16
I234
sbasg16
I232
sg19
g20
sbsg15
Nsg19
Nsg16
Nsg502
Nsbag1
(g488
g3
NtRp645
(dp646
g64
Nsg66
S'ImeCommitText'
p647
sg492
g1
(g493
g3
NtRp648
(dp649
g10
(lp650
g1
(g497
g3
NtRp651
(dp652
g64
Nsg66
S'text'
p653
sg15
Nsg19
g20
sg68
S'mojo_base.mojom.String16'
p654
sg16
I238
sbag1
(g497
g3
NtRp655
(dp656
g64
Nsg66
S'ime_text_spans'
p657
sg15
Nsg19
g20
sg68
S'ui.mojom.ImeTextSpan[]'
p658
sg16
I239
sbag1
(g497
g3
NtRp659
(dp660
g64
Nsg66
S'range'
p661
sg15
Nsg19
g20
sg68
S'gfx.mojom.Range'
p662
sg16
I240
sbag1
(g497
g3
NtRp663
(dp664
g64
Nsg66
S'relative_cursor_position'
p665
sg15
Nsg19
g20
sg68
S'int32'
p666
sg16
I240
sbasg16
I238
sg19
g20
sbsg15
Nsg19
Nsg16
Nsg502
g1
(g493
g3
NtRp667
(dp668
g10
(lp669
sg16
Nsg19
Nsbsbag1
(g488
g3
NtRp670
(dp671
g64
Nsg66
S'ImeFinishComposingText'
p672
sg492
g1
(g493
g3
NtRp673
(dp674
g10
(lp675
g1
(g497
g3
NtRp676
(dp677
g64
Nsg66
S'keep_selection'
p678
sg15
Nsg19
g20
sg68
S'bool'
p679
sg16
I243
sbasg16
I243
sg19
g20
sbsg15
Nsg19
Nsg16
Nsg502
Nsbag1
(g488
g3
NtRp680
(dp681
g64
Nsg66
S'RequestTextInputStateUpdate'
p682
sg492
g1
(g493
g3
NtRp683
(dp684
g10
(lp685
sg16
Nsg19
Nsbsg15
Nsg19
Nsg16
Nsg502
Nsbag1
(g488
g3
NtRp686
(dp687
g64
Nsg66
S'RequestCompositionUpdates'
p688
sg492
g1
(g493
g3
NtRp689
(dp690
g10
(lp691
g1
(g497
g3
NtRp692
(dp693
g64
Nsg66
S'immediate_request'
p694
sg15
Nsg19
g20
sg68
S'bool'
p695
sg16
I254
sbag1
(g497
g3
NtRp696
(dp697
g64
Nsg66
S'monitor_request'
p698
sg15
Nsg19
g20
sg68
S'bool'
p699
sg16
I254
sbasg16
I254
sg19
g20
sbsg15
Nsg19
Nsg16
Nsg502
Nsbag1
(g488
g3
NtRp700
(dp701
g64
Nsg66
S'DispatchEvent'
p702
sg492
g1
(g493
g3
NtRp703
(dp704
g10
(lp705
g1
(g497
g3
NtRp706
(dp707
g64
Nsg66
S'event'
p708
sg15
Nsg19
g20
sg68
S'Event'
p709
sg16
I261
sbasg16
I261
sg19
g20
sbsg15
Nsg19
Nsg16
Nsg502
g1
(g493
g3
NtRp710
(dp711
g10
(lp712
g1
(g497
g3
NtRp713
(dp714
g64
Nsg66
S'source'
p715
sg15
Nsg19
g20
sg68
S'InputEventAckSource'
p716
sg16
I262
sbag1
(g497
g3
NtRp717
(dp718
g64
Nsg66
S'updated_latency'
p719
sg15
Nsg19
g20
sg68
S'ui.mojom.LatencyInfo'
p720
sg16
I262
sbag1
(g497
g3
NtRp721
(dp722
g64
Nsg66
S'state'
p723
sg15
Nsg19
g20
sg68
S'InputEventAckState'
p724
sg16
I263
sbag1
(g497
g3
NtRp725
(dp726
g64
Nsg66
S'overscroll'
p727
sg15
Nsg19
g20
sg68
S'DidOverscrollParams?'
p728
sg16
I263
sbag1
(g497
g3
NtRp729
(dp730
g64
Nsg66
S'touch_action'
p731
sg15
Nsg19
g20
sg68
S'TouchActionOptional?'
p732
sg16
I264
sbasg16
I262
sg19
g20
sbsbag1
(g488
g3
NtRp733
(dp734
g64
Nsg66
S'DispatchNonBlockingEvent'
p735
sg492
g1
(g493
g3
NtRp736
(dp737
g10
(lp738
g1
(g497
g3
NtRp739
(dp740
g64
Nsg66
S'event'
p741
sg15
Nsg19
g20
sg68
S'Event'
p742
sg16
I269
sbasg16
I269
sg19
g20
sbsg15
Nsg19
Nsg16
Nsg502
Nsbag1
(g488
g3
NtRp743
(dp744
g64
Nsg66
S'WaitForInputProcessed'
p745
sg492
g1
(g493
g3
NtRp746
(dp747
g10
(lp748
sg16
Nsg19
Nsbsg15
Nsg19
Nsg16
Nsg502
g1
(g493
g3
NtRp749
(dp750
g10
(lp751
sg16
Nsg19
Nsbsbag1
(g488
g3
NtRp752
(dp753
g64
Nsg66
S'AttachSynchronousCompositor'
p754
sg492
g1
(g493
g3
NtRp755
(dp756
g10
(lp757
g1
(g497
g3
NtRp758
(dp759
g64
Nsg66
S'control_host'
p760
sg15
Nsg19
g20
sg68
S'SynchronousCompositorControlHost'
p761
sg16
I281
sbag1
(g497
g3
NtRp762
(dp763
g64
Nsg66
S'host'
p764
sg15
Nsg19
g20
sg68
S'asso<SynchronousCompositorHost>'
p765
sg16
I282
sbag1
(g497
g3
NtRp766
(dp767
g64
Nsg66
S'compositor_request'
p768
sg15
Nsg19
g20
sg68
S'asso<SynchronousCompositor&>'
p769
sg16
I283
sbasg16
I281
sg19
g20
sbsg15
Nsg19
Nsg16
Nsg502
Nsbasg16
Nsg19
Nsbsg15
Nsg16
Nsg66
S'WidgetInputHandler'
p770
sg19
Nsbag1
(g481
g3
NtRp771
(dp772
g56
g1
(g484
g3
NtRp773
(dp774
g10
(lp775
g1
(g488
g3
NtRp776
(dp777
g64
Nsg66
S'SetCompositionFromExistingText'
p778
sg492
g1
(g493
g3
NtRp779
(dp780
g10
(lp781
g1
(g497
g3
NtRp782
(dp783
g64
Nsg66
S'start'
p784
sg15
Nsg19
g20
sg68
S'int32'
p785
sg16
I295
sbag1
(g497
g3
NtRp786
(dp787
g64
Nsg66
S'end'
p788
sg15
Nsg19
g20
sg68
S'int32'
p789
sg16
I295
sbag1
(g497
g3
NtRp790
(dp791
g64
Nsg66
S'ime_text_spans'
p792
sg15
Nsg19
g20
sg68
S'ui.mojom.ImeTextSpan[]'
p793
sg16
I295
sbasg16
I295
sg19
g20
sbsg15
Nsg19
Nsg16
Nsg502
Nsbag1
(g488
g3
NtRp794
(dp795
g64
Nsg66
S'ExtendSelectionAndDelete'
p796
sg492
g1
(g493
g3
NtRp797
(dp798
g10
(lp799
g1
(g497
g3
NtRp800
(dp801
g64
Nsg66
S'before'
p802
sg15
Nsg19
g20
sg68
S'int32'
p803
sg16
I299
sbag1
(g497
g3
NtRp804
(dp805
g64
Nsg66
S'after'
p806
sg15
Nsg19
g20
sg68
S'int32'
p807
sg16
I299
sbasg16
I299
sg19
g20
sbsg15
Nsg19
Nsg16
Nsg502
Nsbag1
(g488
g3
NtRp808
(dp809
g64
Nsg66
S'DeleteSurroundingText'
p810
sg492
g1
(g493
g3
NtRp811
(dp812
g10
(lp813
g1
(g497
g3
NtRp814
(dp815
g64
Nsg66
S'before'
p816
sg15
Nsg19
g20
sg68
S'int32'
p817
sg16
I304
sbag1
(g497
g3
NtRp818
(dp819
g64
Nsg66
S'after'
p820
sg15
Nsg19
g20
sg68
S'int32'
p821
sg16
I304
sbasg16
I304
sg19
g20
sbsg15
Nsg19
Nsg16
Nsg502
Nsbag1
(g488
g3
NtRp822
(dp823
g64
Nsg66
S'DeleteSurroundingTextInCodePoints'
p824
sg492
g1
(g493
g3
NtRp825
(dp826
g10
(lp827
g1
(g497
g3
NtRp828
(dp829
g64
Nsg66
S'before'
p830
sg15
Nsg19
g20
sg68
S'int32'
p831
sg16
I310
sbag1
(g497
g3
NtRp832
(dp833
g64
Nsg66
S'after'
p834
sg15
Nsg19
g20
sg68
S'int32'
p835
sg16
I310
sbasg16
I310
sg19
g20
sbsg15
Nsg19
Nsg16
Nsg502
Nsbag1
(g488
g3
NtRp836
(dp837
g64
Nsg66
S'SetEditableSelectionOffsets'
p838
sg492
g1
(g493
g3
NtRp839
(dp840
g10
(lp841
g1
(g497
g3
NtRp842
(dp843
g64
Nsg66
S'start'
p844
sg15
Nsg19
g20
sg68
S'int32'
p845
sg16
I314
sbag1
(g497
g3
NtRp846
(dp847
g64
Nsg66
S'end'
p848
sg15
Nsg19
g20
sg68
S'int32'
p849
sg16
I314
sbasg16
I314
sg19
g20
sbsg15
Nsg19
Nsg16
Nsg502
Nsbag1
(g488
g3
NtRp850
(dp851
g64
Nsg66
S'ExecuteEditCommand'
p852
sg492
g1
(g493
g3
NtRp853
(dp854
g10
(lp855
g1
(g497
g3
NtRp856
(dp857
g64
Nsg66
S'command'
p858
sg15
Nsg19
g20
sg68
S'string'
p859
sg16
I317
sbag1
(g497
g3
NtRp860
(dp861
g64
Nsg66
S'value'
p862
sg15
Nsg19
g20
sg68
S'mojo_base.mojom.String16?'
p863
sg16
I317
sbasg16
I317
sg19
g20
sbsg15
Nsg19
Nsg16
Nsg502
Nsbag1
(g488
g3
NtRp864
(dp865
g64
Nsg66
S'Undo'
p866
sg492
g1
(g493
g3
NtRp867
(dp868
g10
(lp869
sg16
Nsg19
Nsbsg15
Nsg19
Nsg16
Nsg502
Nsbag1
(g488
g3
NtRp870
(dp871
g64
Nsg66
S'Redo'
p872
sg492
g1
(g493
g3
NtRp873
(dp874
g10
(lp875
sg16
Nsg19
Nsbsg15
Nsg19
Nsg16
Nsg502
Nsbag1
(g488
g3
NtRp876
(dp877
g64
Nsg66
S'Cut'
p878
sg492
g1
(g493
g3
NtRp879
(dp880
g10
(lp881
sg16
Nsg19
Nsbsg15
Nsg19
Nsg16
Nsg502
Nsbag1
(g488
g3
NtRp882
(dp883
g64
Nsg66
S'Copy'
p884
sg492
g1
(g493
g3
NtRp885
(dp886
g10
(lp887
sg16
Nsg19
Nsbsg15
Nsg19
Nsg16
Nsg502
Nsbag1
(g488
g3
NtRp888
(dp889
g64
Nsg66
S'CopyToFindPboard'
p890
sg492
g1
(g493
g3
NtRp891
(dp892
g10
(lp893
sg16
Nsg19
Nsbsg15
Nsg19
Nsg16
Nsg502
Nsbag1
(g488
g3
NtRp894
(dp895
g64
Nsg66
S'Paste'
p896
sg492
g1
(g493
g3
NtRp897
(dp898
g10
(lp899
sg16
Nsg19
Nsbsg15
Nsg19
Nsg16
Nsg502
Nsbag1
(g488
g3
NtRp900
(dp901
g64
Nsg66
S'PasteAndMatchStyle'
p902
sg492
g1
(g493
g3
NtRp903
(dp904
g10
(lp905
sg16
Nsg19
Nsbsg15
Nsg19
Nsg16
Nsg502
Nsbag1
(g488
g3
NtRp906
(dp907
g64
Nsg66
S'Delete'
p908
sg492
g1
(g493
g3
NtRp909
(dp910
g10
(lp911
sg16
Nsg19
Nsbsg15
Nsg19
Nsg16
Nsg502
Nsbag1
(g488
g3
NtRp912
(dp913
g64
Nsg66
S'SelectAll'
p914
sg492
g1
(g493
g3
NtRp915
(dp916
g10
(lp917
sg16
Nsg19
Nsbsg15
Nsg19
Nsg16
Nsg502
Nsbag1
(g488
g3
NtRp918
(dp919
g64
Nsg66
S'CollapseSelection'
p920
sg492
g1
(g493
g3
NtRp921
(dp922
g10
(lp923
sg16
Nsg19
Nsbsg15
Nsg19
Nsg16
Nsg502
Nsbag1
(g488
g3
NtRp924
(dp925
g64
Nsg66
S'Replace'
p926
sg492
g1
(g493
g3
NtRp927
(dp928
g10
(lp929
g1
(g497
g3
NtRp930
(dp931
g64
Nsg66
S'word'
p932
sg15
Nsg19
g20
sg68
S'mojo_base.mojom.String16'
p933
sg16
I334
sbasg16
I334
sg19
g20
sbsg15
Nsg19
Nsg16
Nsg502
Nsbag1
(g488
g3
NtRp934
(dp935
g64
Nsg66
S'ReplaceMisspelling'
p936
sg492
g1
(g493
g3
NtRp937
(dp938
g10
(lp939
g1
(g497
g3
NtRp940
(dp941
g64
Nsg66
S'word'
p942
sg15
Nsg19
g20
sg68
S'mojo_base.mojom.String16'
p943
sg16
I337
sbasg16
I337
sg19
g20
sbsg15
Nsg19
Nsg16
Nsg502
Nsbag1
(g488
g3
NtRp944
(dp945
g64
Nsg66
S'SelectRange'
p946
sg492
g1
(g493
g3
NtRp947
(dp948
g10
(lp949
g1
(g497
g3
NtRp950
(dp951
g64
Nsg66
S'base'
p952
sg15
Nsg19
g20
sg68
S'gfx.mojom.Point'
p953
sg16
I341
sbag1
(g497
g3
NtRp954
(dp955
g64
Nsg66
S'extent'
p956
sg15
Nsg19
g20
sg68
S'gfx.mojom.Point'
p957
sg16
I341
sbasg16
I341
sg19
g20
sbsg15
Nsg19
Nsg16
Nsg502
Nsbag1
(g488
g3
NtRp958
(dp959
g64
Nsg66
S'AdjustSelectionByCharacterOffset'
p960
sg492
g1
(g493
g3
NtRp961
(dp962
g10
(lp963
g1
(g497
g3
NtRp964
(dp965
g64
Nsg66
S'start'
p966
sg15
Nsg19
g20
sg68
S'int32'
p967
sg16
I349
sbag1
(g497
g3
NtRp968
(dp969
g64
Nsg66
S'end'
p970
sg15
Nsg19
g20
sg68
S'int32'
p971
sg16
I349
sbag1
(g497
g3
NtRp972
(dp973
g64
Nsg66
S'behavior'
p974
sg15
Nsg19
g20
sg68
S'blink.mojom.SelectionMenuBehavior'
p975
sg16
I349
sbasg16
I349
sg19
g20
sbsg15
Nsg19
Nsg16
Nsg502
Nsbag1
(g488
g3
NtRp976
(dp977
g64
Nsg66
S'MoveRangeSelectionExtent'
p978
sg492
g1
(g493
g3
NtRp979
(dp980
g10
(lp981
g1
(g497
g3
NtRp982
(dp983
g64
Nsg66
S'extent'
p984
sg15
Nsg19
g20
sg68
S'gfx.mojom.Point'
p985
sg16
I361
sbasg16
I361
sg19
g20
sbsg15
Nsg19
Nsg16
Nsg502
Nsbag1
(g488
g3
NtRp986
(dp987
g64
Nsg66
S'ScrollFocusedEditableNodeIntoRect'
p988
sg492
g1
(g493
g3
NtRp989
(dp990
g10
(lp991
g1
(g497
g3
NtRp992
(dp993
g64
Nsg66
S'rect'
p994
sg15
Nsg19
g20
sg68
S'gfx.mojom.Rect'
p995
sg16
I366
sbasg16
I366
sg19
g20
sbsg15
Nsg19
Nsg16
Nsg502
Nsbag1
(g488
g3
NtRp996
(dp997
g64
Nsg66
S'MoveCaret'
p998
sg492
g1
(g493
g3
NtRp999
(dp1000
g10
(lp1001
g1
(g497
g3
NtRp1002
(dp1003
g64
Nsg66
S'point'
p1004
sg15
Nsg19
g20
sg68
S'gfx.mojom.Point'
p1005
sg16
I369
sbasg16
I369
sg19
g20
sbsg15
Nsg19
Nsg16
Nsg502
Nsbag1
(g488
g3
NtRp1006
(dp1007
g64
Nsg66
S'GetWidgetInputHandler'
p1008
sg492
g1
(g493
g3
NtRp1009
(dp1010
g10
(lp1011
g1
(g497
g3
NtRp1012
(dp1013
g64
Nsg66
S'interface_request'
p1014
sg15
Nsg19
g20
sg68
S'asso<WidgetInputHandler&>'
p1015
sg16
I374
sbag1
(g497
g3
NtRp1016
(dp1017
g64
Nsg66
S'host'
p1018
sg15
Nsg19
g20
sg68
S'WidgetInputHandlerHost'
p1019
sg16
I375
sbasg16
I374
sg19
g20
sbsg15
Nsg19
Nsg16
Nsg502
Nsbasg16
Nsg19
Nsbsg15
Nsg16
Nsg66
S'FrameInputHandler'
p1020
sg19
Nsbasg16
NsS'module'
p1021
g1
(cmojom.parse.ast
Module
p1022
g3
NtRp1023
(dp1024
S'mojom_namespace'
p1025
(S'IDENTIFIER'
p1026
S'content.mojom'
tp1027
sg16
I5
sg15
Nsg19
g20
sbsg19
Nsb.