ccopy_reg
_reconstructor
p1
(cmojom.parse.ast
Mojom
p2
c__builtin__
object
p3
NtRp4
(dp5
S'import_list'
p6
g1
(cmojom.parse.ast
ImportList
p7
g3
NtRp8
(dp9
S'items'
p10
(lp11
g1
(cmojom.parse.ast
Import
p12
g3
NtRp13
(dp14
S'attribute_list'
p15
NsS'lineno'
p16
I7
sS'import_filename'
p17
S'mojo/public/mojom/base/shared_memory.mojom'
p18
sS'filename'
p19
S'../../content/common/input/synchronous_compositor.mojom'
p20
sbag1
(g12
g3
NtRp21
(dp22
g15
Nsg16
I8
sg17
S'mojo/public/mojom/base/time.mojom'
p23
sg19
g20
sbag1
(g12
g3
NtRp24
(dp25
g15
Nsg16
I9
sg17
S'services/viz/public/interfaces/compositing/begin_frame_args.mojom'
p26
sg19
g20
sbag1
(g12
g3
NtRp27
(dp28
g15
Nsg16
I10
sg17
S'services/viz/public/interfaces/compositing/compositor_frame.mojom'
p29
sg19
g20
sbag1
(g12
g3
NtRp30
(dp31
g15
Nsg16
I11
sg17
S'services/viz/public/interfaces/compositing/compositor_frame_metadata.mojom'
p32
sg19
g20
sbag1
(g12
g3
NtRp33
(dp34
g15
Nsg16
I12
sg17
S'services/viz/public/interfaces/compositing/returned_resource.mojom'
p35
sg19
g20
sbag1
(g12
g3
NtRp36
(dp37
g15
Nsg16
I13
sg17
S'ui/gfx/geometry/mojo/geometry.mojom'
p38
sg19
g20
sbag1
(g12
g3
NtRp39
(dp40
g15
Nsg16
I14
sg17
S'ui/gfx/mojo/presentation_feedback.mojom'
p41
sg19
g20
sbasg16
I7
sg19
g20
sbsS'definition_list'
p42
(lp43
g1
(cmojom.parse.ast
Struct
p44
g3
NtRp45
(dp46
S'body'
p47
Nsg15
g1
(cmojom.parse.ast
AttributeList
p48
g3
NtRp49
(dp50
g10
(lp51
g1
(cmojom.parse.ast
Attribute
p52
g3
NtRp53
(dp54
S'value'
p55
I01
sg16
I16
sS'key'
p56
S'Native'
p57
sg19
g20
sbasg16
I16
sg19
g20
sbsg16
NsS'mojom_name'
p58
S'SyncCompositorDemandDrawHwParams'
p59
sg19
Nsbag1
(g44
g3
NtRp60
(dp61
g47
Nsg15
g1
(g48
g3
NtRp62
(dp63
g10
(lp64
g1
(g52
g3
NtRp65
(dp66
g55
I01
sg16
I19
sg56
S'Native'
p67
sg19
g20
sbasg16
I19
sg19
g20
sbsg16
Nsg58
S'SyncCompositorDemandDrawSwParams'
p68
sg19
Nsbag1
(g44
g3
NtRp69
(dp70
g47
Nsg15
g1
(g48
g3
NtRp71
(dp72
g10
(lp73
g1
(g52
g3
NtRp74
(dp75
g55
I01
sg16
I22
sg56
S'Native'
p76
sg19
g20
sbasg16
I22
sg19
g20
sbsg16
Nsg58
S'SyncCompositorCommonRendererParams'
p77
sg19
Nsbag1
(cmojom.parse.ast
Interface
p78
g3
NtRp79
(dp80
g47
g1
(cmojom.parse.ast
InterfaceBody
p81
g3
NtRp82
(dp83
g10
(lp84
g1
(cmojom.parse.ast
Method
p85
g3
NtRp86
(dp87
S'ordinal'
p88
Nsg58
S'ComputeScroll'
p89
sS'parameter_list'
p90
g1
(cmojom.parse.ast
ParameterList
p91
g3
NtRp92
(dp93
g10
(lp94
g1
(cmojom.parse.ast
Parameter
p95
g3
NtRp96
(dp97
g88
Nsg58
S'time'
p98
sg15
Nsg19
g20
sS'typename'
p99
S'mojo_base.mojom.TimeTicks'
p100
sg16
I32
sbasg16
I32
sg19
g20
sbsg15
Nsg19
Nsg16
NsS'response_parameter_list'
p101
Nsbag1
(g85
g3
NtRp102
(dp103
g88
Nsg58
S'DemandDrawHwAsync'
p104
sg90
g1
(g91
g3
NtRp105
(dp106
g10
(lp107
g1
(g95
g3
NtRp108
(dp109
g88
Nsg58
S'draw_params'
p110
sg15
Nsg19
g20
sg99
S'SyncCompositorDemandDrawHwParams'
p111
sg16
I36
sbasg16
I36
sg19
g20
sbsg15
Nsg19
Nsg16
Nsg101
Nsbag1
(g85
g3
NtRp112
(dp113
g88
Nsg58
S'DemandDrawHw'
p114
sg90
g1
(g91
g3
NtRp115
(dp116
g10
(lp117
g1
(g95
g3
NtRp118
(dp119
g88
Nsg58
S'draw_params'
p120
sg15
Nsg19
g20
sg99
S'SyncCompositorDemandDrawHwParams'
p121
sg16
I40
sbasg16
I40
sg19
g20
sbsg15
g1
(g48
g3
NtRp122
(dp123
g10
(lp124
g1
(g52
g3
NtRp125
(dp126
g55
I01
sg16
I39
sg56
S'Sync'
p127
sg19
g20
sbasg16
I39
sg19
g20
sbsg19
Nsg16
Nsg101
g1
(g91
g3
NtRp128
(dp129
g10
(lp130
g1
(g95
g3
NtRp131
(dp132
g88
Nsg58
S'result'
p133
sg15
Nsg19
g20
sg99
S'SyncCompositorCommonRendererParams'
p134
sg16
I41
sbag1
(g95
g3
NtRp135
(dp136
g88
Nsg58
S'layer_tree_frame_sink_id'
p137
sg15
Nsg19
g20
sg99
S'uint32'
p138
sg16
I42
sbag1
(g95
g3
NtRp139
(dp140
g88
Nsg58
S'metadata_version'
p141
sg15
Nsg19
g20
sg99
S'uint32'
p142
sg16
I43
sbag1
(g95
g3
NtRp143
(dp144
g88
Nsg58
S'frame'
p145
sg15
Nsg19
g20
sg99
S'viz.mojom.CompositorFrame?'
p146
sg16
I44
sbasg16
I41
sg19
g20
sbsbag1
(g85
g3
NtRp147
(dp148
g88
Nsg58
S'SetSharedMemory'
p149
sg90
g1
(g91
g3
NtRp150
(dp151
g10
(lp152
g1
(g95
g3
NtRp153
(dp154
g88
Nsg58
S'shm_region'
p155
sg15
Nsg19
g20
sg99
S'mojo_base.mojom.WritableSharedMemoryRegion'
p156
sg16
I51
sbasg16
I51
sg19
g20
sbsg15
g1
(g48
g3
NtRp157
(dp158
g10
(lp159
g1
(g52
g3
NtRp160
(dp161
g55
I01
sg16
I50
sg56
S'Sync'
p162
sg19
g20
sbasg16
I50
sg19
g20
sbsg19
Nsg16
Nsg101
g1
(g91
g3
NtRp163
(dp164
g10
(lp165
g1
(g95
g3
NtRp166
(dp167
g88
Nsg58
S'success'
p168
sg15
Nsg19
g20
sg99
S'bool'
p169
sg16
I52
sbag1
(g95
g3
NtRp170
(dp171
g88
Nsg58
S'result'
p172
sg15
Nsg19
g20
sg99
S'SyncCompositorCommonRendererParams'
p173
sg16
I52
sbasg16
I52
sg19
g20
sbsbag1
(g85
g3
NtRp174
(dp175
g88
Nsg58
S'DemandDrawSw'
p176
sg90
g1
(g91
g3
NtRp177
(dp178
g10
(lp179
g1
(g95
g3
NtRp180
(dp181
g88
Nsg58
S'draw_params'
p182
sg15
Nsg19
g20
sg99
S'SyncCompositorDemandDrawSwParams'
p183
sg16
I55
sbasg16
I55
sg19
g20
sbsg15
g1
(g48
g3
NtRp184
(dp185
g10
(lp186
g1
(g52
g3
NtRp187
(dp188
g55
I01
sg16
I55
sg56
S'Sync'
p189
sg19
g20
sbasg16
I55
sg19
g20
sbsg19
Nsg16
Nsg101
g1
(g91
g3
NtRp190
(dp191
g10
(lp192
g1
(g95
g3
NtRp193
(dp194
g88
Nsg58
S'result'
p195
sg15
Nsg19
g20
sg99
S'SyncCompositorCommonRendererParams'
p196
sg16
I56
sbag1
(g95
g3
NtRp197
(dp198
g88
Nsg58
S'metadata_version'
p199
sg15
Nsg19
g20
sg99
S'uint32'
p200
sg16
I57
sbag1
(g95
g3
NtRp201
(dp202
g88
Nsg58
S'meta_data'
p203
sg15
Nsg19
g20
sg99
S'viz.mojom.CompositorFrameMetadata?'
p204
sg16
I58
sbasg16
I56
sg19
g20
sbsbag1
(g85
g3
NtRp205
(dp206
g88
Nsg58
S'WillSkipDraw'
p207
sg90
g1
(g91
g3
NtRp208
(dp209
g10
(lp210
sg16
Nsg19
Nsbsg15
Nsg19
Nsg16
Nsg101
Nsbag1
(g85
g3
NtRp211
(dp212
g88
Nsg58
S'ZeroSharedMemory'
p213
sg90
g1
(g91
g3
NtRp214
(dp215
g10
(lp216
sg16
Nsg19
Nsbsg15
Nsg19
Nsg16
Nsg101
Nsbag1
(g85
g3
NtRp217
(dp218
g88
Nsg58
S'ZoomBy'
p219
sg90
g1
(g91
g3
NtRp220
(dp221
g10
(lp222
g1
(g95
g3
NtRp223
(dp224
g88
Nsg58
S'delta'
p225
sg15
Nsg19
g20
sg99
S'float'
p226
sg16
I72
sbag1
(g95
g3
NtRp227
(dp228
g88
Nsg58
S'anchor'
p229
sg15
Nsg19
g20
sg99
S'gfx.mojom.Point'
p230
sg16
I72
sbasg16
I72
sg19
g20
sbsg15
g1
(g48
g3
NtRp231
(dp232
g10
(lp233
g1
(g52
g3
NtRp234
(dp235
g55
I01
sg16
I72
sg56
S'Sync'
p236
sg19
g20
sbasg16
I72
sg19
g20
sbsg19
Nsg16
Nsg101
g1
(g91
g3
NtRp237
(dp238
g10
(lp239
g1
(g95
g3
NtRp240
(dp241
g88
Nsg58
S'result'
p242
sg15
Nsg19
g20
sg99
S'SyncCompositorCommonRendererParams'
p243
sg16
I73
sbasg16
I73
sg19
g20
sbsbag1
(g85
g3
NtRp244
(dp245
g88
Nsg58
S'SetMemoryPolicy'
p246
sg90
g1
(g91
g3
NtRp247
(dp248
g10
(lp249
g1
(g95
g3
NtRp250
(dp251
g88
Nsg58
S'bytes_limit'
p252
sg15
Nsg19
g20
sg99
S'uint32'
p253
sg16
I78
sbasg16
I78
sg19
g20
sbsg15
Nsg19
Nsg16
Nsg101
Nsbag1
(g85
g3
NtRp254
(dp255
g88
Nsg58
S'ReclaimResources'
p256
sg90
g1
(g91
g3
NtRp257
(dp258
g10
(lp259
g1
(g95
g3
NtRp260
(dp261
g88
Nsg58
S'layer_tree_frame_sink_id'
p262
sg15
Nsg19
g20
sg99
S'uint32'
p263
sg16
I81
sbag1
(g95
g3
NtRp264
(dp265
g88
Nsg58
S'resources'
p266
sg15
Nsg19
g20
sg99
S'viz.mojom.ReturnedResource[]'
p267
sg16
I82
sbasg16
I81
sg19
g20
sbsg15
Nsg19
Nsg16
Nsg101
Nsbag1
(g85
g3
NtRp268
(dp269
g88
Nsg58
S'SetScroll'
p270
sg90
g1
(g91
g3
NtRp271
(dp272
g10
(lp273
g1
(g95
g3
NtRp274
(dp275
g88
Nsg58
S'offset'
p276
sg15
Nsg19
g20
sg99
S'gfx.mojom.ScrollOffset'
p277
sg16
I85
sbasg16
I85
sg19
g20
sbsg15
Nsg19
Nsg16
Nsg101
Nsbag1
(g85
g3
NtRp278
(dp279
g88
Nsg58
S'BeginFrame'
p280
sg90
g1
(g91
g3
NtRp281
(dp282
g10
(lp283
g1
(g95
g3
NtRp284
(dp285
g88
Nsg58
S'args'
p286
sg15
Nsg19
g20
sg99
S'viz.mojom.BeginFrameArgs'
p287
sg16
I97
sbag1
(g95
g3
NtRp288
(dp289
g88
Nsg58
S'presentations'
p290
sg15
Nsg19
g20
sg99
S'gfx.mojom.PresentationFeedback{uint32}'
p291
sg16
I98
sbasg16
I97
sg19
g20
sbsg15
Nsg19
Nsg16
Nsg101
Nsbag1
(g85
g3
NtRp292
(dp293
g88
Nsg58
S'SetBeginFrameSourcePaused'
p294
sg90
g1
(g91
g3
NtRp295
(dp296
g10
(lp297
g1
(g95
g3
NtRp298
(dp299
g88
Nsg58
S'paused'
p300
sg15
Nsg19
g20
sg99
S'bool'
p301
sg16
I101
sbasg16
I101
sg19
g20
sbsg15
Nsg19
Nsg16
Nsg101
Nsbasg16
Nsg19
Nsbsg15
Nsg16
Nsg58
S'SynchronousCompositor'
p302
sg19
Nsbag1
(g78
g3
NtRp303
(dp304
g47
g1
(g81
g3
NtRp305
(dp306
g10
(lp307
g1
(g85
g3
NtRp308
(dp309
g88
Nsg58
S'LayerTreeFrameSinkCreated'
p310
sg90
g1
(g91
g3
NtRp311
(dp312
g10
(lp313
sg16
Nsg19
Nsbsg15
Nsg19
Nsg16
Nsg101
Nsbag1
(g85
g3
NtRp314
(dp315
g88
Nsg58
S'UpdateState'
p316
sg90
g1
(g91
g3
NtRp317
(dp318
g10
(lp319
g1
(g95
g3
NtRp320
(dp321
g88
Nsg58
S'params'
p322
sg15
Nsg19
g20
sg99
S'SyncCompositorCommonRendererParams'
p323
sg16
I111
sbasg16
I111
sg19
g20
sbsg15
Nsg19
Nsg16
Nsg101
Nsbag1
(g85
g3
NtRp324
(dp325
g88
Nsg58
S'SetNeedsBeginFrames'
p326
sg90
g1
(g91
g3
NtRp327
(dp328
g10
(lp329
g1
(g95
g3
NtRp330
(dp331
g88
Nsg58
S'needs_begin_frames'
p332
sg15
Nsg19
g20
sg99
S'bool'
p333
sg16
I114
sbasg16
I114
sg19
g20
sbsg15
Nsg19
Nsg16
Nsg101
Nsbasg16
Nsg19
Nsbsg15
Nsg16
Nsg58
S'SynchronousCompositorHost'
p334
sg19
Nsbag1
(g78
g3
NtRp335
(dp336
g47
g1
(g81
g3
NtRp337
(dp338
g10
(lp339
g1
(g85
g3
NtRp340
(dp341
g88
Nsg58
S'ReturnFrame'
p342
sg90
g1
(g91
g3
NtRp343
(dp344
g10
(lp345
g1
(g95
g3
NtRp346
(dp347
g88
Nsg58
S'layer_tree_frame_sink_id'
p348
sg15
Nsg19
g20
sg99
S'uint32'
p349
sg16
I127
sbag1
(g95
g3
NtRp350
(dp351
g88
Nsg58
S'metadata_version'
p352
sg15
Nsg19
g20
sg99
S'uint32'
p353
sg16
I128
sbag1
(g95
g3
NtRp354
(dp355
g88
Nsg58
S'frame'
p356
sg15
Nsg19
g20
sg99
S'viz.mojom.CompositorFrame?'
p357
sg16
I129
sbasg16
I127
sg19
g20
sbsg15
Nsg19
Nsg16
Nsg101
Nsbag1
(g85
g3
NtRp358
(dp359
g88
Nsg58
S'BeginFrameResponse'
p360
sg90
g1
(g91
g3
NtRp361
(dp362
g10
(lp363
g1
(g95
g3
NtRp364
(dp365
g88
Nsg58
S'params'
p366
sg15
Nsg19
g20
sg99
S'SyncCompositorCommonRendererParams'
p367
sg16
I132
sbasg16
I132
sg19
g20
sbsg15
Nsg19
Nsg16
Nsg101
Nsbasg16
Nsg19
Nsbsg15
Nsg16
Nsg58
S'SynchronousCompositorControlHost'
p368
sg19
Nsbasg16
NsS'module'
p369
g1
(cmojom.parse.ast
Module
p370
g3
NtRp371
(dp372
S'mojom_namespace'
p373
(S'IDENTIFIER'
p374
S'content.mojom'
tp375
sg16
I5
sg15
Nsg19
g20
sbsg19
Nsb.