ccopy_reg
_reconstructor
p1
(cmojom.parse.ast
Mojom
p2
c__builtin__
object
p3
NtRp4
(dp5
S'import_list'
p6
g1
(cmojom.parse.ast
ImportList
p7
g3
NtRp8
(dp9
S'items'
p10
(lp11
sS'lineno'
p12
NsS'filename'
p13
NsbsS'definition_list'
p14
(lp15
g1
(cmojom.parse.ast
Enum
p16
g3
NtRp17
(dp18
S'attribute_list'
p19
NsS'enum_value_list'
p20
g1
(cmojom.parse.ast
EnumValueList
p21
g3
NtRp22
(dp23
g10
(lp24
g1
(cmojom.parse.ast
EnumValue
p25
g3
NtRp26
(dp27
g19
NsS'value'
p28
Nsg12
I9
sS'mojom_name'
p29
S'UNKNOWN'
p30
sg13
S'../../skia/public/interfaces/image_info.mojom'
p31
sbag1
(g25
g3
NtRp32
(dp33
g19
Nsg28
Nsg12
I10
sg29
S'ALPHA_8'
p34
sg13
g31
sbag1
(g25
g3
NtRp35
(dp36
g19
Nsg28
Nsg12
I11
sg29
S'RGB_565'
p37
sg13
g31
sbag1
(g25
g3
NtRp38
(dp39
g19
Nsg28
Nsg12
I12
sg29
S'ARGB_4444'
p40
sg13
g31
sbag1
(g25
g3
NtRp41
(dp42
g19
Nsg28
Nsg12
I13
sg29
S'RGBA_8888'
p43
sg13
g31
sbag1
(g25
g3
NtRp44
(dp45
g19
Nsg28
Nsg12
I14
sg29
S'BGRA_8888'
p46
sg13
g31
sbag1
(g25
g3
NtRp47
(dp48
g19
Nsg28
Nsg12
I15
sg29
S'INDEX_8'
p49
sg13
g31
sbag1
(g25
g3
NtRp50
(dp51
g19
Nsg28
Nsg12
I16
sg29
S'GRAY_8'
p52
sg13
g31
sbasg12
I9
sg13
g31
sbsg12
I8
sg29
S'ColorType'
p53
sg13
g31
sbag1
(g16
g3
NtRp54
(dp55
g19
Nsg20
g1
(g21
g3
NtRp56
(dp57
g10
(lp58
g1
(g25
g3
NtRp59
(dp60
g19
Nsg28
Nsg12
I21
sg29
S'UNKNOWN'
p61
sg13
g31
sbag1
(g25
g3
NtRp62
(dp63
g19
Nsg28
Nsg12
I22
sg29
S'ALPHA_TYPE_OPAQUE'
p64
sg13
g31
sbag1
(g25
g3
NtRp65
(dp66
g19
Nsg28
Nsg12
I23
sg29
S'PREMUL'
p67
sg13
g31
sbag1
(g25
g3
NtRp68
(dp69
g19
Nsg28
Nsg12
I24
sg29
S'UNPREMUL'
p70
sg13
g31
sbasg12
I21
sg13
g31
sbsg12
I20
sg29
S'AlphaType'
p71
sg13
g31
sbag1
(cmojom.parse.ast
Struct
p72
g3
NtRp73
(dp74
S'body'
p75
g1
(cmojom.parse.ast
StructBody
p76
g3
NtRp77
(dp78
g10
(lp79
g1
(cmojom.parse.ast
StructField
p80
g3
NtRp81
(dp82
S'ordinal'
p83
NsS'default_value'
p84
Nsg29
S'color_type'
p85
sg19
Nsg13
NsS'typename'
p86
S'ColorType'
p87
sg12
Nsbag1
(g80
g3
NtRp88
(dp89
g83
Nsg84
Nsg29
S'alpha_type'
p90
sg19
Nsg13
Nsg86
S'AlphaType'
p91
sg12
Nsbag1
(g80
g3
NtRp92
(dp93
g83
Nsg84
Nsg29
S'serialized_color_space'
p94
sg19
Nsg13
Nsg86
S'uint8[]'
p95
sg12
Nsbag1
(g80
g3
NtRp96
(dp97
g83
Nsg84
Nsg29
S'width'
p98
sg19
Nsg13
Nsg86
S'uint32'
p99
sg12
Nsbag1
(g80
g3
NtRp100
(dp101
g83
Nsg84
Nsg29
S'height'
p102
sg19
Nsg13
Nsg86
S'uint32'
p103
sg12
Nsbasg12
Nsg13
Nsbsg19
Nsg12
Nsg29
S'ImageInfo'
p104
sg13
Nsbasg12
NsS'module'
p105
g1
(cmojom.parse.ast
Module
p106
g3
NtRp107
(dp108
S'mojom_namespace'
p109
(S'IDENTIFIER'
p110
S'skia.mojom'
tp111
sg12
I5
sg19
Nsg13
g31
sbsg13
Nsb.