ccopy_reg
_reconstructor
p1
(cmojom.parse.ast
Mojom
p2
c__builtin__
object
p3
NtRp4
(dp5
S'import_list'
p6
g1
(cmojom.parse.ast
ImportList
p7
g3
NtRp8
(dp9
S'items'
p10
(lp11
g1
(cmojom.parse.ast
Import
p12
g3
NtRp13
(dp14
S'attribute_list'
p15
NsS'lineno'
p16
I7
sS'import_filename'
p17
S'ui/base/ime/mojo/ime_types.mojom'
p18
sS'filename'
p19
S'../../ui/platform_window/mojo/text_input_state.mojom'
p20
sbasg16
I7
sg19
g20
sbsS'definition_list'
p21
(lp22
g1
(cmojom.parse.ast
Struct
p23
g3
NtRp24
(dp25
S'body'
p26
g1
(cmojom.parse.ast
StructBody
p27
g3
NtRp28
(dp29
g10
(lp30
g1
(cmojom.parse.ast
StructField
p31
g3
NtRp32
(dp33
S'ordinal'
p34
NsS'default_value'
p35
NsS'mojom_name'
p36
S'type'
p37
sg15
Nsg19
NsS'typename'
p38
S'TextInputType'
p39
sg16
Nsbag1
(g31
g3
NtRp40
(dp41
g34
Nsg35
Nsg36
S'flags'
p42
sg15
Nsg19
Nsg38
S'int32'
p43
sg16
Nsbag1
(g31
g3
NtRp44
(dp45
g34
Nsg35
Nsg36
S'text'
p46
sg15
Nsg19
Nsg38
S'string?'
p47
sg16
Nsbag1
(g31
g3
NtRp48
(dp49
g34
Nsg35
Nsg36
S'selection_start'
p50
sg15
Nsg19
Nsg38
S'int32'
p51
sg16
Nsbag1
(g31
g3
NtRp52
(dp53
g34
Nsg35
Nsg36
S'selection_end'
p54
sg15
Nsg19
Nsg38
S'int32'
p55
sg16
Nsbag1
(g31
g3
NtRp56
(dp57
g34
Nsg35
Nsg36
S'composition_start'
p58
sg15
Nsg19
Nsg38
S'int32'
p59
sg16
Nsbag1
(g31
g3
NtRp60
(dp61
g34
Nsg35
Nsg36
S'composition_end'
p62
sg15
Nsg19
Nsg38
S'int32'
p63
sg16
Nsbag1
(g31
g3
NtRp64
(dp65
g34
Nsg35
Nsg36
S'can_compose_inline'
p66
sg15
Nsg19
Nsg38
S'bool'
p67
sg16
Nsbasg16
Nsg19
Nsbsg15
Nsg16
Nsg36
S'TextInputState'
p68
sg19
Nsbasg16
NsS'module'
p69
g1
(cmojom.parse.ast
Module
p70
g3
NtRp71
(dp72
S'mojom_namespace'
p73
(S'IDENTIFIER'
p74
S'ui.mojom'
tp75
sg16
I5
sg15
Nsg19
g20
sbsg19
Nsb.