ccopy_reg
_reconstructor
p1
(cmojom.parse.ast
Mojom
p2
c__builtin__
object
p3
NtRp4
(dp5
S'import_list'
p6
g1
(cmojom.parse.ast
ImportList
p7
g3
NtRp8
(dp9
S'items'
p10
(lp11
g1
(cmojom.parse.ast
Import
p12
g3
NtRp13
(dp14
S'attribute_list'
p15
NsS'lineno'
p16
I7
sS'import_filename'
p17
S'ui/events/devices/mojo/input_devices.mojom'
p18
sS'filename'
p19
S'../../services/ws/public/mojom/input_devices/input_device_server.mojom'
p20
sbasg16
I7
sg19
g20
sbsS'definition_list'
p21
(lp22
g1
(cmojom.parse.ast
Interface
p23
g3
NtRp24
(dp25
S'body'
p26
g1
(cmojom.parse.ast
InterfaceBody
p27
g3
NtRp28
(dp29
g10
(lp30
g1
(cmojom.parse.ast
Method
p31
g3
NtRp32
(dp33
S'ordinal'
p34
NsS'mojom_name'
p35
S'OnKeyboardDeviceConfigurationChanged'
p36
sS'parameter_list'
p37
g1
(cmojom.parse.ast
ParameterList
p38
g3
NtRp39
(dp40
g10
(lp41
g1
(cmojom.parse.ast
Parameter
p42
g3
NtRp43
(dp44
g34
Nsg35
S'devices'
p45
sg15
Nsg19
g20
sS'typename'
p46
S'ui.mojom.InputDevice[]'
p47
sg16
I13
sbasg16
I13
sg19
g20
sbsg15
Nsg19
Nsg16
NsS'response_parameter_list'
p48
Nsbag1
(g31
g3
NtRp49
(dp50
g34
Nsg35
S'OnTouchscreenDeviceConfigurationChanged'
p51
sg37
g1
(g38
g3
NtRp52
(dp53
g10
(lp54
g1
(g42
g3
NtRp55
(dp56
g34
Nsg35
S'devices'
p57
sg15
Nsg19
g20
sg46
S'ui.mojom.TouchscreenDevice[]'
p58
sg16
I19
sbag1
(g42
g3
NtRp59
(dp60
g34
Nsg35
S'touchscreen_target_display_ids_changed'
p61
sg15
Nsg19
g20
sg46
S'bool'
p62
sg16
I20
sbasg16
I19
sg19
g20
sbsg15
Nsg19
Nsg16
Nsg48
Nsbag1
(g31
g3
NtRp63
(dp64
g34
Nsg35
S'OnMouseDeviceConfigurationChanged'
p65
sg37
g1
(g38
g3
NtRp66
(dp67
g10
(lp68
g1
(g42
g3
NtRp69
(dp70
g34
Nsg35
S'devices'
p71
sg15
Nsg19
g20
sg46
S'ui.mojom.InputDevice[]'
p72
sg16
I23
sbasg16
I23
sg19
g20
sbsg15
Nsg19
Nsg16
Nsg48
Nsbag1
(g31
g3
NtRp73
(dp74
g34
Nsg35
S'OnTouchpadDeviceConfigurationChanged'
p75
sg37
g1
(g38
g3
NtRp76
(dp77
g10
(lp78
g1
(g42
g3
NtRp79
(dp80
g34
Nsg35
S'devices'
p81
sg15
Nsg19
g20
sg46
S'ui.mojom.InputDevice[]'
p82
sg16
I26
sbasg16
I26
sg19
g20
sbsg15
Nsg19
Nsg16
Nsg48
Nsbag1
(g31
g3
NtRp83
(dp84
g34
Nsg35
S'OnUncategorizedDeviceConfigurationChanged'
p85
sg37
g1
(g38
g3
NtRp86
(dp87
g10
(lp88
g1
(g42
g3
NtRp89
(dp90
g34
Nsg35
S'devices'
p91
sg15
Nsg19
g20
sg46
S'ui.mojom.InputDevice[]'
p92
sg16
I31
sbasg16
I31
sg19
g20
sbsg15
Nsg19
Nsg16
Nsg48
Nsbag1
(g31
g3
NtRp93
(dp94
g34
Nsg35
S'OnDeviceListsComplete'
p95
sg37
g1
(g38
g3
NtRp96
(dp97
g10
(lp98
g1
(g42
g3
NtRp99
(dp100
g34
Nsg35
S'keyboard_devices'
p101
sg15
Nsg19
g20
sg46
S'ui.mojom.InputDevice[]'
p102
sg16
I36
sbag1
(g42
g3
NtRp103
(dp104
g34
Nsg35
S'touchscreen_devices'
p105
sg15
Nsg19
g20
sg46
S'ui.mojom.TouchscreenDevice[]'
p106
sg16
I37
sbag1
(g42
g3
NtRp107
(dp108
g34
Nsg35
S'mouse_devices'
p109
sg15
Nsg19
g20
sg46
S'ui.mojom.InputDevice[]'
p110
sg16
I38
sbag1
(g42
g3
NtRp111
(dp112
g34
Nsg35
S'touchpad_devices'
p113
sg15
Nsg19
g20
sg46
S'ui.mojom.InputDevice[]'
p114
sg16
I39
sbag1
(g42
g3
NtRp115
(dp116
g34
Nsg35
S'uncategorized_devices'
p117
sg15
Nsg19
g20
sg46
S'ui.mojom.InputDevice[]'
p118
sg16
I40
sbag1
(g42
g3
NtRp119
(dp120
g34
Nsg35
S'are_touchscreen_target_displays_valid'
p121
sg15
Nsg19
g20
sg46
S'bool'
p122
sg16
I41
sbasg16
I36
sg19
g20
sbsg15
Nsg19
Nsg16
Nsg48
Nsbag1
(g31
g3
NtRp123
(dp124
g34
Nsg35
S'OnStylusStateChanged'
p125
sg37
g1
(g38
g3
NtRp126
(dp127
g10
(lp128
g1
(g42
g3
NtRp129
(dp130
g34
Nsg35
S'state'
p131
sg15
Nsg19
g20
sg46
S'ui.mojom.StylusState'
p132
sg16
I44
sbasg16
I44
sg19
g20
sbsg15
Nsg19
Nsg16
Nsg48
Nsbasg16
Nsg19
Nsbsg15
Nsg16
Nsg35
S'InputDeviceObserverMojo'
p133
sg19
Nsbag1
(g23
g3
NtRp134
(dp135
g26
g1
(g27
g3
NtRp136
(dp137
g10
(lp138
g1
(g31
g3
NtRp139
(dp140
g34
Nsg35
S'AddObserver'
p141
sg37
g1
(g38
g3
NtRp142
(dp143
g10
(lp144
g1
(g42
g3
NtRp145
(dp146
g34
Nsg35
S'observer'
p147
sg15
Nsg19
g20
sg46
S'InputDeviceObserverMojo'
p148
sg16
I55
sbasg16
I55
sg19
g20
sbsg15
Nsg19
Nsg16
Nsg48
Nsbasg16
Nsg19
Nsbsg15
Nsg16
Nsg35
S'InputDeviceServer'
p149
sg19
Nsbasg16
NsS'module'
p150
g1
(cmojom.parse.ast
Module
p151
g3
NtRp152
(dp153
S'mojom_namespace'
p154
(S'IDENTIFIER'
p155
S'ws.mojom'
tp156
sg16
I5
sg15
Nsg19
g20
sbsg19
Nsb.