ccopy_reg
_reconstructor
p1
(cmojom.parse.ast
Mojom
p2
c__builtin__
object
p3
NtRp4
(dp5
S'import_list'
p6
g1
(cmojom.parse.ast
ImportList
p7
g3
NtRp8
(dp9
S'items'
p10
(lp11
sS'lineno'
p12
NsS'filename'
p13
NsbsS'definition_list'
p14
(lp15
g1
(cmojom.parse.ast
Const
p16
g3
NtRp17
(dp18
S'mojom_name'
p19
S'kRunOrClosePipeMessageId'
p20
sS'attribute_list'
p21
NsS'value'
p22
S'0xFFFFFFFE'
p23
sg13
NsS'typename'
p24
S'uint32'
p25
sg12
Nsbag1
(cmojom.parse.ast
Struct
p26
g3
NtRp27
(dp28
S'body'
p29
g1
(cmojom.parse.ast
StructBody
p30
g3
NtRp31
(dp32
g10
(lp33
g1
(cmojom.parse.ast
StructField
p34
g3
NtRp35
(dp36
S'ordinal'
p37
NsS'default_value'
p38
Nsg19
S'input'
p39
sg21
Nsg13
Nsg24
S'RunOrClosePipeInput'
p40
sg12
Nsbasg12
Nsg13
Nsbsg21
Nsg12
Nsg19
S'RunOrClosePipeMessageParams'
p41
sg13
Nsbag1
(cmojom.parse.ast
Union
p42
g3
NtRp43
(dp44
g29
g1
(cmojom.parse.ast
UnionBody
p45
g3
NtRp46
(dp47
g10
(lp48
g1
(cmojom.parse.ast
UnionField
p49
g3
NtRp50
(dp51
g37
Nsg19
S'peer_associated_endpoint_closed_event'
p52
sg21
Nsg13
Nsg24
S'PeerAssociatedEndpointClosedEvent'
p53
sg12
Nsbasg12
Nsg13
Nsbsg21
Nsg12
Nsg19
S'RunOrClosePipeInput'
p54
sg13
Nsbag1
(g26
g3
NtRp55
(dp56
g29
g1
(g30
g3
NtRp57
(dp58
g10
(lp59
g1
(g34
g3
NtRp60
(dp61
g37
Nsg38
Nsg19
S'custom_reason'
p62
sg21
Nsg13
Nsg24
S'uint32'
p63
sg12
Nsbag1
(g34
g3
NtRp64
(dp65
g37
Nsg38
Nsg19
S'description'
p66
sg21
Nsg13
Nsg24
S'string'
p67
sg12
Nsbasg12
Nsg13
Nsbsg21
Nsg12
Nsg19
S'DisconnectReason'
p68
sg13
Nsbag1
(g26
g3
NtRp69
(dp70
g29
g1
(g30
g3
NtRp71
(dp72
g10
(lp73
g1
(g34
g3
NtRp74
(dp75
g37
Nsg38
Nsg19
S'id'
p76
sg21
Nsg13
Nsg24
S'uint32'
p77
sg12
Nsbag1
(g34
g3
NtRp78
(dp79
g37
Nsg38
Nsg19
S'disconnect_reason'
p80
sg21
Nsg13
Nsg24
S'DisconnectReason?'
p81
sg12
Nsbasg12
Nsg13
Nsbsg21
Nsg12
Nsg19
S'PeerAssociatedEndpointClosedEvent'
p82
sg13
Nsbasg12
NsS'module'
p83
g1
(cmojom.parse.ast
Module
p84
g3
NtRp85
(dp86
S'mojom_namespace'
p87
(S'IDENTIFIER'
p88
S'mojo.pipe_control'
tp89
sg12
I6
sg21
g1
(cmojom.parse.ast
AttributeList
p90
g3
NtRp91
(dp92
g10
(lp93
g1
(cmojom.parse.ast
Attribute
p94
g3
NtRp95
(dp96
g22
S'org.chromium.mojo.bindings.pipecontrol'
p97
sg12
I5
sS'key'
p98
S'JavaPackage'
p99
sg13
S'../../mojo/public/interfaces/bindings/pipe_control_messages.mojom'
p100
sbasg12
I5
sg13
g100
sbsg13
g100
sbsg13
Nsb.