ccopy_reg
_reconstructor
p1
(cmojom.parse.ast
Mojom
p2
c__builtin__
object
p3
NtRp4
(dp5
S'import_list'
p6
g1
(cmojom.parse.ast
ImportList
p7
g3
NtRp8
(dp9
S'items'
p10
(lp11
g1
(cmojom.parse.ast
Import
p12
g3
NtRp13
(dp14
S'attribute_list'
p15
NsS'lineno'
p16
I7
sS'import_filename'
p17
S'mojo/public/mojom/base/text_direction.mojom'
p18
sS'filename'
p19
S'../../services/ws/public/mojom/ime/ime.mojom'
p20
sbag1
(g12
g3
NtRp21
(dp22
g15
Nsg16
I8
sg17
S'mojo/public/mojom/base/string16.mojom'
p23
sg19
g20
sbag1
(g12
g3
NtRp24
(dp25
g15
Nsg16
I9
sg17
S'ui/base/ime/mojo/ime_types.mojom'
p26
sg19
g20
sbag1
(g12
g3
NtRp27
(dp28
g15
Nsg16
I10
sg17
S'ui/events/mojo/event.mojom'
p29
sg19
g20
sbag1
(g12
g3
NtRp30
(dp31
g15
Nsg16
I11
sg17
S'ui/gfx/geometry/mojo/geometry.mojom'
p32
sg19
g20
sbag1
(g12
g3
NtRp33
(dp34
g15
Nsg16
I12
sg17
S'ui/gfx/range/mojo/range.mojom'
p35
sg19
g20
sbag1
(g12
g3
NtRp36
(dp37
g15
Nsg16
I13
sg17
S'ui/platform_window/mojo/text_input_state.mojom'
p38
sg19
g20
sbasg16
I7
sg19
g20
sbsS'definition_list'
p39
(lp40
g1
(cmojom.parse.ast
Enum
p41
g3
NtRp42
(dp43
g15
NsS'enum_value_list'
p44
g1
(cmojom.parse.ast
EnumValueList
p45
g3
NtRp46
(dp47
g10
(lp48
g1
(cmojom.parse.ast
EnumValue
p49
g3
NtRp50
(dp51
g15
NsS'value'
p52
Nsg16
I18
sS'mojom_name'
p53
S'kCursor'
p54
sg19
g20
sbag1
(g49
g3
NtRp55
(dp56
g15
Nsg52
Nsg16
I21
sg53
S'kComposition'
p57
sg19
g20
sbasg16
I18
sg19
g20
sbsg16
I16
sg53
S'CandidateWindowPosition'
p58
sg19
g20
sbag1
(cmojom.parse.ast
Struct
p59
g3
NtRp60
(dp61
S'body'
p62
g1
(cmojom.parse.ast
StructBody
p63
g3
NtRp64
(dp65
g10
(lp66
g1
(cmojom.parse.ast
StructField
p67
g3
NtRp68
(dp69
S'ordinal'
p70
NsS'default_value'
p71
Nsg53
S'page_size'
p72
sg15
Nsg19
NsS'typename'
p73
S'int32'
p74
sg16
Nsbag1
(g67
g3
NtRp75
(dp76
g70
Nsg71
Nsg53
S'vertical'
p77
sg15
Nsg19
Nsg73
S'bool'
p78
sg16
Nsbag1
(g67
g3
NtRp79
(dp80
g70
Nsg71
Nsg53
S'auxiliary_text'
p81
sg15
Nsg19
Nsg73
S'string'
p82
sg16
Nsbag1
(g67
g3
NtRp83
(dp84
g70
Nsg71
Nsg53
S'auxiliary_text_visible'
p85
sg15
Nsg19
Nsg73
S'bool'
p86
sg16
Nsbag1
(g67
g3
NtRp87
(dp88
g70
Nsg71
Nsg53
S'cursor_position'
p89
sg15
Nsg19
Nsg73
S'int32'
p90
sg16
Nsbag1
(g67
g3
NtRp91
(dp92
g70
Nsg71
Nsg53
S'cursor_visible'
p93
sg15
Nsg19
Nsg73
S'bool'
p94
sg16
Nsbag1
(g67
g3
NtRp95
(dp96
g70
Nsg71
Nsg53
S'window_position'
p97
sg15
Nsg19
Nsg73
S'CandidateWindowPosition'
p98
sg16
Nsbasg16
Nsg19
Nsbsg15
Nsg16
Nsg53
S'CandidateWindowProperties'
p99
sg19
Nsbag1
(g59
g3
NtRp100
(dp101
g62
g1
(g63
g3
NtRp102
(dp103
g10
(lp104
g1
(g67
g3
NtRp105
(dp106
g70
Nsg71
Nsg53
S'value'
p107
sg15
Nsg19
Nsg73
S'mojo_base.mojom.String16'
p108
sg16
Nsbag1
(g67
g3
NtRp109
(dp110
g70
Nsg71
Nsg53
S'label'
p111
sg15
Nsg19
Nsg73
S'mojo_base.mojom.String16'
p112
sg16
Nsbag1
(g67
g3
NtRp113
(dp114
g70
Nsg71
Nsg53
S'annotation'
p115
sg15
Nsg19
Nsg73
S'mojo_base.mojom.String16'
p116
sg16
Nsbag1
(g67
g3
NtRp117
(dp118
g70
Nsg71
Nsg53
S'description_title'
p119
sg15
Nsg19
Nsg73
S'mojo_base.mojom.String16'
p120
sg16
Nsbag1
(g67
g3
NtRp121
(dp122
g70
Nsg71
Nsg53
S'description_body'
p123
sg15
Nsg19
Nsg73
S'mojo_base.mojom.String16'
p124
sg16
Nsbasg16
Nsg19
Nsbsg15
Nsg16
Nsg53
S'CandidateWindowEntry'
p125
sg19
Nsbag1
(g59
g3
NtRp126
(dp127
g62
g1
(g63
g3
NtRp128
(dp129
g10
(lp130
g1
(g67
g3
NtRp131
(dp132
g70
Nsg71
Nsg53
S'text_input_type'
p133
sg15
Nsg19
Nsg73
S'ui.mojom.TextInputType'
p134
sg16
Nsbag1
(g67
g3
NtRp135
(dp136
g70
Nsg71
Nsg53
S'text_input_mode'
p137
sg15
Nsg19
Nsg73
S'ui.mojom.TextInputMode'
p138
sg16
Nsbag1
(g67
g3
NtRp139
(dp140
g70
Nsg71
Nsg53
S'text_direction'
p141
sg15
Nsg19
Nsg73
S'mojo_base.mojom.TextDirection'
p142
sg16
Nsbag1
(g67
g3
NtRp143
(dp144
g70
Nsg71
Nsg53
S'text_input_flags'
p145
sg15
Nsg19
Nsg73
S'int32'
p146
sg16
Nsbasg16
Nsg19
Nsbsg15
Nsg16
Nsg53
S'TextInputState'
p147
sg19
Nsbag1
(g59
g3
NtRp148
(dp149
g62
g1
(g63
g3
NtRp150
(dp151
g10
(lp152
g1
(g67
g3
NtRp153
(dp154
g70
Nsg71
Nsg53
S'text_range'
p155
sg15
Nsg19
Nsg73
S'gfx.mojom.Range?'
p156
sg16
Nsbag1
(g67
g3
NtRp157
(dp158
g70
Nsg71
Nsg53
S'text'
p159
sg15
Nsg19
Nsg73
S'mojo_base.mojom.String16?'
p160
sg16
Nsbag1
(g67
g3
NtRp161
(dp162
g70
Nsg71
Nsg53
S'has_composition_text'
p163
sg15
Nsg19
Nsg73
S'bool'
p164
sg16
Nsbag1
(g67
g3
NtRp165
(dp166
g70
Nsg71
Nsg53
S'composition_text_range'
p167
sg15
Nsg19
Nsg73
S'gfx.mojom.Range?'
p168
sg16
Nsbag1
(g67
g3
NtRp169
(dp170
g70
Nsg71
Nsg53
S'editable_selection_range'
p171
sg15
Nsg19
Nsg73
S'gfx.mojom.Range?'
p172
sg16
Nsbag1
(g67
g3
NtRp173
(dp174
g70
Nsg71
Nsg53
S'edit_command_enabled'
p175
sg15
Nsg19
Nsg73
S'bool[]?'
p176
sg16
Nsbasg16
Nsg19
Nsbsg15
Nsg16
Nsg53
S'TextInputClientData'
p177
sg19
Nsbag1
(g59
g3
NtRp178
(dp179
g62
g1
(g63
g3
NtRp180
(dp181
g10
(lp182
g1
(g67
g3
NtRp183
(dp184
g70
Nsg71
Nsg53
S'state'
p185
sg15
Nsg19
Nsg73
S'TextInputState'
p186
sg16
Nsbag1
(g67
g3
NtRp187
(dp188
g70
Nsg71
Nsg53
S'caret_bounds'
p189
sg15
Nsg19
Nsg73
S'gfx.mojom.Rect'
p190
sg16
Nsbag1
(g67
g3
NtRp191
(dp192
g70
Nsg71
Nsg53
S'data'
p193
sg15
Nsg19
Nsg73
S'TextInputClientData'
p194
sg16
Nsbag1
(g67
g3
NtRp195
(dp196
g70
Nsg71
Nsg53
S'focus_reason'
p197
sg15
Nsg19
Nsg73
S'ui.mojom.FocusReason'
p198
sg16
Nsbag1
(g67
g3
NtRp199
(dp200
g70
Nsg71
Nsg53
S'client_source_for_metrics'
p201
sg15
Nsg19
Nsg73
S'int64'
p202
sg16
Nsbag1
(g67
g3
NtRp203
(dp204
g70
Nsg71
Nsg53
S'should_do_learning'
p205
sg15
Nsg19
Nsg73
S'bool'
p206
sg16
Nsbasg16
Nsg19
Nsbsg15
Nsg16
Nsg53
S'SessionDetails'
p207
sg19
Nsbag1
(cmojom.parse.ast
Interface
p208
g3
NtRp209
(dp210
g62
g1
(cmojom.parse.ast
InterfaceBody
p211
g3
NtRp212
(dp213
g10
(lp214
g1
(cmojom.parse.ast
Method
p215
g3
NtRp216
(dp217
g70
Nsg53
S'StartSession'
p218
sS'parameter_list'
p219
g1
(cmojom.parse.ast
ParameterList
p220
g3
NtRp221
(dp222
g10
(lp223
g1
(cmojom.parse.ast
Parameter
p224
g3
NtRp225
(dp226
g70
Nsg53
S'input_method_request'
p227
sg15
Nsg19
g20
sg73
S'InputMethod&'
p228
sg16
I112
sbag1
(g224
g3
NtRp229
(dp230
g70
Nsg53
S'client'
p231
sg15
Nsg19
g20
sg73
S'TextInputClient'
p232
sg16
I113
sbag1
(g224
g3
NtRp233
(dp234
g70
Nsg53
S'details'
p235
sg15
Nsg19
g20
sg73
S'SessionDetails'
p236
sg16
I114
sbasg16
I112
sg19
g20
sbsg15
Nsg19
Nsg16
NsS'response_parameter_list'
p237
Nsbasg16
Nsg19
Nsbsg15
Nsg16
Nsg53
S'IMEDriver'
p238
sg19
Nsbag1
(g208
g3
NtRp239
(dp240
g62
g1
(g211
g3
NtRp241
(dp242
g10
(lp243
g1
(g215
g3
NtRp244
(dp245
g70
Nsg53
S'RegisterDriver'
p246
sg219
g1
(g220
g3
NtRp247
(dp248
g10
(lp249
g1
(g224
g3
NtRp250
(dp251
g70
Nsg53
S'driver'
p252
sg15
Nsg19
g20
sg73
S'IMEDriver'
p253
sg16
I120
sbasg16
I120
sg19
g20
sbsg15
Nsg19
Nsg16
Nsg237
Nsbasg16
Nsg19
Nsbsg15
Nsg16
Nsg53
S'IMERegistrar'
p254
sg19
Nsbag1
(g208
g3
NtRp255
(dp256
g62
g1
(g211
g3
NtRp257
(dp258
g10
(lp259
g1
(g215
g3
NtRp260
(dp261
g70
Nsg53
S'OnTextInputStateChanged'
p262
sg219
g1
(g220
g3
NtRp263
(dp264
g10
(lp265
g1
(g224
g3
NtRp266
(dp267
g70
Nsg53
S'text_input_state'
p268
sg15
Nsg19
g20
sg73
S'TextInputState'
p269
sg16
I128
sbasg16
I128
sg19
g20
sbsg15
Nsg19
Nsg16
Nsg237
Nsbag1
(g215
g3
NtRp270
(dp271
g70
Nsg53
S'OnCaretBoundsChanged'
p272
sg219
g1
(g220
g3
NtRp273
(dp274
g10
(lp275
g1
(g224
g3
NtRp276
(dp277
g70
Nsg53
S'caret_bounds'
p278
sg15
Nsg19
g20
sg73
S'gfx.mojom.Rect'
p279
sg16
I132
sbasg16
I132
sg19
g20
sbsg15
Nsg19
Nsg16
Nsg237
Nsbag1
(g215
g3
NtRp280
(dp281
g70
Nsg53
S'OnTextInputClientDataChanged'
p282
sg219
g1
(g220
g3
NtRp283
(dp284
g10
(lp285
g1
(g224
g3
NtRp286
(dp287
g70
Nsg53
S'data'
p288
sg15
Nsg19
g20
sg73
S'TextInputClientData'
p289
sg16
I135
sbasg16
I135
sg19
g20
sbsg15
Nsg19
Nsg16
Nsg237
Nsbag1
(g215
g3
NtRp290
(dp291
g70
Nsg53
S'ProcessKeyEvent'
p292
sg219
g1
(g220
g3
NtRp293
(dp294
g10
(lp295
g1
(g224
g3
NtRp296
(dp297
g70
Nsg53
S'key_event'
p298
sg15
Nsg19
g20
sg73
S'ui.mojom.Event'
p299
sg16
I141
sbasg16
I141
sg19
g20
sbsg15
Nsg19
Nsg16
Nsg237
g1
(g220
g3
NtRp300
(dp301
g10
(lp302
g1
(g224
g3
NtRp303
(dp304
g70
Nsg53
S'handled'
p305
sg15
Nsg19
g20
sg73
S'bool'
p306
sg16
I141
sbasg16
I141
sg19
g20
sbsbag1
(g215
g3
NtRp307
(dp308
g70
Nsg53
S'CancelComposition'
p309
sg219
g1
(g220
g3
NtRp310
(dp311
g10
(lp312
sg16
Nsg19
Nsbsg15
Nsg19
Nsg16
Nsg237
Nsbag1
(g215
g3
NtRp313
(dp314
g70
Nsg53
S'ShowVirtualKeyboardIfEnabled'
p315
sg219
g1
(g220
g3
NtRp316
(dp317
g10
(lp318
sg16
Nsg19
Nsbsg15
Nsg19
Nsg16
Nsg237
Nsbasg16
Nsg19
Nsbsg15
Nsg16
Nsg53
S'InputMethod'
p319
sg19
Nsbag1
(g208
g3
NtRp320
(dp321
g62
g1
(g211
g3
NtRp322
(dp323
g10
(lp324
g1
(g215
g3
NtRp325
(dp326
g70
Nsg53
S'SetCompositionText'
p327
sg219
g1
(g220
g3
NtRp328
(dp329
g10
(lp330
g1
(g224
g3
NtRp331
(dp332
g70
Nsg53
S'composition'
p333
sg15
Nsg19
g20
sg73
S'ui.mojom.CompositionText'
p334
sg16
I157
sbasg16
I157
sg19
g20
sbsg15
Nsg19
Nsg16
Nsg237
Nsbag1
(g215
g3
NtRp335
(dp336
g70
Nsg53
S'ConfirmCompositionText'
p337
sg219
g1
(g220
g3
NtRp338
(dp339
g10
(lp340
sg16
Nsg19
Nsbsg15
Nsg19
Nsg16
Nsg237
Nsbag1
(g215
g3
NtRp341
(dp342
g70
Nsg53
S'ClearCompositionText'
p343
sg219
g1
(g220
g3
NtRp344
(dp345
g10
(lp346
sg16
Nsg19
Nsbsg15
Nsg19
Nsg16
Nsg237
Nsbag1
(g215
g3
NtRp347
(dp348
g70
Nsg53
S'InsertText'
p349
sg219
g1
(g220
g3
NtRp350
(dp351
g10
(lp352
g1
(g224
g3
NtRp353
(dp354
g70
Nsg53
S'text'
p355
sg15
Nsg19
g20
sg73
S'mojo_base.mojom.String16'
p356
sg16
I168
sbasg16
I168
sg19
g20
sbsg15
Nsg19
Nsg16
Nsg237
Nsbag1
(g215
g3
NtRp357
(dp358
g70
Nsg53
S'InsertChar'
p359
sg219
g1
(g220
g3
NtRp360
(dp361
g10
(lp362
g1
(g224
g3
NtRp363
(dp364
g70
Nsg53
S'event'
p365
sg15
Nsg19
g20
sg73
S'ui.mojom.Event'
p366
sg16
I173
sbasg16
I173
sg19
g20
sbsg15
Nsg19
Nsg16
Nsg237
Nsbag1
(g215
g3
NtRp367
(dp368
g70
Nsg53
S'DispatchKeyEventPostIME'
p369
sg219
g1
(g220
g3
NtRp370
(dp371
g10
(lp372
g1
(g224
g3
NtRp373
(dp374
g70
Nsg53
S'event'
p375
sg15
Nsg19
g20
sg73
S'ui.mojom.Event'
p376
sg16
I179
sbasg16
I179
sg19
g20
sbsg15
Nsg19
Nsg16
Nsg237
g1
(g220
g3
NtRp377
(dp378
g10
(lp379
g1
(g224
g3
NtRp380
(dp381
g70
Nsg53
S'handled'
p382
sg15
Nsg19
g20
sg73
S'bool'
p383
sg16
I180
sbag1
(g224
g3
NtRp384
(dp385
g70
Nsg53
S'stopped_propagation'
p386
sg15
Nsg19
g20
sg73
S'bool'
p387
sg16
I181
sbasg16
I180
sg19
g20
sbsbag1
(g215
g3
NtRp388
(dp389
g70
Nsg53
S'EnsureCaretNotInRect'
p390
sg219
g1
(g220
g3
NtRp391
(dp392
g10
(lp393
g1
(g224
g3
NtRp394
(dp395
g70
Nsg53
S'rect'
p396
sg15
Nsg19
g20
sg73
S'gfx.mojom.Rect'
p397
sg16
I185
sbasg16
I185
sg19
g20
sbsg15
Nsg19
Nsg16
Nsg237
Nsbag1
(g215
g3
NtRp398
(dp399
g70
Nsg53
S'SetEditableSelectionRange'
p400
sg219
g1
(g220
g3
NtRp401
(dp402
g10
(lp403
g1
(g224
g3
NtRp404
(dp405
g70
Nsg53
S'range'
p406
sg15
Nsg19
g20
sg73
S'gfx.mojom.Range'
p407
sg16
I189
sbasg16
I189
sg19
g20
sbsg15
Nsg19
Nsg16
Nsg237
Nsbag1
(g215
g3
NtRp408
(dp409
g70
Nsg53
S'DeleteRange'
p410
sg219
g1
(g220
g3
NtRp411
(dp412
g10
(lp413
g1
(g224
g3
NtRp414
(dp415
g70
Nsg53
S'range'
p416
sg15
Nsg19
g20
sg73
S'gfx.mojom.Range'
p417
sg16
I193
sbasg16
I193
sg19
g20
sbsg15
Nsg19
Nsg16
Nsg237
Nsbag1
(g215
g3
NtRp418
(dp419
g70
Nsg53
S'OnInputMethodChanged'
p420
sg219
g1
(g220
g3
NtRp421
(dp422
g10
(lp423
sg16
Nsg19
Nsbsg15
Nsg19
Nsg16
Nsg237
Nsbag1
(g215
g3
NtRp424
(dp425
g70
Nsg53
S'ChangeTextDirectionAndLayoutAlignment'
p426
sg219
g1
(g220
g3
NtRp427
(dp428
g10
(lp429
g1
(g224
g3
NtRp430
(dp431
g70
Nsg53
S'direction'
p432
sg15
Nsg19
g20
sg73
S'mojo_base.mojom.TextDirection'
p433
sg16
I201
sbasg16
I201
sg19
g20
sbsg15
Nsg19
Nsg16
Nsg237
Nsbag1
(g215
g3
NtRp434
(dp435
g70
Nsg53
S'ExtendSelectionAndDelete'
p436
sg219
g1
(g220
g3
NtRp437
(dp438
g10
(lp439
g1
(g224
g3
NtRp440
(dp441
g70
Nsg53
S'before'
p442
sg15
Nsg19
g20
sg73
S'uint32'
p443
sg16
I205
sbag1
(g224
g3
NtRp444
(dp445
g70
Nsg53
S'after'
p446
sg15
Nsg19
g20
sg73
S'uint32'
p447
sg16
I205
sbasg16
I205
sg19
g20
sbsg15
Nsg19
Nsg16
Nsg237
Nsbasg16
Nsg19
Nsbsg15
Nsg16
Nsg53
S'TextInputClient'
p448
sg19
Nsbasg16
NsS'module'
p449
g1
(cmojom.parse.ast
Module
p450
g3
NtRp451
(dp452
S'mojom_namespace'
p453
(S'IDENTIFIER'
p454
S'ws.mojom'
tp455
sg16
I5
sg15
Nsg19
g20
sbsg19
Nsb.