ccopy_reg
_reconstructor
p1
(cmojom.parse.ast
Mojom
p2
c__builtin__
object
p3
NtRp4
(dp5
S'import_list'
p6
g1
(cmojom.parse.ast
ImportList
p7
g3
NtRp8
(dp9
S'items'
p10
(lp11
g1
(cmojom.parse.ast
Import
p12
g3
NtRp13
(dp14
S'attribute_list'
p15
NsS'lineno'
p16
I7
sS'import_filename'
p17
S'device/vr/public/mojom/vr_service.mojom'
p18
sS'filename'
p19
S'../../device/vr/public/mojom/isolated_xr_service.mojom'
p20
sbag1
(g12
g3
NtRp21
(dp22
g15
Nsg16
I8
sg17
S'mojo/public/mojom/base/time.mojom'
p23
sg19
g20
sbag1
(g12
g3
NtRp24
(dp25
g15
Nsg16
I9
sg17
S'ui/gfx/geometry/mojo/geometry.mojom'
p26
sg19
g20
sbasg16
I7
sg19
g20
sbsS'definition_list'
p27
(lp28
g1
(cmojom.parse.ast
Const
p29
g3
NtRp30
(dp31
S'mojom_name'
p32
S'kVrIsolatedServiceName'
p33
sg15
NsS'value'
p34
S'"xr_device_service"'
p35
sg19
NsS'typename'
p36
S'string'
p37
sg16
Nsbag1
(cmojom.parse.ast
Interface
p38
g3
NtRp39
(dp40
S'body'
p41
g1
(cmojom.parse.ast
InterfaceBody
p42
g3
NtRp43
(dp44
g10
(lp45
g1
(cmojom.parse.ast
Method
p46
g3
NtRp47
(dp48
S'ordinal'
p49
Nsg32
S'SetFrameDataRestricted'
p50
sS'parameter_list'
p51
g1
(cmojom.parse.ast
ParameterList
p52
g3
NtRp53
(dp54
g10
(lp55
g1
(cmojom.parse.ast
Parameter
p56
g3
NtRp57
(dp58
g49
Nsg32
S'restricted'
p59
sg15
Nsg19
g20
sg36
S'bool'
p60
sg16
I22
sbasg16
I22
sg19
g20
sbsg15
Nsg19
Nsg16
NsS'response_parameter_list'
p61
Nsbasg16
Nsg19
Nsbsg15
Nsg16
Nsg32
S'XRSessionController'
p62
sg19
Nsbag1
(g38
g3
NtRp63
(dp64
g41
g1
(g42
g3
NtRp65
(dp66
g10
(lp67
g1
(g46
g3
NtRp68
(dp69
g49
Nsg32
S'OnDisplayInfoChanged'
p70
sg51
g1
(g52
g3
NtRp71
(dp72
g10
(lp73
g1
(g56
g3
NtRp74
(dp75
g49
Nsg32
S'display_info'
p76
sg15
Nsg19
g20
sg36
S'device.mojom.VRDisplayInfo'
p77
sg16
I29
sbasg16
I29
sg19
g20
sbsg15
Nsg19
Nsg16
Nsg61
Nsbag1
(g46
g3
NtRp78
(dp79
g49
Nsg32
S'OnDeviceActivated'
p80
sg51
g1
(g52
g3
NtRp81
(dp82
g10
(lp83
g1
(g56
g3
NtRp84
(dp85
g49
Nsg32
S'reason'
p86
sg15
Nsg19
g20
sg36
S'device.mojom.VRDisplayEventReason'
p87
sg16
I32
sbasg16
I32
sg19
g20
sbsg15
Nsg19
Nsg16
Nsg61
g1
(g52
g3
NtRp88
(dp89
g10
(lp90
g1
(g56
g3
NtRp91
(dp92
g49
Nsg32
S'will_not_present'
p93
sg15
Nsg19
g20
sg36
S'bool'
p94
sg16
I33
sbasg16
I33
sg19
g20
sbsbag1
(g46
g3
NtRp95
(dp96
g49
Nsg32
S'OnDeviceIdle'
p97
sg51
g1
(g52
g3
NtRp98
(dp99
g10
(lp100
g1
(g56
g3
NtRp101
(dp102
g49
Nsg32
S'reason'
p103
sg15
Nsg19
g20
sg36
S'device.mojom.VRDisplayEventReason'
p104
sg16
I36
sbasg16
I36
sg19
g20
sbsg15
Nsg19
Nsg16
Nsg61
Nsbag1
(g46
g3
NtRp105
(dp106
g49
Nsg32
S'OnExitPresent'
p107
sg51
g1
(g52
g3
NtRp108
(dp109
g10
(lp110
sg16
Nsg19
Nsbsg15
Nsg19
Nsg16
Nsg61
Nsbasg16
Nsg19
Nsbsg15
Nsg16
Nsg32
S'XRRuntimeEventListener'
p111
sg19
Nsbag1
(cmojom.parse.ast
Struct
p112
g3
NtRp113
(dp114
g41
g1
(cmojom.parse.ast
StructBody
p115
g3
NtRp116
(dp117
g10
(lp118
g1
(cmojom.parse.ast
StructField
p119
g3
NtRp120
(dp121
g49
NsS'default_value'
p122
Nsg32
S'immersive'
p123
sg15
Nsg19
Nsg36
S'bool'
p124
sg16
Nsbag1
(g119
g3
NtRp125
(dp126
g49
Nsg122
Nsg32
S'environment_integration'
p127
sg15
Nsg19
Nsg36
S'bool'
p128
sg16
Nsbag1
(g119
g3
NtRp129
(dp130
g49
Nsg122
Nsg32
S'render_process_id'
p131
sg15
Nsg19
Nsg36
S'int32'
p132
sg16
Nsbag1
(g119
g3
NtRp133
(dp134
g49
Nsg122
Nsg32
S'render_frame_id'
p135
sg15
Nsg19
Nsg36
S'int32'
p136
sg16
Nsbag1
(g119
g3
NtRp137
(dp138
g49
Nsg122
Nsg32
S'use_legacy_webvr_render_path'
p139
sg15
Nsg19
Nsg36
S'bool'
p140
sg16
Nsbasg16
Nsg19
Nsbsg15
Nsg16
Nsg32
S'XRRuntimeSessionOptions'
p141
sg19
Nsbag1
(g38
g3
NtRp142
(dp143
g41
g1
(g42
g3
NtRp144
(dp145
g10
(lp146
g1
(g46
g3
NtRp147
(dp148
g49
Nsg32
S'RequestSession'
p149
sg51
g1
(g52
g3
NtRp150
(dp151
g10
(lp152
g1
(g56
g3
NtRp153
(dp154
g49
Nsg32
S'options'
p155
sg15
Nsg19
g20
sg36
S'XRRuntimeSessionOptions'
p156
sg16
I66
sbasg16
I66
sg19
g20
sbsg15
Nsg19
Nsg16
Nsg61
g1
(g52
g3
NtRp157
(dp158
g10
(lp159
g1
(g56
g3
NtRp160
(dp161
g49
Nsg32
S'session'
p162
sg15
Nsg19
g20
sg36
S'XRSession?'
p163
sg16
I67
sbag1
(g56
g3
NtRp164
(dp165
g49
Nsg32
S'controller'
p166
sg15
Nsg19
g20
sg36
S'XRSessionController?'
p167
sg16
I68
sbasg16
I67
sg19
g20
sbsbag1
(g46
g3
NtRp168
(dp169
g49
Nsg32
S'ListenToDeviceChanges'
p170
sg51
g1
(g52
g3
NtRp171
(dp172
g10
(lp173
g1
(g56
g3
NtRp174
(dp175
g49
Nsg32
S'listener'
p176
sg15
Nsg19
g20
sg36
S'asso<XRRuntimeEventListener>'
p177
sg16
I72
sbasg16
I72
sg19
g20
sbsg15
Nsg19
Nsg16
Nsg61
g1
(g52
g3
NtRp178
(dp179
g10
(lp180
g1
(g56
g3
NtRp181
(dp182
g49
Nsg32
S'display_info'
p183
sg15
Nsg19
g20
sg36
S'VRDisplayInfo?'
p184
sg16
I73
sbasg16
I73
sg19
g20
sbsbag1
(g46
g3
NtRp185
(dp186
g49
Nsg32
S'EnsureInitialized'
p187
sg51
g1
(g52
g3
NtRp188
(dp189
g10
(lp190
g1
(g56
g3
NtRp191
(dp192
g49
Nsg32
S'render_process_id'
p193
sg15
Nsg19
g20
sg36
S'int32'
p194
sg16
I82
sbag1
(g56
g3
NtRp195
(dp196
g49
Nsg32
S'render_frame_id'
p197
sg15
Nsg19
g20
sg36
S'int32'
p198
sg16
I82
sbasg16
I82
sg19
g20
sbsg15
Nsg19
Nsg16
Nsg61
g1
(g52
g3
NtRp199
(dp200
g10
(lp201
sg16
Nsg19
Nsbsbag1
(g46
g3
NtRp202
(dp203
g49
Nsg32
S'SetListeningForActivate'
p204
sg51
g1
(g52
g3
NtRp205
(dp206
g10
(lp207
g1
(g56
g3
NtRp208
(dp209
g49
Nsg32
S'listen_for_activation'
p210
sg15
Nsg19
g20
sg36
S'bool'
p211
sg16
I84
sbasg16
I84
sg19
g20
sbsg15
Nsg19
Nsg16
Nsg61
Nsbag1
(g46
g3
NtRp212
(dp213
g49
Nsg32
S'SetInlinePosesEnabled'
p214
sg51
g1
(g52
g3
NtRp215
(dp216
g10
(lp217
g1
(g56
g3
NtRp218
(dp219
g49
Nsg32
S'enable'
p220
sg15
Nsg19
g20
sg36
S'bool'
p221
sg16
I86
sbasg16
I86
sg19
g20
sbsg15
Nsg19
Nsg16
Nsg61
Nsbasg16
Nsg19
Nsbsg15
Nsg16
Nsg32
S'XRRuntime'
p222
sg19
Nsbag1
(g112
g3
NtRp223
(dp224
g41
g1
(g115
g3
NtRp225
(dp226
g10
(lp227
g1
(g119
g3
NtRp228
(dp229
g49
Nsg122
Nsg32
S'pressed'
p230
sg15
Nsg19
Nsg36
S'bool'
p231
sg16
Nsbag1
(g119
g3
NtRp232
(dp233
g49
Nsg122
Nsg32
S'touched'
p234
sg15
Nsg19
Nsg36
S'bool'
p235
sg16
Nsbag1
(g119
g3
NtRp236
(dp237
g49
Nsg122
Nsg32
S'value'
p238
sg15
Nsg19
Nsg36
S'double'
p239
sg16
Nsbasg16
Nsg19
Nsbsg15
Nsg16
Nsg32
S'XRGamepadButton'
p240
sg19
Nsbag1
(g112
g3
NtRp241
(dp242
g41
g1
(g115
g3
NtRp243
(dp244
g10
(lp245
g1
(g119
g3
NtRp246
(dp247
g49
Nsg122
Nsg32
S'can_provide_orientation'
p248
sg15
Nsg19
Nsg36
S'bool'
p249
sg16
Nsbag1
(g119
g3
NtRp250
(dp251
g49
Nsg122
Nsg32
S'can_provide_position'
p252
sg15
Nsg19
Nsg36
S'bool'
p253
sg16
Nsbag1
(g119
g3
NtRp254
(dp255
g49
Nsg122
Nsg32
S'axes'
p256
sg15
Nsg19
Nsg36
S'double[]'
p257
sg16
Nsbag1
(g119
g3
NtRp258
(dp259
g49
Nsg122
Nsg32
S'buttons'
p260
sg15
Nsg19
Nsg36
S'XRGamepadButton[]'
p261
sg16
Nsbag1
(g119
g3
NtRp262
(dp263
g49
Nsg122
Nsg32
S'pose'
p264
sg15
Nsg19
Nsg36
S'VRPose?'
p265
sg16
Nsbag1
(g119
g3
NtRp266
(dp267
g49
Nsg122
Nsg32
S'hand'
p268
sg15
Nsg19
Nsg36
S'XRHandedness'
p269
sg16
Nsbag1
(g119
g3
NtRp270
(dp271
g49
Nsg122
Nsg32
S'controller_id'
p272
sg15
Nsg19
Nsg36
S'uint32'
p273
sg16
Nsbag1
(g119
g3
NtRp274
(dp275
g49
Nsg122
Nsg32
S'timestamp'
p276
sg15
Nsg19
Nsg36
S'mojo_base.mojom.TimeTicks'
p277
sg16
Nsbasg16
Nsg19
Nsbsg15
Nsg16
Nsg32
S'XRGamepad'
p278
sg19
Nsbag1
(g112
g3
NtRp279
(dp280
g41
g1
(g115
g3
NtRp281
(dp282
g10
(lp283
g1
(g119
g3
NtRp284
(dp285
g49
Nsg122
Nsg32
S'gamepads'
p286
sg15
Nsg19
Nsg36
S'XRGamepad[]'
p287
sg16
Nsbasg16
Nsg19
Nsbsg15
Nsg16
Nsg32
S'XRGamepadData'
p288
sg19
Nsbag1
(g38
g3
NtRp289
(dp290
g41
g1
(g42
g3
NtRp291
(dp292
g10
(lp293
g1
(g46
g3
NtRp294
(dp295
g49
Nsg32
S'RequestUpdate'
p296
sg51
g1
(g52
g3
NtRp297
(dp298
g10
(lp299
sg16
Nsg19
Nsbsg15
Nsg19
Nsg16
Nsg61
g1
(g52
g3
NtRp300
(dp301
g10
(lp302
g1
(g56
g3
NtRp303
(dp304
g49
Nsg32
S'data'
p305
sg15
Nsg19
g20
sg36
S'XRGamepadData?'
p306
sg16
I135
sbasg16
I135
sg19
g20
sbsbasg16
Nsg19
Nsbsg15
Nsg16
Nsg32
S'IsolatedXRGamepadProvider'
p307
sg19
Nsbag1
(g38
g3
NtRp308
(dp309
g41
g1
(g42
g3
NtRp310
(dp311
g10
(lp312
g1
(g46
g3
NtRp313
(dp314
g49
Nsg32
S'GetIsolatedXRGamepadProvider'
p315
sg51
g1
(g52
g3
NtRp316
(dp317
g10
(lp318
g1
(g56
g3
NtRp319
(dp320
g49
Nsg32
S'provider'
p321
sg15
Nsg19
g20
sg36
S'IsolatedXRGamepadProvider&'
p322
sg16
I148
sbasg16
I148
sg19
g20
sbsg15
Nsg19
Nsg16
Nsg61
Nsbasg16
Nsg19
Nsbsg15
Nsg16
Nsg32
S'IsolatedXRGamepadProviderFactory'
p323
sg19
Nsbag1
(g38
g3
NtRp324
(dp325
g41
g1
(g42
g3
NtRp326
(dp327
g10
(lp328
g1
(g46
g3
NtRp329
(dp330
g49
Nsg32
S'RequestNextOverlayPose'
p331
sg51
g1
(g52
g3
NtRp332
(dp333
g10
(lp334
sg16
Nsg19
Nsbsg15
Nsg19
Nsg16
Nsg61
g1
(g52
g3
NtRp335
(dp336
g10
(lp337
g1
(g56
g3
NtRp338
(dp339
g49
Nsg32
S'pose'
p340
sg15
Nsg19
g20
sg36
S'device.mojom.XRFrameData'
p341
sg16
I157
sbasg16
I157
sg19
g20
sbsbag1
(g46
g3
NtRp342
(dp343
g49
Nsg32
S'SubmitOverlayTexture'
p344
sg51
g1
(g52
g3
NtRp345
(dp346
g10
(lp347
g1
(g56
g3
NtRp348
(dp349
g49
Nsg32
S'frame_id'
p350
sg15
Nsg19
g20
sg36
S'int16'
p351
sg16
I161
sbag1
(g56
g3
NtRp352
(dp353
g49
Nsg32
S'texture'
p354
sg15
Nsg19
g20
sg36
S'handle'
p355
sg16
I161
sbag1
(g56
g3
NtRp356
(dp357
g49
Nsg32
S'left_bounds'
p358
sg15
Nsg19
g20
sg36
S'gfx.mojom.RectF'
p359
sg16
I162
sbag1
(g56
g3
NtRp360
(dp361
g49
Nsg32
S'right_bounds'
p362
sg15
Nsg19
g20
sg36
S'gfx.mojom.RectF'
p363
sg16
I162
sbasg16
I161
sg19
g20
sbsg15
Nsg19
Nsg16
Nsg61
g1
(g52
g3
NtRp364
(dp365
g10
(lp366
g1
(g56
g3
NtRp367
(dp368
g49
Nsg32
S'success'
p369
sg15
Nsg19
g20
sg36
S'bool'
p370
sg16
I163
sbasg16
I163
sg19
g20
sbsbag1
(g46
g3
NtRp371
(dp372
g49
Nsg32
S'SetOverlayAndWebXRVisibility'
p373
sg51
g1
(g52
g3
NtRp374
(dp375
g10
(lp376
g1
(g56
g3
NtRp377
(dp378
g49
Nsg32
S'overlay_visible'
p379
sg15
Nsg19
g20
sg36
S'bool'
p380
sg16
I166
sbag1
(g56
g3
NtRp381
(dp382
g49
Nsg32
S'webxr_visible'
p383
sg15
Nsg19
g20
sg36
S'bool'
p384
sg16
I166
sbasg16
I166
sg19
g20
sbsg15
Nsg19
Nsg16
Nsg61
Nsbag1
(g46
g3
NtRp385
(dp386
g49
Nsg32
S'RequestNotificationOnWebXrSubmitted'
p387
sg51
g1
(g52
g3
NtRp388
(dp389
g10
(lp390
sg16
Nsg19
Nsbsg15
Nsg19
Nsg16
Nsg61
g1
(g52
g3
NtRp391
(dp392
g10
(lp393
sg16
Nsg19
Nsbsbasg16
Nsg19
Nsbsg15
Nsg16
Nsg32
S'ImmersiveOverlay'
p394
sg19
Nsbag1
(g38
g3
NtRp395
(dp396
g41
g1
(g42
g3
NtRp397
(dp398
g10
(lp399
g1
(g46
g3
NtRp400
(dp401
g49
Nsg32
S'CreateImmersiveOverlay'
p402
sg51
g1
(g52
g3
NtRp403
(dp404
g10
(lp405
g1
(g56
g3
NtRp406
(dp407
g49
Nsg32
S'overlay'
p408
sg15
Nsg19
g20
sg36
S'ImmersiveOverlay&'
p409
sg16
I182
sbasg16
I182
sg19
g20
sbsg15
Nsg19
Nsg16
Nsg61
Nsbasg16
Nsg19
Nsbsg15
Nsg16
Nsg32
S'XRCompositorHost'
p410
sg19
Nsbag1
(g38
g3
NtRp411
(dp412
g41
g1
(g42
g3
NtRp413
(dp414
g10
(lp415
g1
(g46
g3
NtRp416
(dp417
g49
Nsg32
S'OnDeviceAdded'
p418
sg51
g1
(g52
g3
NtRp419
(dp420
g10
(lp421
g1
(g56
g3
NtRp422
(dp423
g49
Nsg32
S'runtime'
p424
sg15
Nsg19
g20
sg36
S'XRRuntime'
p425
sg16
I191
sbag1
(g56
g3
NtRp426
(dp427
g49
Nsg32
S'gamepad_factory'
p428
sg15
Nsg19
g20
sg36
S'IsolatedXRGamepadProviderFactory'
p429
sg16
I192
sbag1
(g56
g3
NtRp430
(dp431
g49
Nsg32
S'compositor_host'
p432
sg15
Nsg19
g20
sg36
S'XRCompositorHost'
p433
sg16
I193
sbag1
(g56
g3
NtRp434
(dp435
g49
Nsg32
S'device_id'
p436
sg15
Nsg19
g20
sg36
S'device.mojom.XRDeviceId'
p437
sg16
I194
sbasg16
I191
sg19
g20
sbsg15
Nsg19
Nsg16
Nsg61
Nsbag1
(g46
g3
NtRp438
(dp439
g49
Nsg32
S'OnDeviceRemoved'
p440
sg51
g1
(g52
g3
NtRp441
(dp442
g10
(lp443
g1
(g56
g3
NtRp444
(dp445
g49
Nsg32
S'device_index'
p446
sg15
Nsg19
g20
sg36
S'device.mojom.XRDeviceId'
p447
sg16
I200
sbasg16
I200
sg19
g20
sbsg15
Nsg19
Nsg16
Nsg61
Nsbag1
(g46
g3
NtRp448
(dp449
g49
Nsg32
S'OnDevicesEnumerated'
p450
sg51
g1
(g52
g3
NtRp451
(dp452
g10
(lp453
sg16
Nsg19
Nsbsg15
Nsg19
Nsg16
Nsg61
Nsbasg16
Nsg19
Nsbsg15
Nsg16
Nsg32
S'IsolatedXRRuntimeProviderClient'
p454
sg19
Nsbag1
(g38
g3
NtRp455
(dp456
g41
g1
(g42
g3
NtRp457
(dp458
g10
(lp459
g1
(g46
g3
NtRp460
(dp461
g49
Nsg32
S'RequestDevices'
p462
sg51
g1
(g52
g3
NtRp463
(dp464
g10
(lp465
g1
(g56
g3
NtRp466
(dp467
g49
Nsg32
S'client'
p468
sg15
Nsg19
g20
sg36
S'IsolatedXRRuntimeProviderClient'
p469
sg16
I214
sbasg16
I214
sg19
g20
sbsg15
Nsg19
Nsg16
Nsg61
Nsbasg16
Nsg19
Nsbsg15
Nsg16
Nsg32
S'IsolatedXRRuntimeProvider'
p470
sg19
Nsbasg16
NsS'module'
p471
g1
(cmojom.parse.ast
Module
p472
g3
NtRp473
(dp474
S'mojom_namespace'
p475
(S'IDENTIFIER'
p476
S'device.mojom'
tp477
sg16
I5
sg15
Nsg19
g20
sbsg19
Nsb.