ccopy_reg
_reconstructor
p1
(cmojom.parse.ast
Mojom
p2
c__builtin__
object
p3
NtRp4
(dp5
S'import_list'
p6
g1
(cmojom.parse.ast
ImportList
p7
g3
NtRp8
(dp9
S'items'
p10
(lp11
g1
(cmojom.parse.ast
Import
p12
g3
NtRp13
(dp14
S'attribute_list'
p15
NsS'lineno'
p16
I7
sS'import_filename'
p17
S'device/gamepad/public/mojom/gamepad.mojom'
p18
sS'filename'
p19
S'../../device/vr/public/mojom/vr_service.mojom'
p20
sbag1
(g12
g3
NtRp21
(dp22
g15
Nsg16
I8
sg17
S'mojo/public/mojom/base/time.mojom'
p23
sg19
g20
sbag1
(g12
g3
NtRp24
(dp25
g15
Nsg16
I9
sg17
S'gpu/ipc/common/mailbox_holder.mojom'
p26
sg19
g20
sbag1
(g12
g3
NtRp27
(dp28
g15
Nsg16
I10
sg17
S'gpu/ipc/common/sync_token.mojom'
p29
sg19
g20
sbag1
(g12
g3
NtRp30
(dp31
g15
Nsg16
I11
sg17
S'ui/display/mojo/display.mojom'
p32
sg19
g20
sbag1
(g12
g3
NtRp33
(dp34
g15
Nsg16
I12
sg17
S'ui/gfx/geometry/mojo/geometry.mojom'
p35
sg19
g20
sbag1
(g12
g3
NtRp36
(dp37
g15
Nsg16
I13
sg17
S'ui/gfx/mojo/gpu_fence_handle.mojom'
p38
sg19
g20
sbag1
(g12
g3
NtRp39
(dp40
g15
Nsg16
I14
sg17
S'ui/gfx/mojo/transform.mojom'
p41
sg19
g20
sbasg16
I7
sg19
g20
sbsS'definition_list'
p42
(lp43
g1
(cmojom.parse.ast
Enum
p44
g3
NtRp45
(dp46
g15
NsS'enum_value_list'
p47
g1
(cmojom.parse.ast
EnumValueList
p48
g3
NtRp49
(dp50
g10
(lp51
g1
(cmojom.parse.ast
EnumValue
p52
g3
NtRp53
(dp54
g15
NsS'value'
p55
S'0'
sg16
I23
sS'mojom_name'
p56
S'LAYOUT_TEST_DEVICE_ID'
p57
sg19
g20
sbag1
(g52
g3
NtRp58
(dp59
g15
Nsg55
S'1'
sg16
I24
sg56
S'GVR_DEVICE_ID'
p60
sg19
g20
sbag1
(g52
g3
NtRp61
(dp62
g15
Nsg55
S'4'
sg16
I27
sg56
S'ARCORE_DEVICE_ID'
p63
sg19
g20
sbag1
(g52
g3
NtRp64
(dp65
g15
Nsg55
S'5'
sg16
I28
sg56
S'ORIENTATION_DEVICE_ID'
p66
sg19
g20
sbag1
(g52
g3
NtRp67
(dp68
g15
Nsg55
S'6'
sg16
I29
sg56
S'FAKE_DEVICE_ID'
p69
sg19
g20
sbasg16
I23
sg19
g20
sbsg16
I22
sg56
S'XRDeviceId'
p70
sg19
g20
sbag1
(g44
g3
NtRp71
(dp72
g15
Nsg47
g1
(g48
g3
NtRp73
(dp74
g10
(lp75
g1
(g52
g3
NtRp76
(dp77
g15
Nsg55
S'0'
sg16
I34
sg56
S'NONE'
p78
sg19
g20
sbag1
(g52
g3
NtRp79
(dp80
g15
Nsg55
S'1'
sg16
I35
sg56
S'LEFT'
p81
sg19
g20
sbag1
(g52
g3
NtRp82
(dp83
g15
Nsg55
S'2'
sg16
I36
sg56
S'RIGHT'
p84
sg19
g20
sbasg16
I34
sg19
g20
sbsg16
I33
sg56
S'XRHandedness'
p85
sg19
g20
sbag1
(g44
g3
NtRp86
(dp87
g15
Nsg47
g1
(g48
g3
NtRp88
(dp89
g10
(lp90
g1
(g52
g3
NtRp91
(dp92
g15
Nsg55
S'1'
sg16
I40
sg56
S'GAZING'
p93
sg19
g20
sbag1
(g52
g3
NtRp94
(dp95
g15
Nsg55
S'2'
sg16
I41
sg56
S'POINTING'
p96
sg19
g20
sbag1
(g52
g3
NtRp97
(dp98
g15
Nsg55
S'3'
sg16
I42
sg56
S'TAPPING'
p99
sg19
g20
sbasg16
I40
sg19
g20
sbsg16
I39
sg56
S'XRTargetRayMode'
p100
sg19
g20
sbag1
(cmojom.parse.ast
Struct
p101
g3
NtRp102
(dp103
S'body'
p104
g1
(cmojom.parse.ast
StructBody
p105
g3
NtRp106
(dp107
g10
(lp108
g1
(cmojom.parse.ast
StructField
p109
g3
NtRp110
(dp111
S'ordinal'
p112
NsS'default_value'
p113
Nsg56
S'immersive'
p114
sg15
Nsg19
NsS'typename'
p115
S'bool'
p116
sg16
Nsbag1
(g109
g3
NtRp117
(dp118
g112
Nsg113
Nsg56
S'environment_integration'
p119
sg15
Nsg19
Nsg115
S'bool'
p120
sg16
Nsbag1
(g109
g3
NtRp121
(dp122
g112
Nsg113
Nsg56
S'use_legacy_webvr_render_path'
p123
sg15
Nsg19
Nsg115
S'bool'
p124
sg16
Nsbasg16
Nsg19
Nsbsg15
Nsg16
Nsg56
S'XRSessionOptions'
p125
sg19
Nsbag1
(g101
g3
NtRp126
(dp127
g104
g1
(g105
g3
NtRp128
(dp129
g10
(lp130
g1
(g109
g3
NtRp131
(dp132
g112
Nsg113
Nsg56
S'data_provider'
p133
sg15
Nsg19
Nsg115
S'XRFrameDataProvider'
p134
sg16
Nsbag1
(g109
g3
NtRp135
(dp136
g112
Nsg113
Nsg56
S'client_request'
p137
sg15
Nsg19
Nsg115
S'XRSessionClient&?'
p138
sg16
Nsbag1
(g109
g3
NtRp139
(dp140
g112
Nsg113
Nsg56
S'display_info'
p141
sg15
Nsg19
Nsg115
S'VRDisplayInfo'
p142
sg16
Nsbag1
(g109
g3
NtRp143
(dp144
g112
Nsg113
Nsg56
S'submit_frame_sink'
p145
sg15
Nsg19
Nsg115
S'XRPresentationConnection?'
p146
sg16
Nsbasg16
Nsg19
Nsbsg15
Nsg16
Nsg56
S'XRSession'
p147
sg19
Nsbag1
(g101
g3
NtRp148
(dp149
g104
g1
(g105
g3
NtRp150
(dp151
g10
(lp152
g1
(g109
g3
NtRp153
(dp154
g112
Nsg113
Nsg56
S'provider'
p155
sg15
Nsg19
Nsg115
S'XRPresentationProvider'
p156
sg16
Nsbag1
(g109
g3
NtRp157
(dp158
g112
Nsg113
Nsg56
S'client_request'
p159
sg15
Nsg19
Nsg115
S'XRPresentationClient&'
p160
sg16
Nsbag1
(g109
g3
NtRp161
(dp162
g112
Nsg113
Nsg56
S'transport_options'
p163
sg15
Nsg19
Nsg115
S'XRPresentationTransportOptions'
p164
sg16
Nsbasg16
Nsg19
Nsbsg15
Nsg16
Nsg56
S'XRPresentationConnection'
p165
sg19
Nsbag1
(g101
g3
NtRp166
(dp167
g104
g1
(g105
g3
NtRp168
(dp169
g10
(lp170
g1
(g109
g3
NtRp171
(dp172
g112
Nsg113
Nsg56
S'target_ray_mode'
p173
sg15
Nsg19
Nsg115
S'XRTargetRayMode'
p174
sg16
Nsbag1
(g109
g3
NtRp175
(dp176
g112
Nsg113
Nsg56
S'handedness'
p177
sg15
Nsg19
Nsg115
S'XRHandedness'
p178
sg16
Nsbag1
(g109
g3
NtRp179
(dp180
g112
Nsg113
Nsg56
S'emulated_position'
p181
sg15
Nsg19
Nsg115
S'bool'
p182
sg16
Nsbag1
(g109
g3
NtRp183
(dp184
g112
Nsg113
Nsg56
S'pointer_offset'
p185
sg15
Nsg19
Nsg115
S'gfx.mojom.Transform?'
p186
sg16
Nsbasg16
Nsg19
Nsbsg15
Nsg16
Nsg56
S'XRInputSourceDescription'
p187
sg19
Nsbag1
(g101
g3
NtRp188
(dp189
g104
g1
(g105
g3
NtRp190
(dp191
g10
(lp192
g1
(g109
g3
NtRp193
(dp194
g112
Nsg113
Nsg56
S'source_id'
p195
sg15
Nsg19
Nsg115
S'uint32'
p196
sg16
Nsbag1
(g109
g3
NtRp197
(dp198
g112
Nsg113
Nsg56
S'description'
p199
sg15
Nsg19
Nsg115
S'XRInputSourceDescription?'
p200
sg16
Nsbag1
(g109
g3
NtRp201
(dp202
g112
Nsg113
Nsg56
S'grip'
p203
sg15
Nsg19
Nsg115
S'gfx.mojom.Transform?'
p204
sg16
Nsbag1
(g109
g3
NtRp205
(dp206
g112
Nsg113
Nsg56
S'primary_input_pressed'
p207
sg15
Nsg19
Nsg115
S'bool'
p208
sg16
Nsbag1
(g109
g3
NtRp209
(dp210
g112
Nsg113
Nsg56
S'primary_input_clicked'
p211
sg15
Nsg19
Nsg115
S'bool'
p212
sg16
Nsbag1
(g109
g3
NtRp213
(dp214
g112
Nsg113
Nsg56
S'gamepad'
p215
sg15
Nsg19
Nsg115
S'Gamepad?'
p216
sg16
Nsbasg16
Nsg19
Nsbsg15
Nsg16
Nsg56
S'XRInputSourceState'
p217
sg19
Nsbag1
(g101
g3
NtRp218
(dp219
g104
g1
(g105
g3
NtRp220
(dp221
g10
(lp222
g1
(g109
g3
NtRp223
(dp224
g112
Nsg113
Nsg56
S'upDegrees'
p225
sg15
Nsg19
Nsg115
S'float'
p226
sg16
Nsbag1
(g109
g3
NtRp227
(dp228
g112
Nsg113
Nsg56
S'downDegrees'
p229
sg15
Nsg19
Nsg115
S'float'
p230
sg16
Nsbag1
(g109
g3
NtRp231
(dp232
g112
Nsg113
Nsg56
S'leftDegrees'
p233
sg15
Nsg19
Nsg115
S'float'
p234
sg16
Nsbag1
(g109
g3
NtRp235
(dp236
g112
Nsg113
Nsg56
S'rightDegrees'
p237
sg15
Nsg19
Nsg115
S'float'
p238
sg16
Nsbasg16
Nsg19
Nsbsg15
Nsg16
Nsg56
S'VRFieldOfView'
p239
sg19
Nsbag1
(g101
g3
NtRp240
(dp241
g104
g1
(g105
g3
NtRp242
(dp243
g10
(lp244
g1
(g109
g3
NtRp245
(dp246
g112
Nsg113
Nsg56
S'orientation'
p247
sg15
Nsg19
Nsg115
S'float[4]?'
p248
sg16
Nsbag1
(g109
g3
NtRp249
(dp250
g112
Nsg113
Nsg56
S'position'
p251
sg15
Nsg19
Nsg115
S'float[3]?'
p252
sg16
Nsbag1
(g109
g3
NtRp253
(dp254
g112
Nsg113
Nsg56
S'angularVelocity'
p255
sg15
Nsg19
Nsg115
S'float[3]?'
p256
sg16
Nsbag1
(g109
g3
NtRp257
(dp258
g112
Nsg113
Nsg56
S'linearVelocity'
p259
sg15
Nsg19
Nsg115
S'float[3]?'
p260
sg16
Nsbag1
(g109
g3
NtRp261
(dp262
g112
Nsg113
Nsg56
S'angularAcceleration'
p263
sg15
Nsg19
Nsg115
S'float[3]?'
p264
sg16
Nsbag1
(g109
g3
NtRp265
(dp266
g112
Nsg113
Nsg56
S'linearAcceleration'
p267
sg15
Nsg19
Nsg115
S'float[3]?'
p268
sg16
Nsbag1
(g109
g3
NtRp269
(dp270
g112
Nsg113
Nsg56
S'input_state'
p271
sg15
Nsg19
Nsg115
S'XRInputSourceState[]?'
p272
sg16
Nsbag1
(g109
g3
NtRp273
(dp274
g112
Nsg113
Nsg56
S'pose_reset'
p275
sg15
Nsg19
Nsg115
S'bool'
p276
sg16
Nsbasg16
Nsg19
Nsbsg15
Nsg16
Nsg56
S'VRPose'
p277
sg19
Nsbag1
(g101
g3
NtRp278
(dp279
g104
g1
(g105
g3
NtRp280
(dp281
g10
(lp282
g1
(g109
g3
NtRp283
(dp284
g112
Nsg113
Nsg56
S'origin'
p285
sg15
Nsg19
Nsg115
S'gfx.mojom.Point3F'
p286
sg16
Nsbag1
(g109
g3
NtRp287
(dp288
g112
Nsg113
Nsg56
S'direction'
p289
sg15
Nsg19
Nsg115
S'gfx.mojom.Vector3dF'
p290
sg16
Nsbasg16
Nsg19
Nsbsg15
Nsg16
Nsg56
S'XRRay'
p291
sg19
Nsbag1
(g101
g3
NtRp292
(dp293
g104
g1
(g105
g3
NtRp294
(dp295
g10
(lp296
g1
(g109
g3
NtRp297
(dp298
g112
Nsg113
Nsg56
S'hit_matrix'
p299
sg15
Nsg19
Nsg115
S'float[16]'
p300
sg16
Nsbasg16
Nsg19
Nsbsg15
Nsg16
Nsg56
S'XRHitResult'
p301
sg19
Nsbag1
(g101
g3
NtRp302
(dp303
g104
g1
(g105
g3
NtRp304
(dp305
g10
(lp306
g1
(g109
g3
NtRp307
(dp308
g112
Nsg113
Nsg56
S'hasPosition'
p309
sg15
Nsg19
Nsg115
S'bool'
p310
sg16
Nsbag1
(g109
g3
NtRp311
(dp312
g112
Nsg113
Nsg56
S'hasExternalDisplay'
p313
sg15
Nsg19
Nsg115
S'bool'
p314
sg16
Nsbag1
(g109
g3
NtRp315
(dp316
g112
Nsg113
Nsg56
S'canPresent'
p317
sg15
Nsg19
Nsg115
S'bool'
p318
sg16
Nsbag1
(g109
g3
NtRp319
(dp320
g112
Nsg113
Nsg56
S'canProvideEnvironmentIntegration'
p321
sg15
Nsg19
Nsg115
S'bool'
p322
sg16
Nsbasg16
Nsg19
Nsbsg15
Nsg16
Nsg56
S'VRDisplayCapabilities'
p323
sg19
Nsbag1
(g101
g3
NtRp324
(dp325
g104
g1
(g105
g3
NtRp326
(dp327
g10
(lp328
g1
(g109
g3
NtRp329
(dp330
g112
Nsg113
Nsg56
S'fieldOfView'
p331
sg15
Nsg19
Nsg115
S'VRFieldOfView'
p332
sg16
Nsbag1
(g109
g3
NtRp333
(dp334
g112
Nsg113
Nsg56
S'offset'
p335
sg15
Nsg19
Nsg115
S'float[3]'
p336
sg16
Nsbag1
(g109
g3
NtRp337
(dp338
g112
Nsg113
Nsg56
S'renderWidth'
p339
sg15
Nsg19
Nsg115
S'uint32'
p340
sg16
Nsbag1
(g109
g3
NtRp341
(dp342
g112
Nsg113
Nsg56
S'renderHeight'
p343
sg15
Nsg19
Nsg115
S'uint32'
p344
sg16
Nsbasg16
Nsg19
Nsbsg15
Nsg16
Nsg56
S'VREyeParameters'
p345
sg19
Nsbag1
(g101
g3
NtRp346
(dp347
g104
g1
(g105
g3
NtRp348
(dp349
g10
(lp350
g1
(g109
g3
NtRp351
(dp352
g112
Nsg113
Nsg56
S'standingTransform'
p353
sg15
Nsg19
Nsg115
S'float[16]'
p354
sg16
Nsbag1
(g109
g3
NtRp355
(dp356
g112
Nsg113
Nsg56
S'sizeX'
p357
sg15
Nsg19
Nsg115
S'float'
p358
sg16
Nsbag1
(g109
g3
NtRp359
(dp360
g112
Nsg113
Nsg56
S'sizeZ'
p361
sg15
Nsg19
Nsg115
S'float'
p362
sg16
Nsbag1
(g109
g3
NtRp363
(dp364
g112
Nsg113
Nsg56
S'bounds'
p365
sg15
Nsg19
Nsg115
S'gfx.mojom.Point3F[]?'
p366
sg16
Nsbasg16
Nsg19
Nsbsg15
Nsg16
Nsg56
S'VRStageParameters'
p367
sg19
Nsbag1
(g101
g3
NtRp368
(dp369
g104
g1
(g105
g3
NtRp370
(dp371
g10
(lp372
g1
(g109
g3
NtRp373
(dp374
g112
Nsg113
Nsg56
S'id'
p375
sg15
Nsg19
Nsg115
S'XRDeviceId'
p376
sg16
Nsbag1
(g109
g3
NtRp377
(dp378
g112
Nsg113
Nsg56
S'displayName'
p379
sg15
Nsg19
Nsg115
S'string'
p380
sg16
Nsbag1
(g109
g3
NtRp381
(dp382
g112
Nsg113
Nsg56
S'capabilities'
p383
sg15
Nsg19
Nsg115
S'VRDisplayCapabilities'
p384
sg16
Nsbag1
(g109
g3
NtRp385
(dp386
g112
Nsg113
Nsg56
S'stageParameters'
p387
sg15
Nsg19
Nsg115
S'VRStageParameters?'
p388
sg16
Nsbag1
(g109
g3
NtRp389
(dp390
g112
Nsg113
Nsg56
S'leftEye'
p391
sg15
Nsg19
Nsg115
S'VREyeParameters?'
p392
sg16
Nsbag1
(g109
g3
NtRp393
(dp394
g112
Nsg113
Nsg56
S'rightEye'
p395
sg15
Nsg19
Nsg115
S'VREyeParameters?'
p396
sg16
Nsbag1
(g109
g3
NtRp397
(dp398
g112
Nsg113
S'1.0'
p399
sg56
S'webvr_default_framebuffer_scale'
p400
sg15
Nsg19
Nsg115
S'float'
p401
sg16
Nsbag1
(g109
g3
NtRp402
(dp403
g112
Nsg113
S'1.0'
p404
sg56
S'webxr_default_framebuffer_scale'
p405
sg15
Nsg19
Nsg115
S'float'
p406
sg16
Nsbasg16
Nsg19
Nsbsg15
Nsg16
Nsg56
S'VRDisplayInfo'
p407
sg19
Nsbag1
(g44
g3
NtRp408
(dp409
g15
Nsg47
g1
(g48
g3
NtRp410
(dp411
g10
(lp412
g1
(g52
g3
NtRp413
(dp414
g15
Nsg55
S'0'
sg16
I216
sg56
S'NONE'
p415
sg19
g20
sbag1
(g52
g3
NtRp416
(dp417
g15
Nsg55
S'1'
sg16
I221
sg56
S'SUBMIT_AS_TEXTURE_HANDLE'
p418
sg19
g20
sbag1
(g52
g3
NtRp419
(dp420
g15
Nsg55
S'2'
sg16
I222
sg56
S'SUBMIT_AS_MAILBOX_HOLDER'
p421
sg19
g20
sbag1
(g52
g3
NtRp422
(dp423
g15
Nsg55
S'3'
sg16
I226
sg56
S'DRAW_INTO_TEXTURE_MAILBOX'
p424
sg19
g20
sbasg16
I216
sg19
g20
sbsg16
I215
sg56
S'XRPresentationTransportMethod'
p425
sg19
g20
sbag1
(g101
g3
NtRp426
(dp427
g104
g1
(g105
g3
NtRp428
(dp429
g10
(lp430
g1
(g109
g3
NtRp431
(dp432
g112
Nsg113
Nsg56
S'transport_method'
p433
sg15
Nsg19
Nsg115
S'XRPresentationTransportMethod'
p434
sg16
Nsbag1
(g109
g3
NtRp435
(dp436
g112
Nsg113
Nsg56
S'wait_for_transfer_notification'
p437
sg15
Nsg19
Nsg115
S'bool'
p438
sg16
Nsbag1
(g109
g3
NtRp439
(dp440
g112
Nsg113
Nsg56
S'wait_for_render_notification'
p441
sg15
Nsg19
Nsg115
S'bool'
p442
sg16
Nsbag1
(g109
g3
NtRp443
(dp444
g112
Nsg113
Nsg56
S'wait_for_gpu_fence'
p445
sg15
Nsg19
Nsg115
S'bool'
p446
sg16
Nsbasg16
Nsg19
Nsbsg15
Nsg16
Nsg56
S'XRPresentationTransportOptions'
p447
sg19
Nsbag1
(g44
g3
NtRp448
(dp449
g15
Nsg47
g1
(g48
g3
NtRp450
(dp451
g10
(lp452
g1
(g52
g3
NtRp453
(dp454
g15
Nsg55
S'0'
sg16
I241
sg56
S'UNKNOWN'
p455
sg19
g20
sbag1
(g52
g3
NtRp456
(dp457
g15
Nsg55
S'1'
sg16
I242
sg56
S'HORIZONTAL'
p458
sg19
g20
sbag1
(g52
g3
NtRp459
(dp460
g15
Nsg55
S'2'
sg16
I243
sg56
S'VERTICAL'
p461
sg19
g20
sbasg16
I241
sg19
g20
sbsg16
I240
sg56
S'XRPlaneOrientation'
p462
sg19
g20
sbag1
(g101
g3
NtRp463
(dp464
g104
g1
(g105
g3
NtRp465
(dp466
g10
(lp467
g1
(g109
g3
NtRp468
(dp469
g112
Nsg113
Nsg56
S'x'
sg15
Nsg19
Nsg115
S'float'
p470
sg16
Nsbag1
(g109
g3
NtRp471
(dp472
g112
Nsg113
Nsg56
S'z'
sg15
Nsg19
Nsg115
S'float'
p473
sg16
Nsbasg16
Nsg19
Nsbsg15
Nsg16
Nsg56
S'XRPlanePointData'
p474
sg19
Nsbag1
(g101
g3
NtRp475
(dp476
g104
g1
(g105
g3
NtRp477
(dp478
g10
(lp479
g1
(g109
g3
NtRp480
(dp481
g112
Nsg113
Nsg56
S'id'
p482
sg15
Nsg19
Nsg115
S'int32'
p483
sg16
Nsbag1
(g109
g3
NtRp484
(dp485
g112
Nsg113
Nsg56
S'orientation'
p486
sg15
Nsg19
Nsg115
S'XRPlaneOrientation'
p487
sg16
Nsbag1
(g109
g3
NtRp488
(dp489
g112
Nsg113
Nsg56
S'pose'
p490
sg15
Nsg19
Nsg115
S'VRPose'
p491
sg16
Nsbag1
(g109
g3
NtRp492
(dp493
g112
Nsg113
Nsg56
S'polygon'
p494
sg15
Nsg19
Nsg115
S'XRPlanePointData[]'
p495
sg16
Nsbasg16
Nsg19
Nsbsg15
Nsg16
Nsg56
S'XRPlaneData'
p496
sg19
Nsbag1
(g101
g3
NtRp497
(dp498
g104
g1
(g105
g3
NtRp499
(dp500
g10
(lp501
g1
(g109
g3
NtRp502
(dp503
g112
Nsg113
Nsg56
S'pose'
p504
sg15
Nsg19
Nsg115
S'VRPose?'
p505
sg16
Nsbag1
(g109
g3
NtRp506
(dp507
g112
Nsg113
Nsg56
S'time_delta'
p508
sg15
Nsg19
Nsg115
S'mojo_base.mojom.TimeDelta'
p509
sg16
Nsbag1
(g109
g3
NtRp510
(dp511
g112
Nsg113
Nsg56
S'buffer_holder'
p512
sg15
Nsg19
Nsg115
S'gpu.mojom.MailboxHolder?'
p513
sg16
Nsbag1
(g109
g3
NtRp514
(dp515
g112
Nsg113
Nsg56
S'frame_id'
p516
sg15
Nsg19
Nsg115
S'int16'
p517
sg16
Nsbag1
(g109
g3
NtRp518
(dp519
g112
Nsg113
Nsg56
S'left_eye'
p520
sg15
Nsg19
Nsg115
S'VREyeParameters?'
p521
sg16
Nsbag1
(g109
g3
NtRp522
(dp523
g112
Nsg113
Nsg56
S'right_eye'
p524
sg15
Nsg19
Nsg115
S'VREyeParameters?'
p525
sg16
Nsbag1
(g109
g3
NtRp526
(dp527
g112
Nsg113
Nsg56
S'stage_parameters_updated'
p528
sg15
Nsg19
Nsg115
S'bool'
p529
sg16
Nsbag1
(g109
g3
NtRp530
(dp531
g112
Nsg113
Nsg56
S'stage_parameters'
p532
sg15
Nsg19
Nsg115
S'VRStageParameters?'
p533
sg16
Nsbag1
(g109
g3
NtRp534
(dp535
g112
Nsg113
Nsg56
S'detected_planes'
p536
sg15
Nsg19
Nsg115
S'XRPlaneData[]?'
p537
sg16
Nsbasg16
Nsg19
Nsbsg15
Nsg16
Nsg56
S'XRFrameData'
p538
sg19
Nsbag1
(g44
g3
NtRp539
(dp540
g15
Nsg47
g1
(g48
g3
NtRp541
(dp542
g10
(lp543
g1
(g52
g3
NtRp544
(dp545
g15
Nsg55
S'0'
sg16
I317
sg56
S'NONE'
p546
sg19
g20
sbag1
(g52
g3
NtRp547
(dp548
g15
Nsg55
S'1'
sg16
I318
sg56
S'NAVIGATION'
p549
sg19
g20
sbag1
(g52
g3
NtRp550
(dp551
g15
Nsg55
S'2'
sg16
I319
sg56
S'MOUNTED'
p552
sg19
g20
sbag1
(g52
g3
NtRp553
(dp554
g15
Nsg55
S'3'
sg16
I320
sg56
S'UNMOUNTED'
p555
sg19
g20
sbasg16
I317
sg19
g20
sbsg16
I316
sg56
S'VRDisplayEventReason'
p556
sg19
g20
sbag1
(cmojom.parse.ast
Interface
p557
g3
NtRp558
(dp559
g104
g1
(cmojom.parse.ast
InterfaceBody
p560
g3
NtRp561
(dp562
g10
(lp563
g1
(cmojom.parse.ast
Method
p564
g3
NtRp565
(dp566
g112
Nsg56
S'RequestDevice'
p567
sS'parameter_list'
p568
g1
(cmojom.parse.ast
ParameterList
p569
g3
NtRp570
(dp571
g10
(lp572
sg16
Nsg19
Nsbsg15
Nsg19
Nsg16
NsS'response_parameter_list'
p573
g1
(g569
g3
NtRp574
(dp575
g10
(lp576
g1
(cmojom.parse.ast
Parameter
p577
g3
NtRp578
(dp579
g112
Nsg56
S'device'
p580
sg15
Nsg19
g20
sg115
S'XRDevice?'
p581
sg16
I329
sbasg16
I329
sg19
g20
sbsbag1
(g564
g3
NtRp582
(dp583
g112
Nsg56
S'SetClient'
p584
sg568
g1
(g569
g3
NtRp585
(dp586
g10
(lp587
g1
(g577
g3
NtRp588
(dp589
g112
Nsg56
S'client'
p590
sg15
Nsg19
g20
sg115
S'VRServiceClient'
p591
sg16
I332
sbasg16
I332
sg19
g20
sbsg15
Nsg19
Nsg16
Nsg573
Nsbag1
(g564
g3
NtRp592
(dp593
g112
Nsg56
S'SetListeningForActivate'
p594
sg568
g1
(g569
g3
NtRp595
(dp596
g10
(lp597
g1
(g577
g3
NtRp598
(dp599
g112
Nsg56
S'client'
p600
sg15
Nsg19
g20
sg115
S'VRDisplayClient?'
p601
sg16
I336
sbasg16
I336
sg19
g20
sbsg15
Nsg19
Nsg16
Nsg573
Nsbasg16
Nsg19
Nsbsg15
Nsg16
Nsg56
S'VRService'
p602
sg19
Nsbag1
(g557
g3
NtRp603
(dp604
g104
g1
(g560
g3
NtRp605
(dp606
g10
(lp607
g1
(g564
g3
NtRp608
(dp609
g112
Nsg56
S'OnDeviceChanged'
p610
sg568
g1
(g569
g3
NtRp611
(dp612
g10
(lp613
sg16
Nsg19
Nsbsg15
Nsg19
Nsg16
Nsg573
Nsbasg16
Nsg19
Nsbsg15
Nsg16
Nsg56
S'VRServiceClient'
p614
sg19
Nsbag1
(g557
g3
NtRp615
(dp616
g104
g1
(g560
g3
NtRp617
(dp618
g10
(lp619
g1
(g564
g3
NtRp620
(dp621
g112
Nsg56
S'RequestSession'
p622
sg568
g1
(g569
g3
NtRp623
(dp624
g10
(lp625
g1
(g577
g3
NtRp626
(dp627
g112
Nsg56
S'options'
p628
sg15
Nsg19
g20
sg115
S'XRSessionOptions'
p629
sg16
I352
sbag1
(g577
g3
NtRp630
(dp631
g112
Nsg56
S'triggered_by_displayactive'
p632
sg15
Nsg19
g20
sg115
S'bool'
p633
sg16
I353
sbasg16
I352
sg19
g20
sbsg15
Nsg19
Nsg16
Nsg573
g1
(g569
g3
NtRp634
(dp635
g10
(lp636
g1
(g577
g3
NtRp637
(dp638
g112
Nsg56
S'session'
p639
sg15
Nsg19
g20
sg115
S'XRSession?'
p640
sg16
I353
sbasg16
I353
sg19
g20
sbsbag1
(g564
g3
NtRp641
(dp642
g112
Nsg56
S'SupportsSession'
p643
sg568
g1
(g569
g3
NtRp644
(dp645
g10
(lp646
g1
(g577
g3
NtRp647
(dp648
g112
Nsg56
S'options'
p649
sg15
Nsg19
g20
sg115
S'XRSessionOptions'
p650
sg16
I354
sbasg16
I354
sg19
g20
sbsg15
Nsg19
Nsg16
Nsg573
g1
(g569
g3
NtRp651
(dp652
g10
(lp653
g1
(g577
g3
NtRp654
(dp655
g112
Nsg56
S'supports_session'
p656
sg15
Nsg19
g20
sg115
S'bool'
p657
sg16
I354
sbasg16
I354
sg19
g20
sbsbag1
(g564
g3
NtRp658
(dp659
g112
Nsg56
S'GetImmersiveVRDisplayInfo'
p660
sg568
g1
(g569
g3
NtRp661
(dp662
g10
(lp663
sg16
Nsg19
Nsbsg15
Nsg19
Nsg16
Nsg573
g1
(g569
g3
NtRp664
(dp665
g10
(lp666
g1
(g577
g3
NtRp667
(dp668
g112
Nsg56
S'info'
p669
sg15
Nsg19
g20
sg115
S'VRDisplayInfo?'
p670
sg16
I360
sbasg16
I360
sg19
g20
sbsbag1
(g564
g3
NtRp671
(dp672
g112
Nsg56
S'ExitPresent'
p673
sg568
g1
(g569
g3
NtRp674
(dp675
g10
(lp676
sg16
Nsg19
Nsbsg15
Nsg19
Nsg16
Nsg573
Nsbasg16
Nsg19
Nsbsg15
Nsg16
Nsg56
S'XRDevice'
p677
sg19
Nsbag1
(g557
g3
NtRp678
(dp679
g104
g1
(g560
g3
NtRp680
(dp681
g10
(lp682
g1
(g564
g3
NtRp683
(dp684
g112
Nsg56
S'RequestHitTest'
p685
sg568
g1
(g569
g3
NtRp686
(dp687
g10
(lp688
g1
(g577
g3
NtRp689
(dp690
g112
Nsg56
S'ray'
p691
sg15
Nsg19
g20
sg115
S'XRRay'
p692
sg16
I375
sbasg16
I375
sg19
g20
sbsg15
Nsg19
Nsg16
Nsg573
g1
(g569
g3
NtRp693
(dp694
g10
(lp695
g1
(g577
g3
NtRp696
(dp697
g112
Nsg56
S'results'
p698
sg15
Nsg19
g20
sg115
S'XRHitResult[]?'
p699
sg16
I375
sbasg16
I375
sg19
g20
sbsbasg16
Nsg19
Nsbsg15
Nsg16
Nsg56
S'XREnvironmentIntegrationProvider'
p700
sg19
Nsbag1
(g101
g3
NtRp701
(dp702
g104
g1
(g105
g3
NtRp703
(dp704
g10
(lp705
g1
(g109
g3
NtRp706
(dp707
g112
Nsg113
Nsg56
S'include_plane_data'
p708
sg15
Nsg19
Nsg115
S'bool'
p709
sg16
Nsbasg16
Nsg19
Nsbsg15
Nsg16
Nsg56
S'XRFrameDataRequestOptions'
p710
sg19
Nsbag1
(g557
g3
NtRp711
(dp712
g104
g1
(g560
g3
NtRp713
(dp714
g10
(lp715
g1
(g564
g3
NtRp716
(dp717
g112
Nsg56
S'GetFrameData'
p718
sg568
g1
(g569
g3
NtRp719
(dp720
g10
(lp721
g1
(g577
g3
NtRp722
(dp723
g112
Nsg56
S'options'
p724
sg15
Nsg19
g20
sg115
S'XRFrameDataRequestOptions?'
p725
sg16
I392
sbasg16
I392
sg19
g20
sbsg15
Nsg19
Nsg16
Nsg573
g1
(g569
g3
NtRp726
(dp727
g10
(lp728
g1
(g577
g3
NtRp729
(dp730
g112
Nsg56
S'frame_data'
p731
sg15
Nsg19
g20
sg115
S'XRFrameData?'
p732
sg16
I392
sbasg16
I392
sg19
g20
sbsbag1
(g564
g3
NtRp733
(dp734
g112
Nsg56
S'GetEnvironmentIntegrationProvider'
p735
sg568
g1
(g569
g3
NtRp736
(dp737
g10
(lp738
g1
(g577
g3
NtRp739
(dp740
g112
Nsg56
S'environment_provider'
p741
sg15
Nsg19
g20
sg115
S'asso<XREnvironmentIntegrationProvider&>'
p742
sg16
I394
sbasg16
I394
sg19
g20
sbsg15
Nsg19
Nsg16
Nsg573
Nsbasg16
Nsg19
Nsbsg15
Nsg16
Nsg56
S'XRFrameDataProvider'
p743
sg19
Nsbag1
(g557
g3
NtRp744
(dp745
g104
g1
(g560
g3
NtRp746
(dp747
g10
(lp748
g1
(g564
g3
NtRp749
(dp750
g112
Nsg56
S'UpdateLayerBounds'
p751
sg568
g1
(g569
g3
NtRp752
(dp753
g10
(lp754
g1
(g577
g3
NtRp755
(dp756
g112
Nsg56
S'frame_id'
p757
sg15
Nsg19
g20
sg115
S'int16'
p758
sg16
I403
sbag1
(g577
g3
NtRp759
(dp760
g112
Nsg56
S'left_bounds'
p761
sg15
Nsg19
g20
sg115
S'gfx.mojom.RectF'
p762
sg16
I403
sbag1
(g577
g3
NtRp763
(dp764
g112
Nsg56
S'right_bounds'
p765
sg15
Nsg19
g20
sg115
S'gfx.mojom.RectF'
p766
sg16
I404
sbag1
(g577
g3
NtRp767
(dp768
g112
Nsg56
S'source_size'
p769
sg15
Nsg19
g20
sg115
S'gfx.mojom.Size'
p770
sg16
I404
sbasg16
I403
sg19
g20
sbsg15
Nsg19
Nsg16
Nsg573
Nsbag1
(g564
g3
NtRp771
(dp772
g112
Nsg56
S'SubmitFrameMissing'
p773
sg568
g1
(g569
g3
NtRp774
(dp775
g10
(lp776
g1
(g577
g3
NtRp777
(dp778
g112
Nsg56
S'frame_id'
p779
sg15
Nsg19
g20
sg115
S'int16'
p780
sg16
I414
sbag1
(g577
g3
NtRp781
(dp782
g112
Nsg56
S'sync_token'
p783
sg15
Nsg19
g20
sg115
S'gpu.mojom.SyncToken'
p784
sg16
I414
sbasg16
I414
sg19
g20
sbsg15
Nsg19
Nsg16
Nsg573
Nsbag1
(g564
g3
NtRp785
(dp786
g112
Nsg56
S'SubmitFrame'
p787
sg568
g1
(g569
g3
NtRp788
(dp789
g10
(lp790
g1
(g577
g3
NtRp791
(dp792
g112
Nsg56
S'frame_id'
p793
sg15
Nsg19
g20
sg115
S'int16'
p794
sg16
I417
sbag1
(g577
g3
NtRp795
(dp796
g112
Nsg56
S'mailbox_holder'
p797
sg15
Nsg19
g20
sg115
S'gpu.mojom.MailboxHolder'
p798
sg16
I417
sbag1
(g577
g3
NtRp799
(dp800
g112
Nsg56
S'time_waited'
p801
sg15
Nsg19
g20
sg115
S'mojo_base.mojom.TimeDelta'
p802
sg16
I418
sbasg16
I417
sg19
g20
sbsg15
Nsg19
Nsg16
Nsg573
Nsbag1
(g564
g3
NtRp803
(dp804
g112
Nsg56
S'SubmitFrameWithTextureHandle'
p805
sg568
g1
(g569
g3
NtRp806
(dp807
g10
(lp808
g1
(g577
g3
NtRp809
(dp810
g112
Nsg56
S'frameId'
p811
sg15
Nsg19
g20
sg115
S'int16'
p812
sg16
I423
sbag1
(g577
g3
NtRp813
(dp814
g112
Nsg56
S'texture'
p815
sg15
Nsg19
g20
sg115
S'handle'
p816
sg16
I423
sbasg16
I423
sg19
g20
sbsg15
Nsg19
Nsg16
Nsg573
Nsbag1
(g564
g3
NtRp817
(dp818
g112
Nsg56
S'SubmitFrameDrawnIntoTexture'
p819
sg568
g1
(g569
g3
NtRp820
(dp821
g10
(lp822
g1
(g577
g3
NtRp823
(dp824
g112
Nsg56
S'frameId'
p825
sg15
Nsg19
g20
sg115
S'int16'
p826
sg16
I426
sbag1
(g577
g3
NtRp827
(dp828
g112
Nsg56
S'sync_token'
p829
sg15
Nsg19
g20
sg115
S'gpu.mojom.SyncToken'
p830
sg16
I426
sbag1
(g577
g3
NtRp831
(dp832
g112
Nsg56
S'time_waited'
p833
sg15
Nsg19
g20
sg115
S'mojo_base.mojom.TimeDelta'
p834
sg16
I427
sbasg16
I426
sg19
g20
sbsg15
Nsg19
Nsg16
Nsg573
Nsbasg16
Nsg19
Nsbsg15
Nsg16
Nsg56
S'XRPresentationProvider'
p835
sg19
Nsbag1
(g557
g3
NtRp836
(dp837
g104
g1
(g560
g3
NtRp838
(dp839
g10
(lp840
g1
(g564
g3
NtRp841
(dp842
g112
Nsg56
S'OnSubmitFrameTransferred'
p843
sg568
g1
(g569
g3
NtRp844
(dp845
g10
(lp846
g1
(g577
g3
NtRp847
(dp848
g112
Nsg56
S'success'
p849
sg15
Nsg19
g20
sg115
S'bool'
p850
sg16
I448
sbasg16
I448
sg19
g20
sbsg15
Nsg19
Nsg16
Nsg573
Nsbag1
(g564
g3
NtRp851
(dp852
g112
Nsg56
S'OnSubmitFrameRendered'
p853
sg568
g1
(g569
g3
NtRp854
(dp855
g10
(lp856
sg16
Nsg19
Nsbsg15
Nsg19
Nsg16
Nsg573
Nsbag1
(g564
g3
NtRp857
(dp858
g112
Nsg56
S'OnSubmitFrameGpuFence'
p859
sg568
g1
(g569
g3
NtRp860
(dp861
g10
(lp862
g1
(g577
g3
NtRp863
(dp864
g112
Nsg56
S'gpu_fence_handle'
p865
sg15
Nsg19
g20
sg115
S'gfx.mojom.GpuFenceHandle'
p866
sg16
I460
sbasg16
I460
sg19
g20
sbsg15
Nsg19
Nsg16
Nsg573
Nsbasg16
Nsg19
Nsbsg15
Nsg16
Nsg56
S'XRPresentationClient'
p867
sg19
Nsbag1
(g557
g3
NtRp868
(dp869
g104
g1
(g560
g3
NtRp870
(dp871
g10
(lp872
g1
(g564
g3
NtRp873
(dp874
g112
Nsg56
S'OnChanged'
p875
sg568
g1
(g569
g3
NtRp876
(dp877
g10
(lp878
g1
(g577
g3
NtRp879
(dp880
g112
Nsg56
S'display'
p881
sg15
Nsg19
g20
sg115
S'VRDisplayInfo'
p882
sg16
I465
sbasg16
I465
sg19
g20
sbsg15
Nsg19
Nsg16
Nsg573
Nsbag1
(g564
g3
NtRp883
(dp884
g112
Nsg56
S'OnExitPresent'
p885
sg568
g1
(g569
g3
NtRp886
(dp887
g10
(lp888
sg16
Nsg19
Nsbsg15
Nsg19
Nsg16
Nsg573
Nsbag1
(g564
g3
NtRp889
(dp890
g112
Nsg56
S'OnBlur'
p891
sg568
g1
(g569
g3
NtRp892
(dp893
g10
(lp894
sg16
Nsg19
Nsbsg15
Nsg19
Nsg16
Nsg573
Nsbag1
(g564
g3
NtRp895
(dp896
g112
Nsg56
S'OnFocus'
p897
sg568
g1
(g569
g3
NtRp898
(dp899
g10
(lp900
sg16
Nsg19
Nsbsg15
Nsg19
Nsg16
Nsg573
Nsbasg16
Nsg19
Nsbsg15
Nsg16
Nsg56
S'XRSessionClient'
p901
sg19
Nsbag1
(g557
g3
NtRp902
(dp903
g104
g1
(g560
g3
NtRp904
(dp905
g10
(lp906
g1
(g564
g3
NtRp907
(dp908
g112
Nsg56
S'OnActivate'
p909
sg568
g1
(g569
g3
NtRp910
(dp911
g10
(lp912
g1
(g577
g3
NtRp913
(dp914
g112
Nsg56
S'reason'
p915
sg15
Nsg19
g20
sg115
S'VRDisplayEventReason'
p916
sg16
I477
sbasg16
I477
sg19
g20
sbsg15
Nsg19
Nsg16
Nsg573
g1
(g569
g3
NtRp917
(dp918
g10
(lp919
g1
(g577
g3
NtRp920
(dp921
g112
Nsg56
S'will_not_present'
p922
sg15
Nsg19
g20
sg115
S'bool'
p923
sg16
I477
sbasg16
I477
sg19
g20
sbsbag1
(g564
g3
NtRp924
(dp925
g112
Nsg56
S'OnDeactivate'
p926
sg568
g1
(g569
g3
NtRp927
(dp928
g10
(lp929
g1
(g577
g3
NtRp930
(dp931
g112
Nsg56
S'reason'
p932
sg15
Nsg19
g20
sg115
S'VRDisplayEventReason'
p933
sg16
I480
sbasg16
I480
sg19
g20
sbsg15
Nsg19
Nsg16
Nsg573
Nsbasg16
Nsg19
Nsbsg15
Nsg16
Nsg56
S'VRDisplayClient'
p934
sg19
Nsbasg16
NsS'module'
p935
g1
(cmojom.parse.ast
Module
p936
g3
NtRp937
(dp938
S'mojom_namespace'
p939
(S'IDENTIFIER'
p940
S'device.mojom'
tp941
sg16
I5
sg15
Nsg19
g20
sbsg19
Nsb.