ccopy_reg
_reconstructor
p1
(cmojom.parse.ast
Mojom
p2
c__builtin__
object
p3
NtRp4
(dp5
S'import_list'
p6
g1
(cmojom.parse.ast
ImportList
p7
g3
NtRp8
(dp9
S'items'
p10
(lp11
sS'lineno'
p12
NsS'filename'
p13
NsbsS'definition_list'
p14
(lp15
g1
(cmojom.parse.ast
Enum
p16
g3
NtRp17
(dp18
S'attribute_list'
p19
NsS'enum_value_list'
p20
g1
(cmojom.parse.ast
EnumValueList
p21
g3
NtRp22
(dp23
g10
(lp24
g1
(cmojom.parse.ast
EnumValue
p25
g3
NtRp26
(dp27
g19
NsS'value'
p28
Nsg12
I8
sS'mojom_name'
p29
S'GUILTY'
p30
sg13
S'../../services/viz/privileged/interfaces/gl/context_lost_reason.mojom'
p31
sbag1
(g25
g3
NtRp32
(dp33
g19
Nsg28
Nsg12
I9
sg29
S'INNOCENT'
p34
sg13
g31
sbag1
(g25
g3
NtRp35
(dp36
g19
Nsg28
Nsg12
I10
sg29
S'UNKNOWN'
p37
sg13
g31
sbag1
(g25
g3
NtRp38
(dp39
g19
Nsg28
Nsg12
I11
sg29
S'OUT_OF_MEMORY'
p40
sg13
g31
sbag1
(g25
g3
NtRp41
(dp42
g19
Nsg28
Nsg12
I12
sg29
S'MAKE_CURRENT_FAILED'
p43
sg13
g31
sbag1
(g25
g3
NtRp44
(dp45
g19
Nsg28
Nsg12
I13
sg29
S'GPU_CHANNEL_LOST'
p46
sg13
g31
sbag1
(g25
g3
NtRp47
(dp48
g19
Nsg28
Nsg12
I14
sg29
S'INVALID_GPU_MESSAGE'
p49
sg13
g31
sbasg12
I8
sg13
g31
sbsg12
I7
sg29
S'ContextLostReason'
p50
sg13
g31
sbasg12
NsS'module'
p51
g1
(cmojom.parse.ast
Module
p52
g3
NtRp53
(dp54
S'mojom_namespace'
p55
(S'IDENTIFIER'
p56
S'viz.mojom'
tp57
sg12
I5
sg19
Nsg13
g31
sbsg13
Nsb.