ccopy_reg
_reconstructor
p1
(cmojom.parse.ast
Mojom
p2
c__builtin__
object
p3
NtRp4
(dp5
S'import_list'
p6
g1
(cmojom.parse.ast
ImportList
p7
g3
NtRp8
(dp9
S'items'
p10
(lp11
g1
(cmojom.parse.ast
Import
p12
g3
NtRp13
(dp14
S'attribute_list'
p15
NsS'lineno'
p16
I19
sS'import_filename'
p17
S'gpu/ipc/common/dx_diag_node.mojom'
p18
sS'filename'
p19
S'../../services/viz/privileged/interfaces/gl/gpu_service.mojom'
p20
sbag1
(g12
g3
NtRp21
(dp22
g15
Nsg16
I20
sg17
S'gpu/ipc/common/gpu_info.mojom'
p23
sg19
g20
sbag1
(g12
g3
NtRp24
(dp25
g15
Nsg16
I21
sg17
S'gpu/ipc/common/memory_stats.mojom'
p26
sg19
g20
sbag1
(g12
g3
NtRp27
(dp28
g15
Nsg16
I22
sg17
S'gpu/ipc/common/surface_handle.mojom'
p29
sg19
g20
sbag1
(g12
g3
NtRp30
(dp31
g15
Nsg16
I23
sg17
S'gpu/ipc/common/sync_token.mojom'
p32
sg19
g20
sbag1
(g12
g3
NtRp33
(dp34
g15
Nsg16
I24
sg17
S'media/mojo/interfaces/video_encode_accelerator.mojom'
p35
sg19
g20
sbag1
(g12
g3
NtRp36
(dp37
g15
Nsg16
I25
sg17
S'ui/gfx/geometry/mojo/geometry.mojom'
p38
sg19
g20
sbag1
(g12
g3
NtRp39
(dp40
g15
Nsg16
I26
sg17
S'ui/gfx/mojo/buffer_types.mojom'
p41
sg19
g20
sbasg16
I19
sg19
g20
sbsS'definition_list'
p42
(lp43
g1
(cmojom.parse.ast
Interface
p44
g3
NtRp45
(dp46
S'body'
p47
g1
(cmojom.parse.ast
InterfaceBody
p48
g3
NtRp49
(dp50
g10
(lp51
g1
(cmojom.parse.ast
Method
p52
g3
NtRp53
(dp54
S'ordinal'
p55
NsS'mojom_name'
p56
S'EstablishGpuChannel'
p57
sS'parameter_list'
p58
g1
(cmojom.parse.ast
ParameterList
p59
g3
NtRp60
(dp61
g10
(lp62
g1
(cmojom.parse.ast
Parameter
p63
g3
NtRp64
(dp65
g55
Nsg56
S'client_id'
p66
sg15
Nsg19
g20
sS'typename'
p67
S'int32'
p68
sg16
I31
sbag1
(g63
g3
NtRp69
(dp70
g55
Nsg56
S'client_tracing_id'
p71
sg15
Nsg19
g20
sg67
S'uint64'
p72
sg16
I32
sbag1
(g63
g3
NtRp73
(dp74
g55
Nsg56
S'is_gpu_host'
p75
sg15
Nsg19
g20
sg67
S'bool'
p76
sg16
I33
sbag1
(g63
g3
NtRp77
(dp78
g55
Nsg56
S'cache_shaders_on_disk'
p79
sg15
Nsg19
g20
sg67
S'bool'
p80
sg16
I34
sbasg16
I31
sg19
g20
sbsg15
Nsg19
Nsg16
NsS'response_parameter_list'
p81
g1
(g59
g3
NtRp82
(dp83
g10
(lp84
g1
(g63
g3
NtRp85
(dp86
g55
Nsg56
S'channel_handle'
p87
sg15
Nsg19
g20
sg67
S'handle<message_pipe>?'
p88
sg16
I35
sbasg16
I35
sg19
g20
sbsbag1
(g52
g3
NtRp89
(dp90
g55
Nsg56
S'CloseChannel'
p91
sg58
g1
(g59
g3
NtRp92
(dp93
g10
(lp94
g1
(g63
g3
NtRp95
(dp96
g55
Nsg56
S'client_id'
p97
sg15
Nsg19
g20
sg67
S'int32'
p98
sg16
I39
sbasg16
I39
sg19
g20
sbsg15
Nsg19
Nsg16
Nsg81
Nsbag1
(g52
g3
NtRp99
(dp100
g55
Nsg56
S'CreateVideoEncodeAcceleratorProvider'
p101
sg58
g1
(g59
g3
NtRp102
(dp103
g10
(lp104
g1
(g63
g3
NtRp105
(dp106
g55
Nsg56
S'vea_provider'
p107
sg15
Nsg19
g20
sg67
S'media.mojom.VideoEncodeAcceleratorProvider&'
p108
sg16
I69
sbasg16
I69
sg19
g20
sbsg15
Nsg19
Nsg16
Nsg81
Nsbag1
(g52
g3
NtRp109
(dp110
g55
Nsg56
S'CreateGpuMemoryBuffer'
p111
sg58
g1
(g59
g3
NtRp112
(dp113
g10
(lp114
g1
(g63
g3
NtRp115
(dp116
g55
Nsg56
S'id'
p117
sg15
Nsg19
g20
sg67
S'gfx.mojom.GpuMemoryBufferId'
p118
sg16
I71
sbag1
(g63
g3
NtRp119
(dp120
g55
Nsg56
S'size'
p121
sg15
Nsg19
g20
sg67
S'gfx.mojom.Size'
p122
sg16
I72
sbag1
(g63
g3
NtRp123
(dp124
g55
Nsg56
S'format'
p125
sg15
Nsg19
g20
sg67
S'gfx.mojom.BufferFormat'
p126
sg16
I73
sbag1
(g63
g3
NtRp127
(dp128
g55
Nsg56
S'usage'
p129
sg15
Nsg19
g20
sg67
S'gfx.mojom.BufferUsage'
p130
sg16
I74
sbag1
(g63
g3
NtRp131
(dp132
g55
Nsg56
S'client_id'
p133
sg15
Nsg19
g20
sg67
S'int32'
p134
sg16
I75
sbag1
(g63
g3
NtRp135
(dp136
g55
Nsg56
S'surface_handle'
p137
sg15
Nsg19
g20
sg67
S'gpu.mojom.SurfaceHandle'
p138
sg16
I76
sbasg16
I71
sg19
g20
sbsg15
Nsg19
Nsg16
Nsg81
g1
(g59
g3
NtRp139
(dp140
g10
(lp141
g1
(g63
g3
NtRp142
(dp143
g55
Nsg56
S'buffer_handle'
p144
sg15
Nsg19
g20
sg67
S'gfx.mojom.GpuMemoryBufferHandle'
p145
sg16
I77
sbasg16
I77
sg19
g20
sbsbag1
(g52
g3
NtRp146
(dp147
g55
Nsg56
S'DestroyGpuMemoryBuffer'
p148
sg58
g1
(g59
g3
NtRp149
(dp150
g10
(lp151
g1
(g63
g3
NtRp152
(dp153
g55
Nsg56
S'id'
p154
sg15
Nsg19
g20
sg67
S'gfx.mojom.GpuMemoryBufferId'
p155
sg16
I79
sbag1
(g63
g3
NtRp156
(dp157
g55
Nsg56
S'client_id'
p158
sg15
Nsg19
g20
sg67
S'int32'
p159
sg16
I80
sbag1
(g63
g3
NtRp160
(dp161
g55
Nsg56
S'sync_token'
p162
sg15
Nsg19
g20
sg67
S'gpu.mojom.SyncToken'
p163
sg16
I81
sbasg16
I79
sg19
g20
sbsg15
Nsg19
Nsg16
Nsg81
Nsbag1
(g52
g3
NtRp164
(dp165
g55
Nsg56
S'GetVideoMemoryUsageStats'
p166
sg58
g1
(g59
g3
NtRp167
(dp168
g10
(lp169
sg16
Nsg19
Nsbsg15
Nsg19
Nsg16
Nsg81
g1
(g59
g3
NtRp170
(dp171
g10
(lp172
g1
(g63
g3
NtRp173
(dp174
g55
Nsg56
S'stats'
p175
sg15
Nsg19
g20
sg67
S'gpu.mojom.VideoMemoryUsageStats'
p176
sg16
I83
sbasg16
I83
sg19
g20
sbsbag1
(g52
g3
NtRp177
(dp178
g55
Nsg56
S'RequestHDRStatus'
p179
sg58
g1
(g59
g3
NtRp180
(dp181
g10
(lp182
sg16
Nsg19
Nsbsg15
Nsg19
Nsg16
Nsg81
g1
(g59
g3
NtRp183
(dp184
g10
(lp185
g1
(g63
g3
NtRp186
(dp187
g55
Nsg56
S'hdr_enabled'
p188
sg15
Nsg19
g20
sg67
S'bool'
p189
sg16
I93
sbasg16
I93
sg19
g20
sbsbag1
(g52
g3
NtRp190
(dp191
g55
Nsg56
S'LoadedShader'
p192
sg58
g1
(g59
g3
NtRp193
(dp194
g10
(lp195
g1
(g63
g3
NtRp196
(dp197
g55
Nsg56
S'client_id'
p198
sg15
Nsg19
g20
sg67
S'int32'
p199
sg16
I98
sbag1
(g63
g3
NtRp200
(dp201
g55
Nsg56
S'key'
p202
sg15
Nsg19
g20
sg67
S'string'
p203
sg16
I98
sbag1
(g63
g3
NtRp204
(dp205
g55
Nsg56
S'data'
p206
sg15
Nsg19
g20
sg67
S'string'
p207
sg16
I98
sbasg16
I98
sg19
g20
sbsg15
Nsg19
Nsg16
Nsg81
Nsbag1
(g52
g3
NtRp208
(dp209
g55
Nsg56
S'WakeUpGpu'
p210
sg58
g1
(g59
g3
NtRp211
(dp212
g10
(lp213
sg16
Nsg19
Nsbsg15
Nsg19
Nsg16
Nsg81
Nsbag1
(g52
g3
NtRp214
(dp215
g55
Nsg56
S'GpuSwitched'
p216
sg58
g1
(g59
g3
NtRp217
(dp218
g10
(lp219
sg16
Nsg19
Nsbsg15
Nsg19
Nsg16
Nsg81
Nsbag1
(g52
g3
NtRp220
(dp221
g55
Nsg56
S'DestroyAllChannels'
p222
sg58
g1
(g59
g3
NtRp223
(dp224
g10
(lp225
sg16
Nsg19
Nsbsg15
Nsg19
Nsg16
Nsg81
Nsbag1
(g52
g3
NtRp226
(dp227
g55
Nsg56
S'OnBackgroundCleanup'
p228
sg58
g1
(g59
g3
NtRp229
(dp230
g10
(lp231
sg16
Nsg19
Nsbsg15
Nsg19
Nsg16
Nsg81
Nsbag1
(g52
g3
NtRp232
(dp233
g55
Nsg56
S'OnBackgrounded'
p234
sg58
g1
(g59
g3
NtRp235
(dp236
g10
(lp237
sg16
Nsg19
Nsbsg15
Nsg19
Nsg16
Nsg81
Nsbag1
(g52
g3
NtRp238
(dp239
g55
Nsg56
S'OnForegrounded'
p240
sg58
g1
(g59
g3
NtRp241
(dp242
g10
(lp243
sg16
Nsg19
Nsbsg15
Nsg19
Nsg16
Nsg81
Nsbag1
(g52
g3
NtRp244
(dp245
g55
Nsg56
S'Crash'
p246
sg58
g1
(g59
g3
NtRp247
(dp248
g10
(lp249
sg16
Nsg19
Nsbsg15
Nsg19
Nsg16
Nsg81
Nsbag1
(g52
g3
NtRp250
(dp251
g55
Nsg56
S'Hang'
p252
sg58
g1
(g59
g3
NtRp253
(dp254
g10
(lp255
sg16
Nsg19
Nsbsg15
Nsg19
Nsg16
Nsg81
Nsbag1
(g52
g3
NtRp256
(dp257
g55
Nsg56
S'ThrowJavaException'
p258
sg58
g1
(g59
g3
NtRp259
(dp260
g10
(lp261
sg16
Nsg19
Nsbsg15
Nsg19
Nsg16
Nsg81
Nsbag1
(g52
g3
NtRp262
(dp263
g55
Nsg56
S'Stop'
p264
sg58
g1
(g59
g3
NtRp265
(dp266
g10
(lp267
sg16
Nsg19
Nsbsg15
Nsg19
Nsg16
Nsg81
g1
(g59
g3
NtRp268
(dp269
g10
(lp270
sg16
Nsg19
Nsbsbasg16
Nsg19
Nsbsg15
Nsg16
Nsg56
S'GpuService'
p271
sg19
Nsbasg16
NsS'module'
p272
g1
(cmojom.parse.ast
Module
p273
g3
NtRp274
(dp275
S'mojom_namespace'
p276
(S'IDENTIFIER'
p277
S'viz.mojom'
tp278
sg16
I5
sg15
Nsg19
g20
sbsg19
Nsb.