ccopy_reg
_reconstructor
p1
(cmojom.parse.ast
Mojom
p2
c__builtin__
object
p3
NtRp4
(dp5
S'import_list'
p6
g1
(cmojom.parse.ast
ImportList
p7
g3
NtRp8
(dp9
S'items'
p10
(lp11
g1
(cmojom.parse.ast
Import
p12
g3
NtRp13
(dp14
S'attribute_list'
p15
NsS'lineno'
p16
I7
sS'import_filename'
p17
S'url/mojom/url.mojom'
p18
sS'filename'
p19
S'../../content/browser/process_internals/process_internals.mojom'
p20
sbasg16
I7
sg19
g20
sbsS'definition_list'
p21
(lp22
g1
(cmojom.parse.ast
Struct
p23
g3
NtRp24
(dp25
S'body'
p26
g1
(cmojom.parse.ast
StructBody
p27
g3
NtRp28
(dp29
g10
(lp30
g1
(cmojom.parse.ast
StructField
p31
g3
NtRp32
(dp33
S'ordinal'
p34
NsS'default_value'
p35
NsS'mojom_name'
p36
S'id'
p37
sg15
Nsg19
NsS'typename'
p38
S'int32'
p39
sg16
Nsbag1
(g31
g3
NtRp40
(dp41
g34
Nsg35
Nsg36
S'locked'
p42
sg15
Nsg19
Nsg38
S'bool'
p43
sg16
Nsbag1
(g31
g3
NtRp44
(dp45
g34
Nsg35
Nsg36
S'site_url'
p46
sg15
Nsg19
Nsg38
S'url.mojom.Url?'
p47
sg16
Nsbasg16
Nsg19
Nsbsg15
Nsg16
Nsg36
S'SiteInstanceInfo'
p48
sg19
Nsbag1
(g23
g3
NtRp49
(dp50
g26
g1
(g27
g3
NtRp51
(dp52
g10
(lp53
g1
(g31
g3
NtRp54
(dp55
g34
Nsg35
Nsg36
S'routing_id'
p56
sg15
Nsg19
Nsg38
S'int32'
p57
sg16
Nsbag1
(g31
g3
NtRp58
(dp59
g34
Nsg35
Nsg36
S'process_id'
p60
sg15
Nsg19
Nsg38
S'int32'
p61
sg16
Nsbag1
(g31
g3
NtRp62
(dp63
g34
Nsg35
Nsg36
S'site_instance'
p64
sg15
Nsg19
Nsg38
S'SiteInstanceInfo'
p65
sg16
Nsbag1
(g31
g3
NtRp66
(dp67
g34
Nsg35
Nsg36
S'last_committed_url'
p68
sg15
Nsg19
Nsg38
S'url.mojom.Url?'
p69
sg16
Nsbag1
(g31
g3
NtRp70
(dp71
g34
Nsg35
Nsg36
S'subframes'
p72
sg15
Nsg19
Nsg38
S'FrameInfo[]'
p73
sg16
Nsbasg16
Nsg19
Nsbsg15
Nsg16
Nsg36
S'FrameInfo'
p74
sg19
Nsbag1
(g23
g3
NtRp75
(dp76
g26
g1
(g27
g3
NtRp77
(dp78
g10
(lp79
g1
(g31
g3
NtRp80
(dp81
g34
Nsg35
Nsg36
S'title'
p82
sg15
Nsg19
Nsg38
S'string'
p83
sg16
Nsbag1
(g31
g3
NtRp84
(dp85
g34
Nsg35
Nsg36
S'root_frame'
p86
sg15
Nsg19
Nsg38
S'FrameInfo'
p87
sg16
Nsbasg16
Nsg19
Nsbsg15
Nsg16
Nsg36
S'WebContentsInfo'
p88
sg19
Nsbag1
(cmojom.parse.ast
Interface
p89
g3
NtRp90
(dp91
g26
g1
(cmojom.parse.ast
InterfaceBody
p92
g3
NtRp93
(dp94
g10
(lp95
g1
(cmojom.parse.ast
Method
p96
g3
NtRp97
(dp98
g34
Nsg36
S'GetIsolationMode'
p99
sS'parameter_list'
p100
g1
(cmojom.parse.ast
ParameterList
p101
g3
NtRp102
(dp103
g10
(lp104
sg16
Nsg19
Nsbsg15
Nsg19
Nsg16
NsS'response_parameter_list'
p105
g1
(g101
g3
NtRp106
(dp107
g10
(lp108
g1
(cmojom.parse.ast
Parameter
p109
g3
NtRp110
(dp111
g34
Nsg36
S'mode'
p112
sg15
Nsg19
g20
sg38
S'string'
p113
sg16
I43
sbasg16
I43
sg19
g20
sbsbag1
(g96
g3
NtRp114
(dp115
g34
Nsg36
S'GetIsolatedOriginsSize'
p116
sg100
g1
(g101
g3
NtRp117
(dp118
g10
(lp119
sg16
Nsg19
Nsbsg15
Nsg19
Nsg16
Nsg105
g1
(g101
g3
NtRp120
(dp121
g10
(lp122
g1
(g109
g3
NtRp123
(dp124
g34
Nsg36
S'size'
p125
sg15
Nsg19
g20
sg38
S'uint32'
p126
sg16
I46
sbasg16
I46
sg19
g20
sbsbag1
(g96
g3
NtRp127
(dp128
g34
Nsg36
S'GetAllWebContentsInfo'
p129
sg100
g1
(g101
g3
NtRp130
(dp131
g10
(lp132
sg16
Nsg19
Nsbsg15
Nsg19
Nsg16
Nsg105
g1
(g101
g3
NtRp133
(dp134
g10
(lp135
g1
(g109
g3
NtRp136
(dp137
g34
Nsg36
S'infos'
p138
sg15
Nsg19
g20
sg38
S'WebContentsInfo[]'
p139
sg16
I50
sbasg16
I50
sg19
g20
sbsbasg16
Nsg19
Nsbsg15
Nsg16
Nsg36
S'ProcessInternalsHandler'
p140
sg19
Nsbasg16
NsS'module'
p141
g1
(cmojom.parse.ast
Module
p142
g3
NtRp143
(dp144
S'mojom_namespace'
p145
(S'IDENTIFIER'
p146
S'mojom'
tp147
sg16
I5
sg15
Nsg19
g20
sbsg19
Nsb.