ccopy_reg
_reconstructor
p1
(cmojom.parse.ast
Mojom
p2
c__builtin__
object
p3
NtRp4
(dp5
S'import_list'
p6
g1
(cmojom.parse.ast
ImportList
p7
g3
NtRp8
(dp9
S'items'
p10
(lp11
g1
(cmojom.parse.ast
Import
p12
g3
NtRp13
(dp14
S'attribute_list'
p15
NsS'lineno'
p16
I7
sS'import_filename'
p17
S'mojo/public/mojom/base/values.mojom'
p18
sS'filename'
p19
S'../../components/content_settings/core/common/content_settings.mojom'
p20
sbasg16
I7
sg19
g20
sbsS'definition_list'
p21
(lp22
g1
(cmojom.parse.ast
Struct
p23
g3
NtRp24
(dp25
S'body'
p26
g1
(cmojom.parse.ast
StructBody
p27
g3
NtRp28
(dp29
g10
(lp30
g1
(cmojom.parse.ast
StructField
p31
g3
NtRp32
(dp33
S'ordinal'
p34
NsS'default_value'
p35
NsS'mojom_name'
p36
S'scheme'
p37
sg15
Nsg19
NsS'typename'
p38
S'string'
p39
sg16
Nsbag1
(g31
g3
NtRp40
(dp41
g34
Nsg35
Nsg36
S'is_scheme_wildcard'
p42
sg15
Nsg19
Nsg38
S'bool'
p43
sg16
Nsbag1
(g31
g3
NtRp44
(dp45
g34
Nsg35
Nsg36
S'host'
p46
sg15
Nsg19
Nsg38
S'string'
p47
sg16
Nsbag1
(g31
g3
NtRp48
(dp49
g34
Nsg35
Nsg36
S'has_domain_wildcard'
p50
sg15
Nsg19
Nsg38
S'bool'
p51
sg16
Nsbag1
(g31
g3
NtRp52
(dp53
g34
Nsg35
Nsg36
S'port'
p54
sg15
Nsg19
Nsg38
S'string'
p55
sg16
Nsbag1
(g31
g3
NtRp56
(dp57
g34
Nsg35
Nsg36
S'is_port_wildcard'
p58
sg15
Nsg19
Nsg38
S'bool'
p59
sg16
Nsbag1
(g31
g3
NtRp60
(dp61
g34
Nsg35
Nsg36
S'path'
p62
sg15
Nsg19
Nsg38
S'string'
p63
sg16
Nsbag1
(g31
g3
NtRp64
(dp65
g34
Nsg35
Nsg36
S'is_path_wildcard'
p66
sg15
Nsg19
Nsg38
S'bool'
p67
sg16
Nsbasg16
Nsg19
Nsbsg15
Nsg16
Nsg36
S'PatternParts'
p68
sg19
Nsbag1
(g23
g3
NtRp69
(dp70
g26
g1
(g27
g3
NtRp71
(dp72
g10
(lp73
g1
(g31
g3
NtRp74
(dp75
g34
Nsg35
Nsg36
S'parts'
p76
sg15
Nsg19
Nsg38
S'PatternParts'
p77
sg16
Nsbag1
(g31
g3
NtRp78
(dp79
g34
Nsg35
Nsg36
S'is_valid'
p80
sg15
Nsg19
Nsg38
S'bool'
p81
sg16
Nsbasg16
Nsg19
Nsbsg15
Nsg16
Nsg36
S'ContentSettingsPattern'
p82
sg19
Nsbag1
(cmojom.parse.ast
Enum
p83
g3
NtRp84
(dp85
g15
NsS'enum_value_list'
p86
g1
(cmojom.parse.ast
EnumValueList
p87
g3
NtRp88
(dp89
g10
(lp90
g1
(cmojom.parse.ast
EnumValue
p91
g3
NtRp92
(dp93
g15
NsS'value'
p94
S'0'
sg16
I52
sg36
S'DEFAULT'
p95
sg19
g20
sbag1
(g91
g3
NtRp96
(dp97
g15
Nsg94
Nsg16
I53
sg36
S'ALLOW'
p98
sg19
g20
sbag1
(g91
g3
NtRp99
(dp100
g15
Nsg94
Nsg16
I54
sg36
S'BLOCK'
p101
sg19
g20
sbag1
(g91
g3
NtRp102
(dp103
g15
Nsg94
Nsg16
I55
sg36
S'ASK'
p104
sg19
g20
sbag1
(g91
g3
NtRp105
(dp106
g15
Nsg94
Nsg16
I56
sg36
S'SESSION_ONLY'
p107
sg19
g20
sbag1
(g91
g3
NtRp108
(dp109
g15
Nsg94
Nsg16
I57
sg36
S'DETECT_IMPORTANT_CONTENT'
p110
sg19
g20
sbasg16
I52
sg19
g20
sbsg16
I51
sg36
S'ContentSetting'
p111
sg19
g20
sbag1
(g23
g3
NtRp112
(dp113
g26
g1
(g27
g3
NtRp114
(dp115
g10
(lp116
g1
(g31
g3
NtRp117
(dp118
g34
Nsg35
Nsg36
S'primary_pattern'
p119
sg15
Nsg19
Nsg38
S'ContentSettingsPattern'
p120
sg16
Nsbag1
(g31
g3
NtRp121
(dp122
g34
Nsg35
Nsg36
S'secondary_pattern'
p123
sg15
Nsg19
Nsg38
S'ContentSettingsPattern'
p124
sg16
Nsbag1
(g31
g3
NtRp125
(dp126
g34
Nsg35
Nsg36
S'setting_value'
p127
sg15
Nsg19
Nsg38
S'mojo_base.mojom.Value'
p128
sg16
Nsbag1
(g31
g3
NtRp129
(dp130
g34
Nsg35
Nsg36
S'source'
p131
sg15
Nsg19
Nsg38
S'string'
p132
sg16
Nsbag1
(g31
g3
NtRp133
(dp134
g34
Nsg35
Nsg36
S'incognito'
p135
sg15
Nsg19
Nsg38
S'bool'
p136
sg16
Nsbasg16
Nsg19
Nsbsg15
Nsg16
Nsg36
S'ContentSettingPatternSource'
p137
sg19
Nsbag1
(g23
g3
NtRp138
(dp139
g26
g1
(g27
g3
NtRp140
(dp141
g10
(lp142
g1
(g31
g3
NtRp143
(dp144
g34
Nsg35
Nsg36
S'image_rules'
p145
sg15
Nsg19
Nsg38
S'ContentSettingPatternSource[]'
p146
sg16
Nsbag1
(g31
g3
NtRp147
(dp148
g34
Nsg35
Nsg36
S'script_rules'
p149
sg15
Nsg19
Nsg38
S'ContentSettingPatternSource[]'
p150
sg16
Nsbag1
(g31
g3
NtRp151
(dp152
g34
Nsg35
Nsg36
S'autoplay_rules'
p153
sg15
Nsg19
Nsg38
S'ContentSettingPatternSource[]'
p154
sg16
Nsbag1
(g31
g3
NtRp155
(dp156
g34
Nsg35
Nsg36
S'client_hints_rules'
p157
sg15
Nsg19
Nsg38
S'ContentSettingPatternSource[]'
p158
sg16
Nsbag1
(g31
g3
NtRp159
(dp160
g34
Nsg35
Nsg36
S'popup_redirect_rules'
p161
sg15
Nsg19
Nsg38
S'ContentSettingPatternSource[]'
p162
sg16
Nsbasg16
Nsg19
Nsbsg15
Nsg16
Nsg36
S'RendererContentSettingRules'
p163
sg19
Nsbasg16
NsS'module'
p164
g1
(cmojom.parse.ast
Module
p165
g3
NtRp166
(dp167
S'mojom_namespace'
p168
(S'IDENTIFIER'
p169
S'content_settings.mojom'
tp170
sg16
I5
sg15
Nsg19
g20
sbsg19
Nsb.