ccopy_reg
_reconstructor
p1
(cmojom.parse.ast
Mojom
p2
c__builtin__
object
p3
NtRp4
(dp5
S'import_list'
p6
g1
(cmojom.parse.ast
ImportList
p7
g3
NtRp8
(dp9
S'items'
p10
(lp11
g1
(cmojom.parse.ast
Import
p12
g3
NtRp13
(dp14
S'attribute_list'
p15
NsS'lineno'
p16
I10
sS'import_filename'
p17
S'services/network/public/mojom/ip_address.mojom'
p18
sS'filename'
p19
S'../../services/proxy_resolver/public/mojom/proxy_resolver.mojom'
p20
sbag1
(g12
g3
NtRp21
(dp22
g15
Nsg16
I11
sg17
S'url/mojom/url.mojom'
p23
sg19
g20
sbasg16
I10
sg19
g20
sbsS'definition_list'
p24
(lp25
g1
(cmojom.parse.ast
Const
p26
g3
NtRp27
(dp28
S'mojom_name'
p29
S'kProxyResolverServiceName'
p30
sg15
NsS'value'
p31
S'"proxy_resolver"'
p32
sg19
NsS'typename'
p33
S'string'
p34
sg16
Nsbag1
(cmojom.parse.ast
Enum
p35
g3
NtRp36
(dp37
g15
NsS'enum_value_list'
p38
g1
(cmojom.parse.ast
EnumValueList
p39
g3
NtRp40
(dp41
g10
(lp42
g1
(cmojom.parse.ast
EnumValue
p43
g3
NtRp44
(dp45
g15
Nsg31
Nsg16
I17
sg29
S'DNS_RESOLVE'
p46
sg19
g20
sbag1
(g43
g3
NtRp47
(dp48
g15
Nsg31
Nsg16
I18
sg29
S'DNS_RESOLVE_EX'
p49
sg19
g20
sbag1
(g43
g3
NtRp50
(dp51
g15
Nsg31
Nsg16
I19
sg29
S'MY_IP_ADDRESS'
p52
sg19
g20
sbag1
(g43
g3
NtRp53
(dp54
g15
Nsg31
Nsg16
I20
sg29
S'MY_IP_ADDRESS_EX'
p55
sg19
g20
sbasg16
I17
sg19
g20
sbsg16
I16
sg29
S'HostResolveOperation'
p56
sg19
g20
sbag1
(cmojom.parse.ast
Interface
p57
g3
NtRp58
(dp59
S'body'
p60
g1
(cmojom.parse.ast
InterfaceBody
p61
g3
NtRp62
(dp63
g10
(lp64
g1
(cmojom.parse.ast
Method
p65
g3
NtRp66
(dp67
S'ordinal'
p68
Nsg29
S'ReportResult'
p69
sS'parameter_list'
p70
g1
(cmojom.parse.ast
ParameterList
p71
g3
NtRp72
(dp73
g10
(lp74
g1
(cmojom.parse.ast
Parameter
p75
g3
NtRp76
(dp77
g68
Nsg29
S'error'
p78
sg15
Nsg19
g20
sg33
S'int32'
p79
sg16
I27
sbag1
(g75
g3
NtRp80
(dp81
g68
Nsg29
S'result'
p82
sg15
Nsg19
g20
sg33
S'network.mojom.IPAddress[]'
p83
sg16
I27
sbasg16
I27
sg19
g20
sbsg15
Nsg19
Nsg16
NsS'response_parameter_list'
p84
Nsbasg16
Nsg19
Nsbsg15
Nsg16
Nsg29
S'HostResolverRequestClient'
p85
sg19
Nsbag1
(g35
g3
NtRp86
(dp87
g15
Nsg38
g1
(g39
g3
NtRp88
(dp89
g10
(lp90
g1
(g43
g3
NtRp91
(dp92
g15
Nsg31
Nsg16
I32
sg29
S'INVALID'
p93
sg19
g20
sbag1
(g43
g3
NtRp94
(dp95
g15
Nsg31
Nsg16
I33
sg29
S'DIRECT'
p96
sg19
g20
sbag1
(g43
g3
NtRp97
(dp98
g15
Nsg31
Nsg16
I34
sg29
S'HTTP'
p99
sg19
g20
sbag1
(g43
g3
NtRp100
(dp101
g15
Nsg31
Nsg16
I35
sg29
S'SOCKS4'
p102
sg19
g20
sbag1
(g43
g3
NtRp103
(dp104
g15
Nsg31
Nsg16
I36
sg29
S'SOCKS5'
p105
sg19
g20
sbag1
(g43
g3
NtRp106
(dp107
g15
Nsg31
Nsg16
I37
sg29
S'HTTPS'
p108
sg19
g20
sbag1
(g43
g3
NtRp109
(dp110
g15
Nsg31
Nsg16
I38
sg29
S'QUIC'
p111
sg19
g20
sbasg16
I32
sg19
g20
sbsg16
I31
sg29
S'ProxyScheme'
p112
sg19
g20
sbag1
(cmojom.parse.ast
Struct
p113
g3
NtRp114
(dp115
g60
g1
(cmojom.parse.ast
StructBody
p116
g3
NtRp117
(dp118
g10
(lp119
g1
(cmojom.parse.ast
StructField
p120
g3
NtRp121
(dp122
g68
NsS'default_value'
p123
Nsg29
S'scheme'
p124
sg15
Nsg19
Nsg33
S'ProxyScheme'
p125
sg16
Nsbag1
(g120
g3
NtRp126
(dp127
g68
Nsg123
Nsg29
S'host'
p128
sg15
Nsg19
Nsg33
S'string'
p129
sg16
Nsbag1
(g120
g3
NtRp130
(dp131
g68
Nsg123
Nsg29
S'port'
p132
sg15
Nsg19
Nsg33
S'uint16'
p133
sg16
Nsbasg16
Nsg19
Nsbsg15
Nsg16
Nsg29
S'ProxyServer'
p134
sg19
Nsbag1
(g113
g3
NtRp135
(dp136
g60
g1
(g116
g3
NtRp137
(dp138
g10
(lp139
g1
(g120
g3
NtRp140
(dp141
g68
Nsg123
Nsg29
S'proxy_servers'
p142
sg15
Nsg19
Nsg33
S'ProxyServer[]'
p143
sg16
Nsbasg16
Nsg19
Nsbsg15
Nsg16
Nsg29
S'ProxyInfo'
p144
sg19
Nsbag1
(g57
g3
NtRp145
(dp146
g60
g1
(g61
g3
NtRp147
(dp148
g10
(lp149
g1
(g65
g3
NtRp150
(dp151
g68
Nsg29
S'GetProxyForUrl'
p152
sg70
g1
(g71
g3
NtRp153
(dp154
g10
(lp155
g1
(g75
g3
NtRp156
(dp157
g68
Nsg29
S'url'
p158
sg15
Nsg19
g20
sg33
S'url.mojom.Url'
p159
sg16
I57
sbag1
(g75
g3
NtRp160
(dp161
g68
Nsg29
S'client'
p162
sg15
Nsg19
g20
sg33
S'ProxyResolverRequestClient'
p163
sg16
I57
sbasg16
I57
sg19
g20
sbsg15
Nsg19
Nsg16
Nsg84
Nsbasg16
Nsg19
Nsbsg15
Nsg16
Nsg29
S'ProxyResolver'
p164
sg19
Nsbag1
(g57
g3
NtRp165
(dp166
g60
g1
(g61
g3
NtRp167
(dp168
g10
(lp169
g1
(g65
g3
NtRp170
(dp171
g68
Nsg29
S'ReportResult'
p172
sg70
g1
(g71
g3
NtRp173
(dp174
g10
(lp175
g1
(g75
g3
NtRp176
(dp177
g68
Nsg29
S'error'
p178
sg15
Nsg19
g20
sg33
S'int32'
p179
sg16
I61
sbag1
(g75
g3
NtRp180
(dp181
g68
Nsg29
S'proxy_info'
p182
sg15
Nsg19
g20
sg33
S'ProxyInfo'
p183
sg16
I61
sbasg16
I61
sg19
g20
sbsg15
Nsg19
Nsg16
Nsg84
Nsbag1
(g65
g3
NtRp184
(dp185
g68
Nsg29
S'Alert'
p186
sg70
g1
(g71
g3
NtRp187
(dp188
g10
(lp189
g1
(g75
g3
NtRp190
(dp191
g68
Nsg29
S'error'
p192
sg15
Nsg19
g20
sg33
S'string'
p193
sg16
I63
sbasg16
I63
sg19
g20
sbsg15
Nsg19
Nsg16
Nsg84
Nsbag1
(g65
g3
NtRp194
(dp195
g68
Nsg29
S'OnError'
p196
sg70
g1
(g71
g3
NtRp197
(dp198
g10
(lp199
g1
(g75
g3
NtRp200
(dp201
g68
Nsg29
S'line_number'
p202
sg15
Nsg19
g20
sg33
S'int32'
p203
sg16
I64
sbag1
(g75
g3
NtRp204
(dp205
g68
Nsg29
S'error'
p206
sg15
Nsg19
g20
sg33
S'string'
p207
sg16
I64
sbasg16
I64
sg19
g20
sbsg15
Nsg19
Nsg16
Nsg84
Nsbag1
(g65
g3
NtRp208
(dp209
g68
Nsg29
S'ResolveDns'
p210
sg70
g1
(g71
g3
NtRp211
(dp212
g10
(lp213
g1
(g75
g3
NtRp214
(dp215
g68
Nsg29
S'host'
p216
sg15
Nsg19
g20
sg33
S'string'
p217
sg16
I66
sbag1
(g75
g3
NtRp218
(dp219
g68
Nsg29
S'operation'
p220
sg15
Nsg19
g20
sg33
S'HostResolveOperation'
p221
sg16
I67
sbag1
(g75
g3
NtRp222
(dp223
g68
Nsg29
S'client'
p224
sg15
Nsg19
g20
sg33
S'HostResolverRequestClient'
p225
sg16
I68
sbasg16
I66
sg19
g20
sbsg15
Nsg19
Nsg16
Nsg84
Nsbasg16
Nsg19
Nsbsg15
Nsg16
Nsg29
S'ProxyResolverRequestClient'
p226
sg19
Nsbag1
(g57
g3
NtRp227
(dp228
g60
g1
(g61
g3
NtRp229
(dp230
g10
(lp231
g1
(g65
g3
NtRp232
(dp233
g68
Nsg29
S'CreateResolver'
p234
sg70
g1
(g71
g3
NtRp235
(dp236
g10
(lp237
g1
(g75
g3
NtRp238
(dp239
g68
Nsg29
S'pac_script'
p240
sg15
Nsg19
g20
sg33
S'string'
p241
sg16
I77
sbag1
(g75
g3
NtRp242
(dp243
g68
Nsg29
S'resolver'
p244
sg15
Nsg19
g20
sg33
S'ProxyResolver&'
p245
sg16
I78
sbag1
(g75
g3
NtRp246
(dp247
g68
Nsg29
S'client'
p248
sg15
Nsg19
g20
sg33
S'ProxyResolverFactoryRequestClient'
p249
sg16
I79
sbasg16
I77
sg19
g20
sbsg15
Nsg19
Nsg16
Nsg84
Nsbasg16
Nsg19
Nsbsg15
Nsg16
Nsg29
S'ProxyResolverFactory'
p250
sg19
Nsbag1
(g57
g3
NtRp251
(dp252
g60
g1
(g61
g3
NtRp253
(dp254
g10
(lp255
g1
(g65
g3
NtRp256
(dp257
g68
Nsg29
S'ReportResult'
p258
sg70
g1
(g71
g3
NtRp259
(dp260
g10
(lp261
g1
(g75
g3
NtRp262
(dp263
g68
Nsg29
S'error'
p264
sg15
Nsg19
g20
sg33
S'int32'
p265
sg16
I83
sbasg16
I83
sg19
g20
sbsg15
Nsg19
Nsg16
Nsg84
Nsbag1
(g65
g3
NtRp266
(dp267
g68
Nsg29
S'Alert'
p268
sg70
g1
(g71
g3
NtRp269
(dp270
g10
(lp271
g1
(g75
g3
NtRp272
(dp273
g68
Nsg29
S'error'
p274
sg15
Nsg19
g20
sg33
S'string'
p275
sg16
I85
sbasg16
I85
sg19
g20
sbsg15
Nsg19
Nsg16
Nsg84
Nsbag1
(g65
g3
NtRp276
(dp277
g68
Nsg29
S'OnError'
p278
sg70
g1
(g71
g3
NtRp279
(dp280
g10
(lp281
g1
(g75
g3
NtRp282
(dp283
g68
Nsg29
S'line_number'
p284
sg15
Nsg19
g20
sg33
S'int32'
p285
sg16
I86
sbag1
(g75
g3
NtRp286
(dp287
g68
Nsg29
S'error'
p288
sg15
Nsg19
g20
sg33
S'string'
p289
sg16
I86
sbasg16
I86
sg19
g20
sbsg15
Nsg19
Nsg16
Nsg84
Nsbag1
(g65
g3
NtRp290
(dp291
g68
Nsg29
S'ResolveDns'
p292
sg70
g1
(g71
g3
NtRp293
(dp294
g10
(lp295
g1
(g75
g3
NtRp296
(dp297
g68
Nsg29
S'host'
p298
sg15
Nsg19
g20
sg33
S'string'
p299
sg16
I88
sbag1
(g75
g3
NtRp300
(dp301
g68
Nsg29
S'operation'
p302
sg15
Nsg19
g20
sg33
S'HostResolveOperation'
p303
sg16
I89
sbag1
(g75
g3
NtRp304
(dp305
g68
Nsg29
S'client'
p306
sg15
Nsg19
g20
sg33
S'HostResolverRequestClient'
p307
sg16
I90
sbasg16
I88
sg19
g20
sbsg15
Nsg19
Nsg16
Nsg84
Nsbasg16
Nsg19
Nsbsg15
Nsg16
Nsg29
S'ProxyResolverFactoryRequestClient'
p308
sg19
Nsbasg16
NsS'module'
p309
g1
(cmojom.parse.ast
Module
p310
g3
NtRp311
(dp312
S'mojom_namespace'
p313
(S'IDENTIFIER'
p314
S'proxy_resolver.mojom'
tp315
sg16
I8
sg15
Nsg19
g20
sbsg19
Nsb.