ccopy_reg
_reconstructor
p1
(cmojom.parse.ast
Mojom
p2
c__builtin__
object
p3
NtRp4
(dp5
S'import_list'
p6
g1
(cmojom.parse.ast
ImportList
p7
g3
NtRp8
(dp9
S'items'
p10
(lp11
sS'lineno'
p12
NsS'filename'
p13
NsbsS'definition_list'
p14
(lp15
g1
(cmojom.parse.ast
Interface
p16
g3
NtRp17
(dp18
S'body'
p19
g1
(cmojom.parse.ast
InterfaceBody
p20
g3
NtRp21
(dp22
g10
(lp23
g1
(cmojom.parse.ast
Method
p24
g3
NtRp25
(dp26
S'ordinal'
p27
NsS'mojom_name'
p28
S'Read'
p29
sS'parameter_list'
p30
g1
(cmojom.parse.ast
ParameterList
p31
g3
NtRp32
(dp33
g10
(lp34
g1
(cmojom.parse.ast
Parameter
p35
g3
NtRp36
(dp37
g27
Nsg28
S'pipe'
p38
sS'attribute_list'
p39
Nsg13
S'../../services/network/public/mojom/data_pipe_getter.mojom'
p40
sS'typename'
p41
S'handle<data_pipe_producer>'
p42
sg12
I15
sbasg12
I15
sg13
g40
sbsg39
Nsg13
Nsg12
NsS'response_parameter_list'
p43
g1
(g31
g3
NtRp44
(dp45
g10
(lp46
g1
(g35
g3
NtRp47
(dp48
g27
Nsg28
S'status'
p49
sg39
Nsg13
g40
sg41
S'int32'
p50
sg12
I15
sbag1
(g35
g3
NtRp51
(dp52
g27
Nsg28
S'size'
p53
sg39
Nsg13
g40
sg41
S'uint64'
p54
sg12
I15
sbasg12
I15
sg13
g40
sbsbag1
(g24
g3
NtRp55
(dp56
g27
Nsg28
S'Clone'
p57
sg30
g1
(g31
g3
NtRp58
(dp59
g10
(lp60
g1
(g35
g3
NtRp61
(dp62
g27
Nsg28
S'request'
p63
sg39
Nsg13
g40
sg41
S'DataPipeGetter&'
p64
sg12
I20
sbasg12
I20
sg13
g40
sbsg39
Nsg13
Nsg12
Nsg43
Nsbasg12
Nsg13
Nsbsg39
Nsg12
Nsg28
S'DataPipeGetter'
p65
sg13
Nsbasg12
NsS'module'
p66
g1
(cmojom.parse.ast
Module
p67
g3
NtRp68
(dp69
S'mojom_namespace'
p70
(S'IDENTIFIER'
p71
S'network.mojom'
tp72
sg12
I5
sg39
Nsg13
g40
sbsg13
Nsb.