ccopy_reg
_reconstructor
p1
(cmojom.parse.ast
Mojom
p2
c__builtin__
object
p3
NtRp4
(dp5
S'import_list'
p6
g1
(cmojom.parse.ast
ImportList
p7
g3
NtRp8
(dp9
S'items'
p10
(lp11
g1
(cmojom.parse.ast
Import
p12
g3
NtRp13
(dp14
S'attribute_list'
p15
NsS'lineno'
p16
I7
sS'import_filename'
p17
S'mojo/public/mojom/base/time.mojom'
p18
sS'filename'
p19
S'../../services/network/public/mojom/host_resolver.mojom'
p20
sbag1
(g12
g3
NtRp21
(dp22
g15
Nsg16
I8
sg17
S'services/network/public/mojom/address_list.mojom'
p23
sg19
g20
sbag1
(g12
g3
NtRp24
(dp25
g15
Nsg16
I9
sg17
S'services/network/public/mojom/ip_address.mojom'
p26
sg19
g20
sbag1
(g12
g3
NtRp27
(dp28
g15
Nsg16
I10
sg17
S'services/network/public/mojom/ip_endpoint.mojom'
p29
sg19
g20
sbag1
(g12
g3
NtRp30
(dp31
g15
Nsg16
I11
sg17
S'services/network/public/mojom/network_param.mojom'
p32
sg19
g20
sbag1
(g12
g3
NtRp33
(dp34
g15
Nsg16
I12
sg17
S'services/network/public/mojom/url_loader.mojom'
p35
sg19
g20
sbasg16
I7
sg19
g20
sbsS'definition_list'
p36
(lp37
g1
(cmojom.parse.ast
Struct
p38
g3
NtRp39
(dp40
S'body'
p41
g1
(cmojom.parse.ast
StructBody
p42
g3
NtRp43
(dp44
g10
(lp45
g1
(cmojom.parse.ast
StructField
p46
g3
NtRp47
(dp48
S'ordinal'
p49
NsS'default_value'
p50
NsS'mojom_name'
p51
S'hostname'
p52
sg15
Nsg19
NsS'typename'
p53
S'string'
p54
sg16
Nsbag1
(g46
g3
NtRp55
(dp56
g49
Nsg50
Nsg51
S'address'
p57
sg15
Nsg19
Nsg53
S'IPAddress'
p58
sg16
Nsbasg16
Nsg19
Nsbsg15
Nsg16
Nsg51
S'DnsHost'
p59
sg19
Nsbag1
(g38
g3
NtRp60
(dp61
g41
g1
(g42
g3
NtRp62
(dp63
g10
(lp64
g1
(g46
g3
NtRp65
(dp66
g49
Nsg50
Nsg51
S'server_template'
p67
sg15
Nsg19
Nsg53
S'string'
p68
sg16
Nsbag1
(g46
g3
NtRp69
(dp70
g49
Nsg50
S'false'
p71
sg51
S'use_post'
p72
sg15
Nsg19
Nsg53
S'bool'
p73
sg16
Nsbasg16
Nsg19
Nsbsg15
Nsg16
Nsg51
S'DnsOverHttpsServer'
p74
sg19
Nsbag1
(g38
g3
NtRp75
(dp76
g41
g1
(g42
g3
NtRp77
(dp78
g10
(lp79
g1
(cmojom.parse.ast
Enum
p80
g3
NtRp81
(dp82
g15
NsS'enum_value_list'
p83
g1
(cmojom.parse.ast
EnumValueList
p84
g3
NtRp85
(dp86
g10
(lp87
g1
(cmojom.parse.ast
EnumValue
p88
g3
NtRp89
(dp90
g15
NsS'value'
p91
Nsg16
I38
sg51
S'NO_OVERRIDE'
p92
sg19
g20
sbag1
(g88
g3
NtRp93
(dp94
g15
Nsg91
Nsg16
I39
sg51
S'TRISTATE_TRUE'
p95
sg19
g20
sbag1
(g88
g3
NtRp96
(dp97
g15
Nsg91
Nsg16
I40
sg51
S'TRISTATE_FALSE'
p98
sg19
g20
sbasg16
I38
sg19
g20
sbsg16
I37
sg51
S'Tristate'
p99
sg19
g20
sbag1
(g46
g3
NtRp100
(dp101
g49
Nsg50
Nsg51
S'nameservers'
p102
sg15
Nsg19
Nsg53
S'IPEndPoint[]?'
p103
sg16
Nsbag1
(g46
g3
NtRp104
(dp105
g49
Nsg50
Nsg51
S'search'
p106
sg15
Nsg19
Nsg53
S'string[]?'
p107
sg16
Nsbag1
(g46
g3
NtRp108
(dp109
g49
Nsg50
Nsg51
S'hosts'
p110
sg15
Nsg19
Nsg53
S'DnsHost[]?'
p111
sg16
Nsbag1
(g46
g3
NtRp112
(dp113
g49
Nsg50
(S'IDENTIFIER'
p114
S'Tristate.NO_OVERRIDE'
tp115
sg51
S'append_to_multi_label_name'
p116
sg15
Nsg19
Nsg53
S'Tristate'
p117
sg16
Nsbag1
(g46
g3
NtRp118
(dp119
g49
Nsg50
(g114
S'Tristate.NO_OVERRIDE'
tp120
sg51
S'randomize_ports'
p121
sg15
Nsg19
Nsg53
S'Tristate'
p122
sg16
Nsbag1
(g46
g3
NtRp123
(dp124
g49
Nsg50
S'-1'
p125
sg51
S'ndots'
p126
sg15
Nsg19
Nsg53
S'int8'
p127
sg16
Nsbag1
(g46
g3
NtRp128
(dp129
g49
Nsg50
Nsg51
S'timeout'
p130
sg15
Nsg19
Nsg53
S'mojo_base.mojom.TimeDelta?'
p131
sg16
Nsbag1
(g46
g3
NtRp132
(dp133
g49
Nsg50
S'-1'
p134
sg51
S'attempts'
p135
sg15
Nsg19
Nsg53
S'int32'
p136
sg16
Nsbag1
(g46
g3
NtRp137
(dp138
g49
Nsg50
(g114
S'Tristate.NO_OVERRIDE'
tp139
sg51
S'rotate'
p140
sg15
Nsg19
Nsg53
S'Tristate'
p141
sg16
Nsbag1
(g46
g3
NtRp142
(dp143
g49
Nsg50
(g114
S'Tristate.NO_OVERRIDE'
tp144
sg51
S'use_local_ipv6'
p145
sg15
Nsg19
Nsg53
S'Tristate'
p146
sg16
Nsbag1
(g46
g3
NtRp147
(dp148
g49
Nsg50
Nsg51
S'dns_over_https_servers'
p149
sg15
Nsg19
Nsg53
S'DnsOverHttpsServer[]?'
p150
sg16
Nsbasg16
I37
sg19
g20
sbsg15
Nsg16
Nsg51
S'DnsConfigOverrides'
p151
sg19
Nsbag1
(cmojom.parse.ast
Interface
p152
g3
NtRp153
(dp154
g41
g1
(cmojom.parse.ast
InterfaceBody
p155
g3
NtRp156
(dp157
g10
(lp158
g1
(cmojom.parse.ast
Method
p159
g3
NtRp160
(dp161
g49
Nsg51
S'Cancel'
p162
sS'parameter_list'
p163
g1
(cmojom.parse.ast
ParameterList
p164
g3
NtRp165
(dp166
g10
(lp167
g1
(cmojom.parse.ast
Parameter
p168
g3
NtRp169
(dp170
g49
Nsg51
S'result'
p171
sg15
Nsg19
g20
sg53
S'int32'
p172
sg16
I94
sbasg16
I94
sg19
g20
sbsg15
Nsg19
Nsg16
NsS'response_parameter_list'
p173
Nsbasg16
Nsg19
Nsbsg15
Nsg16
Nsg51
S'ResolveHostHandle'
p174
sg19
Nsbag1
(g152
g3
NtRp175
(dp176
g41
g1
(g155
g3
NtRp177
(dp178
g10
(lp179
g1
(g159
g3
NtRp180
(dp181
g49
Nsg51
S'OnComplete'
p182
sg163
g1
(g164
g3
NtRp183
(dp184
g10
(lp185
g1
(g168
g3
NtRp186
(dp187
g49
Nsg51
S'result'
p188
sg15
Nsg19
g20
sg53
S'int32'
p189
sg16
I113
sbag1
(g168
g3
NtRp190
(dp191
g49
Nsg51
S'resolved_addresses'
p192
sg15
Nsg19
g20
sg53
S'AddressList?'
p193
sg16
I113
sbasg16
I113
sg19
g20
sbsg15
Nsg19
Nsg16
Nsg173
Nsbag1
(g159
g3
NtRp194
(dp195
g49
Nsg51
S'OnTextResults'
p196
sg163
g1
(g164
g3
NtRp197
(dp198
g10
(lp199
g1
(g168
g3
NtRp200
(dp201
g49
Nsg51
S'text_results'
p202
sg15
Nsg19
g20
sg53
S'string[]'
p203
sg16
I117
sbasg16
I117
sg19
g20
sbsg15
Nsg19
Nsg16
Nsg173
Nsbag1
(g159
g3
NtRp204
(dp205
g49
Nsg51
S'OnHostnameResults'
p206
sg163
g1
(g164
g3
NtRp207
(dp208
g10
(lp209
g1
(g168
g3
NtRp210
(dp211
g49
Nsg51
S'hosts'
p212
sg15
Nsg19
g20
sg53
S'HostPortPair[]'
p213
sg16
I118
sbasg16
I118
sg19
g20
sbsg15
Nsg19
Nsg16
Nsg173
Nsbasg16
Nsg19
Nsbsg15
Nsg16
Nsg51
S'ResolveHostClient'
p214
sg19
Nsbag1
(g80
g3
NtRp215
(dp216
g15
Nsg83
g1
(g84
g3
NtRp217
(dp218
g10
(lp219
g1
(g88
g3
NtRp220
(dp221
g15
Nsg91
Nsg16
I125
sg51
S'UNSPECIFIED'
p222
sg19
g20
sbag1
(g88
g3
NtRp223
(dp224
g15
Nsg91
Nsg16
I126
sg51
S'A'
sg19
g20
sbag1
(g88
g3
NtRp225
(dp226
g15
Nsg91
Nsg16
I127
sg51
S'AAAA'
p227
sg19
g20
sbag1
(g88
g3
NtRp228
(dp229
g15
Nsg91
Nsg16
I128
sg51
S'TXT'
p230
sg19
g20
sbag1
(g88
g3
NtRp231
(dp232
g15
Nsg91
Nsg16
I129
sg51
S'PTR'
p233
sg19
g20
sbag1
(g88
g3
NtRp234
(dp235
g15
Nsg91
Nsg16
I130
sg51
S'SRV'
p236
sg19
g20
sbasg16
I125
sg19
g20
sbsg16
I124
sg51
S'DnsQueryType'
p237
sg19
g20
sbag1
(g38
g3
NtRp238
(dp239
g41
g1
(g42
g3
NtRp240
(dp241
g10
(lp242
g1
(g46
g3
NtRp243
(dp244
g49
Nsg50
(g114
S'DnsQueryType.UNSPECIFIED'
tp245
sg51
S'dns_query_type'
p246
sg15
Nsg19
Nsg53
S'DnsQueryType'
p247
sg16
Nsbag1
(g46
g3
NtRp248
(dp249
g49
Nsg50
(g114
S'RequestPriority.kLowest'
tp250
sg51
S'initial_priority'
p251
sg15
Nsg19
Nsg53
S'RequestPriority'
p252
sg16
Nsbag1
(g80
g3
NtRp253
(dp254
g15
Nsg83
g1
(g84
g3
NtRp255
(dp256
g10
(lp257
g1
(g88
g3
NtRp258
(dp259
g15
Nsg91
Nsg16
I148
sg51
S'ANY'
p260
sg19
g20
sbag1
(g88
g3
NtRp261
(dp262
g15
Nsg91
Nsg16
I152
sg51
S'SYSTEM'
p263
sg19
g20
sbag1
(g88
g3
NtRp264
(dp265
g15
Nsg91
Nsg16
I155
sg51
S'DNS'
p266
sg19
g20
sbag1
(g88
g3
NtRp267
(dp268
g15
Nsg91
Nsg16
I158
sg51
S'MULTICAST_DNS'
p269
sg19
g20
sbag1
(g88
g3
NtRp270
(dp271
g15
Nsg91
Nsg16
I163
sg51
S'LOCAL_ONLY'
p272
sg19
g20
sbasg16
I148
sg19
g20
sbsg16
I145
sg51
S'Source'
p273
sg19
g20
sbag1
(g46
g3
NtRp274
(dp275
g49
Nsg50
(g114
S'Source.ANY'
tp276
sg51
S'source'
p277
sg15
Nsg19
Nsg53
S'Source'
p278
sg16
Nsbag1
(g46
g3
NtRp279
(dp280
g49
Nsg50
S'true'
p281
sg51
S'allow_cached_response'
p282
sg15
Nsg19
Nsg53
S'bool'
p283
sg16
Nsbag1
(g46
g3
NtRp284
(dp285
g49
Nsg50
Nsg51
S'control_handle'
p286
sg15
Nsg19
Nsg53
S'ResolveHostHandle&?'
p287
sg16
Nsbag1
(g46
g3
NtRp288
(dp289
g49
Nsg50
S'false'
p290
sg51
S'include_canonical_name'
p291
sg15
Nsg19
Nsg53
S'bool'
p292
sg16
Nsbag1
(g46
g3
NtRp293
(dp294
g49
Nsg50
S'false'
p295
sg51
S'loopback_only'
p296
sg15
Nsg19
Nsg53
S'bool'
p297
sg16
Nsbag1
(g46
g3
NtRp298
(dp299
g49
Nsg50
S'false'
p300
sg51
S'is_speculative'
p301
sg15
Nsg19
Nsg53
S'bool'
p302
sg16
Nsbasg16
Nsg19
Nsbsg15
Nsg16
Nsg51
S'ResolveHostParameters'
p303
sg19
Nsbag1
(g152
g3
NtRp304
(dp305
g41
g1
(g155
g3
NtRp306
(dp307
g10
(lp308
g1
(g80
g3
NtRp309
(dp310
g15
Nsg83
g1
(g84
g3
NtRp311
(dp312
g10
(lp313
g1
(g88
g3
NtRp314
(dp315
g15
Nsg91
Nsg16
I203
sg51
S'ADDED'
p316
sg19
g20
sbag1
(g88
g3
NtRp317
(dp318
g15
Nsg91
Nsg16
I204
sg51
S'CHANGED'
p319
sg19
g20
sbag1
(g88
g3
NtRp320
(dp321
g15
Nsg91
Nsg16
I205
sg51
S'REMOVED'
p322
sg19
g20
sbasg16
I203
sg19
g20
sbsg16
I202
sg51
S'UpdateType'
p323
sg19
g20
sbag1
(g159
g3
NtRp324
(dp325
g49
Nsg51
S'OnAddressResult'
p326
sg163
g1
(g164
g3
NtRp327
(dp328
g10
(lp329
g1
(g168
g3
NtRp330
(dp331
g49
Nsg51
S'update_type'
p332
sg15
Nsg19
g20
sg53
S'UpdateType'
p333
sg16
I208
sbag1
(g168
g3
NtRp334
(dp335
g49
Nsg51
S'query_type'
p336
sg15
Nsg19
g20
sg53
S'DnsQueryType'
p337
sg16
I209
sbag1
(g168
g3
NtRp338
(dp339
g49
Nsg51
S'endpoint'
p340
sg15
Nsg19
g20
sg53
S'IPEndPoint'
p341
sg16
I210
sbasg16
I208
sg19
g20
sbsg15
Nsg19
Nsg16
Nsg173
Nsbag1
(g159
g3
NtRp342
(dp343
g49
Nsg51
S'OnTextResult'
p344
sg163
g1
(g164
g3
NtRp345
(dp346
g10
(lp347
g1
(g168
g3
NtRp348
(dp349
g49
Nsg51
S'update_type'
p350
sg15
Nsg19
g20
sg53
S'UpdateType'
p351
sg16
I211
sbag1
(g168
g3
NtRp352
(dp353
g49
Nsg51
S'query_type'
p354
sg15
Nsg19
g20
sg53
S'DnsQueryType'
p355
sg16
I212
sbag1
(g168
g3
NtRp356
(dp357
g49
Nsg51
S'text_records'
p358
sg15
Nsg19
g20
sg53
S'string[]'
p359
sg16
I213
sbasg16
I211
sg19
g20
sbsg15
Nsg19
Nsg16
Nsg173
Nsbag1
(g159
g3
NtRp360
(dp361
g49
Nsg51
S'OnHostnameResult'
p362
sg163
g1
(g164
g3
NtRp363
(dp364
g10
(lp365
g1
(g168
g3
NtRp366
(dp367
g49
Nsg51
S'update_type'
p368
sg15
Nsg19
g20
sg53
S'UpdateType'
p369
sg16
I214
sbag1
(g168
g3
NtRp370
(dp371
g49
Nsg51
S'query_type'
p372
sg15
Nsg19
g20
sg53
S'DnsQueryType'
p373
sg16
I215
sbag1
(g168
g3
NtRp374
(dp375
g49
Nsg51
S'host'
p376
sg15
Nsg19
g20
sg53
S'HostPortPair'
p377
sg16
I216
sbasg16
I214
sg19
g20
sbsg15
Nsg19
Nsg16
Nsg173
Nsbag1
(g159
g3
NtRp378
(dp379
g49
Nsg51
S'OnUnhandledResult'
p380
sg163
g1
(g164
g3
NtRp381
(dp382
g10
(lp383
g1
(g168
g3
NtRp384
(dp385
g49
Nsg51
S'update_type'
p386
sg15
Nsg19
g20
sg53
S'UpdateType'
p387
sg16
I220
sbag1
(g168
g3
NtRp388
(dp389
g49
Nsg51
S'query_type'
p390
sg15
Nsg19
g20
sg53
S'DnsQueryType'
p391
sg16
I220
sbasg16
I220
sg19
g20
sbsg15
Nsg19
Nsg16
Nsg173
Nsbasg16
I202
sg19
g20
sbsg15
Nsg16
Nsg51
S'MdnsListenClient'
p392
sg19
Nsbag1
(g152
g3
NtRp393
(dp394
g41
g1
(g155
g3
NtRp395
(dp396
g10
(lp397
g1
(g159
g3
NtRp398
(dp399
g49
Nsg51
S'ResolveHost'
p400
sg163
g1
(g164
g3
NtRp401
(dp402
g10
(lp403
g1
(g168
g3
NtRp404
(dp405
g49
Nsg51
S'host'
p406
sg15
Nsg19
g20
sg53
S'HostPortPair'
p407
sg16
I243
sbag1
(g168
g3
NtRp408
(dp409
g49
Nsg51
S'optional_parameters'
p410
sg15
Nsg19
g20
sg53
S'ResolveHostParameters?'
p411
sg16
I244
sbag1
(g168
g3
NtRp412
(dp413
g49
Nsg51
S'response_client'
p414
sg15
Nsg19
g20
sg53
S'ResolveHostClient'
p415
sg16
I245
sbasg16
I243
sg19
g20
sbsg15
Nsg19
Nsg16
Nsg173
Nsbag1
(g159
g3
NtRp416
(dp417
g49
Nsg51
S'MdnsListen'
p418
sg163
g1
(g164
g3
NtRp419
(dp420
g10
(lp421
g1
(g168
g3
NtRp422
(dp423
g49
Nsg51
S'host'
p424
sg15
Nsg19
g20
sg53
S'HostPortPair'
p425
sg16
I254
sbag1
(g168
g3
NtRp426
(dp427
g49
Nsg51
S'query_type'
p428
sg15
Nsg19
g20
sg53
S'DnsQueryType'
p429
sg16
I255
sbag1
(g168
g3
NtRp430
(dp431
g49
Nsg51
S'response_client'
p432
sg15
Nsg19
g20
sg53
S'MdnsListenClient'
p433
sg16
I256
sbasg16
I254
sg19
g20
sbsg15
Nsg19
Nsg16
Nsg173
g1
(g164
g3
NtRp434
(dp435
g10
(lp436
g1
(g168
g3
NtRp437
(dp438
g49
Nsg51
S'result'
p439
sg15
Nsg19
g20
sg53
S'int32'
p440
sg16
I256
sbasg16
I256
sg19
g20
sbsbasg16
Nsg19
Nsbsg15
Nsg16
Nsg51
S'HostResolver'
p441
sg19
Nsbag1
(g152
g3
NtRp442
(dp443
g41
g1
(g155
g3
NtRp444
(dp445
g10
(lp446
g1
(g159
g3
NtRp447
(dp448
g49
Nsg51
S'OnSystemDnsConfigChanged'
p449
sg163
g1
(g164
g3
NtRp450
(dp451
g10
(lp452
sg16
Nsg19
Nsbsg15
Nsg19
Nsg16
Nsg173
Nsbasg16
Nsg19
Nsbsg15
Nsg16
Nsg51
S'DnsConfigChangeManagerClient'
p453
sg19
Nsbag1
(g152
g3
NtRp454
(dp455
g41
g1
(g155
g3
NtRp456
(dp457
g10
(lp458
g1
(g159
g3
NtRp459
(dp460
g49
Nsg51
S'RequestNotifications'
p461
sg163
g1
(g164
g3
NtRp462
(dp463
g10
(lp464
g1
(g168
g3
NtRp465
(dp466
g49
Nsg51
S'client_ptr'
p467
sg15
Nsg19
g20
sg53
S'DnsConfigChangeManagerClient'
p468
sg16
I270
sbasg16
I270
sg19
g20
sbsg15
Nsg19
Nsg16
Nsg173
Nsbasg16
Nsg19
Nsbsg15
Nsg16
Nsg51
S'DnsConfigChangeManager'
p469
sg19
Nsbasg16
NsS'module'
p470
g1
(cmojom.parse.ast
Module
p471
g3
NtRp472
(dp473
S'mojom_namespace'
p474
(g114
S'network.mojom'
tp475
sg16
I5
sg15
Nsg19
g20
sbsg19
Nsb.