ccopy_reg
_reconstructor
p1
(cmojom.parse.ast
Mojom
p2
c__builtin__
object
p3
NtRp4
(dp5
S'import_list'
p6
g1
(cmojom.parse.ast
ImportList
p7
g3
NtRp8
(dp9
S'items'
p10
(lp11
g1
(cmojom.parse.ast
Import
p12
g3
NtRp13
(dp14
S'attribute_list'
p15
NsS'lineno'
p16
I7
sS'import_filename'
p17
S'mojo/public/mojom/base/file.mojom'
p18
sS'filename'
p19
S'../../services/network/public/mojom/net_log.mojom'
p20
sbag1
(g12
g3
NtRp21
(dp22
g15
Nsg16
I8
sg17
S'mojo/public/mojom/base/values.mojom'
p23
sg19
g20
sbasg16
I7
sg19
g20
sbsS'definition_list'
p24
(lp25
g1
(cmojom.parse.ast
Enum
p26
g3
NtRp27
(dp28
g15
NsS'enum_value_list'
p29
g1
(cmojom.parse.ast
EnumValueList
p30
g3
NtRp31
(dp32
g10
(lp33
g1
(cmojom.parse.ast
EnumValue
p34
g3
NtRp35
(dp36
g15
NsS'value'
p37
Nsg16
I13
sS'mojom_name'
p38
S'DEFAULT'
p39
sg19
g20
sbag1
(g34
g3
NtRp40
(dp41
g15
Nsg37
Nsg16
I17
sg38
S'INCLUDE_COOKIES_AND_CREDENTIALS'
p42
sg19
g20
sbag1
(g34
g3
NtRp43
(dp44
g15
Nsg37
Nsg16
I21
sg38
S'INCLUDE_SOCKET_BYTES'
p45
sg19
g20
sbasg16
I13
sg19
g20
sbsg16
I10
sg38
S'NetLogCaptureMode'
p46
sg19
g20
sbag1
(cmojom.parse.ast
Interface
p47
g3
NtRp48
(dp49
S'body'
p50
g1
(cmojom.parse.ast
InterfaceBody
p51
g3
NtRp52
(dp53
g10
(lp54
g1
(cmojom.parse.ast
Const
p55
g3
NtRp56
(dp57
g38
S'kUnlimitedFileSize'
p58
sg15
Nsg37
S'0xFFFFFFFFFFFFFFFF'
p59
sg19
NsS'typename'
p60
S'uint64'
p61
sg16
Nsbag1
(cmojom.parse.ast
Method
p62
g3
NtRp63
(dp64
S'ordinal'
p65
Nsg38
S'Start'
p66
sS'parameter_list'
p67
g1
(cmojom.parse.ast
ParameterList
p68
g3
NtRp69
(dp70
g10
(lp71
g1
(cmojom.parse.ast
Parameter
p72
g3
NtRp73
(dp74
g65
Nsg38
S'destination'
p75
sg15
Nsg19
g20
sg60
S'mojo_base.mojom.File'
p76
sg16
I41
sbag1
(g72
g3
NtRp77
(dp78
g65
Nsg38
S'extra_constants'
p79
sg15
Nsg19
g20
sg60
S'mojo_base.mojom.DictionaryValue'
p80
sg16
I42
sbag1
(g72
g3
NtRp81
(dp82
g65
Nsg38
S'capture_mode'
p83
sg15
Nsg19
g20
sg60
S'NetLogCaptureMode'
p84
sg16
I43
sbag1
(g72
g3
NtRp85
(dp86
g65
Nsg38
S'max_file_size'
p87
sg15
Nsg19
g20
sg60
S'uint64'
p88
sg16
I44
sbasg16
I41
sg19
g20
sbsg15
Nsg19
Nsg16
NsS'response_parameter_list'
p89
g1
(g68
g3
NtRp90
(dp91
g10
(lp92
g1
(g72
g3
NtRp93
(dp94
g65
Nsg38
S'net_error'
p95
sg15
Nsg19
g20
sg60
S'int32'
p96
sg16
I44
sbasg16
I44
sg19
g20
sbsbag1
(g62
g3
NtRp97
(dp98
g65
Nsg38
S'Stop'
p99
sg67
g1
(g68
g3
NtRp100
(dp101
g10
(lp102
g1
(g72
g3
NtRp103
(dp104
g65
Nsg38
S'polled_values'
p105
sg15
Nsg19
g20
sg60
S'mojo_base.mojom.DictionaryValue'
p106
sg16
I52
sbasg16
I52
sg19
g20
sbsg15
Nsg19
Nsg16
Nsg89
g1
(g68
g3
NtRp107
(dp108
g10
(lp109
g1
(g72
g3
NtRp110
(dp111
g65
Nsg38
S'net_error'
p112
sg15
Nsg19
g20
sg60
S'int32'
p113
sg16
I52
sbasg16
I52
sg19
g20
sbsbasg16
Nsg19
Nsbsg15
Nsg16
Nsg38
S'NetLogExporter'
p114
sg19
Nsbasg16
NsS'module'
p115
g1
(cmojom.parse.ast
Module
p116
g3
NtRp117
(dp118
S'mojom_namespace'
p119
(S'IDENTIFIER'
p120
S'network.mojom'
tp121
sg16
I5
sg15
Nsg19
g20
sbsg19
Nsb.