ccopy_reg
_reconstructor
p1
(cmojom.parse.ast
Mojom
p2
c__builtin__
object
p3
NtRp4
(dp5
S'import_list'
p6
g1
(cmojom.parse.ast
ImportList
p7
g3
NtRp8
(dp9
S'items'
p10
(lp11
g1
(cmojom.parse.ast
Import
p12
g3
NtRp13
(dp14
S'attribute_list'
p15
NsS'lineno'
p16
I7
sS'import_filename'
p17
S'mojo/public/mojom/base/file.mojom'
p18
sS'filename'
p19
S'../../services/network/public/mojom/network_service.mojom'
p20
sbag1
(g12
g3
NtRp21
(dp22
g15
Nsg16
I8
sg17
S'mojo/public/mojom/base/file_path.mojom'
p23
sg19
g20
sbag1
(g12
g3
NtRp24
(dp25
g15
Nsg16
I9
sg17
S'mojo/public/mojom/base/memory_pressure_level.mojom'
p26
sg19
g20
sbag1
(g12
g3
NtRp27
(dp28
g15
Nsg16
I10
sg17
S'mojo/public/mojom/base/read_only_buffer.mojom'
p29
sg19
g20
sbag1
(g12
g3
NtRp30
(dp31
g15
Nsg16
I11
sg17
S'mojo/public/mojom/base/string16.mojom'
p32
sg19
g20
sbag1
(g12
g3
NtRp33
(dp34
g15
Nsg16
I12
sg17
S'mojo/public/mojom/base/unguessable_token.mojom'
p35
sg19
g20
sbag1
(g12
g3
NtRp36
(dp37
g15
Nsg16
I13
sg17
S'mojo/public/mojom/base/values.mojom'
p38
sg19
g20
sbag1
(g12
g3
NtRp39
(dp40
g15
Nsg16
I14
sg17
S'services/network/public/mojom/cookie_manager.mojom'
p41
sg19
g20
sbag1
(g12
g3
NtRp42
(dp43
g15
Nsg16
I15
sg17
S'services/network/public/mojom/host_resolver.mojom'
p44
sg19
g20
sbag1
(g12
g3
NtRp45
(dp46
g15
Nsg16
I16
sg17
S'services/network/public/mojom/net_log.mojom'
p47
sg19
g20
sbag1
(g12
g3
NtRp48
(dp49
g15
Nsg16
I17
sg17
S'services/network/public/mojom/network_change_manager.mojom'
p50
sg19
g20
sbag1
(g12
g3
NtRp51
(dp52
g15
Nsg16
I18
sg17
S'services/network/public/mojom/network_context.mojom'
p53
sg19
g20
sbag1
(g12
g3
NtRp54
(dp55
g15
Nsg16
I19
sg17
S'services/network/public/mojom/network_interface.mojom'
p56
sg19
g20
sbag1
(g12
g3
NtRp57
(dp58
g15
Nsg16
I20
sg17
S'services/network/public/mojom/network_param.mojom'
p59
sg19
g20
sbag1
(g12
g3
NtRp60
(dp61
g15
Nsg16
I21
sg17
S'services/network/public/mojom/network_quality_estimator_manager.mojom'
p62
sg19
g20
sbag1
(g12
g3
NtRp63
(dp64
g15
Nsg16
I22
sg17
S'services/network/public/mojom/url_loader.mojom'
p65
sg19
g20
sbag1
(g12
g3
NtRp66
(dp67
g15
Nsg16
I23
sg17
S'services/network/public/mojom/url_loader_factory.mojom'
p68
sg19
g20
sbag1
(g12
g3
NtRp69
(dp70
g15
Nsg16
I24
sg17
S'url/mojom/origin.mojom'
p71
sg19
g20
sbag1
(g12
g3
NtRp72
(dp73
g15
Nsg16
I25
sg17
S'url/mojom/url.mojom'
p74
sg19
g20
sbag1
(g12
g3
NtRp75
(dp76
g15
g1
(cmojom.parse.ast
AttributeList
p77
g3
NtRp78
(dp79
g10
(lp80
g1
(cmojom.parse.ast
Attribute
p81
g3
NtRp82
(dp83
S'value'
p84
S'is_ct_supported'
p85
sg16
I27
sS'key'
p86
S'EnableIf'
p87
sg19
g20
sbasg16
I27
sg19
g20
sbsg16
I28
sg17
S'services/network/public/mojom/signed_tree_head.mojom'
p88
sg19
g20
sbasg16
I7
sg19
g20
sbsS'definition_list'
p89
(lp90
g1
(cmojom.parse.ast
Interface
p91
g3
NtRp92
(dp93
S'body'
p94
g1
(cmojom.parse.ast
InterfaceBody
p95
g3
NtRp96
(dp97
g10
(lp98
g1
(cmojom.parse.ast
Method
p99
g3
NtRp100
(dp101
S'ordinal'
p102
NsS'mojom_name'
p103
S'Sign'
p104
sS'parameter_list'
p105
g1
(cmojom.parse.ast
ParameterList
p106
g3
NtRp107
(dp108
g10
(lp109
g1
(cmojom.parse.ast
Parameter
p110
g3
NtRp111
(dp112
g102
Nsg103
S'algorithm'
p113
sg15
Nsg19
g20
sS'typename'
p114
S'uint16'
p115
sg16
I44
sbag1
(g110
g3
NtRp116
(dp117
g102
Nsg103
S'input'
p118
sg15
Nsg19
g20
sg114
S'uint8[]'
p119
sg16
I45
sbasg16
I44
sg19
g20
sbsg15
Nsg19
Nsg16
NsS'response_parameter_list'
p120
g1
(g106
g3
NtRp121
(dp122
g10
(lp123
g1
(g110
g3
NtRp124
(dp125
g102
Nsg103
S'net_error'
p126
sg15
Nsg19
g20
sg114
S'int32'
p127
sg16
I45
sbag1
(g110
g3
NtRp128
(dp129
g102
Nsg103
S'signature'
p130
sg15
Nsg19
g20
sg114
S'uint8[]'
p131
sg16
I45
sbasg16
I45
sg19
g20
sbsbasg16
Nsg19
Nsbsg15
Nsg16
Nsg103
S'SSLPrivateKey'
p132
sg19
Nsbag1
(g91
g3
NtRp133
(dp134
g94
g1
(g95
g3
NtRp135
(dp136
g10
(lp137
g1
(g99
g3
NtRp138
(dp139
g102
Nsg103
S'OnAuthCredentials'
p140
sg105
g1
(g106
g3
NtRp141
(dp142
g10
(lp143
g1
(g110
g3
NtRp144
(dp145
g102
Nsg103
S'credentials'
p146
sg15
Nsg19
g20
sg114
S'AuthCredentials?'
p147
sg16
I52
sbasg16
I52
sg19
g20
sbsg15
Nsg19
Nsg16
Nsg120
Nsbasg16
Nsg19
Nsbsg15
Nsg16
Nsg103
S'AuthChallengeResponder'
p148
sg19
Nsbag1
(cmojom.parse.ast
Struct
p149
g3
NtRp150
(dp151
g94
g1
(cmojom.parse.ast
StructBody
p152
g3
NtRp153
(dp154
g10
(lp155
g1
(cmojom.parse.ast
StructField
p156
g3
NtRp157
(dp158
g102
NsS'default_value'
p159
Nsg103
S'process_id'
p160
sg15
Nsg19
Nsg114
S'uint32'
p161
sg16
Nsbag1
(g156
g3
NtRp162
(dp163
g102
Nsg159
Nsg103
S'routing_id'
p164
sg15
Nsg19
Nsg114
S'uint32'
p165
sg16
Nsbag1
(g156
g3
NtRp166
(dp167
g102
Nsg159
Nsg103
S'host'
p168
sg15
Nsg19
Nsg114
S'string'
p169
sg16
Nsbag1
(g156
g3
NtRp170
(dp171
g102
Nsg159
Nsg103
S'load_state'
p172
sg15
Nsg19
Nsg114
S'uint32'
p173
sg16
Nsbag1
(g156
g3
NtRp174
(dp175
g102
Nsg159
Nsg103
S'state_param'
p176
sg15
Nsg19
Nsg114
S'mojo_base.mojom.String16'
p177
sg16
Nsbag1
(g156
g3
NtRp178
(dp179
g102
Nsg159
Nsg103
S'upload_position'
p180
sg15
Nsg19
Nsg114
S'uint64'
p181
sg16
Nsbag1
(g156
g3
NtRp182
(dp183
g102
Nsg159
Nsg103
S'upload_size'
p184
sg15
Nsg19
Nsg114
S'uint64'
p185
sg16
Nsbasg16
Nsg19
Nsbsg15
Nsg16
Nsg103
S'LoadInfo'
p186
sg19
Nsbag1
(g91
g3
NtRp187
(dp188
g94
g1
(g95
g3
NtRp189
(dp190
g10
(lp191
g1
(g99
g3
NtRp192
(dp193
g102
Nsg103
S'OnAuthRequired'
p194
sg105
g1
(g106
g3
NtRp195
(dp196
g10
(lp197
g1
(g110
g3
NtRp198
(dp199
g102
Nsg103
S'process_id'
p200
sg15
Nsg19
g20
sg114
S'uint32'
p201
sg16
I71
sbag1
(g110
g3
NtRp202
(dp203
g102
Nsg103
S'routing_id'
p204
sg15
Nsg19
g20
sg114
S'uint32'
p205
sg16
I72
sbag1
(g110
g3
NtRp206
(dp207
g102
Nsg103
S'request_id'
p208
sg15
Nsg19
g20
sg114
S'uint32'
p209
sg16
I73
sbag1
(g110
g3
NtRp210
(dp211
g102
Nsg103
S'url'
p212
sg15
Nsg19
g20
sg114
S'url.mojom.Url'
p213
sg16
I74
sbag1
(g110
g3
NtRp214
(dp215
g102
Nsg103
S'first_auth_attempt'
p216
sg15
Nsg19
g20
sg114
S'bool'
p217
sg16
I75
sbag1
(g110
g3
NtRp218
(dp219
g102
Nsg103
S'auth_info'
p220
sg15
Nsg19
g20
sg114
S'AuthChallengeInfo'
p221
sg16
I76
sbag1
(g110
g3
NtRp222
(dp223
g102
Nsg103
S'head'
p224
sg15
Nsg19
g20
sg114
S'URLResponseHead?'
p225
sg16
I77
sbag1
(g110
g3
NtRp226
(dp227
g102
Nsg103
S'auth_challenge_responder'
p228
sg15
Nsg19
g20
sg114
S'AuthChallengeResponder'
p229
sg16
I78
sbasg16
I71
sg19
g20
sbsg15
Nsg19
Nsg16
Nsg120
Nsbag1
(g99
g3
NtRp230
(dp231
g102
Nsg103
S'OnCertificateRequested'
p232
sg105
g1
(g106
g3
NtRp233
(dp234
g10
(lp235
g1
(g110
g3
NtRp236
(dp237
g102
Nsg103
S'window_id'
p238
sg15
Nsg19
g20
sg114
S'mojo_base.mojom.UnguessableToken?'
p239
sg16
I97
sbag1
(g110
g3
NtRp240
(dp241
g102
Nsg103
S'process_id'
p242
sg15
Nsg19
g20
sg114
S'uint32'
p243
sg16
I98
sbag1
(g110
g3
NtRp244
(dp245
g102
Nsg103
S'routing_id'
p246
sg15
Nsg19
g20
sg114
S'uint32'
p247
sg16
I99
sbag1
(g110
g3
NtRp248
(dp249
g102
Nsg103
S'request_id'
p250
sg15
Nsg19
g20
sg114
S'uint32'
p251
sg16
I100
sbag1
(g110
g3
NtRp252
(dp253
g102
Nsg103
S'cert_info'
p254
sg15
Nsg19
g20
sg114
S'network.mojom.SSLCertRequestInfo'
p255
sg16
I101
sbasg16
I97
sg19
g20
sbsg15
Nsg19
Nsg16
Nsg120
g1
(g106
g3
NtRp256
(dp257
g10
(lp258
g1
(g110
g3
NtRp259
(dp260
g102
Nsg103
S'x509_certificate'
p261
sg15
Nsg19
g20
sg114
S'network.mojom.X509Certificate'
p262
sg16
I102
sbag1
(g110
g3
NtRp263
(dp264
g102
Nsg103
S'provider_name'
p265
sg15
Nsg19
g20
sg114
S'string'
p266
sg16
I103
sbag1
(g110
g3
NtRp267
(dp268
g102
Nsg103
S'algorithm_preferences'
p269
sg15
Nsg19
g20
sg114
S'uint16[]'
p270
sg16
I104
sbag1
(g110
g3
NtRp271
(dp272
g102
Nsg103
S'ssl_private_key'
p273
sg15
Nsg19
g20
sg114
S'SSLPrivateKey'
p274
sg16
I105
sbag1
(g110
g3
NtRp275
(dp276
g102
Nsg103
S'cancel_certificate_selection'
p277
sg15
Nsg19
g20
sg114
S'bool'
p278
sg16
I106
sbasg16
I102
sg19
g20
sbsbag1
(g99
g3
NtRp279
(dp280
g102
Nsg103
S'OnSSLCertificateError'
p281
sg105
g1
(g106
g3
NtRp282
(dp283
g10
(lp284
g1
(g110
g3
NtRp285
(dp286
g102
Nsg103
S'process_id'
p287
sg15
Nsg19
g20
sg114
S'uint32'
p288
sg16
I110
sbag1
(g110
g3
NtRp289
(dp290
g102
Nsg103
S'routing_id'
p291
sg15
Nsg19
g20
sg114
S'uint32'
p292
sg16
I111
sbag1
(g110
g3
NtRp293
(dp294
g102
Nsg103
S'url'
p295
sg15
Nsg19
g20
sg114
S'url.mojom.Url'
p296
sg16
I112
sbag1
(g110
g3
NtRp297
(dp298
g102
Nsg103
S'net_error'
p299
sg15
Nsg19
g20
sg114
S'int32'
p300
sg16
I113
sbag1
(g110
g3
NtRp301
(dp302
g102
Nsg103
S'ssl_info'
p303
sg15
Nsg19
g20
sg114
S'SSLInfo'
p304
sg16
I114
sbag1
(g110
g3
NtRp305
(dp306
g102
Nsg103
S'fatal'
p307
sg15
Nsg19
g20
sg114
S'bool'
p308
sg16
I115
sbasg16
I110
sg19
g20
sbsg15
Nsg19
Nsg16
Nsg120
g1
(g106
g3
NtRp309
(dp310
g10
(lp311
g1
(g110
g3
NtRp312
(dp313
g102
Nsg103
S'net_error'
p314
sg15
Nsg19
g20
sg114
S'int32'
p315
sg16
I115
sbasg16
I115
sg19
g20
sbsbag1
(g99
g3
NtRp316
(dp317
g102
Nsg103
S'OnFileUploadRequested'
p318
sg105
g1
(g106
g3
NtRp319
(dp320
g10
(lp321
g1
(g110
g3
NtRp322
(dp323
g102
Nsg103
S'process_id'
p324
sg15
Nsg19
g20
sg114
S'uint32'
p325
sg16
I130
sbag1
(g110
g3
NtRp326
(dp327
g102
Nsg103
S'async'
p328
sg15
Nsg19
g20
sg114
S'bool'
p329
sg16
I131
sbag1
(g110
g3
NtRp330
(dp331
g102
Nsg103
S'file_paths'
p332
sg15
Nsg19
g20
sg114
S'mojo_base.mojom.FilePath[]'
p333
sg16
I132
sbasg16
I130
sg19
g20
sbsg15
Nsg19
Nsg16
Nsg120
g1
(g106
g3
NtRp334
(dp335
g10
(lp336
g1
(g110
g3
NtRp337
(dp338
g102
Nsg103
S'net_error'
p339
sg15
Nsg19
g20
sg114
S'int32'
p340
sg16
I133
sbag1
(g110
g3
NtRp341
(dp342
g102
Nsg103
S'files'
p343
sg15
Nsg19
g20
sg114
S'mojo_base.mojom.File[]'
p344
sg16
I133
sbasg16
I133
sg19
g20
sbsbag1
(g99
g3
NtRp345
(dp346
g102
Nsg103
S'OnCookieChange'
p347
sg105
g1
(g106
g3
NtRp348
(dp349
g10
(lp350
g1
(g110
g3
NtRp351
(dp352
g102
Nsg103
S'process_id'
p353
sg15
Nsg19
g20
sg114
S'int32'
p354
sg16
I137
sbag1
(g110
g3
NtRp355
(dp356
g102
Nsg103
S'routing_id'
p357
sg15
Nsg19
g20
sg114
S'int32'
p358
sg16
I137
sbag1
(g110
g3
NtRp359
(dp360
g102
Nsg103
S'url'
p361
sg15
Nsg19
g20
sg114
S'url.mojom.Url'
p362
sg16
I137
sbag1
(g110
g3
NtRp363
(dp364
g102
Nsg103
S'frame_url'
p365
sg15
Nsg19
g20
sg114
S'url.mojom.Url'
p366
sg16
I138
sbag1
(g110
g3
NtRp367
(dp368
g102
Nsg103
S'cookie'
p369
sg15
Nsg19
g20
sg114
S'CanonicalCookie'
p370
sg16
I138
sbag1
(g110
g3
NtRp371
(dp372
g102
Nsg103
S'blocked_by_policy'
p373
sg15
Nsg19
g20
sg114
S'bool'
p374
sg16
I138
sbasg16
I137
sg19
g20
sbsg15
Nsg19
Nsg16
Nsg120
Nsbag1
(g99
g3
NtRp375
(dp376
g102
Nsg103
S'OnCookiesRead'
p377
sg105
g1
(g106
g3
NtRp378
(dp379
g10
(lp380
g1
(g110
g3
NtRp381
(dp382
g102
Nsg103
S'process_id'
p383
sg15
Nsg19
g20
sg114
S'int32'
p384
sg16
I142
sbag1
(g110
g3
NtRp385
(dp386
g102
Nsg103
S'routing_id'
p387
sg15
Nsg19
g20
sg114
S'int32'
p388
sg16
I142
sbag1
(g110
g3
NtRp389
(dp390
g102
Nsg103
S'url'
p391
sg15
Nsg19
g20
sg114
S'url.mojom.Url'
p392
sg16
I142
sbag1
(g110
g3
NtRp393
(dp394
g102
Nsg103
S'frame_url'
p395
sg15
Nsg19
g20
sg114
S'url.mojom.Url'
p396
sg16
I143
sbag1
(g110
g3
NtRp397
(dp398
g102
Nsg103
S'cookie_list'
p399
sg15
Nsg19
g20
sg114
S'CanonicalCookie[]'
p400
sg16
I143
sbag1
(g110
g3
NtRp401
(dp402
g102
Nsg103
S'blocked_by_policy'
p403
sg15
Nsg19
g20
sg114
S'bool'
p404
sg16
I144
sbasg16
I142
sg19
g20
sbsg15
Nsg19
Nsg16
Nsg120
Nsbag1
(g99
g3
NtRp405
(dp406
g102
Nsg103
S'OnLoadingStateUpdate'
p407
sg105
g1
(g106
g3
NtRp408
(dp409
g10
(lp410
g1
(g110
g3
NtRp411
(dp412
g102
Nsg103
S'infos'
p413
sg15
Nsg19
g20
sg114
S'LoadInfo[]'
p414
sg16
I149
sbasg16
I149
sg19
g20
sbsg15
Nsg19
Nsg16
Nsg120
g1
(g106
g3
NtRp415
(dp416
g10
(lp417
sg16
Nsg19
Nsbsbag1
(g99
g3
NtRp418
(dp419
g102
Nsg103
S'OnClearSiteData'
p420
sg105
g1
(g106
g3
NtRp421
(dp422
g10
(lp423
g1
(g110
g3
NtRp424
(dp425
g102
Nsg103
S'process_id'
p426
sg15
Nsg19
g20
sg114
S'int32'
p427
sg16
I156
sbag1
(g110
g3
NtRp428
(dp429
g102
Nsg103
S'routing_id'
p430
sg15
Nsg19
g20
sg114
S'int32'
p431
sg16
I157
sbag1
(g110
g3
NtRp432
(dp433
g102
Nsg103
S'url'
p434
sg15
Nsg19
g20
sg114
S'url.mojom.Url'
p435
sg16
I158
sbag1
(g110
g3
NtRp436
(dp437
g102
Nsg103
S'header_value'
p438
sg15
Nsg19
g20
sg114
S'string'
p439
sg16
I159
sbag1
(g110
g3
NtRp440
(dp441
g102
Nsg103
S'load_flags'
p442
sg15
Nsg19
g20
sg114
S'int32'
p443
sg16
I160
sbasg16
I156
sg19
g20
sbsg15
Nsg19
Nsg16
Nsg120
g1
(g106
g3
NtRp444
(dp445
g10
(lp446
sg16
Nsg19
Nsbsbag1
(g99
g3
NtRp447
(dp448
g102
Nsg103
S'OnDataUseUpdate'
p449
sg105
g1
(g106
g3
NtRp450
(dp451
g10
(lp452
g1
(g110
g3
NtRp453
(dp454
g102
Nsg103
S'network_traffic_annotation_id_hash'
p455
sg15
Nsg19
g20
sg114
S'int32'
p456
sg16
I166
sbag1
(g110
g3
NtRp457
(dp458
g102
Nsg103
S'recv_bytes'
p459
sg15
Nsg19
g20
sg114
S'int64'
p460
sg16
I166
sbag1
(g110
g3
NtRp461
(dp462
g102
Nsg103
S'sent_bytes'
p463
sg15
Nsg19
g20
sg114
S'int64'
p464
sg16
I167
sbasg16
I166
sg19
g20
sbsg15
Nsg19
Nsg16
Nsg120
Nsbasg16
Nsg19
Nsbsg15
Nsg16
Nsg103
S'NetworkServiceClient'
p465
sg19
Nsbag1
(g149
g3
NtRp466
(dp467
g94
g1
(g152
g3
NtRp468
(dp469
g10
(lp470
g1
(g156
g3
NtRp471
(dp472
g102
Nsg159
Nsg103
S'supported_schemes'
p473
sg15
Nsg19
Nsg114
S'string[]'
p474
sg16
Nsbag1
(g156
g3
NtRp475
(dp476
g102
Nsg159
Nsg103
S'gssapi_library_name'
p477
sg15
Nsg19
Nsg114
S'string'
p478
sg16
Nsbag1
(g156
g3
NtRp479
(dp480
g102
Nsg159
S'true'
p481
sg103
S'allow_gssapi_library_load'
p482
sg15
Nsg19
Nsg114
S'bool'
p483
sg16
Nsbasg16
Nsg19
Nsbsg15
Nsg16
Nsg103
S'HttpAuthStaticParams'
p484
sg19
Nsbag1
(g149
g3
NtRp485
(dp486
g94
g1
(g152
g3
NtRp487
(dp488
g10
(lp489
g1
(g156
g3
NtRp490
(dp491
g102
Nsg159
Nsg103
S'server_whitelist'
p492
sg15
Nsg19
Nsg114
S'string'
p493
sg16
Nsbag1
(g156
g3
NtRp494
(dp495
g102
Nsg159
Nsg103
S'delegate_whitelist'
p496
sg15
Nsg19
Nsg114
S'string'
p497
sg16
Nsbag1
(g156
g3
NtRp498
(dp499
g102
Nsg159
S'false'
p500
sg103
S'delegate_by_kdc_policy'
p501
sg15
Nsg19
Nsg114
S'bool'
p502
sg16
Nsbag1
(g156
g3
NtRp503
(dp504
g102
Nsg159
S'false'
p505
sg103
S'negotiate_disable_cname_lookup'
p506
sg15
Nsg19
Nsg114
S'bool'
p507
sg16
Nsbag1
(g156
g3
NtRp508
(dp509
g102
Nsg159
S'true'
p510
sg103
S'enable_negotiate_port'
p511
sg15
Nsg19
Nsg114
S'bool'
p512
sg16
Nsbag1
(g156
g3
NtRp513
(dp514
g102
Nsg159
S'false'
p515
sg103
S'ntlm_v2_enabled'
p516
sg15
Nsg19
Nsg114
S'bool'
p517
sg16
Nsbag1
(g156
g3
NtRp518
(dp519
g102
Nsg159
Nsg103
S'android_negotiate_account_type'
p520
sg15
Nsg19
Nsg114
S'string'
p521
sg16
Nsbasg16
Nsg19
Nsbsg15
Nsg16
Nsg103
S'HttpAuthDynamicParams'
p522
sg19
Nsbag1
(g149
g3
NtRp523
(dp524
g94
g1
(g152
g3
NtRp525
(dp526
g10
(lp527
g1
(g156
g3
NtRp528
(dp529
g102
Nsg159
Nsg103
S'store'
p530
sg15
Nsg19
Nsg114
S'string'
p531
sg16
Nsbag1
(g156
g3
NtRp532
(dp533
g102
Nsg159
Nsg103
S'product_name'
p534
sg15
Nsg19
Nsg114
S'string'
p535
sg16
Nsbag1
(g156
g3
NtRp536
(dp537
g102
Nsg159
Nsg103
S'should_use_preference'
p538
sg15
Nsg19
Nsg114
S'bool'
p539
sg16
Nsbag1
(g156
g3
NtRp540
(dp541
g102
Nsg159
Nsg103
S'user_data_path'
p542
sg15
Nsg19
Nsg114
S'mojo_base.mojom.FilePath'
p543
sg16
Nsbasg16
Nsg19
Nsbsg15
g1
(g77
g3
NtRp544
(dp545
g10
(lp546
g1
(g81
g3
NtRp547
(dp548
g84
S'needs_crypt_config'
p549
sg16
I224
sg86
S'EnableIf'
p550
sg19
g20
sbasg16
I224
sg19
g20
sbsg16
Nsg103
S'CryptConfig'
p551
sg19
Nsbag1
(g149
g3
NtRp552
(dp553
g94
g1
(g152
g3
NtRp554
(dp555
g10
(lp556
g1
(g156
g3
NtRp557
(dp558
g102
Nsg159
Nsg103
S'name'
p559
sg15
Nsg19
Nsg114
S'string'
p560
sg16
Nsbag1
(g156
g3
NtRp561
(dp562
g102
Nsg159
Nsg103
S'value'
p563
sg15
Nsg19
Nsg114
S'string'
p564
sg16
Nsbasg16
Nsg19
Nsbsg15
Nsg16
Nsg103
S'EnvironmentVariable'
p565
sg19
Nsbag1
(g149
g3
NtRp566
(dp567
g94
g1
(g152
g3
NtRp568
(dp569
g10
(lp570
g1
(g156
g3
NtRp571
(dp572
g102
Nsg159
(S'IDENTIFIER'
p573
S'CONNECTION_UNKNOWN'
tp574
sg103
S'initial_connection_type'
p575
sg15
Nsg19
Nsg114
S'ConnectionType'
p576
sg16
Nsbag1
(g156
g3
NtRp577
(dp578
g102
Nsg159
(g573
S'SUBTYPE_UNKNOWN'
tp579
sg103
S'initial_connection_subtype'
p580
sg15
Nsg19
Nsg114
S'ConnectionSubtype'
p581
sg16
Nsbag1
(g156
g3
NtRp582
(dp583
g102
Nsg159
Nsg103
S'environment'
p584
sg15
Nsg19
Nsg114
S'EnvironmentVariable[]'
p585
sg16
Nsbasg16
Nsg19
Nsbsg15
Nsg16
Nsg103
S'NetworkServiceParams'
p586
sg19
Nsbag1
(g91
g3
NtRp587
(dp588
g94
g1
(g95
g3
NtRp589
(dp590
g10
(lp591
g1
(g99
g3
NtRp592
(dp593
g102
Nsg103
S'SetClient'
p594
sg105
g1
(g106
g3
NtRp595
(dp596
g10
(lp597
g1
(g110
g3
NtRp598
(dp599
g102
Nsg103
S'client'
p600
sg15
Nsg19
g20
sg114
S'NetworkServiceClient'
p601
sg16
I260
sbag1
(g110
g3
NtRp602
(dp603
g102
Nsg103
S'params'
p604
sg15
Nsg19
g20
sg114
S'NetworkServiceParams'
p605
sg16
I260
sbasg16
I260
sg19
g20
sbsg15
Nsg19
Nsg16
Nsg120
Nsbag1
(g99
g3
NtRp606
(dp607
g102
Nsg103
S'StartNetLog'
p608
sg105
g1
(g106
g3
NtRp609
(dp610
g10
(lp611
g1
(g110
g3
NtRp612
(dp613
g102
Nsg103
S'file'
p614
sg15
Nsg19
g20
sg114
S'mojo_base.mojom.File'
p615
sg16
I268
sbag1
(g110
g3
NtRp616
(dp617
g102
Nsg103
S'capture_mode'
p618
sg15
Nsg19
g20
sg114
S'NetLogCaptureMode'
p619
sg16
I269
sbag1
(g110
g3
NtRp620
(dp621
g102
Nsg103
S'constants'
p622
sg15
Nsg19
g20
sg114
S'mojo_base.mojom.DictionaryValue'
p623
sg16
I270
sbasg16
I268
sg19
g20
sbsg15
Nsg19
Nsg16
Nsg120
Nsbag1
(g99
g3
NtRp624
(dp625
g102
Nsg103
S'SetSSLKeyLogFile'
p626
sg105
g1
(g106
g3
NtRp627
(dp628
g10
(lp629
g1
(g110
g3
NtRp630
(dp631
g102
Nsg103
S'file'
p632
sg15
Nsg19
g20
sg114
S'mojo_base.mojom.FilePath'
p633
sg16
I277
sbasg16
I277
sg19
g20
sbsg15
Nsg19
Nsg16
Nsg120
Nsbag1
(g99
g3
NtRp634
(dp635
g102
Nsg103
S'CreateNetworkContext'
p636
sg105
g1
(g106
g3
NtRp637
(dp638
g10
(lp639
g1
(g110
g3
NtRp640
(dp641
g102
Nsg103
S'context'
p642
sg15
Nsg19
g20
sg114
S'NetworkContext&'
p643
sg16
I280
sbag1
(g110
g3
NtRp644
(dp645
g102
Nsg103
S'params'
p646
sg15
Nsg19
g20
sg114
S'NetworkContextParams'
p647
sg16
I281
sbasg16
I280
sg19
g20
sbsg15
Nsg19
Nsg16
Nsg120
Nsbag1
(g99
g3
NtRp648
(dp649
g102
Nsg103
S'ConfigureStubHostResolver'
p650
sg105
g1
(g106
g3
NtRp651
(dp652
g10
(lp653
g1
(g110
g3
NtRp654
(dp655
g102
Nsg103
S'stub_resolver_enabled'
p656
sg15
Nsg19
g20
sg114
S'bool'
p657
sg16
I302
sbag1
(g110
g3
NtRp658
(dp659
g102
Nsg103
S'dns_over_https_servers'
p660
sg15
Nsg19
g20
sg114
S'DnsOverHttpsServer[]?'
p661
sg16
I303
sbasg16
I302
sg19
g20
sbsg15
Nsg19
Nsg16
Nsg120
Nsbag1
(g99
g3
NtRp662
(dp663
g102
Nsg103
S'DisableQuic'
p664
sg105
g1
(g106
g3
NtRp665
(dp666
g10
(lp667
sg16
Nsg19
Nsbsg15
Nsg19
Nsg16
Nsg120
Nsbag1
(g99
g3
NtRp668
(dp669
g102
Nsg103
S'SetUpHttpAuth'
p670
sg105
g1
(g106
g3
NtRp671
(dp672
g10
(lp673
g1
(g110
g3
NtRp674
(dp675
g102
Nsg103
S'http_auth_static_params'
p676
sg15
Nsg19
g20
sg114
S'HttpAuthStaticParams'
p677
sg16
I315
sbasg16
I315
sg19
g20
sbsg15
Nsg19
Nsg16
Nsg120
Nsbag1
(g99
g3
NtRp678
(dp679
g102
Nsg103
S'ConfigureHttpAuthPrefs'
p680
sg105
g1
(g106
g3
NtRp681
(dp682
g10
(lp683
g1
(g110
g3
NtRp684
(dp685
g102
Nsg103
S'http_auth_dynamic_params'
p686
sg15
Nsg19
g20
sg114
S'HttpAuthDynamicParams'
p687
sg16
I320
sbasg16
I320
sg19
g20
sbsg15
Nsg19
Nsg16
Nsg120
Nsbag1
(g99
g3
NtRp688
(dp689
g102
Nsg103
S'SetRawHeadersAccess'
p690
sg105
g1
(g106
g3
NtRp691
(dp692
g10
(lp693
g1
(g110
g3
NtRp694
(dp695
g102
Nsg103
S'process_id'
p696
sg15
Nsg19
g20
sg114
S'uint32'
p697
sg16
I331
sbag1
(g110
g3
NtRp698
(dp699
g102
Nsg103
S'origins'
p700
sg15
Nsg19
g20
sg114
S'url.mojom.Origin[]'
p701
sg16
I331
sbasg16
I331
sg19
g20
sbsg15
Nsg19
Nsg16
Nsg120
Nsbag1
(g99
g3
NtRp702
(dp703
g102
Nsg103
S'GetNetworkChangeManager'
p704
sg105
g1
(g106
g3
NtRp705
(dp706
g10
(lp707
g1
(g110
g3
NtRp708
(dp709
g102
Nsg103
S'network_change_manager'
p710
sg15
Nsg19
g20
sg114
S'NetworkChangeManager&'
p711
sg16
I335
sbasg16
I335
sg19
g20
sbsg15
Nsg19
Nsg16
Nsg120
Nsbag1
(g99
g3
NtRp712
(dp713
g102
Nsg103
S'GetNetworkQualityEstimatorManager'
p714
sg105
g1
(g106
g3
NtRp715
(dp716
g10
(lp717
g1
(g110
g3
NtRp718
(dp719
g102
Nsg103
S'network_quality_estimator_manager'
p720
sg15
Nsg19
g20
sg114
S'NetworkQualityEstimatorManager&'
p721
sg16
I339
sbasg16
I339
sg19
g20
sbsg15
Nsg19
Nsg16
Nsg120
Nsbag1
(g99
g3
NtRp722
(dp723
g102
Nsg103
S'GetDnsConfigChangeManager'
p724
sg105
g1
(g106
g3
NtRp725
(dp726
g10
(lp727
g1
(g110
g3
NtRp728
(dp729
g102
Nsg103
S'dns_config_change_manager'
p730
sg15
Nsg19
g20
sg114
S'DnsConfigChangeManager&'
p731
sg16
I342
sbasg16
I342
sg19
g20
sbsg15
Nsg19
Nsg16
Nsg120
Nsbag1
(g99
g3
NtRp732
(dp733
g102
Nsg103
S'GetTotalNetworkUsages'
p734
sg105
g1
(g106
g3
NtRp735
(dp736
g10
(lp737
sg16
Nsg19
Nsbsg15
Nsg19
Nsg16
Nsg120
g1
(g106
g3
NtRp738
(dp739
g10
(lp740
g1
(g110
g3
NtRp741
(dp742
g102
Nsg103
S'total_network_usages'
p743
sg15
Nsg19
g20
sg114
S'NetworkUsage[]'
p744
sg16
I345
sbasg16
I345
sg19
g20
sbsbag1
(g99
g3
NtRp745
(dp746
g102
Nsg103
S'GetNetworkList'
p747
sg105
g1
(g106
g3
NtRp748
(dp749
g10
(lp750
g1
(g110
g3
NtRp751
(dp752
g102
Nsg103
S'policy'
p753
sg15
Nsg19
g20
sg114
S'uint32'
p754
sg16
I350
sbasg16
I350
sg19
g20
sbsg15
Nsg19
Nsg16
Nsg120
g1
(g106
g3
NtRp755
(dp756
g10
(lp757
g1
(g110
g3
NtRp758
(dp759
g102
Nsg103
S'networks'
p760
sg15
Nsg19
g20
sg114
S'NetworkInterface[]?'
p761
sg16
I350
sbasg16
I350
sg19
g20
sbsbag1
(g99
g3
NtRp762
(dp763
g102
Nsg103
S'UpdateSignedTreeHead'
p764
sg105
g1
(g106
g3
NtRp765
(dp766
g10
(lp767
g1
(g110
g3
NtRp768
(dp769
g102
Nsg103
S'signed_tree_head'
p770
sg15
Nsg19
g20
sg114
S'SignedTreeHead'
p771
sg16
I356
sbasg16
I356
sg19
g20
sbsg15
g1
(g77
g3
NtRp772
(dp773
g10
(lp774
g1
(g81
g3
NtRp775
(dp776
g84
S'is_ct_supported'
p777
sg16
I355
sg86
S'EnableIf'
p778
sg19
g20
sbasg16
I355
sg19
g20
sbsg19
Nsg16
Nsg120
Nsbag1
(g99
g3
NtRp779
(dp780
g102
Nsg103
S'UpdateCRLSet'
p781
sg105
g1
(g106
g3
NtRp782
(dp783
g10
(lp784
g1
(g110
g3
NtRp785
(dp786
g102
Nsg103
S'crl_set'
p787
sg15
Nsg19
g20
sg114
S'mojo_base.mojom.ReadOnlyBuffer'
p788
sg16
I363
sbasg16
I363
sg19
g20
sbsg15
Nsg19
Nsg16
Nsg120
Nsbag1
(g99
g3
NtRp789
(dp790
g102
Nsg103
S'OnCertDBChanged'
p791
sg105
g1
(g106
g3
NtRp792
(dp793
g10
(lp794
sg16
Nsg19
Nsbsg15
Nsg19
Nsg16
Nsg120
Nsbag1
(g99
g3
NtRp795
(dp796
g102
Nsg103
S'SetCryptConfig'
p797
sg105
g1
(g106
g3
NtRp798
(dp799
g10
(lp800
g1
(g110
g3
NtRp801
(dp802
g102
Nsg103
S'crypt_config'
p803
sg15
Nsg19
g20
sg114
S'CryptConfig'
p804
sg16
I371
sbasg16
I371
sg19
g20
sbsg15
g1
(g77
g3
NtRp805
(dp806
g10
(lp807
g1
(g81
g3
NtRp808
(dp809
g84
S'needs_crypt_config'
p810
sg16
I370
sg86
S'EnableIf'
p811
sg19
g20
sbasg16
I370
sg19
g20
sbsg19
Nsg16
Nsg120
Nsbag1
(g99
g3
NtRp812
(dp813
g102
Nsg103
S'AddCorbExceptionForPlugin'
p814
sg105
g1
(g106
g3
NtRp815
(dp816
g10
(lp817
g1
(g110
g3
NtRp818
(dp819
g102
Nsg103
S'process_id'
p820
sg15
Nsg19
g20
sg114
S'uint32'
p821
sg16
I384
sbasg16
I384
sg19
g20
sbsg15
Nsg19
Nsg16
Nsg120
Nsbag1
(g99
g3
NtRp822
(dp823
g102
Nsg103
S'RemoveCorbExceptionForPlugin'
p824
sg105
g1
(g106
g3
NtRp825
(dp826
g10
(lp827
g1
(g110
g3
NtRp828
(dp829
g102
Nsg103
S'process_id'
p830
sg15
Nsg19
g20
sg114
S'uint32'
p831
sg16
I387
sbasg16
I387
sg19
g20
sbsg15
Nsg19
Nsg16
Nsg120
Nsbag1
(g99
g3
NtRp832
(dp833
g102
Nsg103
S'OnMemoryPressure'
p834
sg105
g1
(g106
g3
NtRp835
(dp836
g10
(lp837
g1
(g110
g3
NtRp838
(dp839
g102
Nsg103
S'memory_pressure_level'
p840
sg15
Nsg19
g20
sg114
S'mojo_base.mojom.MemoryPressureLevel'
p841
sg16
I390
sbasg16
I390
sg19
g20
sbsg15
Nsg19
Nsg16
Nsg120
Nsbag1
(g99
g3
NtRp842
(dp843
g102
Nsg103
S'SetEnvironment'
p844
sg105
g1
(g106
g3
NtRp845
(dp846
g10
(lp847
g1
(g110
g3
NtRp848
(dp849
g102
Nsg103
S'environment'
p850
sg15
Nsg19
g20
sg114
S'EnvironmentVariable[]'
p851
sg16
I399
sbasg16
I399
sg19
g20
sbsg15
Nsg19
Nsg16
Nsg120
Nsbasg16
Nsg19
Nsbsg15
Nsg16
Nsg103
S'NetworkService'
p852
sg19
Nsbasg16
NsS'module'
p853
g1
(cmojom.parse.ast
Module
p854
g3
NtRp855
(dp856
S'mojom_namespace'
p857
(g573
S'network.mojom'
tp858
sg16
I5
sg15
Nsg19
g20
sbsg19
Nsb.