ccopy_reg
_reconstructor
p1
(cmojom.parse.ast
Mojom
p2
c__builtin__
object
p3
NtRp4
(dp5
S'import_list'
p6
g1
(cmojom.parse.ast
ImportList
p7
g3
NtRp8
(dp9
S'items'
p10
(lp11
g1
(cmojom.parse.ast
Import
p12
g3
NtRp13
(dp14
S'attribute_list'
p15
NsS'lineno'
p16
I7
sS'import_filename'
p17
S'mojo/public/mojom/base/big_buffer.mojom'
p18
sS'filename'
p19
S'../../services/network/public/mojom/network_context.mojom'
p20
sbag1
(g12
g3
NtRp21
(dp22
g15
Nsg16
I8
sg17
S'mojo/public/mojom/base/file_path.mojom'
p23
sg19
g20
sbag1
(g12
g3
NtRp24
(dp25
g15
Nsg16
I9
sg17
S'mojo/public/mojom/base/time.mojom'
p26
sg19
g20
sbag1
(g12
g3
NtRp27
(dp28
g15
Nsg16
I10
sg17
S'mojo/public/mojom/base/unguessable_token.mojom'
p29
sg19
g20
sbag1
(g12
g3
NtRp30
(dp31
g15
Nsg16
I11
sg17
S'mojo/public/mojom/base/values.mojom'
p32
sg19
g20
sbag1
(g12
g3
NtRp33
(dp34
g15
Nsg16
I12
sg17
S'services/network/public/mojom/address_list.mojom'
p35
sg19
g20
sbag1
(g12
g3
NtRp36
(dp37
g15
Nsg16
I13
sg17
S'services/network/public/mojom/cookie_manager.mojom'
p38
sg19
g20
sbag1
(g12
g3
NtRp39
(dp40
g15
Nsg16
I14
sg17
S'services/network/public/mojom/cors_origin_pattern.mojom'
p41
sg19
g20
sbag1
(g12
g3
NtRp42
(dp43
g15
Nsg16
I15
sg17
S'services/network/public/mojom/host_resolver.mojom'
p44
sg19
g20
sbag1
(g12
g3
NtRp45
(dp46
g15
Nsg16
I16
sg17
S'services/network/public/mojom/http_request_headers.mojom'
p47
sg19
g20
sbag1
(g12
g3
NtRp48
(dp49
g15
Nsg16
I17
sg17
S'services/network/public/mojom/ip_address.mojom'
p50
sg19
g20
sbag1
(g12
g3
NtRp51
(dp52
g15
Nsg16
I18
sg17
S'services/network/public/mojom/ip_endpoint.mojom'
p53
sg19
g20
sbag1
(g12
g3
NtRp54
(dp55
g15
Nsg16
I19
sg17
S'services/network/public/mojom/mdns_responder.mojom'
p56
sg19
g20
sbag1
(g12
g3
NtRp57
(dp58
g15
Nsg16
I20
sg17
S'services/network/public/mojom/mutable_network_traffic_annotation_tag.mojom'
p59
sg19
g20
sbag1
(g12
g3
NtRp60
(dp61
g15
Nsg16
I21
sg17
S'services/network/public/mojom/net_log.mojom'
p62
sg19
g20
sbag1
(g12
g3
NtRp63
(dp64
g15
Nsg16
I22
sg17
S'services/network/public/mojom/network_param.mojom'
p65
sg19
g20
sbag1
(g12
g3
NtRp66
(dp67
g15
Nsg16
I23
sg17
S'services/network/public/mojom/origin_policy_manager.mojom'
p68
sg19
g20
sbag1
(g12
g3
NtRp69
(dp70
g15
Nsg16
I24
sg17
S'services/network/public/mojom/p2p.mojom'
p71
sg19
g20
sbag1
(g12
g3
NtRp72
(dp73
g15
Nsg16
I25
sg17
S'services/network/public/mojom/p2p_trusted.mojom'
p74
sg19
g20
sbag1
(g12
g3
NtRp75
(dp76
g15
Nsg16
I26
sg17
S'services/network/public/mojom/proxy_config.mojom'
p77
sg19
g20
sbag1
(g12
g3
NtRp78
(dp79
g15
Nsg16
I27
sg17
S'services/network/public/mojom/proxy_config_with_annotation.mojom'
p80
sg19
g20
sbag1
(g12
g3
NtRp81
(dp82
g15
Nsg16
I28
sg17
S'services/network/public/mojom/proxy_lookup_client.mojom'
p83
sg19
g20
sbag1
(g12
g3
NtRp84
(dp85
g15
Nsg16
I29
sg17
S'services/network/public/mojom/proxy_resolving_socket.mojom'
p86
sg19
g20
sbag1
(g12
g3
NtRp87
(dp88
g15
Nsg16
I30
sg17
S'services/network/public/mojom/restricted_cookie_manager.mojom'
p89
sg19
g20
sbag1
(g12
g3
NtRp90
(dp91
g15
Nsg16
I31
sg17
S'services/network/public/mojom/ssl_config.mojom'
p92
sg19
g20
sbag1
(g12
g3
NtRp93
(dp94
g15
Nsg16
I32
sg17
S'services/network/public/mojom/tcp_socket.mojom'
p95
sg19
g20
sbag1
(g12
g3
NtRp96
(dp97
g15
Nsg16
I33
sg17
S'services/network/public/mojom/udp_socket.mojom'
p98
sg19
g20
sbag1
(g12
g3
NtRp99
(dp100
g15
Nsg16
I34
sg17
S'services/network/public/mojom/url_loader.mojom'
p101
sg19
g20
sbag1
(g12
g3
NtRp102
(dp103
g15
Nsg16
I35
sg17
S'services/network/public/mojom/url_loader_factory.mojom'
p104
sg19
g20
sbag1
(g12
g3
NtRp105
(dp106
g15
Nsg16
I36
sg17
S'services/network/public/mojom/websocket.mojom'
p107
sg19
g20
sbag1
(g12
g3
NtRp108
(dp109
g15
Nsg16
I37
sg17
S'services/proxy_resolver/public/mojom/proxy_resolver.mojom'
p110
sg19
g20
sbag1
(g12
g3
NtRp111
(dp112
g15
Nsg16
I38
sg17
S'url/mojom/origin.mojom'
p113
sg19
g20
sbag1
(g12
g3
NtRp114
(dp115
g15
Nsg16
I39
sg17
S'url/mojom/url.mojom'
p116
sg19
g20
sbag1
(g12
g3
NtRp117
(dp118
g15
g1
(cmojom.parse.ast
AttributeList
p119
g3
NtRp120
(dp121
g10
(lp122
g1
(cmojom.parse.ast
Attribute
p123
g3
NtRp124
(dp125
S'value'
p126
S'is_ct_supported'
p127
sg16
I41
sS'key'
p128
S'EnableIf'
p129
sg19
g20
sbasg16
I41
sg19
g20
sbsg16
I42
sg17
S'services/network/public/mojom/ct_log_info.mojom'
p130
sg19
g20
sbag1
(g12
g3
NtRp131
(dp132
g15
g1
(g119
g3
NtRp133
(dp134
g10
(lp135
g1
(g123
g3
NtRp136
(dp137
g126
S'is_trial_comparison_cert_verifier_supported'
p138
sg16
I44
sg128
S'EnableIf'
p139
sg19
g20
sbasg16
I44
sg19
g20
sbsg16
I45
sg17
S'services/network/public/mojom/trial_comparison_cert_verifier.mojom'
p140
sg19
g20
sbasg16
I7
sg19
g20
sbsS'definition_list'
p141
(lp142
g1
(cmojom.parse.ast
Const
p143
g3
NtRp144
(dp145
S'mojom_name'
p146
S'kWebSocketOptionNone'
p147
sg15
Nsg126
S'0'
sg19
NsS'typename'
p148
S'uint32'
p149
sg16
Nsbag1
(g143
g3
NtRp150
(dp151
g146
S'kWebSocketOptionBlockAllCookies'
p152
sg15
Nsg126
S'1'
sg19
Nsg148
S'uint32'
p153
sg16
Nsbag1
(g143
g3
NtRp154
(dp155
g146
S'kWebSocketOptionBlockThirdPartyCookies'
p156
sg15
Nsg126
S'2'
sg19
Nsg148
S'uint32'
p157
sg16
Nsbag1
(cmojom.parse.ast
Struct
p158
g3
NtRp159
(dp160
S'body'
p161
g1
(cmojom.parse.ast
StructBody
p162
g3
NtRp163
(dp164
g10
(lp165
g1
(cmojom.parse.ast
StructField
p166
g3
NtRp167
(dp168
S'ordinal'
p169
NsS'default_value'
p170
Nsg146
S'rules'
p171
sg15
Nsg19
Nsg148
S'ProxyRules'
p172
sg16
Nsbag1
(g166
g3
NtRp173
(dp174
g169
Nsg170
S'false'
p175
sg146
S'should_override_existing_config'
p176
sg15
Nsg19
Nsg148
S'bool'
p177
sg16
Nsbag1
(g166
g3
NtRp178
(dp179
g169
Nsg170
S'false'
p180
sg146
S'allow_non_idempotent_methods'
p181
sg15
Nsg19
Nsg148
S'bool'
p182
sg16
Nsbag1
(g166
g3
NtRp183
(dp184
g169
Nsg170
S'false'
p185
sg146
S'assume_https_proxies_support_quic'
p186
sg15
Nsg19
Nsg148
S'bool'
p187
sg16
Nsbag1
(g166
g3
NtRp188
(dp189
g169
Nsg170
S'true'
p190
sg146
S'can_use_proxy_on_http_url_redirect_cycles'
p191
sg15
Nsg19
Nsg148
S'bool'
p192
sg16
Nsbag1
(g166
g3
NtRp193
(dp194
g169
Nsg170
Nsg146
S'pre_cache_headers'
p195
sg15
Nsg19
Nsg148
S'HttpRequestHeaders'
p196
sg16
Nsbag1
(g166
g3
NtRp197
(dp198
g169
Nsg170
Nsg146
S'post_cache_headers'
p199
sg15
Nsg19
Nsg148
S'HttpRequestHeaders'
p200
sg16
Nsbag1
(g166
g3
NtRp201
(dp202
g169
Nsg170
Nsg146
S'connect_tunnel_headers'
p203
sg15
Nsg19
Nsg148
S'HttpRequestHeaders'
p204
sg16
Nsbasg16
Nsg19
Nsbsg15
Nsg16
Nsg146
S'CustomProxyConfig'
p205
sg19
Nsbag1
(cmojom.parse.ast
Interface
p206
g3
NtRp207
(dp208
g161
g1
(cmojom.parse.ast
InterfaceBody
p209
g3
NtRp210
(dp211
g10
(lp212
g1
(cmojom.parse.ast
Method
p213
g3
NtRp214
(dp215
g169
Nsg146
S'OnCustomProxyConfigUpdated'
p216
sS'parameter_list'
p217
g1
(cmojom.parse.ast
ParameterList
p218
g3
NtRp219
(dp220
g10
(lp221
g1
(cmojom.parse.ast
Parameter
p222
g3
NtRp223
(dp224
g169
Nsg146
S'proxy_config'
p225
sg15
Nsg19
g20
sg148
S'CustomProxyConfig'
p226
sg16
I119
sbasg16
I119
sg19
g20
sbsg15
Nsg19
Nsg16
NsS'response_parameter_list'
p227
Nsbag1
(g213
g3
NtRp228
(dp229
g169
Nsg146
S'MarkProxiesAsBad'
p230
sg217
g1
(g218
g3
NtRp231
(dp232
g10
(lp233
g1
(g222
g3
NtRp234
(dp235
g169
Nsg146
S'bypass_duration'
p236
sg15
Nsg19
g20
sg148
S'mojo_base.mojom.TimeDelta'
p237
sg16
I123
sbag1
(g222
g3
NtRp238
(dp239
g169
Nsg146
S'bad_proxies'
p240
sg15
Nsg19
g20
sg148
S'ProxyList'
p241
sg16
I124
sbasg16
I123
sg19
g20
sbsg15
Nsg19
Nsg16
Nsg227
g1
(g218
g3
NtRp242
(dp243
g10
(lp244
sg16
Nsg19
Nsbsbag1
(g213
g3
NtRp245
(dp246
g169
Nsg146
S'ClearBadProxiesCache'
p247
sg217
g1
(g218
g3
NtRp248
(dp249
g10
(lp250
sg16
Nsg19
Nsbsg15
Nsg19
Nsg16
Nsg227
Nsbasg16
Nsg19
Nsbsg15
Nsg16
Nsg146
S'CustomProxyConfigClient'
p251
sg19
Nsbag1
(g206
g3
NtRp252
(dp253
g161
g1
(g209
g3
NtRp254
(dp255
g10
(lp256
g1
(g213
g3
NtRp257
(dp258
g169
Nsg146
S'OnBeforeSendHeaders'
p259
sg217
g1
(g218
g3
NtRp260
(dp261
g10
(lp262
g1
(g222
g3
NtRp263
(dp264
g169
Nsg146
S'headers'
p265
sg15
Nsg19
g20
sg148
S'HttpRequestHeaders'
p266
sg16
I143
sbasg16
I143
sg19
g20
sbsg15
Nsg19
Nsg16
Nsg227
g1
(g218
g3
NtRp267
(dp268
g10
(lp269
g1
(g222
g3
NtRp270
(dp271
g169
Nsg146
S'result'
p272
sg15
Nsg19
g20
sg148
S'int32'
p273
sg16
I144
sbag1
(g222
g3
NtRp274
(dp275
g169
Nsg146
S'headers'
p276
sg15
Nsg19
g20
sg148
S'HttpRequestHeaders?'
p277
sg16
I144
sbasg16
I144
sg19
g20
sbsbag1
(g213
g3
NtRp278
(dp279
g169
Nsg146
S'OnHeadersReceived'
p280
sg217
g1
(g218
g3
NtRp281
(dp282
g10
(lp283
g1
(g222
g3
NtRp284
(dp285
g169
Nsg146
S'headers'
p286
sg15
Nsg19
g20
sg148
S'string'
p287
sg16
I148
sbasg16
I148
sg19
g20
sbsg15
Nsg19
Nsg16
Nsg227
g1
(g218
g3
NtRp288
(dp289
g10
(lp290
g1
(g222
g3
NtRp291
(dp292
g169
Nsg146
S'result'
p293
sg15
Nsg19
g20
sg148
S'int32'
p294
sg16
I149
sbag1
(g222
g3
NtRp295
(dp296
g169
Nsg146
S'headers'
p297
sg15
Nsg19
g20
sg148
S'string?'
p298
sg16
I150
sbag1
(g222
g3
NtRp299
(dp300
g169
Nsg146
S'allowed_unsafe_redirect_url'
p301
sg15
Nsg19
g20
sg148
S'url.mojom.Url'
p302
sg16
I151
sbasg16
I149
sg19
g20
sbsbasg16
Nsg19
Nsbsg15
Nsg16
Nsg146
S'TrustedHeaderClient'
p303
sg19
Nsbag1
(g206
g3
NtRp304
(dp305
g161
g1
(g209
g3
NtRp306
(dp307
g10
(lp308
g1
(g213
g3
NtRp309
(dp310
g169
Nsg146
S'OnLoaderCreated'
p311
sg217
g1
(g218
g3
NtRp312
(dp313
g10
(lp314
g1
(g222
g3
NtRp315
(dp316
g169
Nsg146
S'request_id'
p317
sg15
Nsg19
g20
sg148
S'int32'
p318
sg16
I160
sbag1
(g222
g3
NtRp319
(dp320
g169
Nsg146
S'header_client'
p321
sg15
Nsg19
g20
sg148
S'TrustedHeaderClient&'
p322
sg16
I160
sbasg16
I160
sg19
g20
sbsg15
Nsg19
Nsg16
Nsg227
Nsbasg16
Nsg19
Nsbsg15
Nsg16
Nsg146
S'TrustedURLLoaderHeaderClient'
p323
sg19
Nsbag1
(g158
g3
NtRp324
(dp325
g161
g1
(g162
g3
NtRp326
(dp327
g10
(lp328
g1
(g166
g3
NtRp329
(dp330
g169
Nsg170
Nsg146
S'context_name'
p331
sg15
Nsg19
Nsg148
S'string?'
p332
sg16
Nsbag1
(g166
g3
NtRp333
(dp334
g169
Nsg170
Nsg146
S'user_agent'
p335
sg15
Nsg19
Nsg148
S'string'
p336
sg16
Nsbag1
(g166
g3
NtRp337
(dp338
g169
Nsg170
Nsg146
S'accept_language'
p339
sg15
Nsg19
Nsg148
S'string'
p340
sg16
Nsbag1
(g166
g3
NtRp341
(dp342
g169
Nsg170
S'true'
p343
sg146
S'enable_brotli'
p344
sg15
Nsg19
Nsg148
S'bool'
p345
sg16
Nsbag1
(g166
g3
NtRp346
(dp347
g169
Nsg170
Nsg146
S'quic_user_agent_id'
p348
sg15
Nsg19
Nsg148
S'string'
p349
sg16
Nsbag1
(g166
g3
NtRp350
(dp351
g169
Nsg170
S'true'
p352
sg146
S'enable_referrers'
p353
sg15
Nsg19
Nsg148
S'bool'
p354
sg16
Nsbag1
(g166
g3
NtRp355
(dp356
g169
Nsg170
S'true'
p357
sg146
S'validate_referrer_policy_on_initial_request'
p358
sg15
Nsg19
Nsg148
S'bool'
p359
sg16
Nsbag1
(g166
g3
NtRp360
(dp361
g169
Nsg170
Nsg146
S'proxy_resolver_factory'
p362
sg15
Nsg19
Nsg148
S'proxy_resolver.mojom.ProxyResolverFactory?'
p363
sg16
Nsbag1
(g166
g3
NtRp364
(dp365
g169
Nsg170
Nsg146
S'cookie_path'
p366
sg15
Nsg19
Nsg148
S'mojo_base.mojom.FilePath?'
p367
sg16
Nsbag1
(g166
g3
NtRp368
(dp369
g169
Nsg170
S'true'
p370
sg146
S'enable_encrypted_cookies'
p371
sg15
Nsg19
Nsg148
S'bool'
p372
sg16
Nsbag1
(g166
g3
NtRp373
(dp374
g169
Nsg170
S'false'
p375
sg146
S'restore_old_session_cookies'
p376
sg15
Nsg19
Nsg148
S'bool'
p377
sg16
Nsbag1
(g166
g3
NtRp378
(dp379
g169
Nsg170
S'false'
p380
sg146
S'persist_session_cookies'
p381
sg15
Nsg19
Nsg148
S'bool'
p382
sg16
Nsbag1
(g166
g3
NtRp383
(dp384
g169
Nsg170
S'true'
p385
sg146
S'http_cache_enabled'
p386
sg15
Nsg19
Nsg148
S'bool'
p387
sg16
Nsbag1
(g166
g3
NtRp388
(dp389
g169
Nsg170
S'0'
sg146
S'http_cache_max_size'
p390
sg15
Nsg19
Nsg148
S'int32'
p391
sg16
Nsbag1
(g166
g3
NtRp392
(dp393
g169
Nsg170
Nsg146
S'http_cache_path'
p394
sg15
Nsg19
Nsg148
S'mojo_base.mojom.FilePath?'
p395
sg16
Nsbag1
(g166
g3
NtRp396
(dp397
g169
Nsg170
Nsg146
S'http_server_properties_path'
p398
sg15
Nsg19
Nsg148
S'mojo_base.mojom.FilePath?'
p399
sg16
Nsbag1
(g166
g3
NtRp400
(dp401
g169
Nsg170
Nsg146
S'transport_security_persister_path'
p402
sg15
Nsg19
Nsg148
S'mojo_base.mojom.FilePath?'
p403
sg16
Nsbag1
(g166
g3
NtRp404
(dp405
g169
Nsg170
S'false'
p406
sg146
S'enable_ftp_url_support'
p407
sg15
Nsg19
Nsg148
S'bool'
p408
sg16
Nsbag1
(g166
g3
NtRp409
(dp410
g169
Nsg170
S'false'
p411
sg146
S'enforce_chrome_ct_policy'
p412
sg15
g1
(g119
g3
NtRp413
(dp414
g10
(lp415
g1
(g123
g3
NtRp416
(dp417
g126
S'is_ct_supported'
p418
sg16
I247
sg128
S'EnableIf'
p419
sg19
g20
sbasg16
I247
sg19
g20
sbsg19
Nsg148
S'bool'
p420
sg16
Nsbag1
(g166
g3
NtRp421
(dp422
g169
Nsg170
S'false'
p423
sg146
S'http_09_on_non_default_ports_enabled'
p424
sg15
Nsg19
Nsg148
S'bool'
p425
sg16
Nsbag1
(g166
g3
NtRp426
(dp427
g169
Nsg170
S'false'
p428
sg146
S'disable_idle_sockets_close_on_memory_pressure'
p429
sg15
Nsg19
Nsg148
S'bool'
p430
sg16
Nsbag1
(g166
g3
NtRp431
(dp432
g169
Nsg170
Nsg146
S'initial_ssl_config'
p433
sg15
Nsg19
Nsg148
S'SSLConfig?'
p434
sg16
Nsbag1
(g166
g3
NtRp435
(dp436
g169
Nsg170
Nsg146
S'ssl_config_client_request'
p437
sg15
Nsg19
Nsg148
S'SSLConfigClient&?'
p438
sg16
Nsbag1
(g166
g3
NtRp439
(dp440
g169
Nsg170
Nsg146
S'initial_proxy_config'
p441
sg15
Nsg19
Nsg148
S'ProxyConfigWithAnnotation?'
p442
sg16
Nsbag1
(g166
g3
NtRp443
(dp444
g169
Nsg170
Nsg146
S'proxy_config_client_request'
p445
sg15
Nsg19
Nsg148
S'ProxyConfigClient&?'
p446
sg16
Nsbag1
(g166
g3
NtRp447
(dp448
g169
Nsg170
Nsg146
S'initial_custom_proxy_config'
p449
sg15
Nsg19
Nsg148
S'CustomProxyConfig?'
p450
sg16
Nsbag1
(g166
g3
NtRp451
(dp452
g169
Nsg170
Nsg146
S'custom_proxy_config_client_request'
p453
sg15
Nsg19
Nsg148
S'CustomProxyConfigClient&?'
p454
sg16
Nsbag1
(g166
g3
NtRp455
(dp456
g169
Nsg170
Nsg146
S'proxy_config_poller_client'
p457
sg15
Nsg19
Nsg148
S'ProxyConfigPollerClient?'
p458
sg16
Nsbag1
(g166
g3
NtRp459
(dp460
g169
Nsg170
Nsg146
S'proxy_error_client'
p461
sg15
Nsg19
Nsg148
S'ProxyErrorClient?'
p462
sg16
Nsbag1
(g166
g3
NtRp463
(dp464
g169
Nsg170
S'true'
p465
sg146
S'pac_quick_check_enabled'
p466
sg15
Nsg19
Nsg148
S'bool'
p467
sg16
Nsbag1
(g166
g3
NtRp468
(dp469
g169
Nsg170
S'false'
p470
sg146
S'enable_certificate_reporting'
p471
sg15
Nsg19
Nsg148
S'bool'
p472
sg16
Nsbag1
(g166
g3
NtRp473
(dp474
g169
Nsg170
S'false'
p475
sg146
S'enable_expect_ct_reporting'
p476
sg15
g1
(g119
g3
NtRp477
(dp478
g10
(lp479
g1
(g123
g3
NtRp480
(dp481
g126
S'is_ct_supported'
p482
sg16
I304
sg128
S'EnableIf'
p483
sg19
g20
sbasg16
I304
sg19
g20
sbsg19
Nsg148
S'bool'
p484
sg16
Nsbag1
(g166
g3
NtRp485
(dp486
g169
Nsg170
Nsg146
S'ct_logs'
p487
sg15
g1
(g119
g3
NtRp488
(dp489
g10
(lp490
g1
(g123
g3
NtRp491
(dp492
g126
S'is_ct_supported'
p493
sg16
I310
sg128
S'EnableIf'
p494
sg19
g20
sbasg16
I310
sg19
g20
sbsg19
Nsg148
S'CTLogInfo[]'
p495
sg16
Nsbag1
(g166
g3
NtRp496
(dp497
g169
Nsg170
Nsg146
S'trial_comparison_cert_verifier_params'
p498
sg15
g1
(g119
g3
NtRp499
(dp500
g10
(lp501
g1
(g123
g3
NtRp502
(dp503
g126
S'is_trial_comparison_cert_verifier_supported'
p504
sg16
I330
sg128
S'EnableIf'
p505
sg19
g20
sbasg16
I330
sg19
g20
sbsg19
Nsg148
S'TrialComparisonCertVerifierParams?'
p506
sg16
Nsbag1
(g166
g3
NtRp507
(dp508
g169
Nsg170
Nsg146
S'cookie_manager_params'
p509
sg15
Nsg19
Nsg148
S'CookieManagerParams?'
p510
sg16
Nsbag1
(g166
g3
NtRp511
(dp512
g169
Nsg170
S'false'
p513
sg146
S'enable_domain_reliability'
p514
sg15
Nsg19
Nsg148
S'bool'
p515
sg16
Nsbag1
(g166
g3
NtRp516
(dp517
g169
Nsg170
Nsg146
S'domain_reliability_upload_reporter'
p518
sg15
Nsg19
Nsg148
S'string'
p519
sg16
Nsbag1
(g166
g3
NtRp520
(dp521
g169
Nsg170
S'false'
p522
sg146
S'discard_domain_reliablity_uploads'
p523
sg15
Nsg19
Nsg148
S'bool'
p524
sg16
Nsbag1
(g166
g3
NtRp525
(dp526
g169
Nsg170
Nsg146
S'reporting_delivery_interval'
p527
sg15
Nsg19
Nsg148
S'mojo_base.mojom.TimeDelta?'
p528
sg16
Nsbag1
(g166
g3
NtRp529
(dp530
g169
Nsg170
S'false'
p531
sg146
S'skip_reporting_send_permission_check'
p532
sg15
Nsg19
Nsg148
S'bool'
p533
sg16
Nsbag1
(g166
g3
NtRp534
(dp535
g169
Nsg170
S'false'
p536
sg146
S'primary_network_context'
p537
sg15
Nsg19
Nsg148
S'bool'
p538
sg16
Nsbag1
(g166
g3
NtRp539
(dp540
g169
Nsg170
Nsg146
S'cors_origin_access_list'
p541
sg15
Nsg19
Nsg148
S'CorsOriginAccessPatterns[]'
p542
sg16
Nsbag1
(g166
g3
NtRp543
(dp544
g169
Nsg170
Nsg146
S'cors_exempt_header_list'
p545
sg15
Nsg19
Nsg148
S'string[]'
p546
sg16
Nsbasg16
Nsg19
Nsbsg15
Nsg16
Nsg146
S'NetworkContextParams'
p547
sg19
Nsbag1
(g158
g3
NtRp548
(dp549
g161
g1
(g162
g3
NtRp550
(dp551
g10
(lp552
g1
(g166
g3
NtRp553
(dp554
g169
Nsg170
Nsg146
S'offline'
p555
sg15
Nsg19
Nsg148
S'bool'
p556
sg16
Nsbag1
(g166
g3
NtRp557
(dp558
g169
Nsg170
Nsg146
S'latency'
p559
sg15
Nsg19
Nsg148
S'mojo_base.mojom.TimeDelta'
p560
sg16
Nsbag1
(g166
g3
NtRp561
(dp562
g169
Nsg170
Nsg146
S'download_throughput'
p563
sg15
Nsg19
Nsg148
S'double'
p564
sg16
Nsbag1
(g166
g3
NtRp565
(dp566
g169
Nsg170
Nsg146
S'upload_throughput'
p567
sg15
Nsg19
Nsg148
S'double'
p568
sg16
Nsbasg16
Nsg19
Nsbsg15
Nsg16
Nsg146
S'NetworkConditions'
p569
sg19
Nsbag1
(g158
g3
NtRp570
(dp571
g161
g1
(g162
g3
NtRp572
(dp573
g10
(lp574
g1
(cmojom.parse.ast
Enum
p575
g3
NtRp576
(dp577
g15
NsS'enum_value_list'
p578
g1
(cmojom.parse.ast
EnumValueList
p579
g3
NtRp580
(dp581
g10
(lp582
g1
(cmojom.parse.ast
EnumValue
p583
g3
NtRp584
(dp585
g15
Nsg126
Nsg16
I401
sg146
S'DELETE_MATCHES'
p586
sg19
g20
sbag1
(g583
g3
NtRp587
(dp588
g15
Nsg126
Nsg16
I401
sg146
S'KEEP_MATCHES'
p589
sg19
g20
sbasg16
I401
sg19
g20
sbsg16
I401
sg146
S'Type'
p590
sg19
g20
sbag1
(g166
g3
NtRp591
(dp592
g169
Nsg170
Nsg146
S'type'
p593
sg15
Nsg19
Nsg148
S'Type'
p594
sg16
Nsbag1
(g166
g3
NtRp595
(dp596
g169
Nsg170
Nsg146
S'domains'
p597
sg15
Nsg19
Nsg148
S'string[]'
p598
sg16
Nsbag1
(g166
g3
NtRp599
(dp600
g169
Nsg170
Nsg146
S'origins'
p601
sg15
Nsg19
Nsg148
S'url.mojom.Origin[]'
p602
sg16
Nsbasg16
I401
sg19
g20
sbsg15
Nsg16
Nsg146
S'ClearDataFilter'
p603
sg19
Nsbag1
(g158
g3
NtRp604
(dp605
g161
g1
(g162
g3
NtRp606
(dp607
g10
(lp608
g1
(g166
g3
NtRp609
(dp610
g169
Nsg170
Nsg146
S'process_id'
p611
sg15
Nsg19
Nsg148
S'uint32'
p612
sg16
Nsbag1
(g166
g3
NtRp613
(dp614
g169
Nsg170
Nsg146
S'routing_id'
p615
sg15
Nsg19
Nsg148
S'uint32'
p616
sg16
Nsbag1
(g166
g3
NtRp617
(dp618
g169
Nsg170
Nsg146
S'total_bytes_received'
p619
sg15
Nsg19
Nsg148
S'int64'
p620
sg16
Nsbag1
(g166
g3
NtRp621
(dp622
g169
Nsg170
Nsg146
S'total_bytes_sent'
p623
sg15
Nsg19
Nsg148
S'int64'
p624
sg16
Nsbasg16
Nsg19
Nsbsg15
Nsg16
Nsg146
S'NetworkUsage'
p625
sg19
Nsbag1
(g158
g3
NtRp626
(dp627
g161
g1
(g162
g3
NtRp628
(dp629
g10
(lp630
g1
(g166
g3
NtRp631
(dp632
g169
Nsg170
Nsg146
S'success'
p633
sg15
Nsg19
Nsg148
S'bool'
p634
sg16
Nsbag1
(g166
g3
NtRp635
(dp636
g169
Nsg170
Nsg146
S'type'
p637
sg15
Nsg19
Nsg148
S'string'
p638
sg16
Nsbag1
(g166
g3
NtRp639
(dp640
g169
Nsg170
Nsg146
S'outer_url'
p641
sg15
Nsg19
Nsg148
S'url.mojom.Url'
p642
sg16
Nsbag1
(g166
g3
NtRp643
(dp644
g169
Nsg170
Nsg146
S'inner_url'
p645
sg15
Nsg19
Nsg148
S'url.mojom.Url'
p646
sg16
Nsbag1
(g166
g3
NtRp647
(dp648
g169
Nsg170
Nsg146
S'cert_url'
p649
sg15
Nsg19
Nsg148
S'url.mojom.Url'
p650
sg16
Nsbag1
(g166
g3
NtRp651
(dp652
g169
Nsg170
Nsg146
S'referrer'
p653
sg15
Nsg19
Nsg148
S'string'
p654
sg16
Nsbag1
(g166
g3
NtRp655
(dp656
g169
Nsg170
Nsg146
S'server_ip_address'
p657
sg15
Nsg19
Nsg148
S'IPAddress'
p658
sg16
Nsbag1
(g166
g3
NtRp659
(dp660
g169
Nsg170
Nsg146
S'protocol'
p661
sg15
Nsg19
Nsg148
S'string'
p662
sg16
Nsbag1
(g166
g3
NtRp663
(dp664
g169
Nsg170
Nsg146
S'method'
p665
sg15
Nsg19
Nsg148
S'string'
p666
sg16
Nsbag1
(g166
g3
NtRp667
(dp668
g169
Nsg170
Nsg146
S'status_code'
p669
sg15
Nsg19
Nsg148
S'int32'
p670
sg16
Nsbag1
(g166
g3
NtRp671
(dp672
g169
Nsg170
Nsg146
S'elapsed_time'
p673
sg15
Nsg19
Nsg148
S'mojo_base.mojom.TimeDelta'
p674
sg16
Nsbasg16
Nsg19
Nsbsg15
Nsg16
Nsg146
S'SignedExchangeReport'
p675
sg19
Nsbag1
(g143
g3
NtRp676
(dp677
g146
S'kBrowserProcessId'
p678
sg15
Nsg126
S'0'
sg19
Nsg148
S'uint32'
p679
sg16
Nsbag1
(g143
g3
NtRp680
(dp681
g146
S'kInvalidProcessId'
p682
sg15
Nsg126
S'0xffffffff'
p683
sg19
Nsg148
S'uint32'
p684
sg16
Nsbag1
(g158
g3
NtRp685
(dp686
g161
g1
(g162
g3
NtRp687
(dp688
g10
(lp689
g1
(g166
g3
NtRp690
(dp691
g169
Nsg170
(S'IDENTIFIER'
p692
S'kInvalidProcessId'
tp693
sg146
S'process_id'
p694
sg15
Nsg19
Nsg148
S'uint32'
p695
sg16
Nsbag1
(g166
g3
NtRp696
(dp697
g169
Nsg170
Nsg146
S'request_initiator_site_lock'
p698
sg15
Nsg19
Nsg148
S'url.mojom.Origin?'
p699
sg16
Nsbag1
(g166
g3
NtRp700
(dp701
g169
Nsg170
S'true'
p702
sg146
S'is_corb_enabled'
p703
sg15
Nsg19
Nsg148
S'bool'
p704
sg16
Nsbag1
(g166
g3
NtRp705
(dp706
g169
Nsg170
S'false'
p707
sg146
S'disable_web_security'
p708
sg15
Nsg19
Nsg148
S'bool'
p709
sg16
Nsbag1
(g166
g3
NtRp710
(dp711
g169
Nsg170
Nsg146
S'header_client'
p712
sg15
Nsg19
Nsg148
S'TrustedURLLoaderHeaderClient?'
p713
sg16
Nsbag1
(g166
g3
NtRp714
(dp715
g169
Nsg170
Nsg146
S'factory_bound_allow_patterns'
p716
sg15
Nsg19
Nsg148
S'CorsOriginPattern[]'
p717
sg16
Nsbasg16
Nsg19
Nsbsg15
Nsg16
Nsg146
S'URLLoaderFactoryParams'
p718
sg19
Nsbag1
(g206
g3
NtRp719
(dp720
g161
g1
(g209
g3
NtRp721
(dp722
g10
(lp723
g1
(g213
g3
NtRp724
(dp725
g169
Nsg146
S'OnCanSendReportingReports'
p726
sg217
g1
(g218
g3
NtRp727
(dp728
g10
(lp729
g1
(g222
g3
NtRp730
(dp731
g169
Nsg146
S'origins'
p732
sg15
Nsg19
g20
sg148
S'url.mojom.Origin[]'
p733
sg16
I492
sbasg16
I492
sg19
g20
sbsg15
Nsg19
Nsg16
Nsg227
g1
(g218
g3
NtRp734
(dp735
g10
(lp736
g1
(g222
g3
NtRp737
(dp738
g169
Nsg146
S'origins'
p739
sg15
Nsg19
g20
sg148
S'url.mojom.Origin[]'
p740
sg16
I493
sbasg16
I493
sg19
g20
sbsbag1
(g213
g3
NtRp741
(dp742
g169
Nsg146
S'OnCanSendDomainReliabilityUpload'
p743
sg217
g1
(g218
g3
NtRp744
(dp745
g10
(lp746
g1
(g222
g3
NtRp747
(dp748
g169
Nsg146
S'origin'
p749
sg15
Nsg19
g20
sg148
S'url.mojom.Url'
p750
sg16
I496
sbasg16
I496
sg19
g20
sbsg15
Nsg19
Nsg16
Nsg227
g1
(g218
g3
NtRp751
(dp752
g10
(lp753
g1
(g222
g3
NtRp754
(dp755
g169
Nsg146
S'allowed'
p756
sg15
Nsg19
g20
sg148
S'bool'
p757
sg16
I496
sbasg16
I496
sg19
g20
sbsbasg16
Nsg19
Nsbsg15
Nsg16
Nsg146
S'NetworkContextClient'
p758
sg19
Nsbag1
(g206
g3
NtRp759
(dp760
g161
g1
(g209
g3
NtRp761
(dp762
g10
(lp763
g1
(g213
g3
NtRp764
(dp765
g169
Nsg146
S'SetClient'
p766
sg217
g1
(g218
g3
NtRp767
(dp768
g10
(lp769
g1
(g222
g3
NtRp770
(dp771
g169
Nsg146
S'client'
p772
sg15
Nsg19
g20
sg148
S'NetworkContextClient'
p773
sg16
I503
sbasg16
I503
sg19
g20
sbsg15
Nsg19
Nsg16
Nsg227
Nsbag1
(g213
g3
NtRp774
(dp775
g169
Nsg146
S'CreateURLLoaderFactory'
p776
sg217
g1
(g218
g3
NtRp777
(dp778
g10
(lp779
g1
(g222
g3
NtRp780
(dp781
g169
Nsg146
S'url_loader_factory'
p782
sg15
Nsg19
g20
sg148
S'URLLoaderFactory&'
p783
sg16
I506
sbag1
(g222
g3
NtRp784
(dp785
g169
Nsg146
S'params'
p786
sg15
Nsg19
g20
sg148
S'URLLoaderFactoryParams'
p787
sg16
I507
sbasg16
I506
sg19
g20
sbsg15
Nsg19
Nsg16
Nsg227
Nsbag1
(g213
g3
NtRp788
(dp789
g169
Nsg146
S'ResetURLLoaderFactories'
p790
sg217
g1
(g218
g3
NtRp791
(dp792
g10
(lp793
sg16
Nsg19
Nsbsg15
Nsg19
Nsg16
Nsg227
Nsbag1
(g213
g3
NtRp794
(dp795
g169
Nsg146
S'GetCookieManager'
p796
sg217
g1
(g218
g3
NtRp797
(dp798
g10
(lp799
g1
(g222
g3
NtRp800
(dp801
g169
Nsg146
S'cookie_manager'
p802
sg15
Nsg19
g20
sg148
S'CookieManager&'
p803
sg16
I518
sbasg16
I518
sg19
g20
sbsg15
Nsg19
Nsg16
Nsg227
Nsbag1
(g213
g3
NtRp804
(dp805
g169
Nsg146
S'GetRestrictedCookieManager'
p806
sg217
g1
(g218
g3
NtRp807
(dp808
g10
(lp809
g1
(g222
g3
NtRp810
(dp811
g169
Nsg146
S'restricted_cookie_manager'
p812
sg15
Nsg19
g20
sg148
S'RestrictedCookieManager&'
p813
sg16
I524
sbag1
(g222
g3
NtRp814
(dp815
g169
Nsg146
S'origin'
p816
sg15
Nsg19
g20
sg148
S'url.mojom.Origin'
p817
sg16
I525
sbasg16
I524
sg19
g20
sbsg15
Nsg19
Nsg16
Nsg227
Nsbag1
(g213
g3
NtRp818
(dp819
g169
Nsg146
S'ClearNetworkingHistorySince'
p820
sg217
g1
(g218
g3
NtRp821
(dp822
g10
(lp823
g1
(g222
g3
NtRp824
(dp825
g169
Nsg146
S'start_time'
p826
sg15
Nsg19
g20
sg148
S'mojo_base.mojom.Time'
p827
sg16
I534
sbasg16
I534
sg19
g20
sbsg15
Nsg19
Nsg16
Nsg227
g1
(g218
g3
NtRp828
(dp829
g10
(lp830
sg16
Nsg19
Nsbsbag1
(g213
g3
NtRp831
(dp832
g169
Nsg146
S'ClearHttpCache'
p833
sg217
g1
(g218
g3
NtRp834
(dp835
g10
(lp836
g1
(g222
g3
NtRp837
(dp838
g169
Nsg146
S'start_time'
p839
sg15
Nsg19
g20
sg148
S'mojo_base.mojom.Time'
p840
sg16
I541
sbag1
(g222
g3
NtRp841
(dp842
g169
Nsg146
S'end_time'
p843
sg15
Nsg19
g20
sg148
S'mojo_base.mojom.Time'
p844
sg16
I542
sbag1
(g222
g3
NtRp845
(dp846
g169
Nsg146
S'filter'
p847
sg15
Nsg19
g20
sg148
S'ClearDataFilter?'
p848
sg16
I543
sbasg16
I541
sg19
g20
sbsg15
Nsg19
Nsg16
Nsg227
g1
(g218
g3
NtRp849
(dp850
g10
(lp851
sg16
Nsg19
Nsbsbag1
(g213
g3
NtRp852
(dp853
g169
Nsg146
S'ComputeHttpCacheSize'
p854
sg217
g1
(g218
g3
NtRp855
(dp856
g10
(lp857
g1
(g222
g3
NtRp858
(dp859
g169
Nsg146
S'start_time'
p860
sg15
Nsg19
g20
sg148
S'mojo_base.mojom.Time'
p861
sg16
I556
sbag1
(g222
g3
NtRp862
(dp863
g169
Nsg146
S'end_time'
p864
sg15
Nsg19
g20
sg148
S'mojo_base.mojom.Time'
p865
sg16
I557
sbasg16
I556
sg19
g20
sbsg15
Nsg19
Nsg16
Nsg227
g1
(g218
g3
NtRp866
(dp867
g10
(lp868
g1
(g222
g3
NtRp869
(dp870
g169
Nsg146
S'is_upper_bound'
p871
sg15
Nsg19
g20
sg148
S'bool'
p872
sg16
I558
sbag1
(g222
g3
NtRp873
(dp874
g169
Nsg146
S'size_or_error'
p875
sg15
Nsg19
g20
sg148
S'int64'
p876
sg16
I558
sbasg16
I558
sg19
g20
sbsbag1
(g213
g3
NtRp877
(dp878
g169
Nsg146
S'NotifyExternalCacheHit'
p879
sg217
g1
(g218
g3
NtRp880
(dp881
g10
(lp882
g1
(g222
g3
NtRp883
(dp884
g169
Nsg146
S'url'
p885
sg15
Nsg19
g20
sg148
S'url.mojom.Url'
p886
sg16
I566
sbag1
(g222
g3
NtRp887
(dp888
g169
Nsg146
S'http_method'
p889
sg15
Nsg19
g20
sg148
S'string'
p890
sg16
I566
sbag1
(g222
g3
NtRp891
(dp892
g169
Nsg146
S'top_frame_origin'
p893
sg15
Nsg19
g20
sg148
S'url.mojom.Origin?'
p894
sg16
I567
sbasg16
I566
sg19
g20
sbsg15
Nsg19
Nsg16
Nsg227
Nsbag1
(g213
g3
NtRp895
(dp896
g169
Nsg146
S'WriteCacheMetadata'
p897
sg217
g1
(g218
g3
NtRp898
(dp899
g10
(lp900
g1
(g222
g3
NtRp901
(dp902
g169
Nsg146
S'url'
p903
sg15
Nsg19
g20
sg148
S'url.mojom.Url'
p904
sg16
I571
sbag1
(g222
g3
NtRp905
(dp906
g169
Nsg146
S'priority'
p907
sg15
Nsg19
g20
sg148
S'RequestPriority'
p908
sg16
I572
sbag1
(g222
g3
NtRp909
(dp910
g169
Nsg146
S'expected_response_time'
p911
sg15
Nsg19
g20
sg148
S'mojo_base.mojom.Time'
p912
sg16
I573
sbag1
(g222
g3
NtRp913
(dp914
g169
Nsg146
S'data'
p915
sg15
Nsg19
g20
sg148
S'mojo_base.mojom.BigBuffer'
p916
sg16
I574
sbasg16
I571
sg19
g20
sbsg15
Nsg19
Nsg16
Nsg227
Nsbag1
(g213
g3
NtRp917
(dp918
g169
Nsg146
S'ClearHostCache'
p919
sg217
g1
(g218
g3
NtRp920
(dp921
g10
(lp922
g1
(g222
g3
NtRp923
(dp924
g169
Nsg146
S'filter'
p925
sg15
Nsg19
g20
sg148
S'ClearDataFilter?'
p926
sg16
I582
sbasg16
I582
sg19
g20
sbsg15
Nsg19
Nsg16
Nsg227
g1
(g218
g3
NtRp927
(dp928
g10
(lp929
sg16
Nsg19
Nsbsbag1
(g213
g3
NtRp930
(dp931
g169
Nsg146
S'ClearHttpAuthCache'
p932
sg217
g1
(g218
g3
NtRp933
(dp934
g10
(lp935
g1
(g222
g3
NtRp936
(dp937
g169
Nsg146
S'start_time'
p938
sg15
Nsg19
g20
sg148
S'mojo_base.mojom.Time'
p939
sg16
I586
sbasg16
I586
sg19
g20
sbsg15
Nsg19
Nsg16
Nsg227
g1
(g218
g3
NtRp940
(dp941
g10
(lp942
sg16
Nsg19
Nsbsbag1
(g213
g3
NtRp943
(dp944
g169
Nsg146
S'ClearReportingCacheReports'
p945
sg217
g1
(g218
g3
NtRp946
(dp947
g10
(lp948
g1
(g222
g3
NtRp949
(dp950
g169
Nsg146
S'filter'
p951
sg15
Nsg19
g20
sg148
S'ClearDataFilter?'
p952
sg16
I593
sbasg16
I593
sg19
g20
sbsg15
Nsg19
Nsg16
Nsg227
g1
(g218
g3
NtRp953
(dp954
g10
(lp955
sg16
Nsg19
Nsbsbag1
(g213
g3
NtRp956
(dp957
g169
Nsg146
S'ClearReportingCacheClients'
p958
sg217
g1
(g218
g3
NtRp959
(dp960
g10
(lp961
g1
(g222
g3
NtRp962
(dp963
g169
Nsg146
S'filter'
p964
sg15
Nsg19
g20
sg148
S'ClearDataFilter?'
p965
sg16
I600
sbasg16
I600
sg19
g20
sbsg15
Nsg19
Nsg16
Nsg227
g1
(g218
g3
NtRp966
(dp967
g10
(lp968
sg16
Nsg19
Nsbsbag1
(g213
g3
NtRp969
(dp970
g169
Nsg146
S'ClearNetworkErrorLogging'
p971
sg217
g1
(g218
g3
NtRp972
(dp973
g10
(lp974
g1
(g222
g3
NtRp975
(dp976
g169
Nsg146
S'filter'
p977
sg15
Nsg19
g20
sg148
S'ClearDataFilter?'
p978
sg16
I607
sbasg16
I607
sg19
g20
sbsg15
Nsg19
Nsg16
Nsg227
g1
(g218
g3
NtRp979
(dp980
g10
(lp981
sg16
Nsg19
Nsbsbag1
(g575
g3
NtRp982
(dp983
g15
Nsg578
g1
(g579
g3
NtRp984
(dp985
g10
(lp986
g1
(g583
g3
NtRp987
(dp988
g15
Nsg126
Nsg16
I610
sg146
S'CLEAR_CONTEXTS'
p989
sg19
g20
sbag1
(g583
g3
NtRp990
(dp991
g15
Nsg126
Nsg16
I610
sg146
S'CLEAR_BEACONS'
p992
sg19
g20
sbasg16
I610
sg19
g20
sbsg16
I610
sg146
S'DomainReliabilityClearMode'
p993
sg19
g20
sbag1
(g213
g3
NtRp994
(dp995
g169
Nsg146
S'ClearDomainReliability'
p996
sg217
g1
(g218
g3
NtRp997
(dp998
g10
(lp999
g1
(g222
g3
NtRp1000
(dp1001
g169
Nsg146
S'filter'
p1002
sg15
Nsg19
g20
sg148
S'ClearDataFilter?'
p1003
sg16
I612
sbag1
(g222
g3
NtRp1004
(dp1005
g169
Nsg146
S'mode'
p1006
sg15
Nsg19
g20
sg148
S'DomainReliabilityClearMode'
p1007
sg16
I613
sbasg16
I612
sg19
g20
sbsg15
Nsg19
Nsg16
Nsg227
g1
(g218
g3
NtRp1008
(dp1009
g10
(lp1010
sg16
Nsg19
Nsbsbag1
(g213
g3
NtRp1011
(dp1012
g169
Nsg146
S'GetDomainReliabilityJSON'
p1013
sg217
g1
(g218
g3
NtRp1014
(dp1015
g10
(lp1016
sg16
Nsg19
Nsbsg15
Nsg19
Nsg16
Nsg227
g1
(g218
g3
NtRp1017
(dp1018
g10
(lp1019
g1
(g222
g3
NtRp1020
(dp1021
g169
Nsg146
S'data'
p1022
sg15
Nsg19
g20
sg148
S'mojo_base.mojom.Value'
p1023
sg16
I616
sbasg16
I616
sg19
g20
sbsbag1
(g213
g3
NtRp1024
(dp1025
g169
Nsg146
S'QueueReport'
p1026
sg217
g1
(g218
g3
NtRp1027
(dp1028
g10
(lp1029
g1
(g222
g3
NtRp1030
(dp1031
g169
Nsg146
S'type'
p1032
sg15
Nsg19
g20
sg148
S'string'
p1033
sg16
I629
sbag1
(g222
g3
NtRp1034
(dp1035
g169
Nsg146
S'group'
p1036
sg15
Nsg19
g20
sg148
S'string'
p1037
sg16
I630
sbag1
(g222
g3
NtRp1038
(dp1039
g169
Nsg146
S'url'
p1040
sg15
Nsg19
g20
sg148
S'url.mojom.Url'
p1041
sg16
I631
sbag1
(g222
g3
NtRp1042
(dp1043
g169
Nsg146
S'user_agent'
p1044
sg15
Nsg19
g20
sg148
S'string?'
p1045
sg16
I632
sbag1
(g222
g3
NtRp1046
(dp1047
g169
Nsg146
S'body'
p1048
sg15
Nsg19
g20
sg148
S'mojo_base.mojom.DictionaryValue'
p1049
sg16
I633
sbasg16
I629
sg19
g20
sbsg15
Nsg19
Nsg16
Nsg227
Nsbag1
(g213
g3
NtRp1050
(dp1051
g169
Nsg146
S'QueueSignedExchangeReport'
p1052
sg217
g1
(g218
g3
NtRp1053
(dp1054
g10
(lp1055
g1
(g222
g3
NtRp1056
(dp1057
g169
Nsg146
S'report'
p1058
sg15
Nsg19
g20
sg148
S'SignedExchangeReport'
p1059
sg16
I636
sbasg16
I636
sg19
g20
sbsg15
Nsg19
Nsg16
Nsg227
Nsbag1
(g213
g3
NtRp1060
(dp1061
g169
Nsg146
S'CloseAllConnections'
p1062
sg217
g1
(g218
g3
NtRp1063
(dp1064
g10
(lp1065
sg16
Nsg19
Nsbsg15
Nsg19
Nsg16
Nsg227
g1
(g218
g3
NtRp1066
(dp1067
g10
(lp1068
sg16
Nsg19
Nsbsbag1
(g213
g3
NtRp1069
(dp1070
g169
Nsg146
S'CloseIdleConnections'
p1071
sg217
g1
(g218
g3
NtRp1072
(dp1073
g10
(lp1074
sg16
Nsg19
Nsbsg15
Nsg19
Nsg16
Nsg227
g1
(g218
g3
NtRp1075
(dp1076
g10
(lp1077
sg16
Nsg19
Nsbsbag1
(g213
g3
NtRp1078
(dp1079
g169
Nsg146
S'SetNetworkConditions'
p1080
sg217
g1
(g218
g3
NtRp1081
(dp1082
g10
(lp1083
g1
(g222
g3
NtRp1084
(dp1085
g169
Nsg146
S'throttling_profile_id'
p1086
sg15
Nsg19
g20
sg148
S'mojo_base.mojom.UnguessableToken'
p1087
sg16
I649
sbag1
(g222
g3
NtRp1088
(dp1089
g169
Nsg146
S'conditions'
p1090
sg15
Nsg19
g20
sg148
S'NetworkConditions?'
p1091
sg16
I650
sbasg16
I649
sg19
g20
sbsg15
Nsg19
Nsg16
Nsg227
Nsbag1
(g213
g3
NtRp1092
(dp1093
g169
Nsg146
S'SetAcceptLanguage'
p1094
sg217
g1
(g218
g3
NtRp1095
(dp1096
g10
(lp1097
g1
(g222
g3
NtRp1098
(dp1099
g169
Nsg146
S'new_accept_language'
p1100
sg15
Nsg19
g20
sg148
S'string'
p1101
sg16
I653
sbasg16
I653
sg19
g20
sbsg15
Nsg19
Nsg16
Nsg227
Nsbag1
(g213
g3
NtRp1102
(dp1103
g169
Nsg146
S'SetEnableReferrers'
p1104
sg217
g1
(g218
g3
NtRp1105
(dp1106
g10
(lp1107
g1
(g222
g3
NtRp1108
(dp1109
g169
Nsg146
S'enable_referrers'
p1110
sg15
Nsg19
g20
sg148
S'bool'
p1111
sg16
I656
sbasg16
I656
sg19
g20
sbsg15
Nsg19
Nsg16
Nsg227
Nsbag1
(g213
g3
NtRp1112
(dp1113
g169
Nsg146
S'SetCTPolicy'
p1114
sg217
g1
(g218
g3
NtRp1115
(dp1116
g10
(lp1117
g1
(g222
g3
NtRp1118
(dp1119
g169
Nsg146
S'required_hosts'
p1120
sg15
Nsg19
g20
sg148
S'string[]'
p1121
sg16
I667
sbag1
(g222
g3
NtRp1122
(dp1123
g169
Nsg146
S'excluded_hosts'
p1124
sg15
Nsg19
g20
sg148
S'string[]'
p1125
sg16
I668
sbag1
(g222
g3
NtRp1126
(dp1127
g169
Nsg146
S'excluded_spkis'
p1128
sg15
Nsg19
g20
sg148
S'string[]'
p1129
sg16
I669
sbag1
(g222
g3
NtRp1130
(dp1131
g169
Nsg146
S'excluded_legacy_spkis'
p1132
sg15
Nsg19
g20
sg148
S'string[]'
p1133
sg16
I670
sbasg16
I667
sg19
g20
sbsg15
g1
(g119
g3
NtRp1134
(dp1135
g10
(lp1136
g1
(g123
g3
NtRp1137
(dp1138
g126
S'is_ct_supported'
p1139
sg16
I666
sg128
S'EnableIf'
p1140
sg19
g20
sbasg16
I666
sg19
g20
sbsg19
Nsg16
Nsg227
Nsbag1
(g213
g3
NtRp1141
(dp1142
g169
Nsg146
S'AddExpectCT'
p1143
sg217
g1
(g218
g3
NtRp1144
(dp1145
g10
(lp1146
g1
(g222
g3
NtRp1147
(dp1148
g169
Nsg146
S'host'
p1149
sg15
Nsg19
g20
sg148
S'string'
p1150
sg16
I675
sbag1
(g222
g3
NtRp1151
(dp1152
g169
Nsg146
S'expiry'
p1153
sg15
Nsg19
g20
sg148
S'mojo_base.mojom.Time'
p1154
sg16
I675
sbag1
(g222
g3
NtRp1155
(dp1156
g169
Nsg146
S'enforce'
p1157
sg15
Nsg19
g20
sg148
S'bool'
p1158
sg16
I676
sbag1
(g222
g3
NtRp1159
(dp1160
g169
Nsg146
S'report_uri'
p1161
sg15
Nsg19
g20
sg148
S'url.mojom.Url'
p1162
sg16
I676
sbasg16
I675
sg19
g20
sbsg15
g1
(g119
g3
NtRp1163
(dp1164
g10
(lp1165
g1
(g123
g3
NtRp1166
(dp1167
g126
S'is_ct_supported'
p1168
sg16
I674
sg128
S'EnableIf'
p1169
sg19
g20
sbasg16
I674
sg19
g20
sbsg19
Nsg16
Nsg227
g1
(g218
g3
NtRp1170
(dp1171
g10
(lp1172
g1
(g222
g3
NtRp1173
(dp1174
g169
Nsg146
S'success'
p1175
sg15
Nsg19
g20
sg148
S'bool'
p1176
sg16
I676
sbasg16
I676
sg19
g20
sbsbag1
(g213
g3
NtRp1177
(dp1178
g169
Nsg146
S'SetExpectCTTestReport'
p1179
sg217
g1
(g218
g3
NtRp1180
(dp1181
g10
(lp1182
g1
(g222
g3
NtRp1183
(dp1184
g169
Nsg146
S'report_uri'
p1185
sg15
Nsg19
g20
sg148
S'url.mojom.Url'
p1186
sg16
I680
sbasg16
I680
sg19
g20
sbsg15
g1
(g119
g3
NtRp1187
(dp1188
g10
(lp1189
g1
(g123
g3
NtRp1190
(dp1191
g126
S'is_ct_supported'
p1192
sg16
I679
sg128
S'EnableIf'
p1193
sg19
g20
sbasg16
I679
sg19
g20
sbsg19
Nsg16
Nsg227
g1
(g218
g3
NtRp1194
(dp1195
g10
(lp1196
g1
(g222
g3
NtRp1197
(dp1198
g169
Nsg146
S'success'
p1199
sg15
Nsg19
g20
sg148
S'bool'
p1200
sg16
I680
sbasg16
I680
sg19
g20
sbsbag1
(g213
g3
NtRp1201
(dp1202
g169
Nsg146
S'GetExpectCTState'
p1203
sg217
g1
(g218
g3
NtRp1204
(dp1205
g10
(lp1206
g1
(g222
g3
NtRp1207
(dp1208
g169
Nsg146
S'domain'
p1209
sg15
Nsg19
g20
sg148
S'string'
p1210
sg16
I685
sbasg16
I685
sg19
g20
sbsg15
g1
(g119
g3
NtRp1211
(dp1212
g10
(lp1213
g1
(g123
g3
NtRp1214
(dp1215
g126
S'is_ct_supported'
p1216
sg16
I684
sg128
S'EnableIf'
p1217
sg19
g20
sbasg16
I684
sg19
g20
sbsg19
Nsg16
Nsg227
g1
(g218
g3
NtRp1218
(dp1219
g10
(lp1220
g1
(g222
g3
NtRp1221
(dp1222
g169
Nsg146
S'state'
p1223
sg15
Nsg19
g20
sg148
S'mojo_base.mojom.DictionaryValue'
p1224
sg16
I685
sbasg16
I685
sg19
g20
sbsbag1
(g213
g3
NtRp1225
(dp1226
g169
Nsg146
S'CreateUDPSocket'
p1227
sg217
g1
(g218
g3
NtRp1228
(dp1229
g10
(lp1230
g1
(g222
g3
NtRp1231
(dp1232
g169
Nsg146
S'request'
p1233
sg15
Nsg19
g20
sg148
S'UDPSocket&'
p1234
sg16
I692
sbag1
(g222
g3
NtRp1235
(dp1236
g169
Nsg146
S'receiver'
p1237
sg15
Nsg19
g20
sg148
S'UDPSocketReceiver?'
p1238
sg16
I692
sbasg16
I692
sg19
g20
sbsg15
Nsg19
Nsg16
Nsg227
Nsbag1
(g213
g3
NtRp1239
(dp1240
g169
Nsg146
S'CreateTCPServerSocket'
p1241
sg217
g1
(g218
g3
NtRp1242
(dp1243
g10
(lp1244
g1
(g222
g3
NtRp1245
(dp1246
g169
Nsg146
S'local_addr'
p1247
sg15
Nsg19
g20
sg148
S'IPEndPoint'
p1248
sg16
I706
sbag1
(g222
g3
NtRp1249
(dp1250
g169
Nsg146
S'backlog'
p1251
sg15
Nsg19
g20
sg148
S'uint32'
p1252
sg16
I707
sbag1
(g222
g3
NtRp1253
(dp1254
g169
Nsg146
S'traffic_annotation'
p1255
sg15
Nsg19
g20
sg148
S'MutableNetworkTrafficAnnotationTag'
p1256
sg16
I708
sbag1
(g222
g3
NtRp1257
(dp1258
g169
Nsg146
S'socket'
p1259
sg15
Nsg19
g20
sg148
S'TCPServerSocket&'
p1260
sg16
I709
sbasg16
I706
sg19
g20
sbsg15
Nsg19
Nsg16
Nsg227
g1
(g218
g3
NtRp1261
(dp1262
g10
(lp1263
g1
(g222
g3
NtRp1264
(dp1265
g169
Nsg146
S'result'
p1266
sg15
Nsg19
g20
sg148
S'int32'
p1267
sg16
I710
sbag1
(g222
g3
NtRp1268
(dp1269
g169
Nsg146
S'local_addr_out'
p1270
sg15
Nsg19
g20
sg148
S'IPEndPoint?'
p1271
sg16
I710
sbasg16
I710
sg19
g20
sbsbag1
(g213
g3
NtRp1272
(dp1273
g169
Nsg146
S'CreateTCPConnectedSocket'
p1274
sg217
g1
(g218
g3
NtRp1275
(dp1276
g10
(lp1277
g1
(g222
g3
NtRp1278
(dp1279
g169
Nsg146
S'local_addr'
p1280
sg15
Nsg19
g20
sg148
S'IPEndPoint?'
p1281
sg16
I728
sbag1
(g222
g3
NtRp1282
(dp1283
g169
Nsg146
S'remote_addr_list'
p1284
sg15
Nsg19
g20
sg148
S'AddressList'
p1285
sg16
I729
sbag1
(g222
g3
NtRp1286
(dp1287
g169
Nsg146
S'tcp_connected_socket_options'
p1288
sg15
Nsg19
g20
sg148
S'TCPConnectedSocketOptions?'
p1289
sg16
I730
sbag1
(g222
g3
NtRp1290
(dp1291
g169
Nsg146
S'traffic_annotation'
p1292
sg15
Nsg19
g20
sg148
S'MutableNetworkTrafficAnnotationTag'
p1293
sg16
I731
sbag1
(g222
g3
NtRp1294
(dp1295
g169
Nsg146
S'socket'
p1296
sg15
Nsg19
g20
sg148
S'TCPConnectedSocket&'
p1297
sg16
I732
sbag1
(g222
g3
NtRp1298
(dp1299
g169
Nsg146
S'observer'
p1300
sg15
Nsg19
g20
sg148
S'SocketObserver?'
p1301
sg16
I733
sbasg16
I728
sg19
g20
sbsg15
Nsg19
Nsg16
Nsg227
g1
(g218
g3
NtRp1302
(dp1303
g10
(lp1304
g1
(g222
g3
NtRp1305
(dp1306
g169
Nsg146
S'result'
p1307
sg15
Nsg19
g20
sg148
S'int32'
p1308
sg16
I734
sbag1
(g222
g3
NtRp1309
(dp1310
g169
Nsg146
S'local_addr'
p1311
sg15
Nsg19
g20
sg148
S'IPEndPoint?'
p1312
sg16
I735
sbag1
(g222
g3
NtRp1313
(dp1314
g169
Nsg146
S'peer_addr'
p1315
sg15
Nsg19
g20
sg148
S'IPEndPoint?'
p1316
sg16
I736
sbag1
(g222
g3
NtRp1317
(dp1318
g169
Nsg146
S'receive_stream'
p1319
sg15
Nsg19
g20
sg148
S'handle<data_pipe_consumer>?'
p1320
sg16
I737
sbag1
(g222
g3
NtRp1321
(dp1322
g169
Nsg146
S'send_stream'
p1323
sg15
Nsg19
g20
sg148
S'handle<data_pipe_producer>?'
p1324
sg16
I738
sbasg16
I734
sg19
g20
sbsbag1
(g213
g3
NtRp1325
(dp1326
g169
Nsg146
S'CreateTCPBoundSocket'
p1327
sg217
g1
(g218
g3
NtRp1328
(dp1329
g10
(lp1330
g1
(g222
g3
NtRp1331
(dp1332
g169
Nsg146
S'local_addr'
p1333
sg15
Nsg19
g20
sg148
S'IPEndPoint'
p1334
sg16
I751
sbag1
(g222
g3
NtRp1335
(dp1336
g169
Nsg146
S'traffic_annotation'
p1337
sg15
Nsg19
g20
sg148
S'MutableNetworkTrafficAnnotationTag'
p1338
sg16
I752
sbag1
(g222
g3
NtRp1339
(dp1340
g169
Nsg146
S'socket'
p1341
sg15
Nsg19
g20
sg148
S'TCPBoundSocket&'
p1342
sg16
I753
sbasg16
I751
sg19
g20
sbsg15
Nsg19
Nsg16
Nsg227
g1
(g218
g3
NtRp1343
(dp1344
g10
(lp1345
g1
(g222
g3
NtRp1346
(dp1347
g169
Nsg146
S'result'
p1348
sg15
Nsg19
g20
sg148
S'int32'
p1349
sg16
I754
sbag1
(g222
g3
NtRp1350
(dp1351
g169
Nsg146
S'local_addr'
p1352
sg15
Nsg19
g20
sg148
S'IPEndPoint?'
p1353
sg16
I754
sbasg16
I754
sg19
g20
sbsbag1
(g213
g3
NtRp1354
(dp1355
g169
Nsg146
S'CreateProxyResolvingSocketFactory'
p1356
sg217
g1
(g218
g3
NtRp1357
(dp1358
g10
(lp1359
g1
(g222
g3
NtRp1360
(dp1361
g169
Nsg146
S'factory'
p1362
sg15
Nsg19
g20
sg148
S'ProxyResolvingSocketFactory&'
p1363
sg16
I761
sbasg16
I761
sg19
g20
sbsg15
Nsg19
Nsg16
Nsg227
Nsbag1
(g213
g3
NtRp1364
(dp1365
g169
Nsg146
S'LookUpProxyForURL'
p1366
sg217
g1
(g218
g3
NtRp1367
(dp1368
g10
(lp1369
g1
(g222
g3
NtRp1370
(dp1371
g169
Nsg146
S'url'
p1372
sg15
Nsg19
g20
sg148
S'url.mojom.Url'
p1373
sg16
I764
sbag1
(g222
g3
NtRp1374
(dp1375
g169
Nsg146
S'proxy_lookup_client'
p1376
sg15
Nsg19
g20
sg148
S'ProxyLookupClient'
p1377
sg16
I765
sbasg16
I764
sg19
g20
sbsg15
Nsg19
Nsg16
Nsg227
Nsbag1
(g213
g3
NtRp1378
(dp1379
g169
Nsg146
S'ForceReloadProxyConfig'
p1380
sg217
g1
(g218
g3
NtRp1381
(dp1382
g10
(lp1383
sg16
Nsg19
Nsbsg15
Nsg19
Nsg16
Nsg227
g1
(g218
g3
NtRp1384
(dp1385
g10
(lp1386
sg16
Nsg19
Nsbsbag1
(g213
g3
NtRp1387
(dp1388
g169
Nsg146
S'ClearBadProxiesCache'
p1389
sg217
g1
(g218
g3
NtRp1390
(dp1391
g10
(lp1392
sg16
Nsg19
Nsbsg15
Nsg19
Nsg16
Nsg227
g1
(g218
g3
NtRp1393
(dp1394
g10
(lp1395
sg16
Nsg19
Nsbsbag1
(g213
g3
NtRp1396
(dp1397
g169
Nsg146
S'CreateWebSocket'
p1398
sg217
g1
(g218
g3
NtRp1399
(dp1400
g10
(lp1401
g1
(g222
g3
NtRp1402
(dp1403
g169
Nsg146
S'request'
p1404
sg15
Nsg19
g20
sg148
S'WebSocket&'
p1405
sg16
I780
sbag1
(g222
g3
NtRp1406
(dp1407
g169
Nsg146
S'process_id'
p1408
sg15
Nsg19
g20
sg148
S'int32'
p1409
sg16
I781
sbag1
(g222
g3
NtRp1410
(dp1411
g169
Nsg146
S'render_frame_id'
p1412
sg15
Nsg19
g20
sg148
S'int32'
p1413
sg16
I782
sbag1
(g222
g3
NtRp1414
(dp1415
g169
Nsg146
S'origin'
p1416
sg15
Nsg19
g20
sg148
S'url.mojom.Origin'
p1417
sg16
I783
sbag1
(g222
g3
NtRp1418
(dp1419
g169
Nsg146
S'options'
p1420
sg15
Nsg19
g20
sg148
S'uint32'
p1421
sg16
I784
sbag1
(g222
g3
NtRp1422
(dp1423
g169
Nsg146
S'auth_handler'
p1424
sg15
Nsg19
g20
sg148
S'AuthenticationHandler?'
p1425
sg16
I785
sbag1
(g222
g3
NtRp1426
(dp1427
g169
Nsg146
S'header_client'
p1428
sg15
Nsg19
g20
sg148
S'TrustedHeaderClient?'
p1429
sg16
I786
sbasg16
I780
sg19
g20
sbsg15
Nsg19
Nsg16
Nsg227
Nsbag1
(g213
g3
NtRp1430
(dp1431
g169
Nsg146
S'CreateNetLogExporter'
p1432
sg217
g1
(g218
g3
NtRp1433
(dp1434
g10
(lp1435
g1
(g222
g3
NtRp1436
(dp1437
g169
Nsg146
S'exporter'
p1438
sg15
Nsg19
g20
sg148
S'NetLogExporter&'
p1439
sg16
I793
sbasg16
I793
sg19
g20
sbsg15
Nsg19
Nsg16
Nsg227
Nsbag1
(g213
g3
NtRp1440
(dp1441
g169
Nsg146
S'PreconnectSockets'
p1442
sg217
g1
(g218
g3
NtRp1443
(dp1444
g10
(lp1445
g1
(g222
g3
NtRp1446
(dp1447
g169
Nsg146
S'num_streams'
p1448
sg15
Nsg19
g20
sg148
S'uint32'
p1449
sg16
I802
sbag1
(g222
g3
NtRp1450
(dp1451
g169
Nsg146
S'url'
p1452
sg15
Nsg19
g20
sg148
S'url.mojom.Url'
p1453
sg16
I803
sbag1
(g222
g3
NtRp1454
(dp1455
g169
Nsg146
S'load_flags'
p1456
sg15
Nsg19
g20
sg148
S'int32'
p1457
sg16
I804
sbag1
(g222
g3
NtRp1458
(dp1459
g169
Nsg146
S'privacy_mode_enabled'
p1460
sg15
Nsg19
g20
sg148
S'bool'
p1461
sg16
I805
sbasg16
I802
sg19
g20
sbsg15
Nsg19
Nsg16
Nsg227
Nsbag1
(g213
g3
NtRp1462
(dp1463
g169
Nsg146
S'CreateP2PSocketManager'
p1464
sg217
g1
(g218
g3
NtRp1465
(dp1466
g10
(lp1467
g1
(g222
g3
NtRp1468
(dp1469
g169
Nsg146
S'client'
p1470
sg15
Nsg19
g20
sg148
S'P2PTrustedSocketManagerClient'
p1471
sg16
I808
sbag1
(g222
g3
NtRp1472
(dp1473
g169
Nsg146
S'trusted_socket_manager'
p1474
sg15
Nsg19
g20
sg148
S'P2PTrustedSocketManager&'
p1475
sg16
I809
sbag1
(g222
g3
NtRp1476
(dp1477
g169
Nsg146
S'socket_manager'
p1478
sg15
Nsg19
g20
sg148
S'P2PSocketManager&'
p1479
sg16
I810
sbasg16
I808
sg19
g20
sbsg15
Nsg19
Nsg16
Nsg227
Nsbag1
(g213
g3
NtRp1480
(dp1481
g169
Nsg146
S'CreateMdnsResponder'
p1482
sg217
g1
(g218
g3
NtRp1483
(dp1484
g10
(lp1485
g1
(g222
g3
NtRp1486
(dp1487
g169
Nsg146
S'responder_request'
p1488
sg15
Nsg19
g20
sg148
S'MdnsResponder&'
p1489
sg16
I813
sbasg16
I813
sg19
g20
sbsg15
Nsg19
Nsg16
Nsg227
Nsbag1
(g213
g3
NtRp1490
(dp1491
g169
Nsg146
S'ResolveHost'
p1492
sg217
g1
(g218
g3
NtRp1493
(dp1494
g10
(lp1495
g1
(g222
g3
NtRp1496
(dp1497
g169
Nsg146
S'host'
p1498
sg15
Nsg19
g20
sg148
S'HostPortPair'
p1499
sg16
I820
sbag1
(g222
g3
NtRp1500
(dp1501
g169
Nsg146
S'optional_parameters'
p1502
sg15
Nsg19
g20
sg148
S'ResolveHostParameters?'
p1503
sg16
I821
sbag1
(g222
g3
NtRp1504
(dp1505
g169
Nsg146
S'response_client'
p1506
sg15
Nsg19
g20
sg148
S'ResolveHostClient'
p1507
sg16
I822
sbasg16
I820
sg19
g20
sbsg15
Nsg19
Nsg16
Nsg227
Nsbag1
(g213
g3
NtRp1508
(dp1509
g169
Nsg146
S'CreateHostResolver'
p1510
sg217
g1
(g218
g3
NtRp1511
(dp1512
g10
(lp1513
g1
(g222
g3
NtRp1514
(dp1515
g169
Nsg146
S'config_overrides'
p1516
sg15
Nsg19
g20
sg148
S'DnsConfigOverrides?'
p1517
sg16
I838
sbag1
(g222
g3
NtRp1518
(dp1519
g169
Nsg146
S'host_resolver'
p1520
sg15
Nsg19
g20
sg148
S'HostResolver&'
p1521
sg16
I839
sbasg16
I838
sg19
g20
sbsg15
Nsg19
Nsg16
Nsg227
Nsbag1
(g213
g3
NtRp1522
(dp1523
g169
Nsg146
S'VerifyCertForSignedExchange'
p1524
sg217
g1
(g218
g3
NtRp1525
(dp1526
g10
(lp1527
g1
(g222
g3
NtRp1528
(dp1529
g169
Nsg146
S'certificate'
p1530
sg15
Nsg19
g20
sg148
S'X509Certificate'
p1531
sg16
I843
sbag1
(g222
g3
NtRp1532
(dp1533
g169
Nsg146
S'url'
p1534
sg15
Nsg19
g20
sg148
S'url.mojom.Url'
p1535
sg16
I844
sbag1
(g222
g3
NtRp1536
(dp1537
g169
Nsg146
S'ocsp_response'
p1538
sg15
Nsg19
g20
sg148
S'string'
p1539
sg16
I845
sbag1
(g222
g3
NtRp1540
(dp1541
g169
Nsg146
S'sct_list'
p1542
sg15
Nsg19
g20
sg148
S'string'
p1543
sg16
I846
sbasg16
I843
sg19
g20
sbsg15
Nsg19
Nsg16
Nsg227
g1
(g218
g3
NtRp1544
(dp1545
g10
(lp1546
g1
(g222
g3
NtRp1547
(dp1548
g169
Nsg146
S'error_code'
p1549
sg15
Nsg19
g20
sg148
S'int32'
p1550
sg16
I846
sbag1
(g222
g3
NtRp1551
(dp1552
g169
Nsg146
S'cv_result'
p1553
sg15
Nsg19
g20
sg148
S'CertVerifyResult'
p1554
sg16
I847
sbag1
(g222
g3
NtRp1555
(dp1556
g169
Nsg146
S'ct_result'
p1557
sg15
Nsg19
g20
sg148
S'CTVerifyResult'
p1558
sg16
I848
sbasg16
I846
sg19
g20
sbsbag1
(g213
g3
NtRp1559
(dp1560
g169
Nsg146
S'AddHSTS'
p1561
sg217
g1
(g218
g3
NtRp1562
(dp1563
g10
(lp1564
g1
(g222
g3
NtRp1565
(dp1566
g169
Nsg146
S'host'
p1567
sg15
Nsg19
g20
sg148
S'string'
p1568
sg16
I852
sbag1
(g222
g3
NtRp1569
(dp1570
g169
Nsg146
S'expiry'
p1571
sg15
Nsg19
g20
sg148
S'mojo_base.mojom.Time'
p1572
sg16
I852
sbag1
(g222
g3
NtRp1573
(dp1574
g169
Nsg146
S'include_subdomains'
p1575
sg15
Nsg19
g20
sg148
S'bool'
p1576
sg16
I853
sbasg16
I852
sg19
g20
sbsg15
Nsg19
Nsg16
Nsg227
g1
(g218
g3
NtRp1577
(dp1578
g10
(lp1579
sg16
Nsg19
Nsbsbag1
(g213
g3
NtRp1580
(dp1581
g169
Nsg146
S'IsHSTSActiveForHost'
p1582
sg217
g1
(g218
g3
NtRp1583
(dp1584
g10
(lp1585
g1
(g222
g3
NtRp1586
(dp1587
g169
Nsg146
S'host'
p1588
sg15
Nsg19
g20
sg148
S'string'
p1589
sg16
I857
sbasg16
I857
sg19
g20
sbsg15
Nsg19
Nsg16
Nsg227
g1
(g218
g3
NtRp1590
(dp1591
g10
(lp1592
g1
(g222
g3
NtRp1593
(dp1594
g169
Nsg146
S'result'
p1595
sg15
Nsg19
g20
sg148
S'bool'
p1596
sg16
I857
sbasg16
I857
sg19
g20
sbsbag1
(g213
g3
NtRp1597
(dp1598
g169
Nsg146
S'GetHSTSState'
p1599
sg217
g1
(g218
g3
NtRp1600
(dp1601
g10
(lp1602
g1
(g222
g3
NtRp1603
(dp1604
g169
Nsg146
S'domain'
p1605
sg15
Nsg19
g20
sg148
S'string'
p1606
sg16
I861
sbasg16
I861
sg19
g20
sbsg15
Nsg19
Nsg16
Nsg227
g1
(g218
g3
NtRp1607
(dp1608
g10
(lp1609
g1
(g222
g3
NtRp1610
(dp1611
g169
Nsg146
S'state'
p1612
sg15
Nsg19
g20
sg148
S'mojo_base.mojom.DictionaryValue'
p1613
sg16
I861
sbasg16
I861
sg19
g20
sbsbag1
(g213
g3
NtRp1614
(dp1615
g169
Nsg146
S'SetCorsOriginAccessListsForOrigin'
p1616
sg217
g1
(g218
g3
NtRp1617
(dp1618
g10
(lp1619
g1
(g222
g3
NtRp1620
(dp1621
g169
Nsg146
S'source_origin'
p1622
sg15
Nsg19
g20
sg148
S'url.mojom.Origin'
p1623
sg16
I873
sbag1
(g222
g3
NtRp1624
(dp1625
g169
Nsg146
S'allow_patterns'
p1626
sg15
Nsg19
g20
sg148
S'CorsOriginPattern[]'
p1627
sg16
I873
sbag1
(g222
g3
NtRp1628
(dp1629
g169
Nsg146
S'block_patterns'
p1630
sg15
Nsg19
g20
sg148
S'CorsOriginPattern[]'
p1631
sg16
I874
sbasg16
I873
sg19
g20
sbsg15
Nsg19
Nsg16
Nsg227
g1
(g218
g3
NtRp1632
(dp1633
g10
(lp1634
sg16
Nsg19
Nsbsbag1
(g213
g3
NtRp1635
(dp1636
g169
Nsg146
S'DeleteDynamicDataForHost'
p1637
sg217
g1
(g218
g3
NtRp1638
(dp1639
g10
(lp1640
g1
(g222
g3
NtRp1641
(dp1642
g169
Nsg146
S'host'
p1643
sg15
Nsg19
g20
sg148
S'string'
p1644
sg16
I879
sbasg16
I879
sg19
g20
sbsg15
Nsg19
Nsg16
Nsg227
g1
(g218
g3
NtRp1645
(dp1646
g10
(lp1647
g1
(g222
g3
NtRp1648
(dp1649
g169
Nsg146
S'result'
p1650
sg15
Nsg19
g20
sg148
S'bool'
p1651
sg16
I879
sbasg16
I879
sg19
g20
sbsbag1
(g213
g3
NtRp1652
(dp1653
g169
Nsg146
S'SaveHttpAuthCache'
p1654
sg217
g1
(g218
g3
NtRp1655
(dp1656
g10
(lp1657
sg16
Nsg19
Nsbsg15
Nsg19
Nsg16
Nsg227
g1
(g218
g3
NtRp1658
(dp1659
g10
(lp1660
g1
(g222
g3
NtRp1661
(dp1662
g169
Nsg146
S'cache_key'
p1663
sg15
Nsg19
g20
sg148
S'mojo_base.mojom.UnguessableToken'
p1664
sg16
I890
sbasg16
I890
sg19
g20
sbsbag1
(g213
g3
NtRp1665
(dp1666
g169
Nsg146
S'LoadHttpAuthCache'
p1667
sg217
g1
(g218
g3
NtRp1668
(dp1669
g10
(lp1670
g1
(g222
g3
NtRp1671
(dp1672
g169
Nsg146
S'cache_key'
p1673
sg15
Nsg19
g20
sg148
S'mojo_base.mojom.UnguessableToken'
p1674
sg16
I894
sbasg16
I894
sg19
g20
sbsg15
Nsg19
Nsg16
Nsg227
g1
(g218
g3
NtRp1675
(dp1676
g10
(lp1677
sg16
Nsg19
Nsbsbag1
(g213
g3
NtRp1678
(dp1679
g169
Nsg146
S'LookupBasicAuthCredentials'
p1680
sg217
g1
(g218
g3
NtRp1681
(dp1682
g10
(lp1683
g1
(g222
g3
NtRp1684
(dp1685
g169
Nsg146
S'url'
p1686
sg15
Nsg19
g20
sg148
S'url.mojom.Url'
p1687
sg16
I898
sbasg16
I898
sg19
g20
sbsg15
Nsg19
Nsg16
Nsg227
g1
(g218
g3
NtRp1688
(dp1689
g10
(lp1690
g1
(g222
g3
NtRp1691
(dp1692
g169
Nsg146
S'credentials'
p1693
sg15
Nsg19
g20
sg148
S'AuthCredentials?'
p1694
sg16
I899
sbasg16
I899
sg19
g20
sbsbag1
(g213
g3
NtRp1695
(dp1696
g169
Nsg146
S'EnableStaticKeyPinningForTesting'
p1697
sg217
g1
(g218
g3
NtRp1698
(dp1699
g10
(lp1700
sg16
Nsg19
Nsbsg15
g1
(g119
g3
NtRp1701
(dp1702
g10
(lp1703
g1
(g123
g3
NtRp1704
(dp1705
g126
I01
sg16
I901
sg128
S'Sync'
p1706
sg19
g20
sbasg16
I901
sg19
g20
sbsg19
Nsg16
Nsg227
g1
(g218
g3
NtRp1707
(dp1708
g10
(lp1709
sg16
Nsg19
Nsbsbag1
(g213
g3
NtRp1710
(dp1711
g169
Nsg146
S'SetFailingHttpTransactionForTesting'
p1712
sg217
g1
(g218
g3
NtRp1713
(dp1714
g10
(lp1715
g1
(g222
g3
NtRp1716
(dp1717
g169
Nsg146
S'rv'
p1718
sg15
Nsg19
g20
sg148
S'int32'
p1719
sg16
I907
sbasg16
I907
sg19
g20
sbsg15
g1
(g119
g3
NtRp1720
(dp1721
g10
(lp1722
g1
(g123
g3
NtRp1723
(dp1724
g126
I01
sg16
I905
sg128
S'Sync'
p1725
sg19
g20
sbasg16
I905
sg19
g20
sbsg19
Nsg16
Nsg227
g1
(g218
g3
NtRp1726
(dp1727
g10
(lp1728
sg16
Nsg19
Nsbsbag1
(g213
g3
NtRp1729
(dp1730
g169
Nsg146
S'VerifyCertificateForTesting'
p1731
sg217
g1
(g218
g3
NtRp1732
(dp1733
g10
(lp1734
g1
(g222
g3
NtRp1735
(dp1736
g169
Nsg146
S'certificate'
p1737
sg15
Nsg19
g20
sg148
S'X509Certificate'
p1738
sg16
I911
sbag1
(g222
g3
NtRp1739
(dp1740
g169
Nsg146
S'hostname'
p1741
sg15
Nsg19
g20
sg148
S'string'
p1742
sg16
I912
sbag1
(g222
g3
NtRp1743
(dp1744
g169
Nsg146
S'ocsp_response'
p1745
sg15
Nsg19
g20
sg148
S'string'
p1746
sg16
I913
sbasg16
I911
sg19
g20
sbsg15
g1
(g119
g3
NtRp1747
(dp1748
g10
(lp1749
g1
(g123
g3
NtRp1750
(dp1751
g126
I01
sg16
I909
sg128
S'Sync'
p1752
sg19
g20
sbasg16
I909
sg19
g20
sbsg19
Nsg16
Nsg227
g1
(g218
g3
NtRp1753
(dp1754
g10
(lp1755
g1
(g222
g3
NtRp1756
(dp1757
g169
Nsg146
S'error_code'
p1758
sg15
Nsg19
g20
sg148
S'int32'
p1759
sg16
I913
sbasg16
I913
sg19
g20
sbsbag1
(g213
g3
NtRp1760
(dp1761
g169
Nsg146
S'AddDomainReliabilityContextForTesting'
p1762
sg217
g1
(g218
g3
NtRp1763
(dp1764
g10
(lp1765
g1
(g222
g3
NtRp1766
(dp1767
g169
Nsg146
S'origin'
p1768
sg15
Nsg19
g20
sg148
S'url.mojom.Url'
p1769
sg16
I918
sbag1
(g222
g3
NtRp1770
(dp1771
g169
Nsg146
S'upload_url'
p1772
sg15
Nsg19
g20
sg148
S'url.mojom.Url'
p1773
sg16
I918
sbasg16
I918
sg19
g20
sbsg15
g1
(g119
g3
NtRp1774
(dp1775
g10
(lp1776
g1
(g123
g3
NtRp1777
(dp1778
g126
I01
sg16
I915
sg128
S'Sync'
p1779
sg19
g20
sbasg16
I915
sg19
g20
sbsg19
Nsg16
Nsg227
g1
(g218
g3
NtRp1780
(dp1781
g10
(lp1782
sg16
Nsg19
Nsbsbag1
(g213
g3
NtRp1783
(dp1784
g169
Nsg146
S'ForceDomainReliabilityUploadsForTesting'
p1785
sg217
g1
(g218
g3
NtRp1786
(dp1787
g10
(lp1788
sg16
Nsg19
Nsbsg15
g1
(g119
g3
NtRp1789
(dp1790
g10
(lp1791
g1
(g123
g3
NtRp1792
(dp1793
g126
I01
sg16
I920
sg128
S'Sync'
p1794
sg19
g20
sbasg16
I920
sg19
g20
sbsg19
Nsg16
Nsg227
g1
(g218
g3
NtRp1795
(dp1796
g10
(lp1797
sg16
Nsg19
Nsbsbag1
(g213
g3
NtRp1798
(dp1799
g169
Nsg146
S'GetOriginPolicyManager'
p1800
sg217
g1
(g218
g3
NtRp1801
(dp1802
g10
(lp1803
g1
(g222
g3
NtRp1804
(dp1805
g169
Nsg146
S'origin_policy_manager'
p1806
sg15
Nsg19
g20
sg148
S'OriginPolicyManager&'
p1807
sg16
I926
sbasg16
I926
sg19
g20
sbsg15
Nsg19
Nsg16
Nsg227
Nsbasg16
Nsg19
Nsbsg15
Nsg16
Nsg146
S'NetworkContext'
p1808
sg19
Nsbasg16
NsS'module'
p1809
g1
(cmojom.parse.ast
Module
p1810
g3
NtRp1811
(dp1812
S'mojom_namespace'
p1813
(g692
S'network.mojom'
tp1814
sg16
I5
sg15
Nsg19
g20
sbsg19
Nsb.