ccopy_reg
_reconstructor
p1
(cmojom.parse.ast
Mojom
p2
c__builtin__
object
p3
NtRp4
(dp5
S'import_list'
p6
g1
(cmojom.parse.ast
ImportList
p7
g3
NtRp8
(dp9
S'items'
p10
(lp11
sS'lineno'
p12
NsS'filename'
p13
NsbsS'definition_list'
p14
(lp15
g1
(cmojom.parse.ast
Struct
p16
g3
NtRp17
(dp18
S'body'
p19
NsS'attribute_list'
p20
g1
(cmojom.parse.ast
AttributeList
p21
g3
NtRp22
(dp23
g10
(lp24
g1
(cmojom.parse.ast
Attribute
p25
g3
NtRp26
(dp27
S'value'
p28
I01
sg12
I7
sS'key'
p29
S'Native'
p30
sg13
S'../../services/network/public/mojom/network_param.mojom'
p31
sbasg12
I7
sg13
g31
sbsg12
NsS'mojom_name'
p32
S'AuthChallengeInfo'
p33
sg13
Nsbag1
(g16
g3
NtRp34
(dp35
g19
Nsg20
g1
(g21
g3
NtRp36
(dp37
g10
(lp38
g1
(g25
g3
NtRp39
(dp40
g28
I01
sg12
I10
sg29
S'Native'
p41
sg13
g31
sbasg12
I10
sg13
g31
sbsg12
Nsg32
S'AuthCredentials'
p42
sg13
Nsbag1
(g16
g3
NtRp43
(dp44
g19
Nsg20
g1
(g21
g3
NtRp45
(dp46
g10
(lp47
g1
(g25
g3
NtRp48
(dp49
g28
I01
sg12
I13
sg29
S'Native'
p50
sg13
g31
sbasg12
I13
sg13
g31
sbsg12
Nsg32
S'CertVerifyResult'
p51
sg13
Nsbag1
(g16
g3
NtRp52
(dp53
g19
Nsg20
g1
(g21
g3
NtRp54
(dp55
g10
(lp56
g1
(g25
g3
NtRp57
(dp58
g28
I01
sg12
I16
sg29
S'Native'
p59
sg13
g31
sbasg12
I16
sg13
g31
sbsg12
Nsg32
S'CTVerifyResult'
p60
sg13
Nsbag1
(g16
g3
NtRp61
(dp62
g19
Nsg20
g1
(g21
g3
NtRp63
(dp64
g10
(lp65
g1
(g25
g3
NtRp66
(dp67
g28
I01
sg12
I19
sg29
S'Native'
p68
sg13
g31
sbasg12
I19
sg13
g31
sbsg12
Nsg32
S'HttpResponseHeaders'
p69
sg13
Nsbag1
(g16
g3
NtRp70
(dp71
g19
g1
(cmojom.parse.ast
StructBody
p72
g3
NtRp73
(dp74
g10
(lp75
g1
(cmojom.parse.ast
StructField
p76
g3
NtRp77
(dp78
S'ordinal'
p79
NsS'default_value'
p80
Nsg32
S'major_value'
p81
sg20
Nsg13
NsS'typename'
p82
S'uint16'
p83
sg12
Nsbag1
(g76
g3
NtRp84
(dp85
g79
Nsg80
Nsg32
S'minor_value'
p86
sg20
Nsg13
Nsg82
S'uint16'
p87
sg12
Nsbasg12
Nsg13
Nsbsg20
Nsg12
Nsg32
S'HttpVersion'
p88
sg13
Nsbag1
(g16
g3
NtRp89
(dp90
g19
Nsg20
g1
(g21
g3
NtRp91
(dp92
g10
(lp93
g1
(g25
g3
NtRp94
(dp95
g28
I01
sg12
I27
sg29
S'Native'
p96
sg13
g31
sbasg12
I27
sg13
g31
sbsg12
Nsg32
S'HostPortPair'
p97
sg13
Nsbag1
(g16
g3
NtRp98
(dp99
g19
Nsg20
g1
(g21
g3
NtRp100
(dp101
g10
(lp102
g1
(g25
g3
NtRp103
(dp104
g28
I01
sg12
I30
sg29
S'Native'
p105
sg13
g31
sbasg12
I30
sg13
g31
sbsg12
Nsg32
S'X509Certificate'
p106
sg13
Nsbag1
(g16
g3
NtRp107
(dp108
g19
Nsg20
g1
(g21
g3
NtRp109
(dp110
g10
(lp111
g1
(g25
g3
NtRp112
(dp113
g28
I01
sg12
I33
sg29
S'Native'
p114
sg13
g31
sbasg12
I33
sg13
g31
sbsg12
Nsg32
S'SSLCertRequestInfo'
p115
sg13
Nsbag1
(g16
g3
NtRp116
(dp117
g19
Nsg20
g1
(g21
g3
NtRp118
(dp119
g10
(lp120
g1
(g25
g3
NtRp121
(dp122
g28
I01
sg12
I36
sg29
S'Native'
p123
sg13
g31
sbasg12
I36
sg13
g31
sbsg12
Nsg32
S'SSLInfo'
p124
sg13
Nsbasg12
NsS'module'
p125
g1
(cmojom.parse.ast
Module
p126
g3
NtRp127
(dp128
S'mojom_namespace'
p129
(S'IDENTIFIER'
p130
S'network.mojom'
tp131
sg12
I5
sg20
Nsg13
g31
sbsg13
Nsb.