ccopy_reg
_reconstructor
p1
(cmojom.parse.ast
Mojom
p2
c__builtin__
object
p3
NtRp4
(dp5
S'import_list'
p6
g1
(cmojom.parse.ast
ImportList
p7
g3
NtRp8
(dp9
S'items'
p10
(lp11
g1
(cmojom.parse.ast
Import
p12
g3
NtRp13
(dp14
S'attribute_list'
p15
NsS'lineno'
p16
I7
sS'import_filename'
p17
S'mojo/public/mojom/base/time.mojom'
p18
sS'filename'
p19
S'../../services/network/public/mojom/network_quality_estimator_manager.mojom'
p20
sbag1
(g12
g3
NtRp21
(dp22
g15
Nsg16
I8
sg17
S'services/network/public/mojom/network_types.mojom'
p23
sg19
g20
sbasg16
I7
sg19
g20
sbsS'definition_list'
p24
(lp25
g1
(cmojom.parse.ast
Interface
p26
g3
NtRp27
(dp28
S'body'
p29
g1
(cmojom.parse.ast
InterfaceBody
p30
g3
NtRp31
(dp32
g10
(lp33
g1
(cmojom.parse.ast
Method
p34
g3
NtRp35
(dp36
S'ordinal'
p37
NsS'mojom_name'
p38
S'OnNetworkQualityChanged'
p39
sS'parameter_list'
p40
g1
(cmojom.parse.ast
ParameterList
p41
g3
NtRp42
(dp43
g10
(lp44
g1
(cmojom.parse.ast
Parameter
p45
g3
NtRp46
(dp47
g37
Nsg38
S'type'
p48
sg15
Nsg19
g20
sS'typename'
p49
S'EffectiveConnectionType'
p50
sg16
I29
sbag1
(g45
g3
NtRp51
(dp52
g37
Nsg38
S'http_rtt'
p53
sg15
Nsg19
g20
sg49
S'mojo_base.mojom.TimeDelta'
p54
sg16
I30
sbag1
(g45
g3
NtRp55
(dp56
g37
Nsg38
S'transport_rtt'
p57
sg15
Nsg19
g20
sg49
S'mojo_base.mojom.TimeDelta'
p58
sg16
I31
sbag1
(g45
g3
NtRp59
(dp60
g37
Nsg38
S'downlink_bandwidth_kbps'
p61
sg15
Nsg19
g20
sg49
S'int32'
p62
sg16
I32
sbasg16
I29
sg19
g20
sbsg15
Nsg19
Nsg16
NsS'response_parameter_list'
p63
Nsbasg16
Nsg19
Nsbsg15
Nsg16
Nsg38
S'NetworkQualityEstimatorManagerClient'
p64
sg19
Nsbag1
(g26
g3
NtRp65
(dp66
g29
g1
(g30
g3
NtRp67
(dp68
g10
(lp69
g1
(g34
g3
NtRp70
(dp71
g37
Nsg38
S'RequestNotifications'
p72
sg40
g1
(g41
g3
NtRp73
(dp74
g10
(lp75
g1
(g45
g3
NtRp76
(dp77
g37
Nsg38
S'client_ptr'
p78
sg15
Nsg19
g20
sg49
S'NetworkQualityEstimatorManagerClient'
p79
sg16
I39
sbasg16
I39
sg19
g20
sbsg15
Nsg19
Nsg16
Nsg63
Nsbasg16
Nsg19
Nsbsg15
Nsg16
Nsg38
S'NetworkQualityEstimatorManager'
p80
sg19
Nsbasg16
NsS'module'
p81
g1
(cmojom.parse.ast
Module
p82
g3
NtRp83
(dp84
S'mojom_namespace'
p85
(S'IDENTIFIER'
p86
S'network.mojom'
tp87
sg16
I5
sg15
Nsg19
g20
sbsg19
Nsb.