ccopy_reg
_reconstructor
p1
(cmojom.parse.ast
Mojom
p2
c__builtin__
object
p3
NtRp4
(dp5
S'import_list'
p6
g1
(cmojom.parse.ast
ImportList
p7
g3
NtRp8
(dp9
S'items'
p10
(lp11
g1
(cmojom.parse.ast
Import
p12
g3
NtRp13
(dp14
S'attribute_list'
p15
NsS'lineno'
p16
I7
sS'import_filename'
p17
S'url/mojom/origin.mojom'
p18
sS'filename'
p19
S'../../services/network/public/mojom/origin_policy_manager.mojom'
p20
sbag1
(g12
g3
NtRp21
(dp22
g15
Nsg16
I8
sg17
S'url/mojom/url.mojom'
p23
sg19
g20
sbasg16
I7
sg19
g20
sbsS'definition_list'
p24
(lp25
g1
(cmojom.parse.ast
Enum
p26
g3
NtRp27
(dp28
g15
NsS'enum_value_list'
p29
g1
(cmojom.parse.ast
EnumValueList
p30
g3
NtRp31
(dp32
g10
(lp33
g1
(cmojom.parse.ast
EnumValue
p34
g3
NtRp35
(dp36
g15
NsS'value'
p37
Nsg16
I13
sS'mojom_name'
p38
S'kLoaded'
p39
sg19
g20
sbag1
(g34
g3
NtRp40
(dp41
g15
Nsg37
Nsg16
I17
sg38
S'kCannotLoadPolicy'
p42
sg19
g20
sbag1
(g34
g3
NtRp43
(dp44
g15
Nsg37
Nsg16
I23
sg38
S'kInvalidRedirect'
p45
sg19
g20
sbag1
(g34
g3
NtRp46
(dp47
g15
Nsg37
Nsg16
I26
sg38
S'kNoPolicyApplies'
p48
sg19
g20
sbag1
(g34
g3
NtRp49
(dp50
g15
Nsg37
Nsg16
I28
sg38
S'kOther'
p51
sg19
g20
sbasg16
I13
sg19
g20
sbsg16
I11
sg38
S'OriginPolicyState'
p52
sg19
g20
sbag1
(cmojom.parse.ast
Struct
p53
g3
NtRp54
(dp55
S'body'
p56
g1
(cmojom.parse.ast
StructBody
p57
g3
NtRp58
(dp59
g10
(lp60
g1
(cmojom.parse.ast
StructField
p61
g3
NtRp62
(dp63
S'ordinal'
p64
NsS'default_value'
p65
Nsg38
S'features'
p66
sg15
Nsg19
NsS'typename'
p67
S'string[]'
p68
sg16
Nsbag1
(g61
g3
NtRp69
(dp70
g64
Nsg65
Nsg38
S'content_security_policies'
p71
sg15
Nsg19
Nsg67
S'string[]'
p72
sg16
Nsbag1
(g61
g3
NtRp73
(dp74
g64
Nsg65
Nsg38
S'content_security_policies_report_only'
p75
sg15
Nsg19
Nsg67
S'string[]'
p76
sg16
Nsbasg16
Nsg19
Nsbsg15
Nsg16
Nsg38
S'OriginPolicyContents'
p77
sg19
Nsbag1
(g53
g3
NtRp78
(dp79
g56
g1
(g57
g3
NtRp80
(dp81
g10
(lp82
g1
(g61
g3
NtRp83
(dp84
g64
Nsg65
Nsg38
S'state'
p85
sg15
Nsg19
Nsg67
S'OriginPolicyState'
p86
sg16
Nsbag1
(g61
g3
NtRp87
(dp88
g64
Nsg65
Nsg38
S'policy_url'
p89
sg15
Nsg19
Nsg67
S'url.mojom.Url'
p90
sg16
Nsbag1
(g61
g3
NtRp91
(dp92
g64
Nsg65
Nsg38
S'contents'
p93
sg15
Nsg19
Nsg67
S'OriginPolicyContents?'
p94
sg16
Nsbasg16
Nsg19
Nsbsg15
Nsg16
Nsg38
S'OriginPolicy'
p95
sg19
Nsbag1
(cmojom.parse.ast
Interface
p96
g3
NtRp97
(dp98
g56
g1
(cmojom.parse.ast
InterfaceBody
p99
g3
NtRp100
(dp101
g10
(lp102
sg16
Nsg19
Nsbsg15
Nsg16
Nsg38
S'OriginPolicyManager'
p103
sg19
Nsbasg16
NsS'module'
p104
g1
(cmojom.parse.ast
Module
p105
g3
NtRp106
(dp107
S'mojom_namespace'
p108
(S'IDENTIFIER'
p109
S'network.mojom'
tp110
sg16
I5
sg15
Nsg19
g20
sbsg19
Nsb.