ccopy_reg
_reconstructor
p1
(cmojom.parse.ast
Mojom
p2
c__builtin__
object
p3
NtRp4
(dp5
S'import_list'
p6
g1
(cmojom.parse.ast
ImportList
p7
g3
NtRp8
(dp9
S'items'
p10
(lp11
g1
(cmojom.parse.ast
Import
p12
g3
NtRp13
(dp14
S'attribute_list'
p15
NsS'lineno'
p16
I7
sS'import_filename'
p17
S'mojo/public/mojom/base/time.mojom'
p18
sS'filename'
p19
S'../../services/network/public/mojom/p2p.mojom'
p20
sbag1
(g12
g3
NtRp21
(dp22
g15
Nsg16
I8
sg17
S'services/network/public/mojom/network_interface.mojom'
p23
sg19
g20
sbag1
(g12
g3
NtRp24
(dp25
g15
Nsg16
I9
sg17
S'services/network/public/mojom/ip_address.mojom'
p26
sg19
g20
sbag1
(g12
g3
NtRp27
(dp28
g15
Nsg16
I10
sg17
S'services/network/public/mojom/ip_endpoint.mojom'
p29
sg19
g20
sbag1
(g12
g3
NtRp30
(dp31
g15
Nsg16
I11
sg17
S'services/network/public/mojom/mutable_network_traffic_annotation_tag.mojom'
p32
sg19
g20
sbasg16
I7
sg19
g20
sbsS'definition_list'
p33
(lp34
g1
(cmojom.parse.ast
Enum
p35
g3
NtRp36
(dp37
g15
g1
(cmojom.parse.ast
AttributeList
p38
g3
NtRp39
(dp40
g10
(lp41
g1
(cmojom.parse.ast
Attribute
p42
g3
NtRp43
(dp44
S'value'
p45
I01
sg16
I13
sS'key'
p46
S'Native'
p47
sg19
g20
sbasg16
I13
sg19
g20
sbsS'enum_value_list'
p48
Nsg16
I14
sS'mojom_name'
p49
S'P2PSocketType'
p50
sg19
g20
sbag1
(cmojom.parse.ast
Struct
p51
g3
NtRp52
(dp53
S'body'
p54
Nsg15
g1
(g38
g3
NtRp55
(dp56
g10
(lp57
g1
(g42
g3
NtRp58
(dp59
g45
I01
sg16
I16
sg46
S'Native'
p60
sg19
g20
sbasg16
I16
sg19
g20
sbsg16
Nsg49
S'P2PHostAndIPEndPoint'
p61
sg19
Nsbag1
(g51
g3
NtRp62
(dp63
g54
Nsg15
g1
(g38
g3
NtRp64
(dp65
g10
(lp66
g1
(g42
g3
NtRp67
(dp68
g45
I01
sg16
I19
sg46
S'Native'
p69
sg19
g20
sbasg16
I19
sg19
g20
sbsg16
Nsg49
S'P2PPacketInfo'
p70
sg19
Nsbag1
(g51
g3
NtRp71
(dp72
g54
Nsg15
g1
(g38
g3
NtRp73
(dp74
g10
(lp75
g1
(g42
g3
NtRp76
(dp77
g45
I01
sg16
I22
sg46
S'Native'
p78
sg19
g20
sbasg16
I22
sg19
g20
sbsg16
Nsg49
S'P2PPortRange'
p79
sg19
Nsbag1
(g51
g3
NtRp80
(dp81
g54
Nsg15
g1
(g38
g3
NtRp82
(dp83
g10
(lp84
g1
(g42
g3
NtRp85
(dp86
g45
I01
sg16
I25
sg46
S'Native'
p87
sg19
g20
sbasg16
I25
sg19
g20
sbsg16
Nsg49
S'P2PSendPacketMetrics'
p88
sg19
Nsbag1
(g35
g3
NtRp89
(dp90
g15
g1
(g38
g3
NtRp91
(dp92
g10
(lp93
g1
(g42
g3
NtRp94
(dp95
g45
I01
sg16
I28
sg46
S'Native'
p96
sg19
g20
sbasg16
I28
sg19
g20
sbsg48
Nsg16
I29
sg49
S'P2PSocketOption'
p97
sg19
g20
sbag1
(cmojom.parse.ast
Interface
p98
g3
NtRp99
(dp100
g54
g1
(cmojom.parse.ast
InterfaceBody
p101
g3
NtRp102
(dp103
g10
(lp104
g1
(cmojom.parse.ast
Method
p105
g3
NtRp106
(dp107
S'ordinal'
p108
Nsg49
S'NetworkListChanged'
p109
sS'parameter_list'
p110
g1
(cmojom.parse.ast
ParameterList
p111
g3
NtRp112
(dp113
g10
(lp114
g1
(cmojom.parse.ast
Parameter
p115
g3
NtRp116
(dp117
g108
Nsg49
S'networks'
p118
sg15
Nsg19
g20
sS'typename'
p119
S'NetworkInterface[]'
p120
sg16
I32
sbag1
(g115
g3
NtRp121
(dp122
g108
Nsg49
S'default_ipv4_local_address'
p123
sg15
Nsg19
g20
sg119
S'IPAddress'
p124
sg16
I33
sbag1
(g115
g3
NtRp125
(dp126
g108
Nsg49
S'default_ipv6_local_address'
p127
sg15
Nsg19
g20
sg119
S'IPAddress'
p128
sg16
I34
sbasg16
I32
sg19
g20
sbsg15
Nsg19
Nsg16
NsS'response_parameter_list'
p129
Nsbasg16
Nsg19
Nsbsg15
Nsg16
Nsg49
S'P2PNetworkNotificationClient'
p130
sg19
Nsbag1
(g98
g3
NtRp131
(dp132
g54
g1
(g101
g3
NtRp133
(dp134
g10
(lp135
g1
(g105
g3
NtRp136
(dp137
g108
Nsg49
S'StartNetworkNotifications'
p138
sg110
g1
(g111
g3
NtRp139
(dp140
g10
(lp141
g1
(g115
g3
NtRp142
(dp143
g108
Nsg49
S'client'
p144
sg15
Nsg19
g20
sg119
S'P2PNetworkNotificationClient'
p145
sg16
I39
sbasg16
I39
sg19
g20
sbsg15
Nsg19
Nsg16
Nsg129
Nsbag1
(g105
g3
NtRp146
(dp147
g108
Nsg49
S'GetHostAddress'
p148
sg110
g1
(g111
g3
NtRp149
(dp150
g10
(lp151
g1
(g115
g3
NtRp152
(dp153
g108
Nsg49
S'host_name'
p154
sg15
Nsg19
g20
sg119
S'string'
p155
sg16
I41
sbag1
(g115
g3
NtRp156
(dp157
g108
Nsg49
S'enable_mdns'
p158
sg15
Nsg19
g20
sg119
S'bool'
p159
sg16
I41
sbasg16
I41
sg19
g20
sbsg15
Nsg19
Nsg16
Nsg129
g1
(g111
g3
NtRp160
(dp161
g10
(lp162
g1
(g115
g3
NtRp163
(dp164
g108
Nsg49
S'addresses'
p165
sg15
Nsg19
g20
sg119
S'IPAddress[]'
p166
sg16
I42
sbasg16
I42
sg19
g20
sbsbag1
(g105
g3
NtRp167
(dp168
g108
Nsg49
S'CreateSocket'
p169
sg110
g1
(g111
g3
NtRp170
(dp171
g10
(lp172
g1
(g115
g3
NtRp173
(dp174
g108
Nsg49
S'type'
p175
sg15
Nsg19
g20
sg119
S'P2PSocketType'
p176
sg16
I44
sbag1
(g115
g3
NtRp177
(dp178
g108
Nsg49
S'local_address'
p179
sg15
Nsg19
g20
sg119
S'IPEndPoint'
p180
sg16
I45
sbag1
(g115
g3
NtRp181
(dp182
g108
Nsg49
S'port_range'
p183
sg15
Nsg19
g20
sg119
S'P2PPortRange'
p184
sg16
I46
sbag1
(g115
g3
NtRp185
(dp186
g108
Nsg49
S'remote_address'
p187
sg15
Nsg19
g20
sg119
S'P2PHostAndIPEndPoint'
p188
sg16
I47
sbag1
(g115
g3
NtRp189
(dp190
g108
Nsg49
S'client'
p191
sg15
Nsg19
g20
sg119
S'P2PSocketClient'
p192
sg16
I48
sbag1
(g115
g3
NtRp193
(dp194
g108
Nsg49
S'socket'
p195
sg15
Nsg19
g20
sg119
S'P2PSocket&'
p196
sg16
I49
sbasg16
I44
sg19
g20
sbsg15
Nsg19
Nsg16
Nsg129
Nsbasg16
Nsg19
Nsbsg15
Nsg16
Nsg49
S'P2PSocketManager'
p197
sg19
Nsbag1
(g98
g3
NtRp198
(dp199
g54
g1
(g101
g3
NtRp200
(dp201
g10
(lp202
g1
(g105
g3
NtRp203
(dp204
g108
Nsg49
S'Send'
p205
sg110
g1
(g111
g3
NtRp206
(dp207
g10
(lp208
g1
(g115
g3
NtRp209
(dp210
g108
Nsg49
S'data'
p211
sg15
Nsg19
g20
sg119
S'int8[]'
p212
sg16
I54
sbag1
(g115
g3
NtRp213
(dp214
g108
Nsg49
S'packet_info'
p215
sg15
Nsg19
g20
sg119
S'P2PPacketInfo'
p216
sg16
I55
sbag1
(g115
g3
NtRp217
(dp218
g108
Nsg49
S'traffic_annotation'
p219
sg15
Nsg19
g20
sg119
S'network.mojom.MutableNetworkTrafficAnnotationTag'
p220
sg16
I56
sbasg16
I54
sg19
g20
sbsg15
Nsg19
Nsg16
Nsg129
Nsbag1
(g105
g3
NtRp221
(dp222
g108
Nsg49
S'SetOption'
p223
sg110
g1
(g111
g3
NtRp224
(dp225
g10
(lp226
g1
(g115
g3
NtRp227
(dp228
g108
Nsg49
S'option'
p229
sg15
Nsg19
g20
sg119
S'P2PSocketOption'
p230
sg16
I57
sbag1
(g115
g3
NtRp231
(dp232
g108
Nsg49
S'value'
p233
sg15
Nsg19
g20
sg119
S'int32'
p234
sg16
I57
sbasg16
I57
sg19
g20
sbsg15
Nsg19
Nsg16
Nsg129
Nsbasg16
Nsg19
Nsbsg15
Nsg16
Nsg49
S'P2PSocket'
p235
sg19
Nsbag1
(g98
g3
NtRp236
(dp237
g54
g1
(g101
g3
NtRp238
(dp239
g10
(lp240
g1
(g105
g3
NtRp241
(dp242
g108
Nsg49
S'SocketCreated'
p243
sg110
g1
(g111
g3
NtRp244
(dp245
g10
(lp246
g1
(g115
g3
NtRp247
(dp248
g108
Nsg49
S'local_address'
p249
sg15
Nsg19
g20
sg119
S'IPEndPoint'
p250
sg16
I61
sbag1
(g115
g3
NtRp251
(dp252
g108
Nsg49
S'remote_address'
p253
sg15
Nsg19
g20
sg119
S'IPEndPoint'
p254
sg16
I61
sbasg16
I61
sg19
g20
sbsg15
Nsg19
Nsg16
Nsg129
Nsbag1
(g105
g3
NtRp255
(dp256
g108
Nsg49
S'SendComplete'
p257
sg110
g1
(g111
g3
NtRp258
(dp259
g10
(lp260
g1
(g115
g3
NtRp261
(dp262
g108
Nsg49
S'send_metrics'
p263
sg15
Nsg19
g20
sg119
S'P2PSendPacketMetrics'
p264
sg16
I62
sbasg16
I62
sg19
g20
sbsg15
Nsg19
Nsg16
Nsg129
Nsbag1
(g105
g3
NtRp265
(dp266
g108
Nsg49
S'IncomingTcpConnection'
p267
sg110
g1
(g111
g3
NtRp268
(dp269
g10
(lp270
g1
(g115
g3
NtRp271
(dp272
g108
Nsg49
S'socket_address'
p273
sg15
Nsg19
g20
sg119
S'IPEndPoint'
p274
sg16
I63
sbag1
(g115
g3
NtRp275
(dp276
g108
Nsg49
S'socket'
p277
sg15
Nsg19
g20
sg119
S'P2PSocket'
p278
sg16
I64
sbag1
(g115
g3
NtRp279
(dp280
g108
Nsg49
S'client'
p281
sg15
Nsg19
g20
sg119
S'P2PSocketClient&'
p282
sg16
I65
sbasg16
I63
sg19
g20
sbsg15
Nsg19
Nsg16
Nsg129
Nsbag1
(g105
g3
NtRp283
(dp284
g108
Nsg49
S'DataReceived'
p285
sg110
g1
(g111
g3
NtRp286
(dp287
g10
(lp288
g1
(g115
g3
NtRp289
(dp290
g108
Nsg49
S'socket_address'
p291
sg15
Nsg19
g20
sg119
S'IPEndPoint'
p292
sg16
I66
sbag1
(g115
g3
NtRp293
(dp294
g108
Nsg49
S'data'
p295
sg15
Nsg19
g20
sg119
S'int8[]'
p296
sg16
I67
sbag1
(g115
g3
NtRp297
(dp298
g108
Nsg49
S'timestamp'
p299
sg15
Nsg19
g20
sg119
S'mojo_base.mojom.TimeTicks'
p300
sg16
I68
sbasg16
I66
sg19
g20
sbsg15
Nsg19
Nsg16
Nsg129
Nsbasg16
Nsg19
Nsbsg15
Nsg16
Nsg49
S'P2PSocketClient'
p301
sg19
Nsbasg16
NsS'module'
p302
g1
(cmojom.parse.ast
Module
p303
g3
NtRp304
(dp305
S'mojom_namespace'
p306
(S'IDENTIFIER'
p307
S'network.mojom'
tp308
sg16
I5
sg15
Nsg19
g20
sbsg19
Nsb.