ccopy_reg
_reconstructor
p1
(cmojom.parse.ast
Mojom
p2
c__builtin__
object
p3
NtRp4
(dp5
S'import_list'
p6
g1
(cmojom.parse.ast
ImportList
p7
g3
NtRp8
(dp9
S'items'
p10
(lp11
g1
(cmojom.parse.ast
Import
p12
g3
NtRp13
(dp14
S'attribute_list'
p15
NsS'lineno'
p16
I7
sS'import_filename'
p17
S'services/network/public/mojom/p2p.mojom'
p18
sS'filename'
p19
S'../../services/network/public/mojom/p2p_trusted.mojom'
p20
sbasg16
I7
sg19
g20
sbsS'definition_list'
p21
(lp22
g1
(cmojom.parse.ast
Interface
p23
g3
NtRp24
(dp25
S'body'
p26
g1
(cmojom.parse.ast
InterfaceBody
p27
g3
NtRp28
(dp29
g10
(lp30
g1
(cmojom.parse.ast
Method
p31
g3
NtRp32
(dp33
S'ordinal'
p34
NsS'mojom_name'
p35
S'InvalidSocketPortRangeRequested'
p36
sS'parameter_list'
p37
g1
(cmojom.parse.ast
ParameterList
p38
g3
NtRp39
(dp40
g10
(lp41
sg16
Nsg19
Nsbsg15
Nsg19
Nsg16
NsS'response_parameter_list'
p42
Nsbag1
(g31
g3
NtRp43
(dp44
g34
Nsg35
S'DumpPacket'
p45
sg37
g1
(g38
g3
NtRp46
(dp47
g10
(lp48
g1
(cmojom.parse.ast
Parameter
p49
g3
NtRp50
(dp51
g34
Nsg35
S'packet_header'
p52
sg15
Nsg19
g20
sS'typename'
p53
S'uint8[]'
p54
sg16
I19
sbag1
(g49
g3
NtRp55
(dp56
g34
Nsg35
S'packet_length'
p57
sg15
Nsg19
g20
sg53
S'uint64'
p58
sg16
I20
sbag1
(g49
g3
NtRp59
(dp60
g34
Nsg35
S'incoming'
p61
sg15
Nsg19
g20
sg53
S'bool'
p62
sg16
I21
sbasg16
I19
sg19
g20
sbsg15
Nsg19
Nsg16
Nsg42
Nsbasg16
Nsg19
Nsbsg15
Nsg16
Nsg35
S'P2PTrustedSocketManagerClient'
p63
sg19
Nsbag1
(g23
g3
NtRp64
(dp65
g26
g1
(g27
g3
NtRp66
(dp67
g10
(lp68
g1
(g31
g3
NtRp69
(dp70
g34
Nsg35
S'StartRtpDump'
p71
sg37
g1
(g38
g3
NtRp72
(dp73
g10
(lp74
g1
(g49
g3
NtRp75
(dp76
g34
Nsg35
S'incoming'
p77
sg15
Nsg19
g20
sg53
S'bool'
p78
sg16
I27
sbag1
(g49
g3
NtRp79
(dp80
g34
Nsg35
S'outgoing'
p81
sg15
Nsg19
g20
sg53
S'bool'
p82
sg16
I27
sbasg16
I27
sg19
g20
sbsg15
Nsg19
Nsg16
Nsg42
Nsbag1
(g31
g3
NtRp83
(dp84
g34
Nsg35
S'StopRtpDump'
p85
sg37
g1
(g38
g3
NtRp86
(dp87
g10
(lp88
g1
(g49
g3
NtRp89
(dp90
g34
Nsg35
S'incoming'
p91
sg15
Nsg19
g20
sg53
S'bool'
p92
sg16
I28
sbag1
(g49
g3
NtRp93
(dp94
g34
Nsg35
S'outgoing'
p95
sg15
Nsg19
g20
sg53
S'bool'
p96
sg16
I28
sbasg16
I28
sg19
g20
sbsg15
Nsg19
Nsg16
Nsg42
Nsbasg16
Nsg19
Nsbsg15
Nsg16
Nsg35
S'P2PTrustedSocketManager'
p97
sg19
Nsbasg16
NsS'module'
p98
g1
(cmojom.parse.ast
Module
p99
g3
NtRp100
(dp101
S'mojom_namespace'
p102
(S'IDENTIFIER'
p103
S'network.mojom'
tp104
sg16
I5
sg15
Nsg19
g20
sbsg19
Nsb.