ccopy_reg
_reconstructor
p1
(cmojom.parse.ast
Mojom
p2
c__builtin__
object
p3
NtRp4
(dp5
S'import_list'
p6
g1
(cmojom.parse.ast
ImportList
p7
g3
NtRp8
(dp9
S'items'
p10
(lp11
g1
(cmojom.parse.ast
Import
p12
g3
NtRp13
(dp14
S'attribute_list'
p15
NsS'lineno'
p16
I7
sS'import_filename'
p17
S'mojo/public/mojom/base/big_string.mojom'
p18
sS'filename'
p19
S'../../services/network/public/mojom/proxy_config.mojom'
p20
sbasg16
I7
sg19
g20
sbsS'definition_list'
p21
(lp22
g1
(cmojom.parse.ast
Struct
p23
g3
NtRp24
(dp25
S'body'
p26
g1
(cmojom.parse.ast
StructBody
p27
g3
NtRp28
(dp29
g10
(lp30
g1
(cmojom.parse.ast
StructField
p31
g3
NtRp32
(dp33
S'ordinal'
p34
NsS'default_value'
p35
NsS'mojom_name'
p36
S'rules'
p37
sg15
Nsg19
NsS'typename'
p38
S'string[]'
p39
sg16
Nsbasg16
Nsg19
Nsbsg15
Nsg16
Nsg36
S'ProxyBypassRules'
p40
sg19
Nsbag1
(g23
g3
NtRp41
(dp42
g26
g1
(g27
g3
NtRp43
(dp44
g10
(lp45
g1
(g31
g3
NtRp46
(dp47
g34
Nsg35
Nsg36
S'proxies'
p48
sg15
Nsg19
Nsg38
S'string[]'
p49
sg16
Nsbasg16
Nsg19
Nsbsg15
Nsg16
Nsg36
S'ProxyList'
p50
sg19
Nsbag1
(cmojom.parse.ast
Enum
p51
g3
NtRp52
(dp53
g15
NsS'enum_value_list'
p54
g1
(cmojom.parse.ast
EnumValueList
p55
g3
NtRp56
(dp57
g10
(lp58
g1
(cmojom.parse.ast
EnumValue
p59
g3
NtRp60
(dp61
g15
NsS'value'
p62
Nsg16
I21
sg36
S'EMPTY'
p63
sg19
g20
sbag1
(g59
g3
NtRp64
(dp65
g15
Nsg62
Nsg16
I22
sg36
S'PROXY_LIST'
p66
sg19
g20
sbag1
(g59
g3
NtRp67
(dp68
g15
Nsg62
Nsg16
I23
sg36
S'PROXY_LIST_PER_SCHEME'
p69
sg19
g20
sbasg16
I21
sg19
g20
sbsg16
I20
sg36
S'ProxyRulesType'
p70
sg19
g20
sbag1
(g23
g3
NtRp71
(dp72
g26
g1
(g27
g3
NtRp73
(dp74
g10
(lp75
g1
(g31
g3
NtRp76
(dp77
g34
Nsg35
Nsg36
S'bypass_rules'
p78
sg15
Nsg19
Nsg38
S'ProxyBypassRules'
p79
sg16
Nsbag1
(g31
g3
NtRp80
(dp81
g34
Nsg35
Nsg36
S'reverse_bypass'
p82
sg15
Nsg19
Nsg38
S'bool'
p83
sg16
Nsbag1
(g31
g3
NtRp84
(dp85
g34
Nsg35
Nsg36
S'type'
p86
sg15
Nsg19
Nsg38
S'ProxyRulesType'
p87
sg16
Nsbag1
(g31
g3
NtRp88
(dp89
g34
Nsg35
Nsg36
S'single_proxies'
p90
sg15
Nsg19
Nsg38
S'ProxyList'
p91
sg16
Nsbag1
(g31
g3
NtRp92
(dp93
g34
Nsg35
Nsg36
S'proxies_for_http'
p94
sg15
Nsg19
Nsg38
S'ProxyList'
p95
sg16
Nsbag1
(g31
g3
NtRp96
(dp97
g34
Nsg35
Nsg36
S'proxies_for_https'
p98
sg15
Nsg19
Nsg38
S'ProxyList'
p99
sg16
Nsbag1
(g31
g3
NtRp100
(dp101
g34
Nsg35
Nsg36
S'proxies_for_ftp'
p102
sg15
Nsg19
Nsg38
S'ProxyList'
p103
sg16
Nsbag1
(g31
g3
NtRp104
(dp105
g34
Nsg35
Nsg36
S'fallback_proxies'
p106
sg15
Nsg19
Nsg38
S'ProxyList'
p107
sg16
Nsbasg16
Nsg19
Nsbsg15
Nsg16
Nsg36
S'ProxyRules'
p108
sg19
Nsbag1
(g23
g3
NtRp109
(dp110
g26
g1
(g27
g3
NtRp111
(dp112
g10
(lp113
g1
(g31
g3
NtRp114
(dp115
g34
Nsg35
Nsg36
S'auto_detect'
p116
sg15
Nsg19
Nsg38
S'bool'
p117
sg16
Nsbag1
(g31
g3
NtRp118
(dp119
g34
Nsg35
Nsg36
S'pac_url'
p120
sg15
Nsg19
Nsg38
S'mojo_base.mojom.BigString'
p121
sg16
Nsbag1
(g31
g3
NtRp122
(dp123
g34
Nsg35
Nsg36
S'pac_mandatory'
p124
sg15
Nsg19
Nsg38
S'bool'
p125
sg16
Nsbag1
(g31
g3
NtRp126
(dp127
g34
Nsg35
Nsg36
S'proxy_rules'
p128
sg15
Nsg19
Nsg38
S'ProxyRules'
p129
sg16
Nsbasg16
Nsg19
Nsbsg15
Nsg16
Nsg36
S'ProxyConfig'
p130
sg19
Nsbasg16
NsS'module'
p131
g1
(cmojom.parse.ast
Module
p132
g3
NtRp133
(dp134
S'mojom_namespace'
p135
(S'IDENTIFIER'
p136
S'network.mojom'
tp137
sg16
I5
sg15
Nsg19
g20
sbsg19
Nsb.