ccopy_reg
_reconstructor
p1
(cmojom.parse.ast
Mojom
p2
c__builtin__
object
p3
NtRp4
(dp5
S'import_list'
p6
g1
(cmojom.parse.ast
ImportList
p7
g3
NtRp8
(dp9
S'items'
p10
(lp11
g1
(cmojom.parse.ast
Import
p12
g3
NtRp13
(dp14
S'attribute_list'
p15
NsS'lineno'
p16
I7
sS'import_filename'
p17
S'services/network/public/mojom/mutable_network_traffic_annotation_tag.mojom'
p18
sS'filename'
p19
S'../../services/network/public/mojom/proxy_config_with_annotation.mojom'
p20
sbag1
(g12
g3
NtRp21
(dp22
g15
Nsg16
I8
sg17
S'services/network/public/mojom/proxy_config.mojom'
p23
sg19
g20
sbasg16
I7
sg19
g20
sbsS'definition_list'
p24
(lp25
g1
(cmojom.parse.ast
Struct
p26
g3
NtRp27
(dp28
S'body'
p29
g1
(cmojom.parse.ast
StructBody
p30
g3
NtRp31
(dp32
g10
(lp33
g1
(cmojom.parse.ast
StructField
p34
g3
NtRp35
(dp36
S'ordinal'
p37
NsS'default_value'
p38
NsS'mojom_name'
p39
S'value'
p40
sg15
Nsg19
NsS'typename'
p41
S'ProxyConfig'
p42
sg16
Nsbag1
(g34
g3
NtRp43
(dp44
g37
Nsg38
Nsg39
S'traffic_annotation'
p45
sg15
Nsg19
Nsg41
S'MutableNetworkTrafficAnnotationTag'
p46
sg16
Nsbasg16
Nsg19
Nsbsg15
Nsg16
Nsg39
S'ProxyConfigWithAnnotation'
p47
sg19
Nsbag1
(cmojom.parse.ast
Interface
p48
g3
NtRp49
(dp50
g29
g1
(cmojom.parse.ast
InterfaceBody
p51
g3
NtRp52
(dp53
g10
(lp54
g1
(cmojom.parse.ast
Method
p55
g3
NtRp56
(dp57
g37
Nsg39
S'OnProxyConfigUpdated'
p58
sS'parameter_list'
p59
g1
(cmojom.parse.ast
ParameterList
p60
g3
NtRp61
(dp62
g10
(lp63
g1
(cmojom.parse.ast
Parameter
p64
g3
NtRp65
(dp66
g37
Nsg39
S'proxy_config'
p67
sg15
Nsg19
g20
sg41
S'ProxyConfigWithAnnotation'
p68
sg16
I18
sbasg16
I18
sg19
g20
sbsg15
Nsg19
Nsg16
NsS'response_parameter_list'
p69
Nsbag1
(g55
g3
NtRp70
(dp71
g37
Nsg39
S'FlushProxyConfig'
p72
sg59
g1
(g60
g3
NtRp73
(dp74
g10
(lp75
sg16
Nsg19
Nsbsg15
Nsg19
Nsg16
Nsg69
g1
(g60
g3
NtRp76
(dp77
g10
(lp78
sg16
Nsg19
Nsbsbasg16
Nsg19
Nsbsg15
Nsg16
Nsg39
S'ProxyConfigClient'
p79
sg19
Nsbag1
(g48
g3
NtRp80
(dp81
g29
g1
(g51
g3
NtRp82
(dp83
g10
(lp84
g1
(g55
g3
NtRp85
(dp86
g37
Nsg39
S'OnLazyProxyConfigPoll'
p87
sg59
g1
(g60
g3
NtRp88
(dp89
g10
(lp90
sg16
Nsg19
Nsbsg15
Nsg19
Nsg16
Nsg69
Nsbasg16
Nsg19
Nsbsg15
Nsg16
Nsg39
S'ProxyConfigPollerClient'
p91
sg19
Nsbag1
(g48
g3
NtRp92
(dp93
g29
g1
(g51
g3
NtRp94
(dp95
g10
(lp96
g1
(g55
g3
NtRp97
(dp98
g37
Nsg39
S'OnPACScriptError'
p99
sg59
g1
(g60
g3
NtRp100
(dp101
g10
(lp102
g1
(g64
g3
NtRp103
(dp104
g37
Nsg39
S'line_number'
p105
sg15
Nsg19
g20
sg41
S'int32'
p106
sg16
I36
sbag1
(g64
g3
NtRp107
(dp108
g37
Nsg39
S'details'
p109
sg15
Nsg19
g20
sg41
S'string'
p110
sg16
I36
sbasg16
I36
sg19
g20
sbsg15
Nsg19
Nsg16
Nsg69
Nsbag1
(g55
g3
NtRp111
(dp112
g37
Nsg39
S'OnRequestMaybeFailedDueToProxySettings'
p113
sg59
g1
(g60
g3
NtRp114
(dp115
g10
(lp116
g1
(g64
g3
NtRp117
(dp118
g37
Nsg39
S'net_error'
p119
sg15
Nsg19
g20
sg41
S'int32'
p120
sg16
I50
sbasg16
I50
sg19
g20
sbsg15
Nsg19
Nsg16
Nsg69
Nsbasg16
Nsg19
Nsbsg15
Nsg16
Nsg39
S'ProxyErrorClient'
p121
sg19
Nsbasg16
NsS'module'
p122
g1
(cmojom.parse.ast
Module
p123
g3
NtRp124
(dp125
S'mojom_namespace'
p126
(S'IDENTIFIER'
p127
S'network.mojom'
tp128
sg16
I5
sg15
Nsg19
g20
sbsg19
Nsb.