ccopy_reg
_reconstructor
p1
(cmojom.parse.ast
Mojom
p2
c__builtin__
object
p3
NtRp4
(dp5
S'import_list'
p6
g1
(cmojom.parse.ast
ImportList
p7
g3
NtRp8
(dp9
S'items'
p10
(lp11
g1
(cmojom.parse.ast
Import
p12
g3
NtRp13
(dp14
S'attribute_list'
p15
NsS'lineno'
p16
I7
sS'import_filename'
p17
S'services/network/public/mojom/cookie_manager.mojom'
p18
sS'filename'
p19
S'../../services/network/public/mojom/restricted_cookie_manager.mojom'
p20
sbag1
(g12
g3
NtRp21
(dp22
g15
Nsg16
I8
sg17
S'mojo/public/mojom/base/time.mojom'
p23
sg19
g20
sbag1
(g12
g3
NtRp24
(dp25
g15
Nsg16
I9
sg17
S'url/mojom/url.mojom'
p26
sg19
g20
sbasg16
I7
sg19
g20
sbsS'definition_list'
p27
(lp28
g1
(cmojom.parse.ast
Enum
p29
g3
NtRp30
(dp31
g15
NsS'enum_value_list'
p32
g1
(cmojom.parse.ast
EnumValueList
p33
g3
NtRp34
(dp35
g10
(lp36
g1
(cmojom.parse.ast
EnumValue
p37
g3
NtRp38
(dp39
g15
NsS'value'
p40
Nsg16
I12
sS'mojom_name'
p41
S'EQUALS'
p42
sg19
g20
sbag1
(g37
g3
NtRp43
(dp44
g15
Nsg40
Nsg16
I13
sg41
S'STARTS_WITH'
p45
sg19
g20
sbasg16
I12
sg19
g20
sbsg16
I11
sg41
S'CookieMatchType'
p46
sg19
g20
sbag1
(cmojom.parse.ast
Struct
p47
g3
NtRp48
(dp49
S'body'
p50
g1
(cmojom.parse.ast
StructBody
p51
g3
NtRp52
(dp53
g10
(lp54
g1
(cmojom.parse.ast
StructField
p55
g3
NtRp56
(dp57
S'ordinal'
p58
NsS'default_value'
p59
Nsg41
S'name'
p60
sg15
Nsg19
NsS'typename'
p61
S'string'
p62
sg16
Nsbag1
(g55
g3
NtRp63
(dp64
g58
Nsg59
Nsg41
S'match_type'
p65
sg15
Nsg19
Nsg61
S'CookieMatchType'
p66
sg16
Nsbasg16
Nsg19
Nsbsg15
Nsg16
Nsg41
S'CookieManagerGetOptions'
p67
sg19
Nsbag1
(cmojom.parse.ast
Interface
p68
g3
NtRp69
(dp70
g50
g1
(cmojom.parse.ast
InterfaceBody
p71
g3
NtRp72
(dp73
g10
(lp74
g1
(cmojom.parse.ast
Method
p75
g3
NtRp76
(dp77
g58
Nsg41
S'GetAllForUrl'
p78
sS'parameter_list'
p79
g1
(cmojom.parse.ast
ParameterList
p80
g3
NtRp81
(dp82
g10
(lp83
g1
(cmojom.parse.ast
Parameter
p84
g3
NtRp85
(dp86
g58
Nsg41
S'url'
p87
sg15
Nsg19
g20
sg61
S'url.mojom.Url'
p88
sg16
I44
sbag1
(g84
g3
NtRp89
(dp90
g58
Nsg41
S'site_for_cookies'
p91
sg15
Nsg19
g20
sg61
S'url.mojom.Url'
p92
sg16
I44
sbag1
(g84
g3
NtRp93
(dp94
g58
Nsg41
S'options'
p95
sg15
Nsg19
g20
sg61
S'CookieManagerGetOptions'
p96
sg16
I45
sbasg16
I44
sg19
g20
sbsg15
Nsg19
Nsg16
NsS'response_parameter_list'
p97
g1
(g80
g3
NtRp98
(dp99
g10
(lp100
g1
(g84
g3
NtRp101
(dp102
g58
Nsg41
S'cookies'
p103
sg15
Nsg19
g20
sg61
S'CanonicalCookie[]'
p104
sg16
I45
sbasg16
I45
sg19
g20
sbsbag1
(g75
g3
NtRp105
(dp106
g58
Nsg41
S'SetCanonicalCookie'
p107
sg79
g1
(g80
g3
NtRp108
(dp109
g10
(lp110
g1
(g84
g3
NtRp111
(dp112
g58
Nsg41
S'cookie'
p113
sg15
Nsg19
g20
sg61
S'CanonicalCookie'
p114
sg16
I47
sbag1
(g84
g3
NtRp115
(dp116
g58
Nsg41
S'url'
p117
sg15
Nsg19
g20
sg61
S'url.mojom.Url'
p118
sg16
I48
sbag1
(g84
g3
NtRp119
(dp120
g58
Nsg41
S'site_for_cookies'
p121
sg15
Nsg19
g20
sg61
S'url.mojom.Url'
p122
sg16
I49
sbasg16
I47
sg19
g20
sbsg15
Nsg19
Nsg16
Nsg97
g1
(g80
g3
NtRp123
(dp124
g10
(lp125
g1
(g84
g3
NtRp126
(dp127
g58
Nsg41
S'success'
p128
sg15
Nsg19
g20
sg61
S'bool'
p129
sg16
I49
sbasg16
I49
sg19
g20
sbsbag1
(g75
g3
NtRp130
(dp131
g58
Nsg41
S'AddChangeListener'
p132
sg79
g1
(g80
g3
NtRp133
(dp134
g10
(lp135
g1
(g84
g3
NtRp136
(dp137
g58
Nsg41
S'url'
p138
sg15
Nsg19
g20
sg61
S'url.mojom.Url'
p139
sg16
I54
sbag1
(g84
g3
NtRp140
(dp141
g58
Nsg41
S'site_for_cookies'
p142
sg15
Nsg19
g20
sg61
S'url.mojom.Url'
p143
sg16
I54
sbag1
(g84
g3
NtRp144
(dp145
g58
Nsg41
S'listener'
p146
sg15
Nsg19
g20
sg61
S'CookieChangeListener'
p147
sg16
I55
sbasg16
I54
sg19
g20
sbsg15
Nsg19
Nsg16
Nsg97
g1
(g80
g3
NtRp148
(dp149
g10
(lp150
sg16
Nsg19
Nsbsbasg16
Nsg19
Nsbsg15
Nsg16
Nsg41
S'RestrictedCookieManager'
p151
sg19
Nsbasg16
NsS'module'
p152
g1
(cmojom.parse.ast
Module
p153
g3
NtRp154
(dp155
S'mojom_namespace'
p156
(S'IDENTIFIER'
p157
S'network.mojom'
tp158
sg16
I5
sg15
Nsg19
g20
sbsg19
Nsb.