ccopy_reg
_reconstructor
p1
(cmojom.parse.ast
Mojom
p2
c__builtin__
object
p3
NtRp4
(dp5
S'import_list'
p6
g1
(cmojom.parse.ast
ImportList
p7
g3
NtRp8
(dp9
S'items'
p10
(lp11
sS'lineno'
p12
NsS'filename'
p13
NsbsS'definition_list'
p14
(lp15
g1
(cmojom.parse.ast
Enum
p16
g3
NtRp17
(dp18
S'attribute_list'
p19
NsS'enum_value_list'
p20
g1
(cmojom.parse.ast
EnumValueList
p21
g3
NtRp22
(dp23
g10
(lp24
g1
(cmojom.parse.ast
EnumValue
p25
g3
NtRp26
(dp27
g19
NsS'value'
p28
Nsg12
I8
sS'mojom_name'
p29
S'kTLS1'
p30
sg13
S'../../services/network/public/mojom/ssl_config.mojom'
p31
sbag1
(g25
g3
NtRp32
(dp33
g19
Nsg28
Nsg12
I9
sg29
S'kTLS11'
p34
sg13
g31
sbag1
(g25
g3
NtRp35
(dp36
g19
Nsg28
Nsg12
I10
sg29
S'kTLS12'
p37
sg13
g31
sbag1
(g25
g3
NtRp38
(dp39
g19
Nsg28
Nsg12
I11
sg29
S'kTLS13'
p40
sg13
g31
sbasg12
I8
sg13
g31
sbsg12
I7
sg29
S'SSLVersion'
p41
sg13
g31
sbag1
(cmojom.parse.ast
Struct
p42
g3
NtRp43
(dp44
S'body'
p45
g1
(cmojom.parse.ast
StructBody
p46
g3
NtRp47
(dp48
g10
(lp49
g1
(cmojom.parse.ast
StructField
p50
g3
NtRp51
(dp52
S'ordinal'
p53
NsS'default_value'
p54
S'false'
p55
sg29
S'rev_checking_enabled'
p56
sg19
Nsg13
NsS'typename'
p57
S'bool'
p58
sg12
Nsbag1
(g50
g3
NtRp59
(dp60
g53
Nsg54
S'false'
p61
sg29
S'rev_checking_required_local_anchors'
p62
sg19
Nsg13
Nsg57
S'bool'
p63
sg12
Nsbag1
(g50
g3
NtRp64
(dp65
g53
Nsg54
S'false'
p66
sg29
S'sha1_local_anchors_enabled'
p67
sg19
Nsg13
Nsg57
S'bool'
p68
sg12
Nsbag1
(g50
g3
NtRp69
(dp70
g53
Nsg54
S'false'
p71
sg29
S'symantec_enforcement_disabled'
p72
sg19
Nsg13
Nsg57
S'bool'
p73
sg12
Nsbag1
(g50
g3
NtRp74
(dp75
g53
Nsg54
(S'IDENTIFIER'
p76
S'kTLS1'
tp77
sg29
S'version_min'
p78
sg19
Nsg13
Nsg57
S'SSLVersion'
p79
sg12
Nsbag1
(g50
g3
NtRp80
(dp81
g53
Nsg54
(g76
S'kTLS13'
tp82
sg29
S'version_max'
p83
sg19
Nsg13
Nsg57
S'SSLVersion'
p84
sg12
Nsbag1
(g50
g3
NtRp85
(dp86
g53
Nsg54
Nsg29
S'disabled_cipher_suites'
p87
sg19
Nsg13
Nsg57
S'uint16[]'
p88
sg12
Nsbag1
(g50
g3
NtRp89
(dp90
g53
Nsg54
Nsg29
S'client_cert_pooling_policy'
p91
sg19
Nsg13
Nsg57
S'string[]'
p92
sg12
Nsbasg12
Nsg13
Nsbsg19
Nsg12
Nsg29
S'SSLConfig'
p93
sg13
Nsbag1
(cmojom.parse.ast
Interface
p94
g3
NtRp95
(dp96
g45
g1
(cmojom.parse.ast
InterfaceBody
p97
g3
NtRp98
(dp99
g10
(lp100
g1
(cmojom.parse.ast
Method
p101
g3
NtRp102
(dp103
g53
Nsg29
S'OnSSLConfigUpdated'
p104
sS'parameter_list'
p105
g1
(cmojom.parse.ast
ParameterList
p106
g3
NtRp107
(dp108
g10
(lp109
g1
(cmojom.parse.ast
Parameter
p110
g3
NtRp111
(dp112
g53
Nsg29
S'ssl_config'
p113
sg19
Nsg13
g31
sg57
S'SSLConfig'
p114
sg12
I46
sbasg12
I46
sg13
g31
sbsg19
Nsg13
Nsg12
NsS'response_parameter_list'
p115
Nsbasg12
Nsg13
Nsbsg19
Nsg12
Nsg29
S'SSLConfigClient'
p116
sg13
Nsbasg12
NsS'module'
p117
g1
(cmojom.parse.ast
Module
p118
g3
NtRp119
(dp120
S'mojom_namespace'
p121
(g76
S'network.mojom'
tp122
sg12
I5
sg19
Nsg13
g31
sbsg13
Nsb.