ccopy_reg
_reconstructor
p1
(cmojom.parse.ast
Mojom
p2
c__builtin__
object
p3
NtRp4
(dp5
S'import_list'
p6
g1
(cmojom.parse.ast
ImportList
p7
g3
NtRp8
(dp9
S'items'
p10
(lp11
g1
(cmojom.parse.ast
Import
p12
g3
NtRp13
(dp14
S'attribute_list'
p15
NsS'lineno'
p16
I7
sS'import_filename'
p17
S'services/network/public/mojom/address_list.mojom'
p18
sS'filename'
p19
S'../../services/network/public/mojom/tcp_socket.mojom'
p20
sbag1
(g12
g3
NtRp21
(dp22
g15
Nsg16
I8
sg17
S'services/network/public/mojom/ip_endpoint.mojom'
p23
sg19
g20
sbag1
(g12
g3
NtRp24
(dp25
g15
Nsg16
I9
sg17
S'services/network/public/mojom/ssl_config.mojom'
p26
sg19
g20
sbag1
(g12
g3
NtRp27
(dp28
g15
Nsg16
I10
sg17
S'services/network/public/mojom/tls_socket.mojom'
p29
sg19
g20
sbag1
(g12
g3
NtRp30
(dp31
g15
Nsg16
I11
sg17
S'services/network/public/mojom/network_param.mojom'
p32
sg19
g20
sbag1
(g12
g3
NtRp33
(dp34
g15
Nsg16
I12
sg17
S'services/network/public/mojom/mutable_network_traffic_annotation_tag.mojom'
p35
sg19
g20
sbasg16
I7
sg19
g20
sbsS'definition_list'
p36
(lp37
g1
(cmojom.parse.ast
Struct
p38
g3
NtRp39
(dp40
S'body'
p41
g1
(cmojom.parse.ast
StructBody
p42
g3
NtRp43
(dp44
g10
(lp45
g1
(cmojom.parse.ast
StructField
p46
g3
NtRp47
(dp48
S'ordinal'
p49
NsS'default_value'
p50
S'0'
sS'mojom_name'
p51
S'send_buffer_size'
p52
sg15
Nsg19
NsS'typename'
p53
S'int32'
p54
sg16
Nsbag1
(g46
g3
NtRp55
(dp56
g49
Nsg50
S'0'
sg51
S'receive_buffer_size'
p57
sg15
Nsg19
Nsg53
S'int32'
p58
sg16
Nsbag1
(g46
g3
NtRp59
(dp60
g49
Nsg50
S'true'
p61
sg51
S'no_delay'
p62
sg15
Nsg19
Nsg53
S'bool'
p63
sg16
Nsbasg16
Nsg19
Nsbsg15
Nsg16
Nsg51
S'TCPConnectedSocketOptions'
p64
sg19
Nsbag1
(cmojom.parse.ast
Interface
p65
g3
NtRp66
(dp67
g41
g1
(cmojom.parse.ast
InterfaceBody
p68
g3
NtRp69
(dp70
g10
(lp71
g1
(cmojom.parse.ast
Method
p72
g3
NtRp73
(dp74
g49
Nsg51
S'Listen'
p75
sS'parameter_list'
p76
g1
(cmojom.parse.ast
ParameterList
p77
g3
NtRp78
(dp79
g10
(lp80
g1
(cmojom.parse.ast
Parameter
p81
g3
NtRp82
(dp83
g49
Nsg51
S'backlog'
p84
sg15
Nsg19
g20
sg53
S'uint32'
p85
sg16
I41
sbag1
(g81
g3
NtRp86
(dp87
g49
Nsg51
S'socket'
p88
sg15
Nsg19
g20
sg53
S'TCPServerSocket&'
p89
sg16
I41
sbasg16
I41
sg19
g20
sbsg15
Nsg19
Nsg16
NsS'response_parameter_list'
p90
g1
(g77
g3
NtRp91
(dp92
g10
(lp93
g1
(g81
g3
NtRp94
(dp95
g49
Nsg51
S'net_error'
p96
sg15
Nsg19
g20
sg53
S'int32'
p97
sg16
I42
sbasg16
I42
sg19
g20
sbsbag1
(g72
g3
NtRp98
(dp99
g49
Nsg51
S'Connect'
p100
sg76
g1
(g77
g3
NtRp101
(dp102
g10
(lp103
g1
(g81
g3
NtRp104
(dp105
g49
Nsg51
S'remote_addr_list'
p106
sg15
Nsg19
g20
sg53
S'AddressList'
p107
sg16
I50
sbag1
(g81
g3
NtRp108
(dp109
g49
Nsg51
S'tcp_connected_socket_options'
p110
sg15
Nsg19
g20
sg53
S'TCPConnectedSocketOptions?'
p111
sg16
I51
sbag1
(g81
g3
NtRp112
(dp113
g49
Nsg51
S'socket'
p114
sg15
Nsg19
g20
sg53
S'TCPConnectedSocket&'
p115
sg16
I52
sbag1
(g81
g3
NtRp116
(dp117
g49
Nsg51
S'observer'
p118
sg15
Nsg19
g20
sg53
S'SocketObserver?'
p119
sg16
I53
sbasg16
I50
sg19
g20
sbsg15
Nsg19
Nsg16
Nsg90
g1
(g77
g3
NtRp120
(dp121
g10
(lp122
g1
(g81
g3
NtRp123
(dp124
g49
Nsg51
S'net_error'
p125
sg15
Nsg19
g20
sg53
S'int32'
p126
sg16
I54
sbag1
(g81
g3
NtRp127
(dp128
g49
Nsg51
S'local_addr'
p129
sg15
Nsg19
g20
sg53
S'IPEndPoint?'
p130
sg16
I55
sbag1
(g81
g3
NtRp131
(dp132
g49
Nsg51
S'peer_addr'
p133
sg15
Nsg19
g20
sg53
S'IPEndPoint?'
p134
sg16
I56
sbag1
(g81
g3
NtRp135
(dp136
g49
Nsg51
S'receive_stream'
p137
sg15
Nsg19
g20
sg53
S'handle<data_pipe_consumer>?'
p138
sg16
I57
sbag1
(g81
g3
NtRp139
(dp140
g49
Nsg51
S'send_stream'
p141
sg15
Nsg19
g20
sg53
S'handle<data_pipe_producer>?'
p142
sg16
I58
sbasg16
I54
sg19
g20
sbsbasg16
Nsg19
Nsbsg15
Nsg16
Nsg51
S'TCPBoundSocket'
p143
sg19
Nsbag1
(g65
g3
NtRp144
(dp145
g41
g1
(g68
g3
NtRp146
(dp147
g10
(lp148
g1
(g72
g3
NtRp149
(dp150
g49
Nsg51
S'UpgradeToTLS'
p151
sg76
g1
(g77
g3
NtRp152
(dp153
g10
(lp154
g1
(g81
g3
NtRp155
(dp156
g49
Nsg51
S'host_port_pair'
p157
sg15
Nsg19
g20
sg53
S'HostPortPair'
p158
sg16
I77
sbag1
(g81
g3
NtRp159
(dp160
g49
Nsg51
S'options'
p161
sg15
Nsg19
g20
sg53
S'TLSClientSocketOptions?'
p162
sg16
I78
sbag1
(g81
g3
NtRp163
(dp164
g49
Nsg51
S'traffic_annotation'
p165
sg15
Nsg19
g20
sg53
S'MutableNetworkTrafficAnnotationTag'
p166
sg16
I79
sbag1
(g81
g3
NtRp167
(dp168
g49
Nsg51
S'request'
p169
sg15
Nsg19
g20
sg53
S'TLSClientSocket&'
p170
sg16
I80
sbag1
(g81
g3
NtRp171
(dp172
g49
Nsg51
S'observer'
p173
sg15
Nsg19
g20
sg53
S'SocketObserver?'
p174
sg16
I81
sbasg16
I77
sg19
g20
sbsg15
Nsg19
Nsg16
Nsg90
g1
(g77
g3
NtRp175
(dp176
g10
(lp177
g1
(g81
g3
NtRp178
(dp179
g49
Nsg51
S'net_error'
p180
sg15
Nsg19
g20
sg53
S'int32'
p181
sg16
I82
sbag1
(g81
g3
NtRp182
(dp183
g49
Nsg51
S'receive_stream'
p184
sg15
Nsg19
g20
sg53
S'handle<data_pipe_consumer>?'
p185
sg16
I83
sbag1
(g81
g3
NtRp186
(dp187
g49
Nsg51
S'send_stream'
p188
sg15
Nsg19
g20
sg53
S'handle<data_pipe_producer>?'
p189
sg16
I84
sbag1
(g81
g3
NtRp190
(dp191
g49
Nsg51
S'ssl_info'
p192
sg15
Nsg19
g20
sg53
S'SSLInfo?'
p193
sg16
I85
sbasg16
I82
sg19
g20
sbsbag1
(g72
g3
NtRp194
(dp195
g49
Nsg51
S'SetSendBufferSize'
p196
sg76
g1
(g77
g3
NtRp197
(dp198
g10
(lp199
g1
(g81
g3
NtRp200
(dp201
g49
Nsg51
S'send_buffer_size'
p202
sg15
Nsg19
g20
sg53
S'int32'
p203
sg16
I101
sbasg16
I101
sg19
g20
sbsg15
Nsg19
Nsg16
Nsg90
g1
(g77
g3
NtRp204
(dp205
g10
(lp206
g1
(g81
g3
NtRp207
(dp208
g49
Nsg51
S'net_error'
p209
sg15
Nsg19
g20
sg53
S'int32'
p210
sg16
I101
sbasg16
I101
sg19
g20
sbsbag1
(g72
g3
NtRp211
(dp212
g49
Nsg51
S'SetReceiveBufferSize'
p213
sg76
g1
(g77
g3
NtRp214
(dp215
g10
(lp216
g1
(g81
g3
NtRp217
(dp218
g49
Nsg51
S'receive_buffer_size'
p219
sg15
Nsg19
g20
sg53
S'int32'
p220
sg16
I102
sbasg16
I102
sg19
g20
sbsg15
Nsg19
Nsg16
Nsg90
g1
(g77
g3
NtRp221
(dp222
g10
(lp223
g1
(g81
g3
NtRp224
(dp225
g49
Nsg51
S'net_error'
p226
sg15
Nsg19
g20
sg53
S'int32'
p227
sg16
I102
sbasg16
I102
sg19
g20
sbsbag1
(g72
g3
NtRp228
(dp229
g49
Nsg51
S'SetNoDelay'
p230
sg76
g1
(g77
g3
NtRp231
(dp232
g10
(lp233
g1
(g81
g3
NtRp234
(dp235
g49
Nsg51
S'no_delay'
p236
sg15
Nsg19
g20
sg53
S'bool'
p237
sg16
I107
sbasg16
I107
sg19
g20
sbsg15
Nsg19
Nsg16
Nsg90
g1
(g77
g3
NtRp238
(dp239
g10
(lp240
g1
(g81
g3
NtRp241
(dp242
g49
Nsg51
S'success'
p243
sg15
Nsg19
g20
sg53
S'bool'
p244
sg16
I107
sbasg16
I107
sg19
g20
sbsbag1
(g72
g3
NtRp245
(dp246
g49
Nsg51
S'SetKeepAlive'
p247
sg76
g1
(g77
g3
NtRp248
(dp249
g10
(lp250
g1
(g81
g3
NtRp251
(dp252
g49
Nsg51
S'enable'
p253
sg15
Nsg19
g20
sg53
S'bool'
p254
sg16
I112
sbag1
(g81
g3
NtRp255
(dp256
g49
Nsg51
S'delay_secs'
p257
sg15
Nsg19
g20
sg53
S'int32'
p258
sg16
I112
sbasg16
I112
sg19
g20
sbsg15
Nsg19
Nsg16
Nsg90
g1
(g77
g3
NtRp259
(dp260
g10
(lp261
g1
(g81
g3
NtRp262
(dp263
g49
Nsg51
S'success'
p264
sg15
Nsg19
g20
sg53
S'bool'
p265
sg16
I112
sbasg16
I112
sg19
g20
sbsbasg16
Nsg19
Nsbsg15
Nsg16
Nsg51
S'TCPConnectedSocket'
p266
sg19
Nsbag1
(g65
g3
NtRp267
(dp268
g41
g1
(g68
g3
NtRp269
(dp270
g10
(lp271
g1
(g72
g3
NtRp272
(dp273
g49
Nsg51
S'OnReadError'
p274
sg76
g1
(g77
g3
NtRp275
(dp276
g10
(lp277
g1
(g81
g3
NtRp278
(dp279
g49
Nsg51
S'net_error'
p280
sg15
Nsg19
g20
sg53
S'int32'
p281
sg16
I122
sbasg16
I122
sg19
g20
sbsg15
Nsg19
Nsg16
Nsg90
Nsbag1
(g72
g3
NtRp282
(dp283
g49
Nsg51
S'OnWriteError'
p284
sg76
g1
(g77
g3
NtRp285
(dp286
g10
(lp287
g1
(g81
g3
NtRp288
(dp289
g49
Nsg51
S'net_error'
p290
sg15
Nsg19
g20
sg53
S'int32'
p291
sg16
I126
sbasg16
I126
sg19
g20
sbsg15
Nsg19
Nsg16
Nsg90
Nsbasg16
Nsg19
Nsbsg15
Nsg16
Nsg51
S'SocketObserver'
p292
sg19
Nsbag1
(g65
g3
NtRp293
(dp294
g41
g1
(g68
g3
NtRp295
(dp296
g10
(lp297
g1
(g72
g3
NtRp298
(dp299
g49
Nsg51
S'Accept'
p300
sg76
g1
(g77
g3
NtRp301
(dp302
g10
(lp303
g1
(g81
g3
NtRp304
(dp305
g49
Nsg51
S'observer'
p306
sg15
Nsg19
g20
sg53
S'SocketObserver?'
p307
sg16
I145
sbasg16
I145
sg19
g20
sbsg15
Nsg19
Nsg16
Nsg90
g1
(g77
g3
NtRp308
(dp309
g10
(lp310
g1
(g81
g3
NtRp311
(dp312
g49
Nsg51
S'net_error'
p313
sg15
Nsg19
g20
sg53
S'int32'
p314
sg16
I146
sbag1
(g81
g3
NtRp315
(dp316
g49
Nsg51
S'remote_addr'
p317
sg15
Nsg19
g20
sg53
S'IPEndPoint?'
p318
sg16
I147
sbag1
(g81
g3
NtRp319
(dp320
g49
Nsg51
S'connected_socket'
p321
sg15
Nsg19
g20
sg53
S'TCPConnectedSocket?'
p322
sg16
I148
sbag1
(g81
g3
NtRp323
(dp324
g49
Nsg51
S'send_stream'
p325
sg15
Nsg19
g20
sg53
S'handle<data_pipe_consumer>?'
p326
sg16
I149
sbag1
(g81
g3
NtRp327
(dp328
g49
Nsg51
S'receive_stream'
p329
sg15
Nsg19
g20
sg53
S'handle<data_pipe_producer>?'
p330
sg16
I150
sbasg16
I146
sg19
g20
sbsbasg16
Nsg19
Nsbsg15
Nsg16
Nsg51
S'TCPServerSocket'
p331
sg19
Nsbasg16
NsS'module'
p332
g1
(cmojom.parse.ast
Module
p333
g3
NtRp334
(dp335
S'mojom_namespace'
p336
(S'IDENTIFIER'
p337
S'network.mojom'
tp338
sg16
I5
sg15
Nsg19
g20
sbsg19
Nsb.