ccopy_reg
_reconstructor
p1
(cmojom.parse.ast
Mojom
p2
c__builtin__
object
p3
NtRp4
(dp5
S'import_list'
p6
g1
(cmojom.parse.ast
ImportList
p7
g3
NtRp8
(dp9
S'items'
p10
(lp11
g1
(cmojom.parse.ast
Import
p12
g3
NtRp13
(dp14
S'attribute_list'
p15
NsS'lineno'
p16
I7
sS'import_filename'
p17
S'services/network/public/mojom/ip_endpoint.mojom'
p18
sS'filename'
p19
S'../../services/network/public/mojom/tls_socket.mojom'
p20
sbag1
(g12
g3
NtRp21
(dp22
g15
Nsg16
I8
sg17
S'services/network/public/mojom/ssl_config.mojom'
p23
sg19
g20
sbasg16
I7
sg19
g20
sbsS'definition_list'
p24
(lp25
g1
(cmojom.parse.ast
Interface
p26
g3
NtRp27
(dp28
S'body'
p29
g1
(cmojom.parse.ast
InterfaceBody
p30
g3
NtRp31
(dp32
g10
(lp33
sg16
Nsg19
Nsbsg15
Nsg16
NsS'mojom_name'
p34
S'TLSClientSocket'
p35
sg19
Nsbag1
(cmojom.parse.ast
Struct
p36
g3
NtRp37
(dp38
g29
g1
(cmojom.parse.ast
StructBody
p39
g3
NtRp40
(dp41
g10
(lp42
g1
(cmojom.parse.ast
StructField
p43
g3
NtRp44
(dp45
S'ordinal'
p46
NsS'default_value'
p47
(S'IDENTIFIER'
p48
S'kTLS1'
tp49
sg34
S'version_min'
p50
sg15
Nsg19
NsS'typename'
p51
S'SSLVersion'
p52
sg16
Nsbag1
(g43
g3
NtRp53
(dp54
g46
Nsg47
(g48
S'kTLS13'
tp55
sg34
S'version_max'
p56
sg15
Nsg19
Nsg51
S'SSLVersion'
p57
sg16
Nsbag1
(g43
g3
NtRp58
(dp59
g46
Nsg47
S'false'
p60
sg34
S'send_ssl_info'
p61
sg15
Nsg19
Nsg51
S'bool'
p62
sg16
Nsbag1
(g43
g3
NtRp63
(dp64
g46
Nsg47
S'false'
p65
sg34
S'unsafely_skip_cert_verification'
p66
sg15
Nsg19
Nsg51
S'bool'
p67
sg16
Nsbasg16
Nsg19
Nsbsg15
Nsg16
Nsg34
S'TLSClientSocketOptions'
p68
sg19
Nsbasg16
NsS'module'
p69
g1
(cmojom.parse.ast
Module
p70
g3
NtRp71
(dp72
S'mojom_namespace'
p73
(g48
S'network.mojom'
tp74
sg16
I5
sg15
Nsg19
g20
sbsg19
Nsb.