ccopy_reg
_reconstructor
p1
(cmojom.parse.ast
Mojom
p2
c__builtin__
object
p3
NtRp4
(dp5
S'import_list'
p6
g1
(cmojom.parse.ast
ImportList
p7
g3
NtRp8
(dp9
S'items'
p10
(lp11
g1
(cmojom.parse.ast
Import
p12
g3
NtRp13
(dp14
S'attribute_list'
p15
NsS'lineno'
p16
I13
sS'import_filename'
p17
S'services/network/public/mojom/network_param.mojom'
p18
sS'filename'
p19
S'../../services/network/public/mojom/trial_comparison_cert_verifier.mojom'
p20
sbasg16
I13
sg19
g20
sbsS'definition_list'
p21
(lp22
g1
(cmojom.parse.ast
Interface
p23
g3
NtRp24
(dp25
S'body'
p26
g1
(cmojom.parse.ast
InterfaceBody
p27
g3
NtRp28
(dp29
g10
(lp30
g1
(cmojom.parse.ast
Method
p31
g3
NtRp32
(dp33
S'ordinal'
p34
NsS'mojom_name'
p35
S'OnTrialConfigUpdated'
p36
sS'parameter_list'
p37
g1
(cmojom.parse.ast
ParameterList
p38
g3
NtRp39
(dp40
g10
(lp41
g1
(cmojom.parse.ast
Parameter
p42
g3
NtRp43
(dp44
g34
Nsg35
S'allowed'
p45
sg15
Nsg19
g20
sS'typename'
p46
S'bool'
p47
sg16
I17
sbasg16
I17
sg19
g20
sbsg15
Nsg19
Nsg16
NsS'response_parameter_list'
p48
Nsbasg16
Nsg19
Nsbsg15
Nsg16
Nsg35
S'TrialComparisonCertVerifierConfigClient'
p49
sg19
Nsbag1
(g23
g3
NtRp50
(dp51
g26
g1
(g27
g3
NtRp52
(dp53
g10
(lp54
g1
(g31
g3
NtRp55
(dp56
g34
Nsg35
S'SendTrialReport'
p57
sg37
g1
(g38
g3
NtRp58
(dp59
g10
(lp60
g1
(g42
g3
NtRp61
(dp62
g34
Nsg35
S'hostname'
p63
sg15
Nsg19
g20
sg46
S'string'
p64
sg16
I23
sbag1
(g42
g3
NtRp65
(dp66
g34
Nsg35
S'cert'
p67
sg15
Nsg19
g20
sg46
S'X509Certificate'
p68
sg16
I23
sbag1
(g42
g3
NtRp69
(dp70
g34
Nsg35
S'enable_rev_checking'
p71
sg15
Nsg19
g20
sg46
S'bool'
p72
sg16
I23
sbag1
(g42
g3
NtRp73
(dp74
g34
Nsg35
S'require_rev_checking_local_anchors'
p75
sg15
Nsg19
g20
sg46
S'bool'
p76
sg16
I24
sbag1
(g42
g3
NtRp77
(dp78
g34
Nsg35
S'enable_sha1_local_anchors'
p79
sg15
Nsg19
g20
sg46
S'bool'
p80
sg16
I24
sbag1
(g42
g3
NtRp81
(dp82
g34
Nsg35
S'disable_symantec_enforcement'
p83
sg15
Nsg19
g20
sg46
S'bool'
p84
sg16
I25
sbag1
(g42
g3
NtRp85
(dp86
g34
Nsg35
S'primary_result'
p87
sg15
Nsg19
g20
sg46
S'CertVerifyResult'
p88
sg16
I25
sbag1
(g42
g3
NtRp89
(dp90
g34
Nsg35
S'trial_result'
p91
sg15
Nsg19
g20
sg46
S'CertVerifyResult'
p92
sg16
I26
sbasg16
I23
sg19
g20
sbsg15
Nsg19
Nsg16
Nsg48
Nsbasg16
Nsg19
Nsbsg15
Nsg16
Nsg35
S'TrialComparisonCertVerifierReportClient'
p93
sg19
Nsbag1
(cmojom.parse.ast
Struct
p94
g3
NtRp95
(dp96
g26
g1
(cmojom.parse.ast
StructBody
p97
g3
NtRp98
(dp99
g10
(lp100
g1
(cmojom.parse.ast
StructField
p101
g3
NtRp102
(dp103
g34
NsS'default_value'
p104
S'false'
p105
sg35
S'initial_allowed'
p106
sg15
Nsg19
Nsg46
S'bool'
p107
sg16
Nsbag1
(g101
g3
NtRp108
(dp109
g34
Nsg104
Nsg35
S'config_client_request'
p110
sg15
Nsg19
Nsg46
S'TrialComparisonCertVerifierConfigClient&?'
p111
sg16
Nsbag1
(g101
g3
NtRp112
(dp113
g34
Nsg104
Nsg35
S'report_client'
p114
sg15
Nsg19
Nsg46
S'TrialComparisonCertVerifierReportClient?'
p115
sg16
Nsbasg16
Nsg19
Nsbsg15
Nsg16
Nsg35
S'TrialComparisonCertVerifierParams'
p116
sg19
Nsbasg16
NsS'module'
p117
g1
(cmojom.parse.ast
Module
p118
g3
NtRp119
(dp120
S'mojom_namespace'
p121
(S'IDENTIFIER'
p122
S'network.mojom'
tp123
sg16
I11
sg15
Nsg19
g20
sbsg19
Nsb.