ccopy_reg
_reconstructor
p1
(cmojom.parse.ast
Mojom
p2
c__builtin__
object
p3
NtRp4
(dp5
S'import_list'
p6
g1
(cmojom.parse.ast
ImportList
p7
g3
NtRp8
(dp9
S'items'
p10
(lp11
g1
(cmojom.parse.ast
Import
p12
g3
NtRp13
(dp14
S'attribute_list'
p15
NsS'lineno'
p16
I7
sS'import_filename'
p17
S'mojo/public/mojom/base/read_only_buffer.mojom'
p18
sS'filename'
p19
S'../../services/network/public/mojom/udp_socket.mojom'
p20
sbag1
(g12
g3
NtRp21
(dp22
g15
Nsg16
I8
sg17
S'services/network/public/mojom/ip_address.mojom'
p23
sg19
g20
sbag1
(g12
g3
NtRp24
(dp25
g15
Nsg16
I9
sg17
S'services/network/public/mojom/ip_endpoint.mojom'
p26
sg19
g20
sbag1
(g12
g3
NtRp27
(dp28
g15
Nsg16
I10
sg17
S'services/network/public/mojom/mutable_network_traffic_annotation_tag.mojom'
p29
sg19
g20
sbasg16
I7
sg19
g20
sbsS'definition_list'
p30
(lp31
g1
(cmojom.parse.ast
Struct
p32
g3
NtRp33
(dp34
S'body'
p35
g1
(cmojom.parse.ast
StructBody
p36
g3
NtRp37
(dp38
g10
(lp39
g1
(cmojom.parse.ast
StructField
p40
g3
NtRp41
(dp42
S'ordinal'
p43
NsS'default_value'
p44
S'false'
p45
sS'mojom_name'
p46
S'allow_address_reuse'
p47
sg15
Nsg19
NsS'typename'
p48
S'bool'
p49
sg16
Nsbag1
(g40
g3
NtRp50
(dp51
g43
Nsg44
S'false'
p52
sg46
S'allow_broadcast'
p53
sg15
Nsg19
Nsg48
S'bool'
p54
sg16
Nsbag1
(g40
g3
NtRp55
(dp56
g43
Nsg44
S'false'
p57
sg46
S'allow_address_sharing_for_multicast'
p58
sg15
Nsg19
Nsg48
S'bool'
p59
sg16
Nsbag1
(g40
g3
NtRp60
(dp61
g43
Nsg44
S'0'
sg46
S'multicast_interface'
p62
sg15
Nsg19
Nsg48
S'uint32'
p63
sg16
Nsbag1
(g40
g3
NtRp64
(dp65
g43
Nsg44
S'1'
sg46
S'multicast_time_to_live'
p66
sg15
Nsg19
Nsg48
S'uint32'
p67
sg16
Nsbag1
(g40
g3
NtRp68
(dp69
g43
Nsg44
S'true'
p70
sg46
S'multicast_loopback_mode'
p71
sg15
Nsg19
Nsg48
S'bool'
p72
sg16
Nsbag1
(g40
g3
NtRp73
(dp74
g43
Nsg44
S'0'
sg46
S'send_buffer_size'
p75
sg15
Nsg19
Nsg48
S'int32'
p76
sg16
Nsbag1
(g40
g3
NtRp77
(dp78
g43
Nsg44
S'0'
sg46
S'receive_buffer_size'
p79
sg15
Nsg19
Nsg48
S'int32'
p80
sg16
Nsbasg16
Nsg19
Nsbsg15
Nsg16
Nsg46
S'UDPSocketOptions'
p81
sg19
Nsbag1
(cmojom.parse.ast
Interface
p82
g3
NtRp83
(dp84
g35
g1
(cmojom.parse.ast
InterfaceBody
p85
g3
NtRp86
(dp87
g10
(lp88
g1
(cmojom.parse.ast
Method
p89
g3
NtRp90
(dp91
g43
Nsg46
S'Bind'
p92
sS'parameter_list'
p93
g1
(cmojom.parse.ast
ParameterList
p94
g3
NtRp95
(dp96
g10
(lp97
g1
(cmojom.parse.ast
Parameter
p98
g3
NtRp99
(dp100
g43
Nsg46
S'local_addr'
p101
sg15
Nsg19
g20
sg48
S'IPEndPoint'
p102
sg16
I92
sbag1
(g98
g3
NtRp103
(dp104
g43
Nsg46
S'socket_options'
p105
sg15
Nsg19
g20
sg48
S'UDPSocketOptions?'
p106
sg16
I92
sbasg16
I92
sg19
g20
sbsg15
Nsg19
Nsg16
NsS'response_parameter_list'
p107
g1
(g94
g3
NtRp108
(dp109
g10
(lp110
g1
(g98
g3
NtRp111
(dp112
g43
Nsg46
S'result'
p113
sg15
Nsg19
g20
sg48
S'int32'
p114
sg16
I93
sbag1
(g98
g3
NtRp115
(dp116
g43
Nsg46
S'local_addr_out'
p117
sg15
Nsg19
g20
sg48
S'IPEndPoint?'
p118
sg16
I93
sbasg16
I93
sg19
g20
sbsbag1
(g89
g3
NtRp119
(dp120
g43
Nsg46
S'Connect'
p121
sg93
g1
(g94
g3
NtRp122
(dp123
g10
(lp124
g1
(g98
g3
NtRp125
(dp126
g43
Nsg46
S'remote_addr'
p127
sg15
Nsg19
g20
sg48
S'IPEndPoint'
p128
sg16
I103
sbag1
(g98
g3
NtRp129
(dp130
g43
Nsg46
S'socket_options'
p131
sg15
Nsg19
g20
sg48
S'UDPSocketOptions?'
p132
sg16
I103
sbasg16
I103
sg19
g20
sbsg15
Nsg19
Nsg16
Nsg107
g1
(g94
g3
NtRp133
(dp134
g10
(lp135
g1
(g98
g3
NtRp136
(dp137
g43
Nsg46
S'result'
p138
sg15
Nsg19
g20
sg48
S'int32'
p139
sg16
I104
sbag1
(g98
g3
NtRp140
(dp141
g43
Nsg46
S'local_addr_out'
p142
sg15
Nsg19
g20
sg48
S'IPEndPoint?'
p143
sg16
I104
sbasg16
I104
sg19
g20
sbsbag1
(g89
g3
NtRp144
(dp145
g43
Nsg46
S'SetBroadcast'
p146
sg93
g1
(g94
g3
NtRp147
(dp148
g10
(lp149
g1
(g98
g3
NtRp150
(dp151
g43
Nsg46
S'broadcast'
p152
sg15
Nsg19
g20
sg48
S'bool'
p153
sg16
I108
sbasg16
I108
sg19
g20
sbsg15
Nsg19
Nsg16
Nsg107
g1
(g94
g3
NtRp154
(dp155
g10
(lp156
g1
(g98
g3
NtRp157
(dp158
g43
Nsg46
S'result'
p159
sg15
Nsg19
g20
sg48
S'int32'
p160
sg16
I108
sbasg16
I108
sg19
g20
sbsbag1
(g89
g3
NtRp161
(dp162
g43
Nsg46
S'SetSendBufferSize'
p163
sg93
g1
(g94
g3
NtRp164
(dp165
g10
(lp166
g1
(g98
g3
NtRp167
(dp168
g43
Nsg46
S'send_buffer_size'
p169
sg15
Nsg19
g20
sg48
S'int32'
p170
sg16
I113
sbasg16
I113
sg19
g20
sbsg15
Nsg19
Nsg16
Nsg107
g1
(g94
g3
NtRp171
(dp172
g10
(lp173
g1
(g98
g3
NtRp174
(dp175
g43
Nsg46
S'result'
p176
sg15
Nsg19
g20
sg48
S'int32'
p177
sg16
I113
sbasg16
I113
sg19
g20
sbsbag1
(g89
g3
NtRp178
(dp179
g43
Nsg46
S'SetReceiveBufferSize'
p180
sg93
g1
(g94
g3
NtRp181
(dp182
g10
(lp183
g1
(g98
g3
NtRp184
(dp185
g43
Nsg46
S'receive_buffer_size'
p186
sg15
Nsg19
g20
sg48
S'int32'
p187
sg16
I118
sbasg16
I118
sg19
g20
sbsg15
Nsg19
Nsg16
Nsg107
g1
(g94
g3
NtRp188
(dp189
g10
(lp190
g1
(g98
g3
NtRp191
(dp192
g43
Nsg46
S'result'
p193
sg15
Nsg19
g20
sg48
S'int32'
p194
sg16
I118
sbasg16
I118
sg19
g20
sbsbag1
(g89
g3
NtRp195
(dp196
g43
Nsg46
S'JoinGroup'
p197
sg93
g1
(g94
g3
NtRp198
(dp199
g10
(lp200
g1
(g98
g3
NtRp201
(dp202
g43
Nsg46
S'group_address'
p203
sg15
Nsg19
g20
sg48
S'IPAddress'
p204
sg16
I123
sbasg16
I123
sg19
g20
sbsg15
Nsg19
Nsg16
Nsg107
g1
(g94
g3
NtRp205
(dp206
g10
(lp207
g1
(g98
g3
NtRp208
(dp209
g43
Nsg46
S'result'
p210
sg15
Nsg19
g20
sg48
S'int32'
p211
sg16
I123
sbasg16
I123
sg19
g20
sbsbag1
(g89
g3
NtRp212
(dp213
g43
Nsg46
S'LeaveGroup'
p214
sg93
g1
(g94
g3
NtRp215
(dp216
g10
(lp217
g1
(g98
g3
NtRp218
(dp219
g43
Nsg46
S'group_address'
p220
sg15
Nsg19
g20
sg48
S'IPAddress'
p221
sg16
I129
sbasg16
I129
sg19
g20
sbsg15
Nsg19
Nsg16
Nsg107
g1
(g94
g3
NtRp222
(dp223
g10
(lp224
g1
(g98
g3
NtRp225
(dp226
g43
Nsg46
S'result'
p227
sg15
Nsg19
g20
sg48
S'int32'
p228
sg16
I129
sbasg16
I129
sg19
g20
sbsbag1
(g89
g3
NtRp229
(dp230
g43
Nsg46
S'ReceiveMore'
p231
sg93
g1
(g94
g3
NtRp232
(dp233
g10
(lp234
g1
(g98
g3
NtRp235
(dp236
g43
Nsg46
S'num_additional_datagrams'
p237
sg15
Nsg19
g20
sg48
S'uint32'
p238
sg16
I170
sbasg16
I170
sg19
g20
sbsg15
Nsg19
Nsg16
Nsg107
Nsbag1
(g89
g3
NtRp239
(dp240
g43
Nsg46
S'ReceiveMoreWithBufferSize'
p241
sg93
g1
(g94
g3
NtRp242
(dp243
g10
(lp244
g1
(g98
g3
NtRp245
(dp246
g43
Nsg46
S'num_additional_datagrams'
p247
sg15
Nsg19
g20
sg48
S'uint32'
p248
sg16
I179
sbag1
(g98
g3
NtRp249
(dp250
g43
Nsg46
S'buffer_size'
p251
sg15
Nsg19
g20
sg48
S'uint32'
p252
sg16
I179
sbasg16
I179
sg19
g20
sbsg15
Nsg19
Nsg16
Nsg107
Nsbag1
(g89
g3
NtRp253
(dp254
g43
Nsg46
S'SendTo'
p255
sg93
g1
(g94
g3
NtRp256
(dp257
g10
(lp258
g1
(g98
g3
NtRp259
(dp260
g43
Nsg46
S'dest_addr'
p261
sg15
Nsg19
g20
sg48
S'IPEndPoint'
p262
sg16
I192
sbag1
(g98
g3
NtRp263
(dp264
g43
Nsg46
S'data'
p265
sg15
Nsg19
g20
sg48
S'mojo_base.mojom.ReadOnlyBuffer'
p266
sg16
I193
sbag1
(g98
g3
NtRp267
(dp268
g43
Nsg46
S'traffic_annotation'
p269
sg15
Nsg19
g20
sg48
S'MutableNetworkTrafficAnnotationTag'
p270
sg16
I194
sbasg16
I192
sg19
g20
sbsg15
Nsg19
Nsg16
Nsg107
g1
(g94
g3
NtRp271
(dp272
g10
(lp273
g1
(g98
g3
NtRp274
(dp275
g43
Nsg46
S'result'
p276
sg15
Nsg19
g20
sg48
S'int32'
p277
sg16
I195
sbasg16
I195
sg19
g20
sbsbag1
(g89
g3
NtRp278
(dp279
g43
Nsg46
S'Send'
p280
sg93
g1
(g94
g3
NtRp281
(dp282
g10
(lp283
g1
(g98
g3
NtRp284
(dp285
g43
Nsg46
S'data'
p286
sg15
Nsg19
g20
sg48
S'mojo_base.mojom.ReadOnlyBuffer'
p287
sg16
I200
sbag1
(g98
g3
NtRp288
(dp289
g43
Nsg46
S'traffic_annotation'
p290
sg15
Nsg19
g20
sg48
S'MutableNetworkTrafficAnnotationTag'
p291
sg16
I201
sbasg16
I200
sg19
g20
sbsg15
Nsg19
Nsg16
Nsg107
g1
(g94
g3
NtRp292
(dp293
g10
(lp294
g1
(g98
g3
NtRp295
(dp296
g43
Nsg46
S'result'
p297
sg15
Nsg19
g20
sg48
S'int32'
p298
sg16
I202
sbasg16
I202
sg19
g20
sbsbag1
(g89
g3
NtRp299
(dp300
g43
Nsg46
S'Close'
p301
sg93
g1
(g94
g3
NtRp302
(dp303
g10
(lp304
sg16
Nsg19
Nsbsg15
Nsg19
Nsg16
Nsg107
Nsbasg16
Nsg19
Nsbsg15
Nsg16
Nsg46
S'UDPSocket'
p305
sg19
Nsbag1
(g82
g3
NtRp306
(dp307
g35
g1
(g85
g3
NtRp308
(dp309
g10
(lp310
g1
(g89
g3
NtRp311
(dp312
g43
Nsg46
S'OnReceived'
p313
sg93
g1
(g94
g3
NtRp314
(dp315
g10
(lp316
g1
(g98
g3
NtRp317
(dp318
g43
Nsg46
S'result'
p319
sg15
Nsg19
g20
sg48
S'int32'
p320
sg16
I225
sbag1
(g98
g3
NtRp321
(dp322
g43
Nsg46
S'src_addr'
p323
sg15
Nsg19
g20
sg48
S'IPEndPoint?'
p324
sg16
I226
sbag1
(g98
g3
NtRp325
(dp326
g43
Nsg46
S'data'
p327
sg15
Nsg19
g20
sg48
S'mojo_base.mojom.ReadOnlyBuffer?'
p328
sg16
I227
sbasg16
I225
sg19
g20
sbsg15
Nsg19
Nsg16
Nsg107
Nsbasg16
Nsg19
Nsbsg15
Nsg16
Nsg46
S'UDPSocketReceiver'
p329
sg19
Nsbasg16
NsS'module'
p330
g1
(cmojom.parse.ast
Module
p331
g3
NtRp332
(dp333
S'mojom_namespace'
p334
(S'IDENTIFIER'
p335
S'network.mojom'
tp336
sg16
I5
sg15
Nsg19
g20
sbsg19
Nsb.