ccopy_reg
_reconstructor
p1
(cmojom.parse.ast
Mojom
p2
c__builtin__
object
p3
NtRp4
(dp5
S'import_list'
p6
g1
(cmojom.parse.ast
ImportList
p7
g3
NtRp8
(dp9
S'items'
p10
(lp11
g1
(cmojom.parse.ast
Import
p12
g3
NtRp13
(dp14
S'attribute_list'
p15
NsS'lineno'
p16
I7
sS'import_filename'
p17
S'services/network/public/mojom/mutable_network_traffic_annotation_tag.mojom'
p18
sS'filename'
p19
S'../../services/network/public/mojom/url_loader_factory.mojom'
p20
sbag1
(g12
g3
NtRp21
(dp22
g15
Nsg16
I8
sg17
S'services/network/public/mojom/url_loader.mojom'
p23
sg19
g20
sbasg16
I7
sg19
g20
sbsS'definition_list'
p24
(lp25
g1
(cmojom.parse.ast
Const
p26
g3
NtRp27
(dp28
S'mojom_name'
p29
S'kURLLoadOptionNone'
p30
sg15
NsS'value'
p31
S'0'
sg19
NsS'typename'
p32
S'uint32'
p33
sg16
Nsbag1
(g26
g3
NtRp34
(dp35
g29
S'kURLLoadOptionSendSSLInfoWithResponse'
p36
sg15
Nsg31
S'1'
sg19
Nsg32
S'uint32'
p37
sg16
Nsbag1
(g26
g3
NtRp38
(dp39
g29
S'kURLLoadOptionSniffMimeType'
p40
sg15
Nsg31
S'2'
sg19
Nsg32
S'uint32'
p41
sg16
Nsbag1
(g26
g3
NtRp42
(dp43
g29
S'kURLLoadOptionSynchronous'
p44
sg15
Nsg31
S'4'
sg19
Nsg32
S'uint32'
p45
sg16
Nsbag1
(g26
g3
NtRp46
(dp47
g29
S'kURLLoadOptionSendSSLInfoForCertificateError'
p48
sg15
Nsg31
S'8'
sg19
Nsg32
S'uint32'
p49
sg16
Nsbag1
(g26
g3
NtRp50
(dp51
g29
S'kURLLoadOptionPauseOnResponseStarted'
p52
sg15
Nsg31
S'16'
p53
sg19
Nsg32
S'uint32'
p54
sg16
Nsbag1
(g26
g3
NtRp55
(dp56
g29
S'kURLLoadOptionUseHeaderClient'
p57
sg15
Nsg31
S'32'
p58
sg19
Nsg32
S'uint32'
p59
sg16
Nsbag1
(g26
g3
NtRp60
(dp61
g29
S'kURLLoadOptionBlockAllCookies'
p62
sg15
Nsg31
S'64'
p63
sg19
Nsg32
S'uint32'
p64
sg16
Nsbag1
(g26
g3
NtRp65
(dp66
g29
S'kURLLoadOptionBlockThirdPartyCookies'
p67
sg15
Nsg31
S'128'
p68
sg19
Nsg32
S'uint32'
p69
sg16
Nsbag1
(cmojom.parse.ast
Interface
p70
g3
NtRp71
(dp72
S'body'
p73
g1
(cmojom.parse.ast
InterfaceBody
p74
g3
NtRp75
(dp76
g10
(lp77
g1
(cmojom.parse.ast
Method
p78
g3
NtRp79
(dp80
S'ordinal'
p81
Nsg29
S'CreateLoaderAndStart'
p82
sS'parameter_list'
p83
g1
(cmojom.parse.ast
ParameterList
p84
g3
NtRp85
(dp86
g10
(lp87
g1
(cmojom.parse.ast
Parameter
p88
g3
NtRp89
(dp90
g81
Nsg29
S'loader'
p91
sg15
Nsg19
g20
sg32
S'URLLoader&'
p92
sg16
I43
sbag1
(g88
g3
NtRp93
(dp94
g81
Nsg29
S'routing_id'
p95
sg15
Nsg19
g20
sg32
S'int32'
p96
sg16
I44
sbag1
(g88
g3
NtRp97
(dp98
g81
Nsg29
S'request_id'
p99
sg15
Nsg19
g20
sg32
S'int32'
p100
sg16
I45
sbag1
(g88
g3
NtRp101
(dp102
g81
Nsg29
S'options'
p103
sg15
Nsg19
g20
sg32
S'uint32'
p104
sg16
I46
sbag1
(g88
g3
NtRp105
(dp106
g81
Nsg29
S'request'
p107
sg15
Nsg19
g20
sg32
S'URLRequest'
p108
sg16
I47
sbag1
(g88
g3
NtRp109
(dp110
g81
Nsg29
S'client'
p111
sg15
Nsg19
g20
sg32
S'URLLoaderClient'
p112
sg16
I48
sbag1
(g88
g3
NtRp113
(dp114
g81
Nsg29
S'traffic_annotation'
p115
sg15
Nsg19
g20
sg32
S'MutableNetworkTrafficAnnotationTag'
p116
sg16
I49
sbasg16
I43
sg19
g20
sbsg15
Nsg19
Nsg16
NsS'response_parameter_list'
p117
Nsbag1
(g78
g3
NtRp118
(dp119
g81
Nsg29
S'Clone'
p120
sg83
g1
(g84
g3
NtRp121
(dp122
g10
(lp123
g1
(g88
g3
NtRp124
(dp125
g81
Nsg29
S'factory'
p126
sg15
Nsg19
g20
sg32
S'URLLoaderFactory&'
p127
sg16
I52
sbasg16
I52
sg19
g20
sbsg15
Nsg19
Nsg16
Nsg117
Nsbasg16
Nsg19
Nsbsg15
Nsg16
Nsg29
S'URLLoaderFactory'
p128
sg19
Nsbasg16
NsS'module'
p129
g1
(cmojom.parse.ast
Module
p130
g3
NtRp131
(dp132
S'mojom_namespace'
p133
(S'IDENTIFIER'
p134
S'network.mojom'
tp135
sg16
I5
sg15
Nsg19
g20
sbsg19
Nsb.