ccopy_reg
_reconstructor
p1
(cmojom.parse.ast
Mojom
p2
c__builtin__
object
p3
NtRp4
(dp5
S'import_list'
p6
g1
(cmojom.parse.ast
ImportList
p7
g3
NtRp8
(dp9
S'items'
p10
(lp11
g1
(cmojom.parse.ast
Import
p12
g3
NtRp13
(dp14
S'attribute_list'
p15
NsS'lineno'
p16
I7
sS'import_filename'
p17
S'mojo/public/mojom/base/big_buffer.mojom'
p18
sS'filename'
p19
S'../../services/network/public/mojom/url_loader.mojom'
p20
sbag1
(g12
g3
NtRp21
(dp22
g15
Nsg16
I8
sg17
S'mojo/public/mojom/base/file.mojom'
p23
sg19
g20
sbag1
(g12
g3
NtRp24
(dp25
g15
Nsg16
I9
sg17
S'mojo/public/mojom/base/file_path.mojom'
p26
sg19
g20
sbag1
(g12
g3
NtRp27
(dp28
g15
Nsg16
I10
sg17
S'mojo/public/mojom/base/time.mojom'
p29
sg19
g20
sbag1
(g12
g3
NtRp30
(dp31
g15
Nsg16
I11
sg17
S'mojo/public/mojom/base/unguessable_token.mojom'
p32
sg19
g20
sbag1
(g12
g3
NtRp33
(dp34
g15
Nsg16
I12
sg17
S'services/network/public/mojom/cors.mojom'
p35
sg19
g20
sbag1
(g12
g3
NtRp36
(dp37
g15
Nsg16
I13
sg17
S'services/network/public/mojom/chunked_data_pipe_getter.mojom'
p38
sg19
g20
sbag1
(g12
g3
NtRp39
(dp40
g15
Nsg16
I14
sg17
S'services/network/public/mojom/data_pipe_getter.mojom'
p41
sg19
g20
sbag1
(g12
g3
NtRp42
(dp43
g15
Nsg16
I15
sg17
S'services/network/public/mojom/fetch_api.mojom'
p44
sg19
g20
sbag1
(g12
g3
NtRp45
(dp46
g15
Nsg16
I16
sg17
S'services/network/public/mojom/http_request_headers.mojom'
p47
sg19
g20
sbag1
(g12
g3
NtRp48
(dp49
g15
Nsg16
I17
sg17
S'services/network/public/mojom/network_param.mojom'
p50
sg19
g20
sbag1
(g12
g3
NtRp51
(dp52
g15
Nsg16
I18
sg17
S'url/mojom/origin.mojom'
p53
sg19
g20
sbag1
(g12
g3
NtRp54
(dp55
g15
Nsg16
I19
sg17
S'url/mojom/url.mojom'
p56
sg19
g20
sbasg16
I7
sg19
g20
sbsS'definition_list'
p57
(lp58
g1
(cmojom.parse.ast
Struct
p59
g3
NtRp60
(dp61
S'body'
p62
Nsg15
g1
(cmojom.parse.ast
AttributeList
p63
g3
NtRp64
(dp65
g10
(lp66
g1
(cmojom.parse.ast
Attribute
p67
g3
NtRp68
(dp69
S'value'
p70
I01
sg16
I21
sS'key'
p71
S'Native'
p72
sg19
g20
sbasg16
I21
sg19
g20
sbsg16
NsS'mojom_name'
p73
S'URLResponseHead'
p74
sg19
Nsbag1
(g59
g3
NtRp75
(dp76
g62
Nsg15
g1
(g63
g3
NtRp77
(dp78
g10
(lp79
g1
(g67
g3
NtRp80
(dp81
g70
I01
sg16
I24
sg71
S'Native'
p82
sg19
g20
sbasg16
I24
sg19
g20
sbsg16
Nsg73
S'URLRequestRedirectInfo'
p83
sg19
Nsbag1
(g59
g3
NtRp84
(dp85
g62
Nsg15
g1
(g63
g3
NtRp86
(dp87
g10
(lp88
g1
(g67
g3
NtRp89
(dp90
g70
I01
sg16
I27
sg71
S'Native'
p91
sg19
g20
sbasg16
I27
sg19
g20
sbsg16
Nsg73
S'CorsErrorStatus'
p92
sg19
Nsbag1
(g59
g3
NtRp93
(dp94
g62
Nsg15
g1
(g63
g3
NtRp95
(dp96
g10
(lp97
g1
(g67
g3
NtRp98
(dp99
g70
I01
sg16
I30
sg71
S'Native'
p100
sg19
g20
sbasg16
I30
sg19
g20
sbsg16
Nsg73
S'URLLoaderCompletionStatus'
p101
sg19
Nsbag1
(cmojom.parse.ast
Enum
p102
g3
NtRp103
(dp104
g15
NsS'enum_value_list'
p105
g1
(cmojom.parse.ast
EnumValueList
p106
g3
NtRp107
(dp108
g10
(lp109
g1
(cmojom.parse.ast
EnumValue
p110
g3
NtRp111
(dp112
g15
Nsg70
S'0'
sg16
I35
sg73
S'kThrottled'
p113
sg19
g20
sbag1
(g110
g3
NtRp114
(dp115
g15
Nsg70
Nsg16
I36
sg73
S'kIdle'
p116
sg19
g20
sbag1
(g110
g3
NtRp117
(dp118
g15
Nsg70
Nsg16
I37
sg73
S'kLowest'
p119
sg19
g20
sbag1
(g110
g3
NtRp120
(dp121
g15
Nsg70
Nsg16
I38
sg73
S'kLow'
p122
sg19
g20
sbag1
(g110
g3
NtRp123
(dp124
g15
Nsg70
Nsg16
I39
sg73
S'kMedium'
p125
sg19
g20
sbag1
(g110
g3
NtRp126
(dp127
g15
Nsg70
Nsg16
I40
sg73
S'kHighest'
p128
sg19
g20
sbasg16
I35
sg19
g20
sbsg16
I34
sg73
S'RequestPriority'
p129
sg19
g20
sbag1
(g102
g3
NtRp130
(dp131
g15
Nsg105
g1
(g106
g3
NtRp132
(dp133
g10
(lp134
g1
(g110
g3
NtRp135
(dp136
g15
Nsg70
Nsg16
I45
sg73
S'kClearReferrerOnTransitionFromSecureToInsecure'
p137
sg19
g20
sbag1
(g110
g3
NtRp138
(dp139
g15
Nsg70
Nsg16
I46
sg73
S'kReduceReferrerGranularityOnTransitionCrossOrigin'
p140
sg19
g20
sbag1
(g110
g3
NtRp141
(dp142
g15
Nsg70
Nsg16
I47
sg73
S'kOriginOnlyOnTransitionCrossOrigin'
p143
sg19
g20
sbag1
(g110
g3
NtRp144
(dp145
g15
Nsg70
Nsg16
I48
sg73
S'kNeverClearReferrer'
p146
sg19
g20
sbag1
(g110
g3
NtRp147
(dp148
g15
Nsg70
Nsg16
I49
sg73
S'kOrigin'
p149
sg19
g20
sbag1
(g110
g3
NtRp150
(dp151
g15
Nsg70
Nsg16
I50
sg73
S'kClearReferrerOnTransitionCrossOrigin'
p152
sg19
g20
sbag1
(g110
g3
NtRp153
(dp154
g15
Nsg70
Nsg16
I51
sg73
S'kOriginClearOnTransitionFromSecureToInsecure'
p155
sg19
g20
sbag1
(g110
g3
NtRp156
(dp157
g15
Nsg70
Nsg16
I52
sg73
S'kNoReferrer'
p158
sg19
g20
sbasg16
I45
sg19
g20
sbsg16
I44
sg73
S'URLRequestReferrerPolicy'
p159
sg19
g20
sbag1
(g102
g3
NtRp160
(dp161
g15
Nsg105
g1
(g106
g3
NtRp162
(dp163
g10
(lp164
g1
(g110
g3
NtRp165
(dp166
g15
Nsg70
S'-1'
p167
sg16
I58
sg73
S'kUnknown'
p168
sg19
g20
sbag1
(g110
g3
NtRp169
(dp170
g15
Nsg70
Nsg16
I61
sg73
S'kDataPipe'
p171
sg19
g20
sbag1
(g110
g3
NtRp172
(dp173
g15
Nsg70
Nsg16
I62
sg73
S'kChunkedDataPipe'
p174
sg19
g20
sbag1
(g110
g3
NtRp175
(dp176
g15
Nsg70
Nsg16
I63
sg73
S'kRawFile'
p177
sg19
g20
sbag1
(g110
g3
NtRp178
(dp179
g15
Nsg70
Nsg16
I66
sg73
S'kBlob'
p180
sg19
g20
sbag1
(g110
g3
NtRp181
(dp182
g15
Nsg70
Nsg16
I67
sg73
S'kFile'
p183
sg19
g20
sbag1
(g110
g3
NtRp184
(dp185
g15
Nsg70
Nsg16
I70
sg73
S'kBytes'
p186
sg19
g20
sbasg16
I58
sg19
g20
sbsg16
I57
sg73
S'DataElementType'
p187
sg19
g20
sbag1
(g59
g3
NtRp188
(dp189
g62
g1
(cmojom.parse.ast
StructBody
p190
g3
NtRp191
(dp192
g10
(lp193
g1
(cmojom.parse.ast
StructField
p194
g3
NtRp195
(dp196
S'ordinal'
p197
NsS'default_value'
p198
Nsg73
S'method'
p199
sg15
Nsg19
NsS'typename'
p200
S'string'
p201
sg16
Nsbag1
(g194
g3
NtRp202
(dp203
g197
Nsg198
Nsg73
S'url'
p204
sg15
Nsg19
Nsg200
S'url.mojom.Url'
p205
sg16
Nsbag1
(g194
g3
NtRp206
(dp207
g197
Nsg198
Nsg73
S'site_for_cookies'
p208
sg15
Nsg19
Nsg200
S'url.mojom.Url'
p209
sg16
Nsbag1
(g194
g3
NtRp210
(dp211
g197
Nsg198
Nsg73
S'top_frame_origin'
p212
sg15
Nsg19
Nsg200
S'url.mojom.Origin?'
p213
sg16
Nsbag1
(g194
g3
NtRp214
(dp215
g197
Nsg198
Nsg73
S'attach_same_site_cookies'
p216
sg15
Nsg19
Nsg200
S'bool'
p217
sg16
Nsbag1
(g194
g3
NtRp218
(dp219
g197
Nsg198
Nsg73
S'update_first_party_url_on_redirect'
p220
sg15
Nsg19
Nsg200
S'bool'
p221
sg16
Nsbag1
(g194
g3
NtRp222
(dp223
g197
Nsg198
Nsg73
S'request_initiator'
p224
sg15
Nsg19
Nsg200
S'url.mojom.Origin?'
p225
sg16
Nsbag1
(g194
g3
NtRp226
(dp227
g197
Nsg198
Nsg73
S'referrer'
p228
sg15
Nsg19
Nsg200
S'url.mojom.Url'
p229
sg16
Nsbag1
(g194
g3
NtRp230
(dp231
g197
Nsg198
Nsg73
S'referrer_policy'
p232
sg15
Nsg19
Nsg200
S'URLRequestReferrerPolicy'
p233
sg16
Nsbag1
(g194
g3
NtRp234
(dp235
g197
Nsg198
Nsg73
S'is_prerendering'
p236
sg15
Nsg19
Nsg200
S'bool'
p237
sg16
Nsbag1
(g194
g3
NtRp238
(dp239
g197
Nsg198
Nsg73
S'headers'
p240
sg15
Nsg19
Nsg200
S'HttpRequestHeaders'
p241
sg16
Nsbag1
(g194
g3
NtRp242
(dp243
g197
Nsg198
Nsg73
S'cors_exempt_headers'
p244
sg15
Nsg19
Nsg200
S'HttpRequestHeaders'
p245
sg16
Nsbag1
(g194
g3
NtRp246
(dp247
g197
Nsg198
Nsg73
S'load_flags'
p248
sg15
Nsg19
Nsg200
S'int32'
p249
sg16
Nsbag1
(g194
g3
NtRp250
(dp251
g197
Nsg198
Nsg73
S'allow_credentials'
p252
sg15
Nsg19
Nsg200
S'bool'
p253
sg16
Nsbag1
(g194
g3
NtRp254
(dp255
g197
Nsg198
Nsg73
S'plugin_child_id'
p256
sg15
Nsg19
Nsg200
S'int32'
p257
sg16
Nsbag1
(g194
g3
NtRp258
(dp259
g197
Nsg198
Nsg73
S'resource_type'
p260
sg15
Nsg19
Nsg200
S'int32'
p261
sg16
Nsbag1
(g194
g3
NtRp262
(dp263
g197
Nsg198
Nsg73
S'priority'
p264
sg15
Nsg19
Nsg200
S'RequestPriority'
p265
sg16
Nsbag1
(g194
g3
NtRp266
(dp267
g197
Nsg198
Nsg73
S'appcache_host_id'
p268
sg15
Nsg19
Nsg200
S'int32'
p269
sg16
Nsbag1
(g194
g3
NtRp270
(dp271
g197
Nsg198
Nsg73
S'should_reset_appcache'
p272
sg15
Nsg19
Nsg200
S'bool'
p273
sg16
Nsbag1
(g194
g3
NtRp274
(dp275
g197
Nsg198
Nsg73
S'is_external_request'
p276
sg15
Nsg19
Nsg200
S'bool'
p277
sg16
Nsbag1
(g194
g3
NtRp278
(dp279
g197
Nsg198
Nsg73
S'cors_preflight_policy'
p280
sg15
Nsg19
Nsg200
S'CorsPreflightPolicy'
p281
sg16
Nsbag1
(g194
g3
NtRp282
(dp283
g197
Nsg198
Nsg73
S'originated_from_service_worker'
p284
sg15
Nsg19
Nsg200
S'bool'
p285
sg16
Nsbag1
(g194
g3
NtRp286
(dp287
g197
Nsg198
Nsg73
S'skip_service_worker'
p288
sg15
Nsg19
Nsg200
S'bool'
p289
sg16
Nsbag1
(g194
g3
NtRp290
(dp291
g197
Nsg198
S'false'
p292
sg73
S'corb_detachable'
p293
sg15
Nsg19
Nsg200
S'bool'
p294
sg16
Nsbag1
(g194
g3
NtRp295
(dp296
g197
Nsg198
S'false'
p297
sg73
S'corb_excluded'
p298
sg15
Nsg19
Nsg200
S'bool'
p299
sg16
Nsbag1
(g194
g3
NtRp300
(dp301
g197
Nsg198
Nsg73
S'fetch_request_mode'
p302
sg15
Nsg19
Nsg200
S'FetchRequestMode'
p303
sg16
Nsbag1
(g194
g3
NtRp304
(dp305
g197
Nsg198
Nsg73
S'fetch_credentials_mode'
p306
sg15
Nsg19
Nsg200
S'FetchCredentialsMode'
p307
sg16
Nsbag1
(g194
g3
NtRp308
(dp309
g197
Nsg198
Nsg73
S'fetch_redirect_mode'
p310
sg15
Nsg19
Nsg200
S'FetchRedirectMode'
p311
sg16
Nsbag1
(g194
g3
NtRp312
(dp313
g197
Nsg198
Nsg73
S'fetch_integrity'
p314
sg15
Nsg19
Nsg200
S'string'
p315
sg16
Nsbag1
(g194
g3
NtRp316
(dp317
g197
Nsg198
Nsg73
S'fetch_request_context_type'
p318
sg15
Nsg19
Nsg200
S'int32'
p319
sg16
Nsbag1
(g194
g3
NtRp320
(dp321
g197
Nsg198
Nsg73
S'request_body'
p322
sg15
Nsg19
Nsg200
S'URLRequestBody?'
p323
sg16
Nsbag1
(g194
g3
NtRp324
(dp325
g197
Nsg198
Nsg73
S'keepalive'
p326
sg15
Nsg19
Nsg200
S'bool'
p327
sg16
Nsbag1
(g194
g3
NtRp328
(dp329
g197
Nsg198
Nsg73
S'has_user_gesture'
p330
sg15
Nsg19
Nsg200
S'bool'
p331
sg16
Nsbag1
(g194
g3
NtRp332
(dp333
g197
Nsg198
Nsg73
S'enable_load_timing'
p334
sg15
Nsg19
Nsg200
S'bool'
p335
sg16
Nsbag1
(g194
g3
NtRp336
(dp337
g197
Nsg198
Nsg73
S'enable_upload_progress'
p338
sg15
Nsg19
Nsg200
S'bool'
p339
sg16
Nsbag1
(g194
g3
NtRp340
(dp341
g197
Nsg198
Nsg73
S'do_not_prompt_for_login'
p342
sg15
Nsg19
Nsg200
S'bool'
p343
sg16
Nsbag1
(g194
g3
NtRp344
(dp345
g197
Nsg198
Nsg73
S'render_frame_id'
p346
sg15
Nsg19
Nsg200
S'int32'
p347
sg16
Nsbag1
(g194
g3
NtRp348
(dp349
g197
Nsg198
Nsg73
S'is_main_frame'
p350
sg15
Nsg19
Nsg200
S'bool'
p351
sg16
Nsbag1
(g194
g3
NtRp352
(dp353
g197
Nsg198
Nsg73
S'transition_type'
p354
sg15
Nsg19
Nsg200
S'int32'
p355
sg16
Nsbag1
(g194
g3
NtRp356
(dp357
g197
Nsg198
Nsg73
S'allow_download'
p358
sg15
Nsg19
Nsg200
S'bool'
p359
sg16
Nsbag1
(g194
g3
NtRp360
(dp361
g197
Nsg198
Nsg73
S'report_raw_headers'
p362
sg15
Nsg19
Nsg200
S'bool'
p363
sg16
Nsbag1
(g194
g3
NtRp364
(dp365
g197
Nsg198
Nsg73
S'previews_state'
p366
sg15
Nsg19
Nsg200
S'int32'
p367
sg16
Nsbag1
(g194
g3
NtRp368
(dp369
g197
Nsg198
Nsg73
S'initiated_in_secure_context'
p370
sg15
Nsg19
Nsg200
S'bool'
p371
sg16
Nsbag1
(g194
g3
NtRp372
(dp373
g197
Nsg198
Nsg73
S'upgrade_if_insecure'
p374
sg15
Nsg19
Nsg200
S'bool'
p375
sg16
Nsbag1
(g194
g3
NtRp376
(dp377
g197
Nsg198
Nsg73
S'is_revalidating'
p378
sg15
Nsg19
Nsg200
S'bool'
p379
sg16
Nsbag1
(g194
g3
NtRp380
(dp381
g197
Nsg198
Nsg73
S'throttling_profile_id'
p382
sg15
Nsg19
Nsg200
S'mojo_base.mojom.UnguessableToken?'
p383
sg16
Nsbag1
(g194
g3
NtRp384
(dp385
g197
Nsg198
Nsg73
S'custom_proxy_pre_cache_headers'
p386
sg15
Nsg19
Nsg200
S'HttpRequestHeaders'
p387
sg16
Nsbag1
(g194
g3
NtRp388
(dp389
g197
Nsg198
Nsg73
S'custom_proxy_post_cache_headers'
p390
sg15
Nsg19
Nsg200
S'HttpRequestHeaders'
p391
sg16
Nsbag1
(g194
g3
NtRp392
(dp393
g197
Nsg198
Nsg73
S'fetch_window_id'
p394
sg15
Nsg19
Nsg200
S'mojo_base.mojom.UnguessableToken?'
p395
sg16
Nsbag1
(g194
g3
NtRp396
(dp397
g197
Nsg198
Nsg73
S'devtools_request_id'
p398
sg15
Nsg19
Nsg200
S'string?'
p399
sg16
Nsbasg16
Nsg19
Nsbsg15
Nsg16
Nsg73
S'URLRequest'
p400
sg19
Nsbag1
(g59
g3
NtRp401
(dp402
g62
g1
(g190
g3
NtRp403
(dp404
g10
(lp405
g1
(g194
g3
NtRp406
(dp407
g197
Nsg198
Nsg73
S'elements'
p408
sg15
Nsg19
Nsg200
S'DataElement[]'
p409
sg16
Nsbag1
(g194
g3
NtRp410
(dp411
g197
Nsg198
Nsg73
S'identifier'
p412
sg15
Nsg19
Nsg200
S'uint64'
p413
sg16
Nsbag1
(g194
g3
NtRp414
(dp415
g197
Nsg198
Nsg73
S'contains_sensitive_info'
p416
sg15
Nsg19
Nsg200
S'bool'
p417
sg16
Nsbasg16
Nsg19
Nsbsg15
Nsg16
Nsg73
S'URLRequestBody'
p418
sg19
Nsbag1
(g59
g3
NtRp419
(dp420
g62
g1
(g190
g3
NtRp421
(dp422
g10
(lp423
g1
(g194
g3
NtRp424
(dp425
g197
Nsg198
Nsg73
S'type'
p426
sg15
Nsg19
Nsg200
S'DataElementType'
p427
sg16
Nsbag1
(g194
g3
NtRp428
(dp429
g197
Nsg198
Nsg73
S'buf'
p430
sg15
Nsg19
Nsg200
S'uint8[]'
p431
sg16
Nsbag1
(g194
g3
NtRp432
(dp433
g197
Nsg198
Nsg73
S'path'
p434
sg15
Nsg19
Nsg200
S'mojo_base.mojom.FilePath'
p435
sg16
Nsbag1
(g194
g3
NtRp436
(dp437
g197
Nsg198
Nsg73
S'file'
p438
sg15
Nsg19
Nsg200
S'mojo_base.mojom.File?'
p439
sg16
Nsbag1
(g194
g3
NtRp440
(dp441
g197
Nsg198
Nsg73
S'blob_uuid'
p442
sg15
Nsg19
Nsg200
S'string?'
p443
sg16
Nsbag1
(g194
g3
NtRp444
(dp445
g197
Nsg198
Nsg73
S'data_pipe_getter'
p446
sg15
Nsg19
Nsg200
S'network.mojom.DataPipeGetter?'
p447
sg16
Nsbag1
(g194
g3
NtRp448
(dp449
g197
Nsg198
Nsg73
S'chunked_data_pipe_getter'
p450
sg15
Nsg19
Nsg200
S'network.mojom.ChunkedDataPipeGetter?'
p451
sg16
Nsbag1
(g194
g3
NtRp452
(dp453
g197
Nsg198
Nsg73
S'offset'
p454
sg15
Nsg19
Nsg200
S'uint64'
p455
sg16
Nsbag1
(g194
g3
NtRp456
(dp457
g197
Nsg198
Nsg73
S'length'
p458
sg15
Nsg19
Nsg200
S'uint64'
p459
sg16
Nsbag1
(g194
g3
NtRp460
(dp461
g197
Nsg198
Nsg73
S'expected_modification_time'
p462
sg15
Nsg19
Nsg200
S'mojo_base.mojom.Time'
p463
sg16
Nsbasg16
Nsg19
Nsbsg15
Nsg16
Nsg73
S'DataElement'
p464
sg19
Nsbag1
(cmojom.parse.ast
Interface
p465
g3
NtRp466
(dp467
g62
g1
(cmojom.parse.ast
InterfaceBody
p468
g3
NtRp469
(dp470
g10
(lp471
g1
(cmojom.parse.ast
Const
p472
g3
NtRp473
(dp474
g73
S'kClientDisconnectReason'
p475
sg15
Nsg70
S'1'
sg19
Nsg200
S'uint32'
p476
sg16
Nsbag1
(cmojom.parse.ast
Method
p477
g3
NtRp478
(dp479
g197
Nsg73
S'FollowRedirect'
p480
sS'parameter_list'
p481
g1
(cmojom.parse.ast
ParameterList
p482
g3
NtRp483
(dp484
g10
(lp485
g1
(cmojom.parse.ast
Parameter
p486
g3
NtRp487
(dp488
g197
Nsg73
S'removed_headers'
p489
sg15
Nsg19
g20
sg200
S'string[]'
p490
sg16
I389
sbag1
(g486
g3
NtRp491
(dp492
g197
Nsg73
S'modified_headers'
p493
sg15
Nsg19
g20
sg200
S'network.mojom.HttpRequestHeaders'
p494
sg16
I390
sbag1
(g486
g3
NtRp495
(dp496
g197
Nsg73
S'new_url'
p497
sg15
Nsg19
g20
sg200
S'url.mojom.Url?'
p498
sg16
I391
sbasg16
I389
sg19
g20
sbsg15
Nsg19
Nsg16
NsS'response_parameter_list'
p499
Nsbag1
(g477
g3
NtRp500
(dp501
g197
Nsg73
S'ProceedWithResponse'
p502
sg481
g1
(g482
g3
NtRp503
(dp504
g10
(lp505
sg16
Nsg19
Nsbsg15
Nsg19
Nsg16
Nsg499
Nsbag1
(g477
g3
NtRp506
(dp507
g197
Nsg73
S'SetPriority'
p508
sg481
g1
(g482
g3
NtRp509
(dp510
g10
(lp511
g1
(g486
g3
NtRp512
(dp513
g197
Nsg73
S'priority'
p514
sg15
Nsg19
g20
sg200
S'RequestPriority'
p515
sg16
I405
sbag1
(g486
g3
NtRp516
(dp517
g197
Nsg73
S'intra_priority_value'
p518
sg15
Nsg19
g20
sg200
S'int32'
p519
sg16
I405
sbasg16
I405
sg19
g20
sbsg15
Nsg19
Nsg16
Nsg499
Nsbag1
(g477
g3
NtRp520
(dp521
g197
Nsg73
S'PauseReadingBodyFromNet'
p522
sg481
g1
(g482
g3
NtRp523
(dp524
g10
(lp525
sg16
Nsg19
Nsbsg15
Nsg19
Nsg16
Nsg499
Nsbag1
(g477
g3
NtRp526
(dp527
g197
Nsg73
S'ResumeReadingBodyFromNet'
p528
sg481
g1
(g482
g3
NtRp529
(dp530
g10
(lp531
sg16
Nsg19
Nsbsg15
Nsg19
Nsg16
Nsg499
Nsbasg16
Nsg19
Nsbsg15
Nsg16
Nsg73
S'URLLoader'
p532
sg19
Nsbag1
(g465
g3
NtRp533
(dp534
g62
g1
(g468
g3
NtRp535
(dp536
g10
(lp537
g1
(g477
g3
NtRp538
(dp539
g197
Nsg73
S'OnReceiveResponse'
p540
sg481
g1
(g482
g3
NtRp541
(dp542
g10
(lp543
g1
(g486
g3
NtRp544
(dp545
g197
Nsg73
S'head'
p546
sg15
Nsg19
g20
sg200
S'URLResponseHead'
p547
sg16
I428
sbasg16
I428
sg19
g20
sbsg15
Nsg19
Nsg16
Nsg499
Nsbag1
(g477
g3
NtRp548
(dp549
g197
Nsg73
S'OnReceiveRedirect'
p550
sg481
g1
(g482
g3
NtRp551
(dp552
g10
(lp553
g1
(g486
g3
NtRp554
(dp555
g197
Nsg73
S'redirect_info'
p556
sg15
Nsg19
g20
sg200
S'URLRequestRedirectInfo'
p557
sg16
I432
sbag1
(g486
g3
NtRp558
(dp559
g197
Nsg73
S'head'
p560
sg15
Nsg19
g20
sg200
S'URLResponseHead'
p561
sg16
I432
sbasg16
I432
sg19
g20
sbsg15
Nsg19
Nsg16
Nsg499
Nsbag1
(g477
g3
NtRp562
(dp563
g197
Nsg73
S'OnUploadProgress'
p564
sg481
g1
(g482
g3
NtRp565
(dp566
g10
(lp567
g1
(g486
g3
NtRp568
(dp569
g197
Nsg73
S'current_position'
p570
sg15
Nsg19
g20
sg200
S'int64'
p571
sg16
I438
sbag1
(g486
g3
NtRp572
(dp573
g197
Nsg73
S'total_size'
p574
sg15
Nsg19
g20
sg200
S'int64'
p575
sg16
I438
sbasg16
I438
sg19
g20
sbsg15
Nsg19
Nsg16
Nsg499
g1
(g482
g3
NtRp576
(dp577
g10
(lp578
sg16
Nsg19
Nsbsbag1
(g477
g3
NtRp579
(dp580
g197
Nsg73
S'OnReceiveCachedMetadata'
p581
sg481
g1
(g482
g3
NtRp582
(dp583
g10
(lp584
g1
(g486
g3
NtRp585
(dp586
g197
Nsg73
S'data'
p587
sg15
Nsg19
g20
sg200
S'mojo_base.mojom.BigBuffer'
p588
sg16
I441
sbasg16
I441
sg19
g20
sbsg15
Nsg19
Nsg16
Nsg499
Nsbag1
(g477
g3
NtRp589
(dp590
g197
Nsg73
S'OnTransferSizeUpdated'
p591
sg481
g1
(g482
g3
NtRp592
(dp593
g10
(lp594
g1
(g486
g3
NtRp595
(dp596
g197
Nsg73
S'transfer_size_diff'
p597
sg15
Nsg19
g20
sg200
S'int32'
p598
sg16
I455
sbasg16
I455
sg19
g20
sbsg15
Nsg19
Nsg16
Nsg499
Nsbag1
(g477
g3
NtRp599
(dp600
g197
Nsg73
S'OnStartLoadingResponseBody'
p601
sg481
g1
(g482
g3
NtRp602
(dp603
g10
(lp604
g1
(g486
g3
NtRp605
(dp606
g197
Nsg73
S'body'
p607
sg15
Nsg19
g20
sg200
S'handle<data_pipe_consumer>'
p608
sg16
I459
sbasg16
I459
sg19
g20
sbsg15
Nsg19
Nsg16
Nsg499
Nsbag1
(g477
g3
NtRp609
(dp610
g197
Nsg73
S'OnComplete'
p611
sg481
g1
(g482
g3
NtRp612
(dp613
g10
(lp614
g1
(g486
g3
NtRp615
(dp616
g197
Nsg73
S'status'
p617
sg15
Nsg19
g20
sg200
S'URLLoaderCompletionStatus'
p618
sg16
I464
sbasg16
I464
sg19
g20
sbsg15
Nsg19
Nsg16
Nsg499
Nsbasg16
Nsg19
Nsbsg15
Nsg16
Nsg73
S'URLLoaderClient'
p619
sg19
Nsbag1
(g59
g3
NtRp620
(dp621
g62
g1
(g190
g3
NtRp622
(dp623
g10
(lp624
g1
(g194
g3
NtRp625
(dp626
g197
Nsg198
Nsg73
S'url_loader'
p627
sg15
Nsg19
Nsg200
S'URLLoader'
p628
sg16
Nsbag1
(g194
g3
NtRp629
(dp630
g197
Nsg198
Nsg73
S'url_loader_client'
p631
sg15
Nsg19
Nsg200
S'URLLoaderClient&'
p632
sg16
Nsbasg16
Nsg19
Nsbsg15
Nsg16
Nsg73
S'URLLoaderClientEndpoints'
p633
sg19
Nsbasg16
NsS'module'
p634
g1
(cmojom.parse.ast
Module
p635
g3
NtRp636
(dp637
S'mojom_namespace'
p638
(S'IDENTIFIER'
p639
S'network.mojom'
tp640
sg16
I5
sg15
Nsg19
g20
sbsg19
Nsb.