ccopy_reg
_reconstructor
p1
(cmojom.parse.ast
Mojom
p2
c__builtin__
object
p3
NtRp4
(dp5
S'import_list'
p6
g1
(cmojom.parse.ast
ImportList
p7
g3
NtRp8
(dp9
S'items'
p10
(lp11
g1
(cmojom.parse.ast
Import
p12
g3
NtRp13
(dp14
S'attribute_list'
p15
NsS'lineno'
p16
I7
sS'import_filename'
p17
S'url/mojom/url.mojom'
p18
sS'filename'
p19
S'../../services/network/public/mojom/websocket.mojom'
p20
sbag1
(g12
g3
NtRp21
(dp22
g15
Nsg16
I8
sg17
S'services/network/public/mojom/network_param.mojom'
p23
sg19
g20
sbag1
(g12
g3
NtRp24
(dp25
g15
Nsg16
I9
sg17
S'services/network/public/mojom/ip_endpoint.mojom'
p26
sg19
g20
sbasg16
I7
sg19
g20
sbsS'definition_list'
p27
(lp28
g1
(cmojom.parse.ast
Enum
p29
g3
NtRp30
(dp31
g15
NsS'enum_value_list'
p32
g1
(cmojom.parse.ast
EnumValueList
p33
g3
NtRp34
(dp35
g10
(lp36
g1
(cmojom.parse.ast
EnumValue
p37
g3
NtRp38
(dp39
g15
NsS'value'
p40
Nsg16
I12
sS'mojom_name'
p41
S'CONTINUATION'
p42
sg19
g20
sbag1
(g37
g3
NtRp43
(dp44
g15
Nsg40
Nsg16
I13
sg41
S'TEXT'
p45
sg19
g20
sbag1
(g37
g3
NtRp46
(dp47
g15
Nsg40
Nsg16
I14
sg41
S'BINARY'
p48
sg19
g20
sbag1
(g37
g3
NtRp49
(dp50
g15
Nsg40
(S'IDENTIFIER'
p51
S'BINARY'
tp52
sg16
I15
sg41
S'LAST'
p53
sg19
g20
sbasg16
I12
sg19
g20
sbsg16
I11
sg41
S'WebSocketMessageType'
p54
sg19
g20
sbag1
(cmojom.parse.ast
Struct
p55
g3
NtRp56
(dp57
S'body'
p58
g1
(cmojom.parse.ast
StructBody
p59
g3
NtRp60
(dp61
g10
(lp62
g1
(cmojom.parse.ast
StructField
p63
g3
NtRp64
(dp65
S'ordinal'
p66
NsS'default_value'
p67
Nsg41
S'name'
p68
sg15
Nsg19
NsS'typename'
p69
S'string'
p70
sg16
Nsbag1
(g63
g3
NtRp71
(dp72
g66
Nsg67
Nsg41
S'value'
p73
sg15
Nsg19
Nsg69
S'string'
p74
sg16
Nsbasg16
Nsg19
Nsbsg15
Nsg16
Nsg41
S'HttpHeader'
p75
sg19
Nsbag1
(g55
g3
NtRp76
(dp77
g58
g1
(g59
g3
NtRp78
(dp79
g10
(lp80
g1
(g63
g3
NtRp81
(dp82
g66
Nsg67
Nsg41
S'url'
p83
sg15
Nsg19
Nsg69
S'url.mojom.Url'
p84
sg16
Nsbag1
(g63
g3
NtRp85
(dp86
g66
Nsg67
Nsg41
S'headers'
p87
sg15
Nsg19
Nsg69
S'HttpHeader[]'
p88
sg16
Nsbag1
(g63
g3
NtRp89
(dp90
g66
Nsg67
Nsg41
S'headers_text'
p91
sg15
Nsg19
Nsg69
S'string'
p92
sg16
Nsbasg16
Nsg19
Nsbsg15
Nsg16
Nsg41
S'WebSocketHandshakeRequest'
p93
sg19
Nsbag1
(g55
g3
NtRp94
(dp95
g58
g1
(g59
g3
NtRp96
(dp97
g10
(lp98
g1
(g63
g3
NtRp99
(dp100
g66
Nsg67
Nsg41
S'url'
p101
sg15
Nsg19
Nsg69
S'url.mojom.Url'
p102
sg16
Nsbag1
(g63
g3
NtRp103
(dp104
g66
Nsg67
Nsg41
S'http_version'
p105
sg15
Nsg19
Nsg69
S'HttpVersion'
p106
sg16
Nsbag1
(g63
g3
NtRp107
(dp108
g66
Nsg67
Nsg41
S'status_code'
p109
sg15
Nsg19
Nsg69
S'int32'
p110
sg16
Nsbag1
(g63
g3
NtRp111
(dp112
g66
Nsg67
Nsg41
S'status_text'
p113
sg15
Nsg19
Nsg69
S'string'
p114
sg16
Nsbag1
(g63
g3
NtRp115
(dp116
g66
Nsg67
Nsg41
S'remote_endpoint'
p117
sg15
Nsg19
Nsg69
S'IPEndPoint'
p118
sg16
Nsbag1
(g63
g3
NtRp119
(dp120
g66
Nsg67
Nsg41
S'headers'
p121
sg15
Nsg19
Nsg69
S'HttpHeader[]'
p122
sg16
Nsbag1
(g63
g3
NtRp123
(dp124
g66
Nsg67
Nsg41
S'headers_text'
p125
sg15
Nsg19
Nsg69
S'string'
p126
sg16
Nsbasg16
Nsg19
Nsbsg15
Nsg16
Nsg41
S'WebSocketHandshakeResponse'
p127
sg19
Nsbag1
(cmojom.parse.ast
Interface
p128
g3
NtRp129
(dp130
g58
g1
(cmojom.parse.ast
InterfaceBody
p131
g3
NtRp132
(dp133
g10
(lp134
g1
(cmojom.parse.ast
Method
p135
g3
NtRp136
(dp137
g66
Nsg41
S'OnAuthRequired'
p138
sS'parameter_list'
p139
g1
(cmojom.parse.ast
ParameterList
p140
g3
NtRp141
(dp142
g10
(lp143
g1
(cmojom.parse.ast
Parameter
p144
g3
NtRp145
(dp146
g66
Nsg41
S'info'
p147
sg15
Nsg19
g20
sg69
S'AuthChallengeInfo'
p148
sg16
I47
sbag1
(g144
g3
NtRp149
(dp150
g66
Nsg41
S'headers'
p151
sg15
Nsg19
g20
sg69
S'HttpResponseHeaders'
p152
sg16
I48
sbag1
(g144
g3
NtRp153
(dp154
g66
Nsg41
S'remote_endpoint'
p155
sg15
Nsg19
g20
sg69
S'IPEndPoint'
p156
sg16
I49
sbasg16
I47
sg19
g20
sbsg15
Nsg19
Nsg16
NsS'response_parameter_list'
p157
g1
(g140
g3
NtRp158
(dp159
g10
(lp160
g1
(g144
g3
NtRp161
(dp162
g66
Nsg41
S'credentials'
p163
sg15
Nsg19
g20
sg69
S'AuthCredentials?'
p164
sg16
I49
sbasg16
I49
sg19
g20
sbsbasg16
Nsg19
Nsbsg15
Nsg16
Nsg41
S'AuthenticationHandler'
p165
sg19
Nsbag1
(g128
g3
NtRp166
(dp167
g58
g1
(g131
g3
NtRp168
(dp169
g10
(lp170
g1
(g135
g3
NtRp171
(dp172
g66
Nsg41
S'OnFailChannel'
p173
sg139
g1
(g140
g3
NtRp174
(dp175
g10
(lp176
g1
(g144
g3
NtRp177
(dp178
g66
Nsg41
S'reason'
p179
sg15
Nsg19
g20
sg69
S'string'
p180
sg16
I53
sbasg16
I53
sg19
g20
sbsg15
Nsg19
Nsg16
Nsg157
Nsbag1
(g135
g3
NtRp181
(dp182
g66
Nsg41
S'OnStartOpeningHandshake'
p183
sg139
g1
(g140
g3
NtRp184
(dp185
g10
(lp186
g1
(g144
g3
NtRp187
(dp188
g66
Nsg41
S'request'
p189
sg15
Nsg19
g20
sg69
S'WebSocketHandshakeRequest'
p190
sg16
I56
sbasg16
I56
sg19
g20
sbsg15
Nsg19
Nsg16
Nsg157
Nsbag1
(g135
g3
NtRp191
(dp192
g66
Nsg41
S'OnFinishOpeningHandshake'
p193
sg139
g1
(g140
g3
NtRp194
(dp195
g10
(lp196
g1
(g144
g3
NtRp197
(dp198
g66
Nsg41
S'response'
p199
sg15
Nsg19
g20
sg69
S'WebSocketHandshakeResponse'
p200
sg16
I62
sbasg16
I62
sg19
g20
sbsg15
Nsg19
Nsg16
Nsg157
Nsbag1
(g135
g3
NtRp201
(dp202
g66
Nsg41
S'OnAddChannelResponse'
p203
sg139
g1
(g140
g3
NtRp204
(dp205
g10
(lp206
g1
(g144
g3
NtRp207
(dp208
g66
Nsg41
S'selected_protocol'
p209
sg15
Nsg19
g20
sg69
S'string'
p210
sg16
I67
sbag1
(g144
g3
NtRp211
(dp212
g66
Nsg41
S'extensions'
p213
sg15
Nsg19
g20
sg69
S'string'
p214
sg16
I67
sbasg16
I67
sg19
g20
sbsg15
Nsg19
Nsg16
Nsg157
Nsbag1
(g135
g3
NtRp215
(dp216
g66
Nsg41
S'OnDataFrame'
p217
sg139
g1
(g140
g3
NtRp218
(dp219
g10
(lp220
g1
(g144
g3
NtRp221
(dp222
g66
Nsg41
S'fin'
p223
sg15
Nsg19
g20
sg69
S'bool'
p224
sg16
I78
sbag1
(g144
g3
NtRp225
(dp226
g66
Nsg41
S'type'
p227
sg15
Nsg19
g20
sg69
S'WebSocketMessageType'
p228
sg16
I78
sbag1
(g144
g3
NtRp229
(dp230
g66
Nsg41
S'data'
p231
sg15
Nsg19
g20
sg69
S'uint8[]'
p232
sg16
I78
sbasg16
I78
sg19
g20
sbsg15
Nsg19
Nsg16
Nsg157
Nsbag1
(g135
g3
NtRp233
(dp234
g66
Nsg41
S'OnFlowControl'
p235
sg139
g1
(g140
g3
NtRp236
(dp237
g10
(lp238
g1
(g144
g3
NtRp239
(dp240
g66
Nsg41
S'quota'
p241
sg15
Nsg19
g20
sg69
S'int64'
p242
sg16
I86
sbasg16
I86
sg19
g20
sbsg15
Nsg19
Nsg16
Nsg157
Nsbag1
(g135
g3
NtRp243
(dp244
g66
Nsg41
S'OnDropChannel'
p245
sg139
g1
(g140
g3
NtRp246
(dp247
g10
(lp248
g1
(g144
g3
NtRp249
(dp250
g66
Nsg41
S'was_clean'
p251
sg15
Nsg19
g20
sg69
S'bool'
p252
sg16
I102
sbag1
(g144
g3
NtRp253
(dp254
g66
Nsg41
S'code'
p255
sg15
Nsg19
g20
sg69
S'uint16'
p256
sg16
I102
sbag1
(g144
g3
NtRp257
(dp258
g66
Nsg41
S'reason'
p259
sg15
Nsg19
g20
sg69
S'string'
p260
sg16
I102
sbasg16
I102
sg19
g20
sbsg15
Nsg19
Nsg16
Nsg157
Nsbag1
(g135
g3
NtRp261
(dp262
g66
Nsg41
S'OnClosingHandshake'
p263
sg139
g1
(g140
g3
NtRp264
(dp265
g10
(lp266
sg16
Nsg19
Nsbsg15
Nsg19
Nsg16
Nsg157
Nsbasg16
Nsg19
Nsbsg15
Nsg16
Nsg41
S'WebSocketClient'
p267
sg19
Nsbag1
(g128
g3
NtRp268
(dp269
g58
g1
(g131
g3
NtRp270
(dp271
g10
(lp272
g1
(cmojom.parse.ast
Const
p273
g3
NtRp274
(dp275
g41
S'kInsufficientResources'
p276
sg15
Nsg40
S'1'
sg19
Nsg69
S'uint32'
p277
sg16
Nsbag1
(g135
g3
NtRp278
(dp279
g66
Nsg41
S'AddChannelRequest'
p280
sg139
g1
(g140
g3
NtRp281
(dp282
g10
(lp283
g1
(g144
g3
NtRp284
(dp285
g66
Nsg41
S'url'
p286
sg15
Nsg19
g20
sg69
S'url.mojom.Url'
p287
sg16
I122
sbag1
(g144
g3
NtRp288
(dp289
g66
Nsg41
S'requested_protocols'
p290
sg15
Nsg19
g20
sg69
S'string[]'
p291
sg16
I123
sbag1
(g144
g3
NtRp292
(dp293
g66
Nsg41
S'first_party_for_cookies'
p294
sg15
Nsg19
g20
sg69
S'url.mojom.Url'
p295
sg16
I124
sbag1
(g144
g3
NtRp296
(dp297
g66
Nsg41
S'additional_headers'
p298
sg15
Nsg19
g20
sg69
S'HttpHeader[]'
p299
sg16
I125
sbag1
(g144
g3
NtRp300
(dp301
g66
Nsg41
S'client'
p302
sg15
Nsg19
g20
sg69
S'WebSocketClient'
p303
sg16
I126
sbasg16
I122
sg19
g20
sbsg15
Nsg19
Nsg16
Nsg157
Nsbag1
(g135
g3
NtRp304
(dp305
g66
Nsg41
S'SendFrame'
p306
sg139
g1
(g140
g3
NtRp307
(dp308
g10
(lp309
g1
(g144
g3
NtRp310
(dp311
g66
Nsg41
S'fin'
p312
sg15
Nsg19
g20
sg69
S'bool'
p313
sg16
I137
sbag1
(g144
g3
NtRp314
(dp315
g66
Nsg41
S'type'
p316
sg15
Nsg19
g20
sg69
S'WebSocketMessageType'
p317
sg16
I137
sbag1
(g144
g3
NtRp318
(dp319
g66
Nsg41
S'data'
p320
sg15
Nsg19
g20
sg69
S'uint8[]'
p321
sg16
I137
sbasg16
I137
sg19
g20
sbsg15
Nsg19
Nsg16
Nsg157
Nsbag1
(g135
g3
NtRp322
(dp323
g66
Nsg41
S'SendFlowControl'
p324
sg139
g1
(g140
g3
NtRp325
(dp326
g10
(lp327
g1
(g144
g3
NtRp328
(dp329
g66
Nsg41
S'quota'
p330
sg15
Nsg19
g20
sg69
S'int64'
p331
sg16
I145
sbasg16
I145
sg19
g20
sbsg15
Nsg19
Nsg16
Nsg157
Nsbag1
(g135
g3
NtRp332
(dp333
g66
Nsg41
S'StartClosingHandshake'
p334
sg139
g1
(g140
g3
NtRp335
(dp336
g10
(lp337
g1
(g144
g3
NtRp338
(dp339
g66
Nsg41
S'code'
p340
sg15
Nsg19
g20
sg69
S'uint16'
p341
sg16
I156
sbag1
(g144
g3
NtRp342
(dp343
g66
Nsg41
S'reason'
p344
sg15
Nsg19
g20
sg69
S'string'
p345
sg16
I156
sbasg16
I156
sg19
g20
sbsg15
Nsg19
Nsg16
Nsg157
Nsbasg16
Nsg19
Nsbsg15
Nsg16
Nsg41
S'WebSocket'
p346
sg19
Nsbasg16
NsS'module'
p347
g1
(cmojom.parse.ast
Module
p348
g3
NtRp349
(dp350
S'mojom_namespace'
p351
(g51
S'network.mojom'
tp352
sg16
I5
sg15
Nsg19
g20
sbsg19
Nsb.