ccopy_reg
_reconstructor
p1
(cmojom.parse.ast
Mojom
p2
c__builtin__
object
p3
NtRp4
(dp5
S'import_list'
p6
g1
(cmojom.parse.ast
ImportList
p7
g3
NtRp8
(dp9
S'items'
p10
(lp11
g1
(cmojom.parse.ast
Import
p12
g3
NtRp13
(dp14
S'attribute_list'
p15
NsS'lineno'
p16
I7
sS'import_filename'
p17
S'components/services/heap_profiling/public/mojom/heap_profiling_client.mojom'
p18
sS'filename'
p19
S'../../components/services/heap_profiling/public/mojom/heap_profiling_service.mojom'
p20
sbag1
(g12
g3
NtRp21
(dp22
g15
Nsg16
I8
sg17
S'mojo/public/mojom/base/process_id.mojom'
p23
sg19
g20
sbasg16
I7
sg19
g20
sbsS'definition_list'
p24
(lp25
g1
(cmojom.parse.ast
Enum
p26
g3
NtRp27
(dp28
g15
NsS'enum_value_list'
p29
g1
(cmojom.parse.ast
EnumValueList
p30
g3
NtRp31
(dp32
g10
(lp33
g1
(cmojom.parse.ast
EnumValue
p34
g3
NtRp35
(dp36
g15
NsS'value'
p37
S'0'
sg16
I13
sS'mojom_name'
p38
S'OTHER'
p39
sg19
g20
sbag1
(g34
g3
NtRp40
(dp41
g15
Nsg37
S'1'
sg16
I14
sg38
S'BROWSER'
p42
sg19
g20
sbag1
(g34
g3
NtRp43
(dp44
g15
Nsg37
S'2'
sg16
I15
sg38
S'RENDERER'
p45
sg19
g20
sbag1
(g34
g3
NtRp46
(dp47
g15
Nsg37
S'3'
sg16
I16
sg38
S'GPU'
p48
sg19
g20
sbag1
(g34
g3
NtRp49
(dp50
g15
Nsg37
(S'IDENTIFIER'
p51
S'GPU'
tp52
sg16
I17
sg38
S'LAST'
p53
sg19
g20
sbasg16
I13
sg19
g20
sbsg16
I12
sg38
S'ProcessType'
p54
sg19
g20
sbag1
(cmojom.parse.ast
Interface
p55
g3
NtRp56
(dp57
S'body'
p58
g1
(cmojom.parse.ast
InterfaceBody
p59
g3
NtRp60
(dp61
g10
(lp62
g1
(cmojom.parse.ast
Method
p63
g3
NtRp64
(dp65
S'ordinal'
p66
Nsg38
S'AddProfilingClient'
p67
sS'parameter_list'
p68
g1
(cmojom.parse.ast
ParameterList
p69
g3
NtRp70
(dp71
g10
(lp72
g1
(cmojom.parse.ast
Parameter
p73
g3
NtRp74
(dp75
g66
Nsg38
S'pid'
p76
sg15
Nsg19
g20
sS'typename'
p77
S'mojo_base.mojom.ProcessId'
p78
sg16
I27
sbag1
(g73
g3
NtRp79
(dp80
g66
Nsg38
S'client'
p81
sg15
Nsg19
g20
sg77
S'ProfilingClient'
p82
sg16
I27
sbag1
(g73
g3
NtRp83
(dp84
g66
Nsg38
S'process_type'
p85
sg15
Nsg19
g20
sg77
S'ProcessType'
p86
sg16
I28
sbag1
(g73
g3
NtRp87
(dp88
g66
Nsg38
S'params'
p89
sg15
Nsg19
g20
sg77
S'ProfilingParams'
p90
sg16
I28
sbasg16
I27
sg19
g20
sbsg15
Nsg19
Nsg16
NsS'response_parameter_list'
p91
Nsbag1
(g63
g3
NtRp92
(dp93
g66
Nsg38
S'GetProfiledPids'
p94
sg68
g1
(g69
g3
NtRp95
(dp96
g10
(lp97
sg16
Nsg19
Nsbsg15
Nsg19
Nsg16
Nsg91
g1
(g69
g3
NtRp98
(dp99
g10
(lp100
g1
(g73
g3
NtRp101
(dp102
g66
Nsg38
S'pids'
p103
sg15
Nsg19
g20
sg77
S'mojo_base.mojom.ProcessId[]'
p104
sg16
I31
sbasg16
I31
sg19
g20
sbsbasg16
Nsg19
Nsbsg15
Nsg16
Nsg38
S'ProfilingService'
p105
sg19
Nsbasg16
NsS'module'
p106
g1
(cmojom.parse.ast
Module
p107
g3
NtRp108
(dp109
S'mojom_namespace'
p110
(g51
S'heap_profiling.mojom'
tp111
sg16
I5
sg15
Nsg19
g20
sbsg19
Nsb.