ccopy_reg
_reconstructor
p1
(cmojom.parse.ast
Mojom
p2
c__builtin__
object
p3
NtRp4
(dp5
S'import_list'
p6
g1
(cmojom.parse.ast
ImportList
p7
g3
NtRp8
(dp9
S'items'
p10
(lp11
sS'lineno'
p12
NsS'filename'
p13
NsbsS'definition_list'
p14
(lp15
g1
(cmojom.parse.ast
Enum
p16
g3
NtRp17
(dp18
S'attribute_list'
p19
NsS'enum_value_list'
p20
g1
(cmojom.parse.ast
EnumValueList
p21
g3
NtRp22
(dp23
g10
(lp24
g1
(cmojom.parse.ast
EnumValue
p25
g3
NtRp26
(dp27
g19
NsS'value'
p28
Nsg12
I11
sS'mojom_name'
p29
S'NATIVE_WITH_THREAD_NAMES'
p30
sg13
S'../../components/services/heap_profiling/public/mojom/heap_profiling_client.mojom'
p31
sbag1
(g25
g3
NtRp32
(dp33
g19
Nsg28
Nsg12
I14
sg29
S'NATIVE_WITHOUT_THREAD_NAMES'
p34
sg13
g31
sbag1
(g25
g3
NtRp35
(dp36
g19
Nsg28
Nsg12
I17
sg29
S'PSEUDO'
p37
sg13
g31
sbag1
(g25
g3
NtRp38
(dp39
g19
Nsg28
Nsg12
I20
sg29
S'MIXED'
p40
sg13
g31
sbasg12
I11
sg13
g31
sbsg12
I8
sg29
S'StackMode'
p41
sg13
g31
sbag1
(g16
g3
NtRp42
(dp43
g19
Nsg20
g1
(g21
g3
NtRp44
(dp45
g10
(lp46
g1
(g25
g3
NtRp47
(dp48
g19
Nsg28
Nsg12
I25
sg29
S'kMalloc'
p49
sg13
g31
sbag1
(g25
g3
NtRp50
(dp51
g19
Nsg28
Nsg12
I26
sg29
S'kPartitionAlloc'
p52
sg13
g31
sbag1
(g25
g3
NtRp53
(dp54
g19
Nsg28
Nsg12
I27
sg29
S'kOilpan'
p55
sg13
g31
sbasg12
I25
sg13
g31
sbsg12
I24
sg29
S'AllocatorType'
p56
sg13
g31
sbag1
(cmojom.parse.ast
Struct
p57
g3
NtRp58
(dp59
S'body'
p60
g1
(cmojom.parse.ast
StructBody
p61
g3
NtRp62
(dp63
g10
(lp64
g1
(cmojom.parse.ast
StructField
p65
g3
NtRp66
(dp67
S'ordinal'
p68
NsS'default_value'
p69
Nsg29
S'stack_mode'
p70
sg19
Nsg13
NsS'typename'
p71
S'StackMode'
p72
sg12
Nsbag1
(g65
g3
NtRp73
(dp74
g68
Nsg69
Nsg29
S'sampling_rate'
p75
sg19
Nsg13
Nsg71
S'uint32'
p76
sg12
Nsbasg12
Nsg13
Nsbsg19
Nsg12
Nsg29
S'ProfilingParams'
p77
sg13
Nsbag1
(g57
g3
NtRp78
(dp79
g60
g1
(g61
g3
NtRp80
(dp81
g10
(lp82
g1
(g65
g3
NtRp83
(dp84
g68
Nsg69
Nsg29
S'allocator'
p85
sg19
Nsg13
Nsg71
S'AllocatorType'
p86
sg12
Nsbag1
(g65
g3
NtRp87
(dp88
g68
Nsg69
Nsg29
S'size'
p89
sg19
Nsg13
Nsg71
S'uint64'
p90
sg12
Nsbag1
(g65
g3
NtRp91
(dp92
g68
Nsg69
Nsg29
S'context_id'
p93
sg19
Nsg13
Nsg71
S'uint64'
p94
sg12
Nsbag1
(g65
g3
NtRp95
(dp96
g68
Nsg69
Nsg29
S'stack'
p97
sg19
Nsg13
Nsg71
S'uint64[]'
p98
sg12
Nsbasg12
Nsg13
Nsbsg19
Nsg12
Nsg29
S'HeapProfileSample'
p99
sg13
Nsbag1
(g57
g3
NtRp100
(dp101
g60
g1
(g61
g3
NtRp102
(dp103
g10
(lp104
g1
(g65
g3
NtRp105
(dp106
g68
Nsg69
Nsg29
S'samples'
p107
sg19
Nsg13
Nsg71
S'HeapProfileSample[]'
p108
sg12
Nsbag1
(g65
g3
NtRp109
(dp110
g68
Nsg69
Nsg29
S'strings'
p111
sg19
Nsg13
Nsg71
S'string{uint64}'
p112
sg12
Nsbasg12
Nsg13
Nsbsg19
Nsg12
Nsg29
S'HeapProfile'
p113
sg13
Nsbag1
(cmojom.parse.ast
Interface
p114
g3
NtRp115
(dp116
g60
g1
(cmojom.parse.ast
InterfaceBody
p117
g3
NtRp118
(dp119
g10
(lp120
g1
(cmojom.parse.ast
Method
p121
g3
NtRp122
(dp123
g68
Nsg29
S'StartProfiling'
p124
sS'parameter_list'
p125
g1
(cmojom.parse.ast
ParameterList
p126
g3
NtRp127
(dp128
g10
(lp129
g1
(cmojom.parse.ast
Parameter
p130
g3
NtRp131
(dp132
g68
Nsg29
S'params'
p133
sg19
Nsg13
g31
sg71
S'ProfilingParams'
p134
sg12
I80
sbasg12
I80
sg13
g31
sbsg19
Nsg13
Nsg12
NsS'response_parameter_list'
p135
Nsbag1
(g121
g3
NtRp136
(dp137
g68
Nsg29
S'RetrieveHeapProfile'
p138
sg125
g1
(g126
g3
NtRp139
(dp140
g10
(lp141
sg12
Nsg13
Nsbsg19
Nsg13
Nsg12
Nsg135
g1
(g126
g3
NtRp142
(dp143
g10
(lp144
g1
(g130
g3
NtRp145
(dp146
g68
Nsg29
S'profile'
p147
sg19
Nsg13
g31
sg71
S'HeapProfile'
p148
sg12
I82
sbasg12
I82
sg13
g31
sbsbasg12
Nsg13
Nsbsg19
Nsg12
Nsg29
S'ProfilingClient'
p149
sg13
Nsbasg12
NsS'module'
p150
g1
(cmojom.parse.ast
Module
p151
g3
NtRp152
(dp153
S'mojom_namespace'
p154
(S'IDENTIFIER'
p155
S'heap_profiling.mojom'
tp156
sg12
I5
sg19
Nsg13
g31
sbsg13
Nsb.