ccopy_reg
_reconstructor
p1
(cmojom.parse.ast
Mojom
p2
c__builtin__
object
p3
NtRp4
(dp5
S'import_list'
p6
g1
(cmojom.parse.ast
ImportList
p7
g3
NtRp8
(dp9
S'items'
p10
(lp11
sS'lineno'
p12
NsS'filename'
p13
NsbsS'definition_list'
p14
(lp15
g1
(cmojom.parse.ast
Const
p16
g3
NtRp17
(dp18
S'mojom_name'
p19
S'kRoutingIdNone'
p20
sS'attribute_list'
p21
NsS'value'
p22
S'-2'
p23
sg13
NsS'typename'
p24
S'int32'
p25
sg12
Nsbasg12
NsS'module'
p26
g1
(cmojom.parse.ast
Module
p27
g3
NtRp28
(dp29
S'mojom_namespace'
p30
(S'IDENTIFIER'
p31
S'IPC.mojom'
tp32
sg12
I5
sg21
Nsg13
S'../../ipc/constants.mojom'
p33
sbsg13
Nsb.