ccopy_reg
_reconstructor
p1
(cmojom.parse.ast
Mojom
p2
c__builtin__
object
p3
NtRp4
(dp5
S'import_list'
p6
g1
(cmojom.parse.ast
ImportList
p7
g3
NtRp8
(dp9
S'items'
p10
(lp11
g1
(cmojom.parse.ast
Import
p12
g3
NtRp13
(dp14
S'attribute_list'
p15
NsS'lineno'
p16
I7
sS'import_filename'
p17
S'mojo/public/mojom/base/big_buffer.mojom'
p18
sS'filename'
p19
S'../../ipc/ipc.mojom'
p20
sbag1
(g12
g3
NtRp21
(dp22
g15
Nsg16
I8
sg17
S'mojo/public/interfaces/bindings/native_struct.mojom'
p23
sg19
g20
sbasg16
I7
sg19
g20
sbsS'definition_list'
p24
(lp25
g1
(cmojom.parse.ast
Interface
p26
g3
NtRp27
(dp28
S'body'
p29
g1
(cmojom.parse.ast
InterfaceBody
p30
g3
NtRp31
(dp32
g10
(lp33
sg16
Nsg19
Nsbsg15
Nsg16
NsS'mojom_name'
p34
S'GenericInterface'
p35
sg19
Nsbag1
(cmojom.parse.ast
Struct
p36
g3
NtRp37
(dp38
g29
g1
(cmojom.parse.ast
StructBody
p39
g3
NtRp40
(dp41
g10
(lp42
g1
(cmojom.parse.ast
StructField
p43
g3
NtRp44
(dp45
S'ordinal'
p46
NsS'default_value'
p47
Nsg34
S'buffer'
p48
sg15
Nsg19
NsS'typename'
p49
S'mojo_base.mojom.BigBuffer'
p50
sg16
Nsbag1
(g43
g3
NtRp51
(dp52
g46
Nsg47
Nsg34
S'handles'
p53
sg15
Nsg19
Nsg49
S'mojo.native.SerializedHandle[]?'
p54
sg16
Nsbasg16
Nsg19
Nsbsg15
Nsg16
Nsg34
S'Message'
p55
sg19
Nsbag1
(g26
g3
NtRp56
(dp57
g29
g1
(g30
g3
NtRp58
(dp59
g10
(lp60
g1
(cmojom.parse.ast
Method
p61
g3
NtRp62
(dp63
g46
Nsg34
S'SetPeerPid'
p64
sS'parameter_list'
p65
g1
(cmojom.parse.ast
ParameterList
p66
g3
NtRp67
(dp68
g10
(lp69
g1
(cmojom.parse.ast
Parameter
p70
g3
NtRp71
(dp72
g46
Nsg34
S'pid'
p73
sg15
Nsg19
g20
sg49
S'int32'
p74
sg16
I24
sbasg16
I24
sg19
g20
sbsg15
Nsg19
Nsg16
NsS'response_parameter_list'
p75
Nsbag1
(g61
g3
NtRp76
(dp77
g46
Nsg34
S'Receive'
p78
sg65
g1
(g66
g3
NtRp79
(dp80
g10
(lp81
g1
(g70
g3
NtRp82
(dp83
g46
Nsg34
S'message'
p84
sg15
Nsg19
g20
sg49
S'Message'
p85
sg16
I27
sbasg16
I27
sg19
g20
sbsg15
Nsg19
Nsg16
Nsg75
Nsbag1
(g61
g3
NtRp86
(dp87
g46
Nsg34
S'GetAssociatedInterface'
p88
sg65
g1
(g66
g3
NtRp89
(dp90
g10
(lp91
g1
(g70
g3
NtRp92
(dp93
g46
Nsg34
S'name'
p94
sg15
Nsg19
g20
sg49
S'string'
p95
sg16
I30
sbag1
(g70
g3
NtRp96
(dp97
g46
Nsg34
S'request'
p98
sg15
Nsg19
g20
sg49
S'asso<GenericInterface&>'
p99
sg16
I30
sbasg16
I30
sg19
g20
sbsg15
Nsg19
Nsg16
Nsg75
Nsbasg16
Nsg19
Nsbsg15
Nsg16
Nsg34
S'Channel'
p100
sg19
Nsbag1
(g26
g3
NtRp101
(dp102
g29
g1
(g30
g3
NtRp103
(dp104
g10
(lp105
sg16
Nsg19
Nsbsg15
Nsg16
Nsg34
S'ChannelBootstrap'
p106
sg19
Nsbasg16
NsS'module'
p107
g1
(cmojom.parse.ast
Module
p108
g3
NtRp109
(dp110
S'mojom_namespace'
p111
(S'IDENTIFIER'
p112
S'IPC.mojom'
tp113
sg16
I5
sg15
Nsg19
g20
sbsg19
Nsb.