(dp1
S'enumerations'
p2
(dp3
S'CaptionCharacterEdgeStyle'
p4
(dp5
S'values'
p6
ccopy_reg
_reconstructor
p7
(cidl_definitions
IdlEnum
p8
c__builtin__
object
p9
NtRp10
(dp11
g6
(lp12
S'none'
p13
aS'raised'
p14
aS'depressed'
p15
aS'uniform'
p16
aS'drop-shadow'
p17
asS'name'
p18
g4
sbsS'full_path'
p19
S'/home/avakimov_am/chromium/cobalt/src/cobalt/dom/captions/caption_character_edge_style.idl'
p20
ssS'MediaKeysRequirement'
p21
(dp22
g6
g7
(g8
g9
NtRp23
(dp24
g6
(lp25
S'required'
p26
aS'optional'
p27
aS'not-allowed'
p28
asg18
g21
sbsg19
S'/home/avakimov_am/chromium/cobalt/src/cobalt/dom/eme/media_keys_requirement.idl'
p29
ssS'CaptionState'
p30
(dp31
g6
g7
(g8
g9
NtRp32
(dp33
g6
(lp34
S'unsupported'
p35
aS'unset'
p36
aS'set'
p37
aS'override'
p38
asg18
g30
sbsg19
S'/home/avakimov_am/chromium/cobalt/src/cobalt/dom/captions/caption_state.idl'
p39
ssS'DocumentReadyState'
p40
(dp41
g6
g7
(g8
g9
NtRp42
(dp43
g6
(lp44
S'loading'
p45
aS'interactive'
p46
aS'complete'
p47
asg18
g40
sbsg19
S'/home/avakimov_am/chromium/cobalt/src/cobalt/dom/document_ready_state.idl'
p48
ssS'SourceBufferAppendMode'
p49
(dp50
g6
g7
(g8
g9
NtRp51
(dp52
g6
(lp53
S'segments'
p54
aS'sequence'
p55
asg18
g49
sbsg19
S'/home/avakimov_am/chromium/cobalt/src/cobalt/dom/source_buffer_append_mode.idl'
p56
ssS'DOMParserSupportedType'
p57
(dp58
g6
g7
(g8
g9
NtRp59
(dp60
g6
(lp61
S'text/html'
p62
aS'text/xml'
p63
aS'application/xml'
p64
aS'application/xhtml+xml'
p65
aS'image/svg+xml'
p66
asg18
g57
sbsg19
S'/home/avakimov_am/chromium/cobalt/src/cobalt/dom/dom_parser_supported_type.idl'
p67
ssS'MediaSourceEndOfStreamError'
p68
(dp69
g6
g7
(g8
g9
NtRp70
(dp71
g6
(lp72
S'network'
p73
aS'decode'
p74
aS'no-error'
p75
asg18
g68
sbsg19
S'/home/avakimov_am/chromium/cobalt/src/cobalt/dom/media_source_end_of_stream_error.idl'
p76
ssS'SpeechRecognitionErrorCode'
p77
(dp78
g6
g7
(g8
g9
NtRp79
(dp80
g6
(lp81
S'no-speech'
p82
aS'aborted'
p83
aS'audio-capture'
p84
aS'network'
p85
aS'not-allowed'
p86
aS'service-not-allowed'
p87
aS'bad-grammar'
p88
aS'language-not-supported'
p89
asg18
g77
sbsg19
S'/home/avakimov_am/chromium/cobalt/src/cobalt/speech/speech_recognition_error_code.idl'
p90
ssS'CaptionOpacityPercentage'
p91
(dp92
g6
g7
(g8
g9
NtRp93
(dp94
g6
(lp95
S'0'
aS'25'
p96
aS'50'
p97
aS'75'
p98
aS'100'
p99
asg18
g91
sbsg19
S'/home/avakimov_am/chromium/cobalt/src/cobalt/dom/captions/caption_opacity_percentage.idl'
p100
ssS'MediaKeyStatus'
p101
(dp102
g6
g7
(g8
g9
NtRp103
(dp104
g6
(lp105
S'usable'
p106
aS'expired'
p107
aS'released'
p108
aS'output-restricted'
p109
aS'output-downscaled'
p110
aS'status-pending'
p111
aS'internal-error'
p112
asg18
g101
sbsg19
S'/home/avakimov_am/chromium/cobalt/src/cobalt/dom/eme/media_key_status.idl'
p113
ssS'MediaSessionPlaybackState'
p114
(dp115
g6
g7
(g8
g9
NtRp116
(dp117
g6
(lp118
S'none'
p119
aS'paused'
p120
aS'playing'
p121
asg18
g114
sbsg19
S'/home/avakimov_am/chromium/cobalt/src/cobalt/media_session/media_session_playback_state.idl'
p122
ssS'CaptionFontFamily'
p123
(dp124
g6
g7
(g8
g9
NtRp125
(dp126
g6
(lp127
S'casual'
p128
aS'cursive'
p129
aS'monospace-sans-serif'
p130
aS'monospace-serif'
p131
aS'proportional-sans-serif'
p132
aS'proportional-serif'
p133
aS'small-capitals'
p134
asg18
g123
sbsg19
S'/home/avakimov_am/chromium/cobalt/src/cobalt/dom/captions/caption_font_family.idl'
p135
ssS'MediaKeySessionType'
p136
(dp137
g6
g7
(g8
g9
NtRp138
(dp139
g6
(lp140
S'temporary'
p141
asg18
g136
sbsg19
S'/home/avakimov_am/chromium/cobalt/src/cobalt/dom/eme/media_key_session_type.idl'
p142
ssS'RecordingState'
p143
(dp144
g6
g7
(g8
g9
NtRp145
(dp146
g6
(lp147
S'inactive'
p148
aS'recording'
p149
aS'paused'
p150
asg18
g143
sbsg19
S'/home/avakimov_am/chromium/cobalt/src/cobalt/media_capture/recording_state.idl'
p151
ssS'AudioNodeChannelInterpretation'
p152
(dp153
g6
g7
(g8
g9
NtRp154
(dp155
g6
(lp156
S'speakers'
p157
aS'discrete'
p158
asg18
g152
sbsg19
S'/home/avakimov_am/chromium/cobalt/src/cobalt/audio/audio_node_channel_interpretation.idl'
p159
ssS'TrackDefaultType'
p160
(dp161
g6
g7
(g8
g9
NtRp162
(dp163
g6
(lp164
S'audio'
p165
aS'video'
p166
aS'text'
p167
asg18
g160
sbsg19
S'/home/avakimov_am/chromium/cobalt/src/cobalt/dom/track_default_type.idl'
p168
ssS'MediaSourceReadyState'
p169
(dp170
g6
g7
(g8
g9
NtRp171
(dp172
g6
(lp173
S'closed'
p174
aS'open'
p175
aS'ended'
p176
asg18
g169
sbsg19
S'/home/avakimov_am/chromium/cobalt/src/cobalt/dom/media_source_ready_state.idl'
p177
ssS'MediaSessionAction'
p178
(dp179
g6
g7
(g8
g9
NtRp180
(dp181
g6
(lp182
S'play'
p183
aS'pause'
p184
aS'seek'
p185
aS'seekbackward'
p186
aS'seekforward'
p187
aS'previoustrack'
p188
aS'nexttrack'
p189
aS'num-actions'
p190
asg18
g178
sbsg19
S'/home/avakimov_am/chromium/cobalt/src/cobalt/media_session/media_session_action.idl'
p191
ssS'CaptionFontSizePercentage'
p192
(dp193
g6
g7
(g8
g9
NtRp194
(dp195
g6
(lp196
S'25'
p197
aS'50'
p198
aS'75'
p199
aS'100'
p200
aS'125'
p201
aS'150'
p202
aS'175'
p203
aS'200'
p204
aS'225'
p205
aS'250'
p206
aS'275'
p207
aS'300'
p208
asg18
g192
sbsg19
S'/home/avakimov_am/chromium/cobalt/src/cobalt/dom/captions/caption_font_size_percentage.idl'
p209
ssS'AudioNodeChannelCountMode'
p210
(dp211
g6
g7
(g8
g9
NtRp212
(dp213
g6
(lp214
S'max'
p215
aS'clamped-max'
p216
aS'explicit'
p217
asg18
g210
sbsg19
S'/home/avakimov_am/chromium/cobalt/src/cobalt/audio/audio_node_channel_count_mode.idl'
p218
ssS'VisibilityState'
p219
(dp220
g6
g7
(g8
g9
NtRp221
(dp222
g6
(lp223
S'hidden'
p224
aS'visible'
p225
aS'prerender'
p226
asg18
g219
sbsg19
S'/home/avakimov_am/chromium/cobalt/src/cobalt/page_visibility/visibility_state.idl'
p227
ssS'AnimationFillMode'
p228
(dp229
g6
g7
(g8
g9
NtRp230
(dp231
g6
(lp232
S'none'
p233
aS'forwards'
p234
aS'backwards'
p235
aS'both'
p236
asg18
g228
sbsg19
S'/home/avakimov_am/chromium/cobalt/src/cobalt/web_animations/animation_fill_mode.idl'
p237
ssS'AnimationPlaybackDirection'
p238
(dp239
g6
g7
(g8
g9
NtRp240
(dp241
g6
(lp242
S'normal'
p243
aS'reverse'
p244
aS'alternate'
p245
aS'alternate-reverse'
p246
asg18
g238
sbsg19
S'/home/avakimov_am/chromium/cobalt/src/cobalt/web_animations/animation_playback_direction.idl'
p247
ssS'MediaKeyMessageType'
p248
(dp249
g6
g7
(g8
g9
NtRp250
(dp251
g6
(lp252
S'license-request'
p253
aS'license-renewal'
p254
aS'license-release'
p255
aS'individualization-request'
p256
asg18
g248
sbsg19
S'/home/avakimov_am/chromium/cobalt/src/cobalt/dom/eme/media_key_message_type.idl'
p257
ssS'MediaDeviceKind'
p258
(dp259
g6
g7
(g8
g9
NtRp260
(dp261
g6
(lp262
S'audioinput'
p263
aS'audiooutput'
p264
aS'videoinput'
p265
asg18
g258
sbsg19
S'/home/avakimov_am/chromium/cobalt/src/cobalt/media_capture/media_device_kind.idl'
p266
ssS'CaptionColor'
p267
(dp268
g6
g7
(g8
g9
NtRp269
(dp270
g6
(lp271
S'black'
p272
aS'blue'
p273
aS'cyan'
p274
aS'green'
p275
aS'magenta'
p276
aS'red'
p277
aS'white'
p278
aS'yellow'
p279
asg18
g267
sbsg19
S'/home/avakimov_am/chromium/cobalt/src/cobalt/dom/captions/caption_color.idl'
p280
ssS'SpeechSynthesisErrorCode'
p281
(dp282
g6
g7
(g8
g9
NtRp283
(dp284
g6
(lp285
S'canceled'
p286
aS'interrupted'
p287
aS'audio-busy'
p288
aS'audio-hardware'
p289
aS'network'
p290
aS'synthesis-unavailable'
p291
aS'synthesis-failed'
p292
aS'language-unavailable'
p293
aS'voice-unavailable'
p294
aS'text-too-long'
p295
aS'invalid-argument'
p296
asg18
g281
sbsg19
S'/home/avakimov_am/chromium/cobalt/src/cobalt/speech/speech_synthesis_error_code.idl'
p297
sssS'union_types'
p298
c__builtin__
set
p299
((lp300
g7
(cidl_types
IdlUnionType
p301
g9
NtRp302
(dp303
S'member_types'
p304
(lp305
g7
(cidl_types
IdlType
p306
g9
NtRp307
(dp308
S'base_type'
p309
S'AudioTrack'
p310
sbag7
(g306
g9
NtRp311
(dp312
g309
S'VideoTrack'
p313
sbasbag7
(cidl_types
IdlNullableType
p314
g9
NtRp315
(dp316
S'inner_type'
p317
g7
(g301
g9
NtRp318
(dp319
g304
(lp320
g7
(g306
g9
NtRp321
(dp322
g309
S'DOMString'
p323
sbag7
(g306
g9
NtRp324
(dp325
g309
S'ArrayBufferView'
p326
sbag7
(g306
g9
NtRp327
(dp328
g309
S'ArrayBuffer'
p329
sbasbsbag7
(g301
g9
NtRp330
(dp331
g304
(lp332
g7
(g306
g9
NtRp333
(dp334
g309
S'ArrayBufferView'
p335
sbag7
(g306
g9
NtRp336
(dp337
g309
S'ArrayBuffer'
p338
sbasbag7
(g314
g9
NtRp339
(dp340
g317
g7
(g301
g9
NtRp341
(dp342
g304
(lp343
g7
(g306
g9
NtRp344
(dp345
g309
S'DOMString'
p346
sbag7
(g306
g9
NtRp347
(dp348
g309
S'ArrayBufferView'
p349
sbag7
(g306
g9
NtRp350
(dp351
g309
S'ArrayBuffer'
p352
sbasbsbag7
(g301
g9
NtRp353
(dp354
g304
(lp355
g7
(g306
g9
NtRp356
(dp357
g309
S'Event'
p358
sbag7
(g306
g9
NtRp359
(dp360
g309
S'DOMString'
p361
sbasbag7
(g301
g9
NtRp362
(dp363
g304
(lp364
g7
(g306
g9
NtRp365
(dp366
g309
S'unrestricted double'
p367
sbag7
(g306
g9
NtRp368
(dp369
g309
S'DOMString'
p370
sbasbag7
(g301
g9
NtRp371
(dp372
g304
(lp373
g7
(g306
g9
NtRp374
(dp375
g309
S'ArrayBuffer'
p376
sbag7
(g306
g9
NtRp377
(dp378
g309
S'ArrayBufferView'
p379
sbag7
(g306
g9
NtRp380
(dp381
g309
S'DataView'
p382
sbag7
(g306
g9
NtRp383
(dp384
g309
S'Blob'
p385
sbag7
(g306
g9
NtRp386
(dp387
g309
S'USVString'
p388
sbasbag318
ag7
(g301
g9
NtRp389
(dp390
g304
(lp391
g7
(g306
g9
NtRp392
(dp393
g309
S'DOMString'
p394
sbag7
(g306
g9
NtRp395
(dp396
g309
S'ArrayBuffer'
p397
sbasbag7
(g314
g9
NtRp398
(dp399
g317
g302
sbatRp400
sS'typedefs'
p401
(dp402
S'EventHandler'
p403
g7
(cidl_definitions
IdlTypedef
p404
g9
NtRp405
(dp406
S'idl_type'
p407
g7
(g314
g9
NtRp408
(dp409
g317
g7
(g306
g9
NtRp410
(dp411
g309
S'EventListener'
p412
sbsbsg18
S'EventHandler'
p413
sbsS'BufferSource'
p414
g7
(g404
g9
NtRp415
(dp416
g407
g330
sg18
g414
sbsS'OnErrorEventHandler'
p417
g7
(g404
g9
NtRp418
(dp419
g407
g7
(g314
g9
NtRp420
(dp421
g317
g7
(g306
g9
NtRp422
(dp423
g309
S'OnErrorEventListener'
p424
sbsbsg18
g417
sbsS'DOMTimeStamp'
p425
g7
(g404
g9
NtRp426
(dp427
g407
g7
(g306
g9
NtRp428
(dp429
g309
S'unsigned long long'
p430
sbsg18
g425
sbsS'DOMHighResTimeStamp'
p431
g7
(g404
g9
NtRp432
(dp433
g407
g7
(g306
g9
NtRp434
(dp435
g309
S'double'
p436
sbsg18
S'DOMHighResTimeStamp'
p437
sbssS'callback_functions'
p438
(dp439
S'DialHttpRequestCallback'
p440
(dp441
S'component_dir'
p442
S'cobalt'
p443
sS'callback_function'
p444
g7
(cidl_definitions
IdlCallbackFunction
p445
g9
NtRp446
(dp447
g407
g7
(g306
g9
NtRp448
(dp449
g309
S'boolean'
p450
sbsg18
g440
sS'extended_attributes'
p451
(dp452
sS'arguments'
p453
(lp454
g7
(cidl_definitions
IdlArgument
p455
g9
NtRp456
(dp457
S'default_value'
p458
Nsg18
S'req'
p459
sg451
(dp460
sg407
g7
(g306
g9
NtRp461
(dp462
g309
S'DialHttpRequest'
p463
sbsS'is_optional'
p464
NsS'is_variadic'
p465
I00
sbag7
(g455
g9
NtRp466
(dp467
g458
Nsg18
S'response'
p468
sg451
(dp469
sg407
g7
(g306
g9
NtRp470
(dp471
g309
S'DialHttpResponse'
p472
sbsg464
Nsg465
I00
sbasbsg19
S'/home/avakimov_am/chromium/cobalt/src/cobalt/h5vcc/dial/dial_server.idl'
p473
ssS'H5vccDeepLinkEventCallback'
p474
(dp475
g442
S'cobalt'
p476
sg444
g7
(g445
g9
NtRp477
(dp478
g407
g7
(g306
g9
NtRp479
(dp480
g309
S'void'
p481
sbsg18
g474
sg451
(dp482
sg453
(lp483
g7
(g455
g9
NtRp484
(dp485
g458
Nsg18
S'link'
p486
sg451
(dp487
sg407
g7
(g306
g9
NtRp488
(dp489
g309
S'DOMString'
p490
sbsg464
Nsg465
I00
sbasbsg19
S'/home/avakimov_am/chromium/cobalt/src/cobalt/h5vcc/h5vcc_deep_link_event_target.idl'
p491
ssS'AccessTokenCallback'
p492
(dp493
g442
S'cobalt'
p494
sg444
g7
(g445
g9
NtRp495
(dp496
g407
g7
(g306
g9
NtRp497
(dp498
g309
S'boolean'
p499
sbsg18
g492
sg451
(dp500
sg453
(lp501
g7
(g455
g9
NtRp502
(dp503
g458
Nsg18
S'token'
p504
sg451
(dp505
sg407
g7
(g306
g9
NtRp506
(dp507
g309
S'DOMString'
p508
sbsg464
Nsg465
I00
sbag7
(g455
g9
NtRp509
(dp510
g458
Nsg18
S'expiration'
p511
sg451
(dp512
sg407
g7
(g306
g9
NtRp513
(dp514
g309
S'unsigned long long'
p515
sbsg464
Nsg465
I00
sbasbsg19
S'/home/avakimov_am/chromium/cobalt/src/cobalt/h5vcc/h5vcc_account_manager.idl'
p516
ssS'DecodeSuccessCallback'
p517
(dp518
g442
S'cobalt'
p519
sg444
g7
(g445
g9
NtRp520
(dp521
g407
g7
(g306
g9
NtRp522
(dp523
g309
S'void'
p524
sbsg18
g517
sg451
(dp525
sg453
(lp526
g7
(g455
g9
NtRp527
(dp528
g458
Nsg18
S'decodedData'
p529
sg451
(dp530
sg407
g7
(g306
g9
NtRp531
(dp532
g309
S'AudioBuffer'
p533
sbsg464
Nsg465
I00
sbasbsg19
S'/home/avakimov_am/chromium/cobalt/src/cobalt/audio/audio_context.idl'
p534
ssS'AttachCallback'
p535
(dp536
g442
S'cobalt'
p537
sg444
g7
(g445
g9
NtRp538
(dp539
g407
g7
(g306
g9
NtRp540
(dp541
g309
S'void'
p542
sbsg18
g535
sg451
(dp543
sg453
(lp544
sbsg19
S'/home/avakimov_am/chromium/cobalt/src/cobalt/debug/console/debug_hub.idl'
p545
ssS'TimerCallback'
p546
(dp547
g442
S'cobalt'
p548
sg444
g7
(g445
g9
NtRp549
(dp550
g407
g7
(g306
g9
NtRp551
(dp552
g309
S'void'
p553
sbsg18
g546
sg451
(dp554
sg453
(lp555
sbsg19
S'/home/avakimov_am/chromium/cobalt/src/cobalt/dom/window_timers.idl'
p556
ssS'FetchModeCallback'
p557
(dp558
g442
S'cobalt'
p559
sg444
g7
(g445
g9
NtRp560
(dp561
g407
g7
(g306
g9
NtRp562
(dp563
g309
S'void'
p564
sbsg18
g557
sg451
(dp565
sg453
(lp566
g7
(g455
g9
NtRp567
(dp568
g458
Nsg18
S'isCorsMode'
p569
sg451
(dp570
sg407
g7
(g306
g9
NtRp571
(dp572
g309
S'boolean'
p573
sbsg464
Nsg465
I00
sbasbsg19
S'/home/avakimov_am/chromium/cobalt/src/cobalt/xhr/xml_http_request.idl'
p574
ssS'H5vccAccessibilityCallback'
p575
(dp576
g442
S'cobalt'
p577
sg444
g7
(g445
g9
NtRp578
(dp579
g407
g7
(g306
g9
NtRp580
(dp581
g309
S'void'
p582
sbsg18
g575
sg451
(dp583
sg453
(lp584
sbsg19
S'/home/avakimov_am/chromium/cobalt/src/cobalt/h5vcc/h5vcc_accessibility.idl'
p585
ssS'MutationCallback'
p586
(dp587
g442
S'cobalt'
p588
sg444
g7
(g445
g9
NtRp589
(dp590
g407
g7
(g306
g9
NtRp591
(dp592
g309
S'void'
p593
sbsg18
g586
sg451
(dp594
sg453
(lp595
g7
(g455
g9
NtRp596
(dp597
g458
Nsg18
S'mutations'
p598
sg451
(dp599
sg407
g7
(cidl_types
IdlSequenceType
p600
g9
NtRp601
(dp602
S'element_type'
p603
g7
(g306
g9
NtRp604
(dp605
g309
S'MutationRecord'
p606
sbsbsg464
Nsg465
I00
sbag7
(g455
g9
NtRp607
(dp608
g458
Nsg18
S'observer'
p609
sg451
(dp610
sg407
g7
(g306
g9
NtRp611
(dp612
g309
S'MutationObserver'
p613
sbsg464
Nsg465
I00
sbasbsg19
S'/home/avakimov_am/chromium/cobalt/src/cobalt/dom/mutation_observer.idl'
p614
ssS'H5vccRuntimeEventCallback'
p615
(dp616
g442
S'cobalt'
p617
sg444
g7
(g445
g9
NtRp618
(dp619
g407
g7
(g306
g9
NtRp620
(dp621
g309
S'void'
p622
sbsg18
g615
sg451
(dp623
sg453
(lp624
sbsg19
S'/home/avakimov_am/chromium/cobalt/src/cobalt/h5vcc/h5vcc_runtime_event_target.idl'
p625
ssS'ExecuteFunctionCallback'
p626
(dp627
g442
S'cobalt'
p628
sg444
g7
(g445
g9
NtRp629
(dp630
g407
g7
(g306
g9
NtRp631
(dp632
g309
S'void'
p633
sbsg18
g626
sg451
(dp634
sg453
(lp635
g7
(g455
g9
NtRp636
(dp637
g458
Nsg18
S'params'
p638
sg451
(dp639
sg407
g7
(g306
g9
NtRp640
(dp641
g309
S'ScriptExecutorParams'
p642
sbsg464
Nsg465
I00
sbag7
(g455
g9
NtRp643
(dp644
g458
Nsg18
S'resultHandler'
p645
sg451
(dp646
sg407
g7
(g306
g9
NtRp647
(dp648
g309
S'ScriptExecutorResult'
p649
sbsg464
Nsg465
I00
sbasbsg19
S'/home/avakimov_am/chromium/cobalt/src/cobalt/webdriver/script_executor.idl'
p650
ssS'ReceiveCallback'
p651
(dp652
g442
S'cobalt'
p653
sg444
g7
(g445
g9
NtRp654
(dp655
g407
g7
(g306
g9
NtRp656
(dp657
g309
S'void'
p658
sbsg18
g651
sg451
(dp659
sg453
(lp660
g7
(g455
g9
NtRp661
(dp662
g458
Nsg18
S'service'
p663
sg451
(dp664
sg407
g7
(g306
g9
NtRp665
(dp666
g309
S'H5vccPlatformService'
p667
sbsg464
Nsg465
I00
sbag7
(g455
g9
NtRp668
(dp669
g458
Nsg18
S'data'
p670
sg451
(dp671
sg407
g7
(g306
g9
NtRp672
(dp673
g309
S'ArrayBuffer'
p674
sbsg464
Nsg465
I00
sbasbsg19
S'/home/avakimov_am/chromium/cobalt/src/cobalt/h5vcc/h5vcc_platform_service.idl'
p675
ssS'DecodeErrorCallback'
p676
(dp677
g442
S'cobalt'
p678
sg444
g7
(g445
g9
NtRp679
(dp680
g407
g7
(g306
g9
NtRp681
(dp682
g309
S'void'
p683
sbsg18
g676
sg451
(dp684
sg453
(lp685
sbsg19
S'/home/avakimov_am/chromium/cobalt/src/cobalt/audio/audio_context.idl'
p686
ssS'DebuggerEventCallback'
p687
(dp688
g442
S'cobalt'
p689
sg444
g7
(g445
g9
NtRp690
(dp691
g407
g7
(g306
g9
NtRp692
(dp693
g309
S'void'
p694
sbsg18
g687
sg451
(dp695
sg453
(lp696
g7
(g455
g9
NtRp697
(dp698
g458
Nsg18
S'method'
p699
sg451
(dp700
sg407
g7
(g306
g9
NtRp701
(dp702
g309
S'DOMString'
p703
sbsg464
Nsg465
I00
sbag7
(g455
g9
NtRp704
(dp705
g458
Nsg18
S'json_params'
p706
sg451
(dp707
sg407
g7
(g314
g9
NtRp708
(dp709
g317
g7
(g306
g9
NtRp710
(dp711
g309
S'DOMString'
p712
sbsbsg464
Nsg465
I00
sbasbsg19
S'/home/avakimov_am/chromium/cobalt/src/cobalt/debug/console/debugger_event_target.idl'
p713
ssS'ResponseCallback'
p714
(dp715
g442
S'cobalt'
p716
sg444
g7
(g445
g9
NtRp717
(dp718
g407
g7
(g306
g9
NtRp719
(dp720
g309
S'void'
p721
sbsg18
g714
sg451
(dp722
sg453
(lp723
g7
(g455
g9
NtRp724
(dp725
g458
Nsg18
S'response'
p726
sg451
(dp727
sg407
g7
(g314
g9
NtRp728
(dp729
g317
g7
(g306
g9
NtRp730
(dp731
g309
S'DOMString'
p732
sbsbsg464
Nsg465
I00
sbasbsg19
S'/home/avakimov_am/chromium/cobalt/src/cobalt/debug/console/debug_hub.idl'
p733
ssS'TestRunnerCallback'
p734
(dp735
g442
S'cobalt'
p736
sg444
g7
(g445
g9
NtRp737
(dp738
g407
g7
(g306
g9
NtRp739
(dp740
g309
S'void'
p741
sbsg18
g734
sg451
(dp742
sg453
(lp743
sbsg19
S'/home/avakimov_am/chromium/cobalt/src/cobalt/dom/test_runner.idl'
p744
ssS'FrameRequestCallback'
p745
(dp746
g442
S'cobalt'
p747
sg444
g7
(g445
g9
NtRp748
(dp749
g407
g7
(g306
g9
NtRp750
(dp751
g309
S'void'
p752
sbsg18
g745
sg451
(dp753
sg453
(lp754
g7
(g455
g9
NtRp755
(dp756
g458
Nsg18
S'time'
p757
sg451
(dp758
sg407
g7
(g306
g9
NtRp759
(dp760
g309
S'DOMHighResTimeStamp'
p761
sbsg464
Nsg465
I00
sbasbsg19
S'/home/avakimov_am/chromium/cobalt/src/cobalt/dom/window__animation_timing.idl'
p762
ssS'ForEachCallback'
p763
(dp764
g442
S'cobalt'
p765
sg444
g7
(g445
g9
NtRp766
(dp767
g407
g7
(g306
g9
NtRp768
(dp769
g309
S'void'
p770
sbsg18
g763
sg451
(dp771
sg453
(lp772
g7
(g455
g9
NtRp773
(dp774
g458
Nsg18
S'status'
p775
sg451
(dp776
sg407
g7
(g306
g9
NtRp777
(dp778
g309
S'DOMString'
p779
sbsg464
Nsg465
I00
sbag7
(g455
g9
NtRp780
(dp781
g458
Nsg18
S'key'
p782
sg451
(dp783
sg407
g7
(g306
g9
NtRp784
(dp785
g309
S'BufferSource'
p786
sbsg464
Nsg465
I00
sbag7
(g455
g9
NtRp787
(dp788
g458
Nsg18
S'map'
p789
sg451
(dp790
sg407
g7
(g306
g9
NtRp791
(dp792
g309
S'MediaKeyStatusMap'
p793
sbsg464
Nsg465
I00
sbasbsg19
S'/home/avakimov_am/chromium/cobalt/src/cobalt/dom/eme/media_key_status_map.idl'
p794
ssS'FetchUpdateCallback'
p795
(dp796
g442
S'cobalt'
p797
sg444
g7
(g445
g9
NtRp798
(dp799
g407
g7
(g306
g9
NtRp800
(dp801
g309
S'void'
p802
sbsg18
g795
sg451
(dp803
sg453
(lp804
g7
(g455
g9
NtRp805
(dp806
g458
Nsg18
S'data'
p807
sg451
(dp808
sg407
g7
(g306
g9
NtRp809
(dp810
g309
S'Uint8Array'
p811
sbsg464
Nsg465
I00
sbasbsg19
S'/home/avakimov_am/chromium/cobalt/src/cobalt/xhr/xml_http_request.idl'
p812
ssS'MediaSessionActionHandler'
p813
(dp814
g442
S'cobalt'
p815
sg444
g7
(g445
g9
NtRp816
(dp817
g407
g7
(g306
g9
NtRp818
(dp819
g309
S'void'
p820
sbsg18
g813
sg451
(dp821
sg453
(lp822
g7
(g455
g9
NtRp823
(dp824
g458
Nsg18
S'details'
p825
sg451
(dp826
sg407
g7
(g306
g9
NtRp827
(dp828
g309
S'MediaSessionActionDetails'
p829
sbsg464
Nsg465
I00
sbasbsg19
S'/home/avakimov_am/chromium/cobalt/src/cobalt/media_session/media_session.idl'
p830
sss.