S'3.2'
p1
.S'SLR'
p1
.S'8\x9dz y3\x11/\xae\xd407\x1b.\x87\xa9'
p1
.(dp1
I0
(dp2
S'EXCEPTION'
p3
I-49
sS'SHORT'
p4
I-49
sS'CONST'
p5
I-49
sS'SETLIKE'
p6
I-49
sS'MAPLIKE'
p7
I-49
sS'VOID'
p8
I-49
sS'OBJECT'
p9
I-49
sS'UNSIGNED'
p10
I-49
sS'STATIC'
p11
I-49
sS'DATE'
p12
I-49
sS'USVSTRING'
p13
I-49
sS'BYTE'
p14
I-49
sS'SETTER'
p15
I-49
sS'DOMSTRING'
p16
I-49
sS'CREATOR'
p17
I-49
sS'('
I-49
sS'REQUIRED'
p18
I-49
sS'FROZENARRAY'
p19
I-49
sS'LONG'
p20
I-49
sS'RECORD'
p21
I-49
sS'READONLY'
p22
I-49
sS'SERIALIZER'
p23
I-49
sS'$end'
p24
I-2
sS'TYPEDEF'
p25
I-49
sS'string'
p26
I-49
sS'DICTIONARY'
p27
I-49
sS'SEQUENCE'
p28
I-49
sS'LEGACYITERABLE'
p29
I-49
sS'ENUM'
p30
I-49
sS'OCTET'
p31
I-49
sS'INHERIT'
p32
I-49
sS'LEGACYCALLER'
p33
I-49
sS'GETTER'
p34
I-49
sS'REGEXP'
p35
I-49
sS'['
I3
sS'OPTIONAL'
p36
I-49
sS'ITERABLE'
p37
I-49
sS'BYTESTRING'
p38
I-49
sS'PARTIAL'
p39
I-49
sS'STRINGIFIER'
p40
I-49
sS'ATTRIBUTE'
p41
I-49
sS'FLOAT'
p42
I-49
sS'CALLBACK'
p43
I-49
sS'BOOLEAN'
p44
I-49
sS'PROMISE'
p45
I-49
sS'error'
p46
I-49
sS'INTERFACE'
p47
I-49
sS'UNRESTRICTED'
p48
I-49
sS'identifier'
p49
I-49
sS'DOUBLE'
p50
I-49
sS'ANY'
p51
I-49
sS'DELETER'
p52
I-49
ssI1
(dp53
S'EXCEPTION'
p54
I13
sS'PARTIAL'
p55
I16
sS'DICTIONARY'
p56
I11
sS'ENUM'
p57
I12
sS'TYPEDEF'
p58
I15
sS'CALLBACK'
p59
I18
sS'error'
p60
I19
sS'INTERFACE'
p61
I20
sS'identifier'
p62
I21
ssI2
(dp63
S'$end'
p64
I0
ssI3
(dp65
S'identifier'
p66
I30
ssI4
(dp67
g25
I-8
sg39
I-8
sg27
I-8
sg30
I-8
sg3
I-8
sg43
I-8
sg46
I-8
sg47
I-8
sS'['
I-8
sg49
I-8
sg24
I-8
ssI5
(dp68
g25
I-3
sg39
I-3
sg27
I-3
sg30
I-3
sg3
I-3
sg43
I-3
sg46
I-3
sg47
I-3
sS'['
I-3
sg49
I-3
sg24
I-3
ssI6
(dp69
g25
I-5
sg39
I-5
sg27
I-5
sg30
I-5
sg3
I-5
sg43
I-5
sg46
I-5
sg47
I-5
sS'['
I-5
sg49
I-5
sg24
I-5
ssI7
(dp70
g25
I-7
sg39
I-7
sg27
I-7
sg30
I-7
sg3
I-7
sg43
I-7
sg46
I-7
sg47
I-7
sS'['
I-7
sg49
I-7
sg24
I-7
ssI8
(dp71
g25
I-12
sg39
I-12
sg27
I-12
sg30
I-12
sg3
I-12
sg43
I-12
sg46
I-12
sg47
I-12
sS'['
I-12
sg49
I-12
sg24
I-12
ssI9
(dp72
g3
I-49
sg4
I-49
sg5
I-49
sg6
I-49
sg7
I-49
sg8
I-49
sg9
I-49
sg10
I-49
sg11
I-49
sg12
I-49
sg13
I-49
sg14
I-49
sg15
I-49
sg16
I-49
sg17
I-49
sS'('
I-49
sg18
I-49
sg19
I-49
sg20
I-49
sg21
I-49
sg22
I-49
sg23
I-49
sg24
I-2
sg25
I-49
sg26
I-49
sg27
I-49
sg28
I-49
sg29
I-49
sg30
I-49
sg31
I-49
sg32
I-49
sg33
I-49
sg34
I-49
sg35
I-49
sS'['
I3
sg36
I-49
sg37
I-49
sg38
I-49
sg39
I-49
sg40
I-49
sg41
I-49
sg42
I-49
sg43
I-49
sg44
I-49
sg45
I-49
sg46
I-49
sg47
I-49
sg48
I-49
sg49
I-49
sg50
I-49
sg51
I-49
sg52
I-49
ssI10
(dp73
g25
I-6
sg39
I-6
sg27
I-6
sg30
I-6
sg3
I-6
sg43
I-6
sg46
I-6
sg47
I-6
sS'['
I-6
sg49
I-6
sg24
I-6
ssI11
(dp74
S'identifier'
p75
I33
sS'error'
p76
I32
ssI12
(dp77
S'identifier'
p78
I35
sS'error'
p79
I34
ssI13
(dp80
S'identifier'
p81
I36
ssI14
(dp82
g25
I-9
sg39
I-9
sg27
I-9
sg30
I-9
sg3
I-9
sg43
I-9
sg46
I-9
sg47
I-9
sS'['
I-9
sg49
I-9
sg24
I-9
ssI15
(dp83
g4
I-180
sg13
I-180
sg9
I-180
sg12
I-180
sg14
I-180
sg16
I-180
sS'('
I-180
sg10
I-180
sg20
I-180
sg21
I-180
sg19
I-180
sg28
I-180
sg31
I-180
sg35
I-180
sS'['
I39
sg38
I-180
sg50
I-180
sg42
I-180
sg44
I-180
sg45
I-180
sS'error'
p84
I38
sg48
I-180
sg49
I-180
sg51
I-180
ssI16
(dp85
S'INTERFACE'
p86
I44
sS'DICTIONARY'
p87
I41
sS'error'
p88
I43
ssI17
(dp89
g25
I-4
sg39
I-4
sg27
I-4
sg30
I-4
sg3
I-4
sg43
I-4
sg46
I-4
sg47
I-4
sS'['
I-4
sg49
I-4
sg24
I-4
ssI18
(dp90
g61
I20
sS'identifier'
p91
I49
ssI19
(dp92
S';'
I50
ssI20
(dp93
S'identifier'
p94
I51
ssI21
(dp95
S'IMPLEMENTS'
p96
I52
ssI22
(dp97
S']'
I-61
sS','
I-61
ssI23
(dp98
S']'
I-54
sS','
I54
ssI24
(dp99
S']'
I-62
sS','
I-62
ssI25
(dp100
S']'
I-59
sS','
I-59
ssI26
(dp101
S']'
I-58
sS','
I-58
ssI27
(dp102
S']'
I-60
sS','
I-60
ssI28
(dp103
S']'
I-57
sS','
I-57
ssI29
(dp104
S']'
I-63
sS','
I-63
ssI30
(dp105
S'('
I55
sS'='
I56
sS']'
I-252
sS','
I-252
ssI31
(dp106
g24
I-1
ssI32
(dp107
S';'
I57
ssI33
(dp108
S'{'
I-87
sS':'
I58
ssI34
(dp109
S';'
I60
ssI35
(dp110
S'{'
I61
ssI36
(dp111
S'{'
I-87
sS':'
I58
ssI37
(dp112
S'SHORT'
p113
I63
sS'USVSTRING'
p114
I64
sS'OBJECT'
p115
I65
sS'DATE'
p116
I69
sS'DOMSTRING'
p117
I73
sS'('
I75
sS'UNSIGNED'
p118
I67
sS'LONG'
p119
I76
sS'RECORD'
p120
I77
sS'FROZENARRAY'
p121
I78
sS'SEQUENCE'
p122
I80
sS'OCTET'
p123
I81
sS'REGEXP'
p124
I85
sS'BYTE'
p125
I86
sS'identifier'
p126
I89
sS'DOUBLE'
p127
I90
sS'FLOAT'
p128
I91
sS'BOOLEAN'
p129
I94
sS'PROMISE'
p130
I95
sS'UNRESTRICTED'
p131
I96
sS'BYTESTRING'
p132
I84
sS'ANY'
p133
I93
ssI38
(dp134
S';'
I97
ssI39
(dp135
g66
I30
ssI40
(dp136
g25
I-30
sg39
I-30
sg27
I-30
sg30
I-30
sg3
I-30
sg43
I-30
sg46
I-30
sg47
I-30
sS'['
I-30
sg49
I-30
sg24
I-30
ssI41
(dp137
S'identifier'
p138
I100
sS'error'
p139
I99
ssI42
(dp140
g25
I-23
sg39
I-23
sg27
I-23
sg30
I-23
sg3
I-23
sg43
I-23
sg46
I-23
sg47
I-23
sS'['
I-23
sg49
I-23
sg24
I-23
ssI43
(dp141
g25
I-25
sg39
I-25
sg27
I-25
sg30
I-25
sg3
I-25
sg43
I-25
sg46
I-25
sg47
I-25
sS'['
I-25
sg49
I-25
sg24
I-25
ssI44
(dp142
S'identifier'
p143
I101
ssI45
(dp144
g25
I-31
sg39
I-31
sg27
I-31
sg30
I-31
sg3
I-31
sg43
I-31
sg46
I-31
sg47
I-31
sS'['
I-31
sg49
I-31
sg24
I-31
ssI46
(dp145
g25
I-11
sg39
I-11
sg27
I-11
sg30
I-11
sg3
I-11
sg43
I-11
sg46
I-11
sg47
I-11
sS'['
I-11
sg49
I-11
sg24
I-11
ssI47
(dp146
g25
I-18
sg39
I-18
sg27
I-18
sg30
I-18
sg3
I-18
sg43
I-18
sg46
I-18
sg47
I-18
sS'['
I-18
sg49
I-18
sg24
I-18
ssI48
(dp147
g25
I-19
sg39
I-19
sg27
I-19
sg30
I-19
sg3
I-19
sg43
I-19
sg46
I-19
sg47
I-19
sS'['
I-19
sg49
I-19
sg24
I-19
ssI49
(dp148
S'='
I102
ssI50
(dp149
g25
I-10
sg39
I-10
sg27
I-10
sg30
I-10
sg3
I-10
sg43
I-10
sg46
I-10
sg47
I-10
sS'['
I-10
sg49
I-10
sg24
I-10
ssI51
(dp150
S'{'
I-87
sS':'
I58
ssI52
(dp151
S'identifier'
p152
I104
ssI53
(dp153
S']'
I105
ssI54
(dp154
g66
I30
sS']'
I-53
sS'error'
p155
I107
ssI55
(dp156
g3
I-49
sg4
I-49
sg5
I-49
sg6
I-49
sg7
I-49
sg8
I-49
sg9
I-49
sg10
I-49
sg11
I-49
sg12
I-49
sg13
I-49
sg14
I-49
sg15
I-49
sg16
I-49
sg17
I-49
sS')'
I-156
sS'('
I-49
sg18
I-49
sg19
I-49
sg20
I-49
sg21
I-49
sg22
I-49
sg23
I-49
sg25
I-49
sg26
I-49
sg27
I-49
sg28
I-49
sg29
I-49
sg30
I-49
sg31
I-49
sg32
I-49
sg33
I-49
sg34
I-49
sg35
I-49
sS'['
I3
sg36
I-49
sg37
I-49
sg38
I-49
sg39
I-49
sg40
I-49
sg41
I-49
sg42
I-49
sg43
I-49
sg44
I-49
sg45
I-49
sS'error'
p157
I111
sg47
I-49
sg48
I-49
sg49
I-49
sg50
I-49
sg51
I-49
sg52
I-49
ssI56
(dp158
S'('
I113
sS'identifier'
p159
I115
sS'string'
p160
I112
ssI57
(dp161
g25
I-56
sg39
I-56
sg27
I-56
sg30
I-56
sg3
I-56
sg43
I-56
sg46
I-56
sg47
I-56
sS'['
I-56
sg49
I-56
sg24
I-56
ssI58
(dp162
S'identifier'
p163
I116
ssI59
(dp164
S'{'
I117
ssI60
(dp165
g25
I-89
sg39
I-89
sg27
I-89
sg30
I-89
sg3
I-89
sg43
I-89
sg46
I-89
sg47
I-89
sS'['
I-89
sg49
I-89
sg24
I-89
ssI61
(dp166
g3
I-49
sg4
I-49
sg5
I-49
sg6
I-49
sg7
I-49
sg8
I-49
sg9
I-49
sg10
I-49
sg11
I-49
sg12
I-49
sg13
I-49
sg14
I-49
sg15
I-49
sg16
I-49
sg17
I-49
sS'('
I-49
sg18
I-49
sg19
I-49
sg20
I-49
sg21
I-49
sg22
I-49
sg23
I-49
sg25
I-49
sg26
I-49
sg27
I-49
sg28
I-49
sg29
I-49
sg30
I-49
sg31
I-49
sg32
I-49
sg33
I-49
sg34
I-49
sg35
I-49
sS'['
I3
sg36
I-49
sg37
I-49
sg38
I-49
sg39
I-49
sg40
I-49
sg41
I-49
sg42
I-49
sg43
I-49
sg44
I-49
sg45
I-49
sg46
I-49
sg47
I-49
sg48
I-49
sg49
I-49
sg50
I-49
sg51
I-49
sg52
I-49
ssI62
(dp167
S'{'
I120
ssI63
(dp168
g3
I-233
sg5
I-233
sg11
I-233
sg15
I-233
sg17
I-233
sS')'
I-233
sS'('
I-233
sg18
I-233
sS','
I-233
sS'ELLIPSIS'
p169
I-233
sg23
I-233
sS'>'
I-233
sg25
I-233
sg27
I-233
sg30
I-233
sg32
I-233
sg33
I-233
sg34
I-233
sS'['
I-233
sS'IMPLEMENTS'
p170
I-233
sg39
I-233
sg40
I-233
sg41
I-233
sg43
I-233
sS'?'
I-233
sg48
I-233
sg49
I-233
sS'OR'
p171
I-233
sg52
I-233
ssI64
(dp172
g3
I-259
sg5
I-259
sg11
I-259
sg15
I-259
sg17
I-259
sS')'
I-259
sS'('
I-259
sg18
I-259
sS','
I-259
sg169
I-259
sg23
I-259
sS'>'
I-259
sg25
I-259
sg27
I-259
sg30
I-259
sg32
I-259
sg33
I-259
sg34
I-259
sS'['
I-259
sg170
I-259
sg39
I-259
sg40
I-259
sg41
I-259
sg43
I-259
sS'?'
I-259
sg48
I-259
sg49
I-259
sg171
I-259
sg52
I-259
ssI65
(dp173
g3
I-224
sg5
I-224
sg11
I-224
sg15
I-224
sg17
I-224
sS')'
I-224
sS'('
I-224
sg18
I-224
sS','
I-224
sg169
I-224
sg23
I-224
sS'>'
I-224
sg25
I-224
sg27
I-224
sg30
I-224
sg32
I-224
sg33
I-224
sg34
I-224
sS'['
I-224
sg170
I-224
sg39
I-224
sg40
I-224
sg41
I-224
sg43
I-224
sS'?'
I-224
sg48
I-224
sg49
I-224
sg171
I-224
sg52
I-224
ssI66
(dp174
g3
I-242
sg5
I-242
sg11
I-242
sg15
I-242
sg17
I-242
sS')'
I-242
sS'('
I-242
sg18
I-242
sS','
I-242
sg169
I-242
sg23
I-242
sS'>'
I-242
sg25
I-242
sg27
I-242
sg30
I-242
sg32
I-242
sg33
I-242
sg34
I-242
sS'['
I122
sg170
I-242
sg39
I-242
sg40
I-242
sg41
I-242
sg43
I-242
sS'?'
I123
sg48
I-242
sg49
I-242
sg171
I-242
sg52
I-242
ssI67
(dp175
g113
I63
sg119
I76
ssI68
(dp176
g3
I-200
sg5
I-200
sg11
I-200
sg15
I-200
sg17
I-200
sS'('
I-200
sg18
I-200
sS','
I-200
sg169
I-200
sg23
I-200
sS'>'
I-200
sg25
I-200
sg27
I-200
sg30
I-200
sg32
I-200
sg33
I-200
sg34
I-200
sg170
I-200
sg39
I-200
sg40
I-200
sg41
I-200
sg43
I-200
sg48
I-200
sg49
I-200
sg52
I-200
ssI69
(dp177
g3
I-225
sg5
I-225
sg11
I-225
sg15
I-225
sg17
I-225
sS')'
I-225
sS'('
I-225
sg18
I-225
sS','
I-225
sg169
I-225
sg23
I-225
sS'>'
I-225
sg25
I-225
sg27
I-225
sg30
I-225
sg32
I-225
sg33
I-225
sg34
I-225
sS'['
I-225
sg170
I-225
sg39
I-225
sg40
I-225
sg41
I-225
sg43
I-225
sS'?'
I-225
sg48
I-225
sg49
I-225
sg171
I-225
sg52
I-225
ssI70
(dp178
S'identifier'
p179
I125
ssI71
(dp180
g3
I-220
sg5
I-220
sg11
I-220
sg15
I-220
sg17
I-220
sS')'
I-220
sS'('
I-220
sg18
I-220
sS','
I-220
sg169
I-220
sg23
I-220
sS'>'
I-220
sg25
I-220
sg27
I-220
sg30
I-220
sg32
I-220
sg33
I-220
sg34
I-220
sS'['
I-220
sg170
I-220
sg39
I-220
sg40
I-220
sg41
I-220
sg43
I-220
sS'?'
I-220
sg48
I-220
sg49
I-220
sg171
I-220
sg52
I-220
ssI72
(dp181
g3
I-246
sg5
I-246
sg11
I-246
sg15
I-246
sg17
I-246
sS')'
I-246
sS'('
I-246
sg18
I-246
sS','
I-246
sg169
I-246
sg23
I-246
sS'>'
I-246
sg25
I-246
sg27
I-246
sg30
I-246
sg32
I-246
sg33
I-246
sg34
I-246
sg170
I-246
sg39
I-246
sg40
I-246
sg41
I-246
sg43
I-246
sS'?'
I127
sg48
I-246
sg49
I-246
sg171
I-246
sg52
I-246
ssI73
(dp182
g3
I-258
sg5
I-258
sg11
I-258
sg15
I-258
sg17
I-258
sS')'
I-258
sS'('
I-258
sg18
I-258
sS','
I-258
sg169
I-258
sg23
I-258
sS'>'
I-258
sg25
I-258
sg27
I-258
sg30
I-258
sg32
I-258
sg33
I-258
sg34
I-258
sS'['
I-258
sg170
I-258
sg39
I-258
sg40
I-258
sg41
I-258
sg43
I-258
sS'?'
I-258
sg48
I-258
sg49
I-258
sg171
I-258
sg52
I-258
ssI74
(dp183
g3
I-228
sg5
I-228
sg11
I-228
sg15
I-228
sg17
I-228
sS')'
I-228
sS'('
I-228
sg18
I-228
sS','
I-228
sg169
I-228
sg23
I-228
sS'>'
I-228
sg25
I-228
sg27
I-228
sg30
I-228
sg32
I-228
sg33
I-228
sg34
I-228
sS'['
I-228
sg170
I-228
sg39
I-228
sg40
I-228
sg41
I-228
sg43
I-228
sS'?'
I-228
sg48
I-228
sg49
I-228
sg171
I-228
sg52
I-228
ssI75
(dp184
g113
I63
sg114
I64
sg115
I65
sg116
I69
sg117
I73
sS'('
I75
sg118
I67
sg119
I76
sg120
I77
sg121
I78
sg122
I80
sg123
I81
sg124
I85
sg125
I86
sg126
I89
sg127
I90
sg128
I91
sg129
I94
sg130
I95
sg131
I96
sg132
I84
sS'ANY'
p185
I131
ssI76
(dp186
g3
I-236
sg5
I-236
sg11
I-236
sg15
I-236
sg17
I-236
sS')'
I-236
sS'('
I-236
sg18
I-236
sS','
I-236
sS'LONG'
p187
I133
sg169
I-236
sg23
I-236
sS'>'
I-236
sg25
I-236
sg27
I-236
sg30
I-236
sg32
I-236
sg33
I-236
sg34
I-236
sS'['
I-236
sg170
I-236
sg39
I-236
sg40
I-236
sg41
I-236
sg43
I-236
sS'?'
I-236
sg48
I-236
sg49
I-236
sg171
I-236
sg52
I-236
ssI77
(dp188
S'<'
I134
ssI78
(dp189
S'<'
I135
ssI79
(dp190
g3
I-202
sg5
I-202
sg11
I-202
sg15
I-202
sg17
I-202
sS'('
I-202
sg18
I-202
sS','
I-202
sg169
I-202
sg23
I-202
sS'>'
I-202
sg25
I-202
sg27
I-202
sg30
I-202
sg32
I-202
sg33
I-202
sg34
I-202
sg170
I-202
sg39
I-202
sg40
I-202
sg41
I-202
sg43
I-202
sg48
I-202
sg49
I-202
sg52
I-202
ssI80
(dp191
S'<'
I136
ssI81
(dp192
g3
I-223
sg5
I-223
sg11
I-223
sg15
I-223
sg17
I-223
sS')'
I-223
sS'('
I-223
sg18
I-223
sS','
I-223
sg169
I-223
sg23
I-223
sS'>'
I-223
sg25
I-223
sg27
I-223
sg30
I-223
sg32
I-223
sg33
I-223
sg34
I-223
sS'['
I-223
sg170
I-223
sg39
I-223
sg40
I-223
sg41
I-223
sg43
I-223
sS'?'
I-223
sg48
I-223
sg49
I-223
sg171
I-223
sg52
I-223
ssI82
(dp193
g3
I-246
sg5
I-246
sg11
I-246
sg15
I-246
sg17
I-246
sS')'
I-246
sS'('
I-246
sg18
I-246
sS','
I-246
sg169
I-246
sg23
I-246
sS'>'
I-246
sg25
I-246
sg27
I-246
sg30
I-246
sg32
I-246
sg33
I-246
sg34
I-246
sg170
I-246
sg39
I-246
sg40
I-246
sg41
I-246
sg43
I-246
sS'?'
I127
sg48
I-246
sg49
I-246
sg171
I-246
sg52
I-246
ssI83
(dp194
g3
I-232
sg5
I-232
sg11
I-232
sg15
I-232
sg17
I-232
sS')'
I-232
sS'('
I-232
sg18
I-232
sS','
I-232
sg169
I-232
sg23
I-232
sS'>'
I-232
sg25
I-232
sg27
I-232
sg30
I-232
sg32
I-232
sg33
I-232
sg34
I-232
sS'['
I-232
sg170
I-232
sg39
I-232
sg40
I-232
sg41
I-232
sg43
I-232
sS'?'
I-232
sg48
I-232
sg49
I-232
sg171
I-232
sg52
I-232
ssI84
(dp195
g3
I-257
sg5
I-257
sg11
I-257
sg15
I-257
sg17
I-257
sS')'
I-257
sS'('
I-257
sg18
I-257
sS','
I-257
sg169
I-257
sg23
I-257
sS'>'
I-257
sg25
I-257
sg27
I-257
sg30
I-257
sg32
I-257
sg33
I-257
sg34
I-257
sS'['
I-257
sg170
I-257
sg39
I-257
sg40
I-257
sg41
I-257
sg43
I-257
sS'?'
I-257
sg48
I-257
sg49
I-257
sg171
I-257
sg52
I-257
ssI85
(dp196
g3
I-226
sg5
I-226
sg11
I-226
sg15
I-226
sg17
I-226
sS')'
I-226
sS'('
I-226
sg18
I-226
sS','
I-226
sg169
I-226
sg23
I-226
sS'>'
I-226
sg25
I-226
sg27
I-226
sg30
I-226
sg32
I-226
sg33
I-226
sg34
I-226
sS'['
I-226
sg170
I-226
sg39
I-226
sg40
I-226
sg41
I-226
sg43
I-226
sS'?'
I-226
sg48
I-226
sg49
I-226
sg171
I-226
sg52
I-226
ssI86
(dp197
g3
I-222
sg5
I-222
sg11
I-222
sg15
I-222
sg17
I-222
sS')'
I-222
sS'('
I-222
sg18
I-222
sS','
I-222
sg169
I-222
sg23
I-222
sS'>'
I-222
sg25
I-222
sg27
I-222
sg30
I-222
sg32
I-222
sg33
I-222
sg34
I-222
sS'['
I-222
sg170
I-222
sg39
I-222
sg40
I-222
sg41
I-222
sg43
I-222
sS'?'
I-222
sg48
I-222
sg49
I-222
sg171
I-222
sg52
I-222
ssI87
(dp198
g3
I-242
sg5
I-242
sg11
I-242
sg15
I-242
sg17
I-242
sS')'
I-242
sS'('
I-242
sg18
I-242
sS','
I-242
sg169
I-242
sg23
I-242
sS'>'
I-242
sg25
I-242
sg27
I-242
sg30
I-242
sg32
I-242
sg33
I-242
sg34
I-242
sS'['
I122
sg170
I-242
sg39
I-242
sg40
I-242
sg41
I-242
sg43
I-242
sS'?'
I123
sg48
I-242
sg49
I-242
sg171
I-242
sg52
I-242
ssI88
(dp199
g3
I-219
sg5
I-219
sg11
I-219
sg15
I-219
sg17
I-219
sS')'
I-219
sS'('
I-219
sg18
I-219
sS','
I-219
sg169
I-219
sg23
I-219
sS'>'
I-219
sg25
I-219
sg27
I-219
sg30
I-219
sg32
I-219
sg33
I-219
sg34
I-219
sS'['
I-219
sg170
I-219
sg39
I-219
sg40
I-219
sg41
I-219
sg43
I-219
sS'?'
I-219
sg48
I-219
sg49
I-219
sg171
I-219
sg52
I-219
ssI89
(dp200
g3
I-242
sg5
I-242
sg11
I-242
sg15
I-242
sg17
I-242
sS')'
I-242
sS'('
I-242
sg18
I-242
sS','
I-242
sg169
I-242
sg23
I-242
sS'>'
I-242
sg25
I-242
sg27
I-242
sg30
I-242
sg32
I-242
sg33
I-242
sg34
I-242
sS'['
I122
sg170
I-242
sg39
I-242
sg40
I-242
sg41
I-242
sg43
I-242
sS'?'
I123
sg48
I-242
sg49
I-242
sg171
I-242
sg52
I-242
ssI90
(dp201
g3
I-230
sg5
I-230
sg11
I-230
sg15
I-230
sg17
I-230
sS')'
I-230
sS'('
I-230
sg18
I-230
sS','
I-230
sg169
I-230
sg23
I-230
sS'>'
I-230
sg25
I-230
sg27
I-230
sg30
I-230
sg32
I-230
sg33
I-230
sg34
I-230
sS'['
I-230
sg170
I-230
sg39
I-230
sg40
I-230
sg41
I-230
sg43
I-230
sS'?'
I-230
sg48
I-230
sg49
I-230
sg171
I-230
sg52
I-230
ssI91
(dp202
g3
I-229
sg5
I-229
sg11
I-229
sg15
I-229
sg17
I-229
sS')'
I-229
sS'('
I-229
sg18
I-229
sS','
I-229
sg169
I-229
sg23
I-229
sS'>'
I-229
sg25
I-229
sg27
I-229
sg30
I-229
sg32
I-229
sg33
I-229
sg34
I-229
sS'['
I-229
sg170
I-229
sg39
I-229
sg40
I-229
sg41
I-229
sg43
I-229
sS'?'
I-229
sg48
I-229
sg49
I-229
sg171
I-229
sg52
I-229
ssI92
(dp203
g3
I-218
sg5
I-218
sg11
I-218
sg15
I-218
sg17
I-218
sS')'
I-218
sS'('
I-218
sg18
I-218
sS','
I-218
sg169
I-218
sg23
I-218
sS'>'
I-218
sg25
I-218
sg27
I-218
sg30
I-218
sg32
I-218
sg33
I-218
sg34
I-218
sS'['
I-218
sg170
I-218
sg39
I-218
sg40
I-218
sg41
I-218
sg43
I-218
sS'?'
I-218
sg48
I-218
sg49
I-218
sg171
I-218
sg52
I-218
ssI93
(dp204
g3
I-244
sg5
I-244
sg11
I-244
sg15
I-244
sg17
I-244
sS')'
I-244
sS'('
I-244
sg18
I-244
sS','
I-244
sg169
I-244
sg23
I-244
sS'>'
I-244
sg25
I-244
sg27
I-244
sg30
I-244
sg32
I-244
sg33
I-244
sg34
I-244
sS'['
I140
sg170
I-244
sg39
I-244
sg40
I-244
sg41
I-244
sg43
I-244
sg48
I-244
sg49
I-244
sg171
I-244
sg52
I-244
ssI94
(dp205
g3
I-221
sg5
I-221
sg11
I-221
sg15
I-221
sg17
I-221
sS')'
I-221
sS'('
I-221
sg18
I-221
sS','
I-221
sg169
I-221
sg23
I-221
sS'>'
I-221
sg25
I-221
sg27
I-221
sg30
I-221
sg32
I-221
sg33
I-221
sg34
I-221
sS'['
I-221
sg170
I-221
sg39
I-221
sg40
I-221
sg41
I-221
sg43
I-221
sS'?'
I-221
sg48
I-221
sg49
I-221
sg171
I-221
sg52
I-221
ssI95
(dp206
g3
I-238
sg5
I-238
sg11
I-238
sg15
I-238
sg17
I-238
sS')'
I-238
sS'('
I-238
sg18
I-238
sS','
I-238
sg169
I-238
sS'<'
I142
sg23
I-238
sS'>'
I-238
sg25
I-238
sg27
I-238
sg30
I-238
sg32
I-238
sg33
I-238
sg34
I-238
sg170
I-238
sg39
I-238
sg40
I-238
sg41
I-238
sg43
I-238
sS'?'
I-238
sg48
I-238
sg49
I-238
sg171
I-238
sg52
I-238
ssI96
(dp207
g127
I90
sg128
I91
ssI97
(dp208
g25
I-97
sg39
I-97
sg27
I-97
sg30
I-97
sg3
I-97
sg43
I-97
sg46
I-97
sg47
I-97
sS'['
I-97
sg49
I-97
sg24
I-97
ssI98
(dp209
S']'
I-54
sS','
I145
ssI99
(dp210
S';'
I146
ssI100
(dp211
S'{'
I147
ssI101
(dp212
S'{'
I148
ssI102
(dp213
g113
I63
sg114
I64
sS'VOID'
p214
I149
sg115
I65
sg116
I69
sg117
I73
sS'('
I75
sg118
I67
sg119
I76
sg120
I77
sg121
I78
sg122
I80
sg123
I81
sg124
I85
sg125
I86
sg126
I89
sg127
I90
sg128
I91
sg129
I94
sg130
I95
sg131
I96
sg132
I84
sg133
I93
ssI103
(dp215
S'{'
I152
ssI104
(dp216
S';'
I153
ssI105
(dp217
g3
I-48
sg4
I-48
sg5
I-48
sg6
I-48
sg7
I-48
sg8
I-48
sg9
I-48
sg10
I-48
sg11
I-48
sg12
I-48
sg13
I-48
sg15
I-48
sg16
I-48
sg17
I-48
sS'('
I-48
sg18
I-48
sg19
I-48
sg20
I-48
sg21
I-48
sg22
I-48
sg23
I-48
sg25
I-48
sg26
I-48
sg27
I-48
sg28
I-48
sg29
I-48
sg30
I-48
sg31
I-48
sg32
I-48
sg33
I-48
sg34
I-48
sg35
I-48
sg14
I-48
sg36
I-48
sg37
I-48
sg38
I-48
sg39
I-48
sg40
I-48
sg41
I-48
sg42
I-48
sg43
I-48
sg44
I-48
sg45
I-48
sg46
I-48
sg47
I-48
sg48
I-48
sg49
I-48
sg50
I-48
sg51
I-48
sg52
I-48
ssI106
(dp218
S']'
I-54
sS','
I145
ssI107
(dp219
g3
I-50
sg4
I-50
sg5
I-50
sg6
I-50
sg7
I-50
sg8
I-50
sg9
I-50
sg10
I-50
sg11
I-50
sg12
I-50
sg13
I-50
sg15
I-50
sg16
I-50
sg17
I-50
sS'('
I-50
sg18
I-50
sg19
I-50
sg20
I-50
sg21
I-50
sg22
I-50
sg23
I-50
sg25
I-50
sg26
I-50
sg27
I-50
sg28
I-50
sg29
I-50
sg30
I-50
sg31
I-50
sg32
I-50
sg33
I-50
sg34
I-50
sg35
I-50
sg14
I-50
sg36
I-50
sg37
I-50
sg38
I-50
sg39
I-50
sg40
I-50
sg41
I-50
sg42
I-50
sg43
I-50
sg44
I-50
sg45
I-50
sg46
I-50
sg47
I-50
sg48
I-50
sg49
I-50
sg50
I-50
sg51
I-50
sg52
I-50
ssI108
(dp220
S')'
I155
ssI109
(dp221
S')'
I-159
sS','
I156
ssI110
(dp222
g113
I63
sg114
I64
sg115
I65
sg116
I69
sg117
I73
sS'('
I75
sg118
I67
sg119
I76
sg120
I77
sg121
I78
sg122
I80
sg123
I81
sg124
I85
sg125
I86
sS'OPTIONAL'
p223
I159
sg126
I89
sg127
I90
sg128
I91
sg129
I94
sg130
I95
sS'error'
p224
I161
sg131
I96
sg132
I84
sg133
I93
ssI111
(dp225
S')'
I-157
ssI112
(dp226
S')'
I-24
sS';'
I-24
sS']'
I-24
sS','
I-24
ssI113
(dp227
S'identifier'
p228
I165
sg160
I112
ssI114
(dp229
S']'
I-67
sS','
I-67
ssI115
(dp230
S'('
I166
sS']'
I-254
sS','
I-254
ssI116
(dp231
S'{'
I-86
ssI117
(dp232
g3
I-49
sg4
I-49
sg5
I-49
sg6
I-49
sg7
I-49
sg8
I-49
sg9
I-49
sg10
I-49
sg11
I-49
sg12
I-49
sg13
I-49
sg14
I-49
sg15
I-49
sg16
I-49
sg17
I-49
sS'('
I-49
sg18
I-49
sg19
I-49
sg20
I-49
sg21
I-49
sg22
I-49
sg23
I-49
sg25
I-49
sg26
I-49
sg27
I-49
sg28
I-49
sg29
I-49
sg30
I-49
sg31
I-49
sg32
I-49
sg33
I-49
sg34
I-49
sg50
I-49
sg35
I-49
sS'['
I3
sg36
I-49
sg37
I-49
sg38
I-49
sg39
I-49
sg40
I-49
sg41
I-49
sg42
I-49
sg43
I-49
sg44
I-49
sg45
I-49
sS'error'
p233
I169
sg47
I-49
sg48
I-49
sg49
I-49
sS'}'
I-66
sg51
I-49
sg52
I-49
ssI118
(dp234
S'}'
I170
ssI119
(dp235
S'string'
p236
I171
ssI120
(dp237
g3
I-49
sg4
I-49
sg5
I-49
sg6
I-49
sg7
I-49
sg8
I-49
sg9
I-49
sg10
I-49
sg11
I-49
sg12
I-49
sg13
I-49
sg14
I-49
sg15
I-49
sg16
I-49
sg17
I-49
sS'('
I-49
sg18
I-49
sg19
I-49
sg20
I-49
sg21
I-49
sg22
I-49
sg23
I-49
sg25
I-49
sg26
I-49
sg27
I-49
sg28
I-49
sg29
I-49
sg30
I-49
sg31
I-49
sg32
I-49
sg33
I-49
sg34
I-49
sg50
I-49
sg35
I-49
sS'['
I3
sg36
I-49
sg37
I-49
sg38
I-49
sg39
I-49
sg40
I-49
sg41
I-49
sg42
I-49
sg43
I-49
sg44
I-49
sg45
I-49
sS'error'
p238
I174
sg47
I-49
sg48
I-49
sg49
I-49
sS'}'
I-84
sg51
I-49
sg52
I-49
ssI121
(dp239
g3
I-210
sg5
I-210
sg11
I-210
sg15
I-210
sg17
I-210
sS')'
I-210
sS'('
I-210
sg18
I-210
sS','
I-210
sg169
I-210
sg23
I-210
sS'>'
I-210
sg25
I-210
sg27
I-210
sg30
I-210
sg32
I-210
sg33
I-210
sg34
I-210
sg170
I-210
sg39
I-210
sg40
I-210
sg41
I-210
sg43
I-210
sg48
I-210
sg49
I-210
sg171
I-210
sg52
I-210
ssI122
(dp240
S'integer'
p241
I175
sS']'
I176
ssI123
(dp242
g3
I-244
sg5
I-244
sg11
I-244
sg15
I-244
sg17
I-244
sS')'
I-244
sS'('
I-244
sg18
I-244
sS','
I-244
sg169
I-244
sg23
I-244
sS'>'
I-244
sg25
I-244
sg27
I-244
sg30
I-244
sg32
I-244
sg33
I-244
sg34
I-244
sS'['
I140
sg170
I-244
sg39
I-244
sg40
I-244
sg41
I-244
sg43
I-244
sg48
I-244
sg49
I-244
sg171
I-244
sg52
I-244
ssI124
(dp243
g3
I-231
sg5
I-231
sg11
I-231
sg15
I-231
sg17
I-231
sS')'
I-231
sS'('
I-231
sg18
I-231
sS','
I-231
sg169
I-231
sg23
I-231
sS'>'
I-231
sg25
I-231
sg27
I-231
sg30
I-231
sg32
I-231
sg33
I-231
sg34
I-231
sS'['
I-231
sg170
I-231
sg39
I-231
sg40
I-231
sg41
I-231
sg43
I-231
sS'?'
I-231
sg48
I-231
sg49
I-231
sg171
I-231
sg52
I-231
ssI125
(dp244
S';'
I178
ssI126
(dp245
g3
I-215
sg5
I-215
sg11
I-215
sg15
I-215
sg17
I-215
sS')'
I-215
sS'('
I-215
sg18
I-215
sS','
I-215
sg169
I-215
sg23
I-215
sS'>'
I-215
sg25
I-215
sg27
I-215
sg30
I-215
sg32
I-215
sg33
I-215
sg34
I-215
sg170
I-215
sg39
I-215
sg40
I-215
sg41
I-215
sg43
I-215
sg48
I-215
sg49
I-215
sg171
I-215
sg52
I-215
ssI127
(dp246
g3
I-245
sg5
I-245
sg11
I-245
sg15
I-245
sg17
I-245
sS')'
I-245
sS'('
I-245
sg18
I-245
sS','
I-245
sg169
I-245
sg23
I-245
sS'>'
I-245
sg25
I-245
sg27
I-245
sg30
I-245
sg32
I-245
sg33
I-245
sg34
I-245
sg170
I-245
sg39
I-245
sg40
I-245
sg41
I-245
sg43
I-245
sg48
I-245
sg49
I-245
sg171
I-245
sg52
I-245
ssI128
(dp247
g3
I-242
sg5
I-242
sg11
I-242
sg15
I-242
sg17
I-242
sS')'
I-242
sS'('
I-242
sg18
I-242
sS','
I-242
sg169
I-242
sg23
I-242
sS'>'
I-242
sg25
I-242
sg27
I-242
sg30
I-242
sg32
I-242
sg33
I-242
sg34
I-242
sS'['
I122
sg170
I-242
sg39
I-242
sg40
I-242
sg41
I-242
sg43
I-242
sS'?'
I123
sg48
I-242
sg49
I-242
sg171
I-242
sg52
I-242
ssI129
(dp248
S'OR'
p249
I180
ssI130
(dp250
S')'
I-205
sg171
I-205
ssI131
(dp251
S'['
I181
ssI132
(dp252
g3
I-234
sg5
I-234
sg11
I-234
sg15
I-234
sg17
I-234
sS')'
I-234
sS'('
I-234
sg18
I-234
sS','
I-234
sg169
I-234
sg23
I-234
sS'>'
I-234
sg25
I-234
sg27
I-234
sg30
I-234
sg32
I-234
sg33
I-234
sg34
I-234
sS'['
I-234
sg170
I-234
sg39
I-234
sg40
I-234
sg41
I-234
sg43
I-234
sS'?'
I-234
sg48
I-234
sg49
I-234
sg171
I-234
sg52
I-234
ssI133
(dp253
g3
I-235
sg5
I-235
sg11
I-235
sg15
I-235
sg17
I-235
sS')'
I-235
sS'('
I-235
sg18
I-235
sS','
I-235
sg169
I-235
sg23
I-235
sS'>'
I-235
sg25
I-235
sg27
I-235
sg30
I-235
sg32
I-235
sg33
I-235
sg34
I-235
sS'['
I-235
sg170
I-235
sg39
I-235
sg40
I-235
sg41
I-235
sg43
I-235
sS'?'
I-235
sg48
I-235
sg49
I-235
sg171
I-235
sg52
I-235
ssI134
(dp254
g132
I84
sg114
I64
sg117
I73
sS'error'
p255
I183
ssI135
(dp256
g113
I63
sg114
I64
sg115
I65
sg116
I69
sg117
I73
sS'('
I75
sg118
I67
sg119
I76
sg120
I77
sg121
I78
sg122
I80
sg123
I81
sg124
I85
sg125
I86
sg126
I89
sg127
I90
sg128
I91
sg129
I94
sg130
I95
sg131
I96
sg132
I84
sg133
I93
ssI136
(dp257
g113
I63
sg114
I64
sg115
I65
sg116
I69
sg117
I73
sS'('
I75
sg118
I67
sg119
I76
sg120
I77
sg121
I78
sg122
I80
sg123
I81
sg124
I85
sg125
I86
sg126
I89
sg127
I90
sg128
I91
sg129
I94
sg130
I95
sg131
I96
sg132
I84
sg133
I93
ssI137
(dp258
g3
I-211
sg5
I-211
sg11
I-211
sg15
I-211
sg17
I-211
sS')'
I-211
sS'('
I-211
sg18
I-211
sS','
I-211
sg169
I-211
sg23
I-211
sS'>'
I-211
sg25
I-211
sg27
I-211
sg30
I-211
sg32
I-211
sg33
I-211
sg34
I-211
sg170
I-211
sg39
I-211
sg40
I-211
sg41
I-211
sg43
I-211
sg48
I-211
sg49
I-211
sg171
I-211
sg52
I-211
ssI138
(dp259
g3
I-201
sg5
I-201
sg11
I-201
sg15
I-201
sg17
I-201
sS'('
I-201
sg18
I-201
sS','
I-201
sg169
I-201
sg23
I-201
sS'>'
I-201
sg25
I-201
sg27
I-201
sg30
I-201
sg32
I-201
sg33
I-201
sg34
I-201
sg170
I-201
sg39
I-201
sg40
I-201
sg41
I-201
sg43
I-201
sg48
I-201
sg49
I-201
sg52
I-201
ssI139
(dp260
g3
I-212
sg5
I-212
sg11
I-212
sg15
I-212
sg17
I-212
sS')'
I-212
sS'('
I-212
sg18
I-212
sS','
I-212
sg169
I-212
sg23
I-212
sS'>'
I-212
sg25
I-212
sg27
I-212
sg30
I-212
sg32
I-212
sg33
I-212
sg34
I-212
sg170
I-212
sg39
I-212
sg40
I-212
sg41
I-212
sg43
I-212
sg48
I-212
sg49
I-212
sg171
I-212
sg52
I-212
ssI140
(dp261
S']'
I186
ssI141
(dp262
g3
I-203
sg5
I-203
sg11
I-203
sg15
I-203
sg17
I-203
sS'('
I-203
sg18
I-203
sS','
I-203
sg169
I-203
sg23
I-203
sS'>'
I-203
sg25
I-203
sg27
I-203
sg30
I-203
sg32
I-203
sg33
I-203
sg34
I-203
sg170
I-203
sg39
I-203
sg40
I-203
sg41
I-203
sg43
I-203
sg48
I-203
sg49
I-203
sg52
I-203
ssI142
(dp263
g113
I63
sg114
I64
sg214
I149
sg115
I65
sg116
I69
sg117
I73
sS'('
I75
sg118
I67
sg119
I76
sg120
I77
sg121
I78
sg122
I80
sg123
I81
sg124
I85
sg125
I86
sg126
I89
sg127
I90
sg128
I91
sg129
I94
sg130
I95
sg131
I96
sg132
I84
sg133
I93
ssI143
(dp264
g3
I-227
sg5
I-227
sg11
I-227
sg15
I-227
sg17
I-227
sS')'
I-227
sS'('
I-227
sg18
I-227
sS','
I-227
sg169
I-227
sg23
I-227
sS'>'
I-227
sg25
I-227
sg27
I-227
sg30
I-227
sg32
I-227
sg33
I-227
sg34
I-227
sS'['
I-227
sg170
I-227
sg39
I-227
sg40
I-227
sg41
I-227
sg43
I-227
sS'?'
I-227
sg48
I-227
sg49
I-227
sg171
I-227
sg52
I-227
ssI144
(dp265
S']'
I188
ssI145
(dp266
g66
I30
sS']'
I-53
ssI146
(dp267
g25
I-76
sg39
I-76
sg27
I-76
sg30
I-76
sg3
I-76
sg43
I-76
sg46
I-76
sg47
I-76
sS'['
I-76
sg49
I-76
sg24
I-76
ssI147
(dp268
g3
I-49
sg4
I-49
sg5
I-49
sg6
I-49
sg7
I-49
sg8
I-49
sg9
I-49
sg10
I-49
sg11
I-49
sg12
I-49
sg13
I-49
sg14
I-49
sg15
I-49
sg16
I-49
sg17
I-49
sS'('
I-49
sg18
I-49
sg19
I-49
sg20
I-49
sg21
I-49
sg22
I-49
sg23
I-49
sg25
I-49
sg26
I-49
sg27
I-49
sg28
I-49
sg29
I-49
sg30
I-49
sg31
I-49
sg32
I-49
sg33
I-49
sg34
I-49
sg50
I-49
sg35
I-49
sS'['
I3
sg36
I-49
sg37
I-49
sg38
I-49
sg39
I-49
sg40
I-49
sg41
I-49
sg42
I-49
sg43
I-49
sg44
I-49
sg45
I-49
sg46
I-49
sg47
I-49
sg48
I-49
sg49
I-49
sS'}'
I-66
sg51
I-49
sg52
I-49
ssI148
(dp269
g3
I-49
sg4
I-49
sg5
I-49
sg6
I-49
sg7
I-49
sg8
I-49
sg9
I-49
sg10
I-49
sg11
I-49
sg12
I-49
sg13
I-49
sg14
I-49
sg15
I-49
sg16
I-49
sg17
I-49
sS'('
I-49
sg18
I-49
sg19
I-49
sg20
I-49
sg21
I-49
sg22
I-49
sg23
I-49
sg25
I-49
sg26
I-49
sg27
I-49
sg28
I-49
sg29
I-49
sg30
I-49
sg31
I-49
sg32
I-49
sg33
I-49
sg34
I-49
sg50
I-49
sg35
I-49
sS'['
I3
sg36
I-49
sg37
I-49
sg38
I-49
sg39
I-49
sg40
I-49
sg41
I-49
sg42
I-49
sg43
I-49
sg44
I-49
sg45
I-49
sS'error'
p270
I192
sg47
I-49
sg48
I-49
sg49
I-49
sS'}'
I-35
sg51
I-49
sg52
I-49
ssI149
(dp271
S'('
I-248
sg49
I-248
sS'>'
I-248
ssI150
(dp272
S'('
I-247
sg49
I-247
sS'>'
I-247
ssI151
(dp273
S'('
I193
ssI152
(dp274
g3
I-49
sg4
I-49
sg5
I-49
sg6
I-49
sg7
I-49
sg8
I-49
sg9
I-49
sg10
I-49
sg11
I-49
sg12
I-49
sg13
I-49
sg14
I-49
sg15
I-49
sg16
I-49
sg17
I-49
sS'('
I-49
sg18
I-49
sg19
I-49
sg20
I-49
sg21
I-49
sg22
I-49
sg23
I-49
sg25
I-49
sg26
I-49
sg27
I-49
sg28
I-49
sg29
I-49
sg30
I-49
sg31
I-49
sg32
I-49
sg33
I-49
sg34
I-49
sg50
I-49
sg35
I-49
sS'['
I3
sg36
I-49
sg37
I-49
sg38
I-49
sg39
I-49
sg40
I-49
sg41
I-49
sg42
I-49
sg43
I-49
sg44
I-49
sg45
I-49
sS'error'
p275
I195
sg47
I-49
sg48
I-49
sg49
I-49
sS'}'
I-35
sg51
I-49
sg52
I-49
ssI153
(dp276
g25
I-98
sg39
I-98
sg27
I-98
sg30
I-98
sg3
I-98
sg43
I-98
sg46
I-98
sg47
I-98
sS'['
I-98
sg49
I-98
sg24
I-98
ssI154
(dp277
S']'
I-52
ssI155
(dp278
S']'
I-253
sS','
I-253
ssI156
(dp279
g3
I-49
sg4
I-49
sg5
I-49
sg6
I-49
sg7
I-49
sg8
I-49
sg9
I-49
sg10
I-49
sg11
I-49
sg12
I-49
sg13
I-49
sg14
I-49
sg15
I-49
sg16
I-49
sg17
I-49
sS'('
I-49
sg18
I-49
sg19
I-49
sg20
I-49
sg21
I-49
sg22
I-49
sg23
I-49
sg25
I-49
sg26
I-49
sg27
I-49
sg28
I-49
sg29
I-49
sg30
I-49
sg31
I-49
sg32
I-49
sg33
I-49
sg34
I-49
sg35
I-49
sS'['
I3
sg36
I-49
sg37
I-49
sg38
I-49
sg39
I-49
sg40
I-49
sg41
I-49
sg42
I-49
sg43
I-49
sg44
I-49
sg45
I-49
sS'error'
p280
I197
sg47
I-49
sg48
I-49
sg49
I-49
sg50
I-49
sg51
I-49
sg52
I-49
ssI157
(dp281
S')'
I-155
ssI158
(dp282
g170
I-168
sg39
I-168
sg3
I-168
sg5
I-168
sg40
I-168
sg27
I-168
sg17
I-168
sg41
I-168
sg30
I-168
sg25
I-168
sg32
I-168
sg33
I-168
sg43
I-168
sg34
I-168
sg11
I-168
sg23
I-168
sS'ELLIPSIS'
p283
I199
sg48
I-168
sg49
I-168
sg52
I-168
sg15
I-168
ssI159
(dp284
g113
I63
sg114
I64
sg115
I65
sg116
I69
sg117
I73
sS'('
I75
sg118
I67
sg119
I76
sg120
I77
sg121
I78
sg122
I80
sg123
I81
sg124
I85
sg125
I86
sg126
I89
sg127
I90
sg128
I91
sg129
I94
sg130
I95
sg131
I96
sg132
I84
sg133
I93
ssI160
(dp285
S')'
I-161
sS','
I-161
ssI161
(dp286
S')'
I-164
sS','
I-164
ssI162
(dp287
S')'
I-74
sS','
I201
ssI163
(dp288
S')'
I202
ssI164
(dp289
S')'
I203
ssI165
(dp290
S')'
I-251
sS']'
I-251
sS'}'
I-251
sS','
I204
ssI166
(dp291
g3
I-49
sg4
I-49
sg5
I-49
sg6
I-49
sg7
I-49
sg8
I-49
sg9
I-49
sg10
I-49
sg11
I-49
sg12
I-49
sg13
I-49
sg14
I-49
sg15
I-49
sg16
I-49
sg17
I-49
sS')'
I-156
sS'('
I-49
sg18
I-49
sg19
I-49
sg20
I-49
sg21
I-49
sg22
I-49
sg23
I-49
sg25
I-49
sg26
I-49
sg27
I-49
sg28
I-49
sg29
I-49
sg30
I-49
sg31
I-49
sg32
I-49
sg33
I-49
sg34
I-49
sg35
I-49
sS'['
I3
sg36
I-49
sg37
I-49
sg38
I-49
sg39
I-49
sg40
I-49
sg41
I-49
sg42
I-49
sg43
I-49
sg44
I-49
sg45
I-49
sg157
I111
sg47
I-49
sg48
I-49
sg49
I-49
sg50
I-49
sg51
I-49
sg52
I-49
ssI167
(dp292
S'}'
I207
ssI168
(dp293
g4
I-72
sg13
I-72
sg9
I-72
sg12
I-72
sg16
I-72
sS'('
I-72
sS'REQUIRED'
p294
I208
sg10
I-72
sg20
I-72
sg21
I-72
sg19
I-72
sg28
I-72
sg31
I-72
sg35
I-72
sg14
I-72
sg38
I-72
sg50
I-72
sg42
I-72
sg44
I-72
sg45
I-72
sS'error'
p295
I211
sg48
I-72
sg49
I-72
sg51
I-72
ssI169
(dp296
g25
I-64
sg39
I-64
sg27
I-64
sg30
I-64
sg3
I-64
sg43
I-64
sg46
I-64
sg47
I-64
sS'['
I-64
sg49
I-64
sg24
I-64
ssI170
(dp297
S';'
I212
ssI171
(dp298
S'}'
I-92
sS','
I213
ssI172
(dp299
S'}'
I215
ssI173
(dp300
g113
I63
sS'CONST'
p301
I220
sg115
I65
sS'READONLY'
p302
I222
sg116
I69
sg114
I64
sg117
I73
sS'('
I75
sg118
I67
sg119
I76
sg120
I77
sg121
I78
sg122
I80
sg123
I81
sg124
I85
sg125
I86
sg132
I84
sg41
I-141
sg128
I91
sg129
I94
sg130
I95
sS'error'
p303
I225
sg131
I96
sg126
I89
sg127
I90
sg133
I93
ssI174
(dp304
S'}'
I-85
ssI175
(dp305
S']'
I226
ssI176
(dp306
g3
I-242
sg5
I-242
sg11
I-242
sg15
I-242
sg17
I-242
sS')'
I-242
sS'('
I-242
sg18
I-242
sS','
I-242
sg169
I-242
sg23
I-242
sS'>'
I-242
sg25
I-242
sg27
I-242
sg30
I-242
sg32
I-242
sg33
I-242
sg34
I-242
sS'['
I122
sg170
I-242
sg39
I-242
sg40
I-242
sg41
I-242
sg43
I-242
sS'?'
I123
sg48
I-242
sg49
I-242
sg171
I-242
sg52
I-242
ssI177
(dp307
g3
I-241
sg5
I-241
sg11
I-241
sg15
I-241
sg17
I-241
sS')'
I-241
sS'('
I-241
sg18
I-241
sS','
I-241
sg169
I-241
sg23
I-241
sS'>'
I-241
sg25
I-241
sg27
I-241
sg30
I-241
sg32
I-241
sg33
I-241
sg34
I-241
sg170
I-241
sg39
I-241
sg40
I-241
sg41
I-241
sg43
I-241
sg48
I-241
sg49
I-241
sg171
I-241
sg52
I-241
ssI178
(dp308
g25
I-96
sg39
I-96
sg27
I-96
sg30
I-96
sg3
I-96
sg43
I-96
sg46
I-96
sg47
I-96
sS'['
I-96
sg49
I-96
sg24
I-96
ssI179
(dp309
S')'
I-206
sg171
I-206
ssI180
(dp310
g113
I63
sg114
I64
sg115
I65
sg116
I69
sg117
I73
sS'('
I75
sg118
I67
sg119
I76
sg120
I77
sg121
I78
sg122
I80
sg123
I81
sg124
I85
sg125
I86
sg126
I89
sg127
I90
sg128
I91
sg129
I94
sg130
I95
sg131
I96
sg132
I84
sg185
I131
ssI181
(dp311
S']'
I229
ssI182
(dp312
S','
I230
ssI183
(dp313
S','
I231
ssI184
(dp314
S'>'
I232
ssI185
(dp315
S'>'
I233
ssI186
(dp316
g3
I-242
sg5
I-242
sg11
I-242
sg15
I-242
sg17
I-242
sS')'
I-242
sS'('
I-242
sg18
I-242
sS','
I-242
sg169
I-242
sg23
I-242
sS'>'
I-242
sg25
I-242
sg27
I-242
sg30
I-242
sg32
I-242
sg33
I-242
sg34
I-242
sS'['
I122
sg170
I-242
sg39
I-242
sg40
I-242
sg41
I-242
sg43
I-242
sS'?'
I123
sg48
I-242
sg49
I-242
sg171
I-242
sg52
I-242
ssI187
(dp317
S'>'
I235
ssI188
(dp318
g4
I-179
sg13
I-179
sg9
I-179
sg12
I-179
sg16
I-179
sS'('
I-179
sg10
I-179
sg20
I-179
sg21
I-179
sg19
I-179
sg28
I-179
sg31
I-179
sg35
I-179
sg14
I-179
sg49
I-179
sg50
I-179
sg42
I-179
sg44
I-179
sg45
I-179
sg48
I-179
sg38
I-179
sg51
I-179
ssI189
(dp319
S'}'
I236
ssI190
(dp320
S'}'
I237
ssI191
(dp321
g113
I63
sg301
I220
sS'SETLIKE'
p322
I246
sS'MAPLIKE'
p323
I264
sg214
I149
sg115
I65
sg118
I67
sS'STATIC'
p324
I247
sg116
I69
sg114
I64
sS'SETTER'
p325
I248
sg117
I73
sS'CREATOR'
p326
I241
sS'('
I75
sg121
I78
sg119
I76
sg120
I77
sS'READONLY'
p327
I250
sS'SERIALIZER'
p328
I266
sg122
I80
sS'LEGACYITERABLE'
p329
I268
sg123
I81
sS'INHERIT'
p330
I260
sS'LEGACYCALLER'
p331
I244
sS'GETTER'
p332
I251
sg124
I85
sg125
I86
sS'ITERABLE'
p333
I242
sg132
I84
sS'STRINGIFIER'
p334
I255
sS'ATTRIBUTE'
p335
I256
sg128
I91
sg129
I94
sg130
I95
sS'error'
p336
I262
sg131
I96
sg126
I89
sg127
I90
sg133
I93
sS'DELETER'
p337
I270
ssI192
(dp338
S'}'
I-37
ssI193
(dp339
g3
I-49
sg4
I-49
sg5
I-49
sg6
I-49
sg7
I-49
sg8
I-49
sg9
I-49
sg10
I-49
sg11
I-49
sg12
I-49
sg13
I-49
sg14
I-49
sg15
I-49
sg16
I-49
sg17
I-49
sS')'
I-156
sS'('
I-49
sg18
I-49
sg19
I-49
sg20
I-49
sg21
I-49
sg22
I-49
sg23
I-49
sg25
I-49
sg26
I-49
sg27
I-49
sg28
I-49
sg29
I-49
sg30
I-49
sg31
I-49
sg32
I-49
sg33
I-49
sg34
I-49
sg35
I-49
sS'['
I3
sg36
I-49
sg37
I-49
sg38
I-49
sg39
I-49
sg40
I-49
sg41
I-49
sg42
I-49
sg43
I-49
sg44
I-49
sg45
I-49
sg157
I111
sg47
I-49
sg48
I-49
sg49
I-49
sg50
I-49
sg51
I-49
sg52
I-49
ssI194
(dp340
S'}'
I272
ssI195
(dp341
g25
I-22
sg39
I-22
sg27
I-22
sg30
I-22
sg3
I-22
sg43
I-22
sg46
I-22
sg47
I-22
sS'['
I-22
sg49
I-22
sS'}'
I-37
sg24
I-22
ssI196
(dp342
S')'
I-159
sS','
I156
ssI197
(dp343
S')'
I-160
ssI198
(dp344
S'IMPLEMENTS'
p345
I287
sS'EXCEPTION'
p346
I274
sS'CONST'
p347
I275
sS'STRINGIFIER'
p348
I289
sS'DICTIONARY'
p349
I282
sS'CREATOR'
p350
I278
sS'ATTRIBUTE'
p351
I290
sS'ENUM'
p352
I283
sS'TYPEDEF'
p353
I281
sS'INHERIT'
p354
I284
sS'LEGACYCALLER'
p355
I285
sS'CALLBACK'
p356
I292
sS'GETTER'
p357
I286
sS'STATIC'
p358
I276
sS'SERIALIZER'
p359
I280
sS'PARTIAL'
p360
I288
sS'UNRESTRICTED'
p361
I293
sS'identifier'
p362
I294
sS'DELETER'
p363
I295
sS'SETTER'
p364
I277
ssI199
(dp365
g170
I-167
sg3
I-167
sg5
I-167
sg40
I-167
sg27
I-167
sg17
I-167
sg41
I-167
sg30
I-167
sg25
I-167
sg32
I-167
sg33
I-167
sg43
I-167
sg34
I-167
sg11
I-167
sg23
I-167
sg39
I-167
sg48
I-167
sg49
I-167
sg52
I-167
sg15
I-167
ssI200
(dp366
g345
I287
sg346
I274
sg347
I275
sg348
I289
sg349
I282
sg350
I278
sg351
I290
sg352
I283
sg353
I281
sg354
I284
sg355
I285
sg356
I292
sg357
I286
sg358
I276
sg359
I280
sg360
I288
sg361
I293
sg362
I294
sg363
I295
sg364
I277
ssI201
(dp367
g160
I112
ssI202
(dp368
S']'
I-255
sS','
I-255
ssI203
(dp369
S']'
I-69
sS','
I-69
ssI204
(dp370
S'identifier'
p371
I298
ssI205
(dp372
S')'
I-249
ssI206
(dp373
S')'
I299
ssI207
(dp374
S';'
I300
ssI208
(dp375
g4
I-71
sg13
I-71
sg9
I-71
sg12
I-71
sg16
I-71
sS'('
I-71
sg10
I-71
sg20
I-71
sg21
I-71
sg19
I-71
sg28
I-71
sg31
I-71
sg35
I-71
sg14
I-71
sg49
I-71
sg50
I-71
sg42
I-71
sg44
I-71
sg45
I-71
sg48
I-71
sg38
I-71
sg51
I-71
ssI209
(dp376
g113
I63
sg114
I64
sg115
I65
sg116
I69
sg117
I73
sS'('
I75
sg118
I67
sg119
I76
sg120
I77
sg121
I78
sg122
I80
sg123
I81
sg124
I85
sg125
I86
sg126
I89
sg127
I90
sg128
I91
sg129
I94
sg130
I95
sg131
I96
sg132
I84
sg133
I93
ssI210
(dp377
g3
I-49
sg4
I-49
sg5
I-49
sg6
I-49
sg7
I-49
sg8
I-49
sg9
I-49
sg10
I-49
sg11
I-49
sg12
I-49
sg13
I-49
sg14
I-49
sg15
I-49
sg16
I-49
sg17
I-49
sS'('
I-49
sg18
I-49
sg19
I-49
sg20
I-49
sg21
I-49
sg22
I-49
sg23
I-49
sg25
I-49
sg26
I-49
sg27
I-49
sg28
I-49
sg29
I-49
sg30
I-49
sg31
I-49
sg32
I-49
sg33
I-49
sg34
I-49
sg50
I-49
sg35
I-49
sS'['
I3
sg36
I-49
sg37
I-49
sg38
I-49
sg39
I-49
sg40
I-49
sg41
I-49
sg42
I-49
sg43
I-49
sg44
I-49
sg45
I-49
sg46
I-49
sg47
I-49
sg48
I-49
sg49
I-49
sS'}'
I-66
sg51
I-49
sg52
I-49
ssI211
(dp378
S'}'
I-68
ssI212
(dp379
g25
I-88
sg39
I-88
sg27
I-88
sg30
I-88
sg3
I-88
sg43
I-88
sg46
I-88
sg47
I-88
sS'['
I-88
sg49
I-88
sg24
I-88
ssI213
(dp380
g3
I-49
sg4
I-49
sg5
I-49
sg6
I-49
sg7
I-49
sg8
I-49
sg9
I-49
sg10
I-49
sg11
I-49
sg12
I-49
sg13
I-49
sg14
I-49
sg15
I-49
sg16
I-49
sg17
I-49
sS'('
I-49
sg18
I-49
sg19
I-49
sg20
I-49
sg21
I-49
sg22
I-49
sg23
I-49
sg25
I-49
sg26
I-49
sg27
I-49
sg28
I-49
sg29
I-49
sg30
I-49
sg31
I-49
sg32
I-49
sg33
I-49
sg34
I-49
sg50
I-49
sg35
I-49
sS'['
I3
sg36
I-49
sg37
I-49
sg38
I-49
sg39
I-49
sg40
I-49
sg41
I-49
sg42
I-49
sg43
I-49
sg44
I-49
sg45
I-49
sg46
I-49
sg47
I-49
sg48
I-49
sg49
I-49
sS'}'
I-94
sg51
I-49
sg52
I-49
ssI214
(dp381
S'}'
I-90
ssI215
(dp382
S';'
I305
ssI216
(dp383
g4
I-26
sg5
I-26
sg9
I-26
sg22
I-26
sg12
I-26
sg13
I-26
sg14
I-26
sg16
I-26
sS'('
I-26
sg10
I-26
sg20
I-26
sg21
I-26
sg19
I-26
sg28
I-26
sg31
I-26
sg35
I-26
sS'['
I-26
sg38
I-26
sg41
I-26
sg42
I-26
sS'}'
I-26
sg44
I-26
sg45
I-26
sg46
I-26
sg48
I-26
sg49
I-26
sg50
I-26
sg51
I-26
ssI217
(dp384
g4
I-28
sg5
I-28
sg9
I-28
sg22
I-28
sg12
I-28
sg13
I-28
sg14
I-28
sg16
I-28
sS'('
I-28
sg10
I-28
sg20
I-28
sg21
I-28
sg19
I-28
sg28
I-28
sg31
I-28
sg35
I-28
sS'['
I-28
sg38
I-28
sg41
I-28
sg42
I-28
sS'}'
I-28
sg44
I-28
sg45
I-28
sg46
I-28
sg48
I-28
sg49
I-28
sg50
I-28
sg51
I-28
ssI218
(dp385
g4
I-29
sg5
I-29
sg9
I-29
sg22
I-29
sg12
I-29
sg13
I-29
sg14
I-29
sg16
I-29
sS'('
I-29
sg10
I-29
sg20
I-29
sg21
I-29
sg19
I-29
sg28
I-29
sg31
I-29
sg35
I-29
sS'['
I-29
sg38
I-29
sg41
I-29
sg42
I-29
sS'}'
I-29
sg44
I-29
sg45
I-29
sg46
I-29
sg48
I-29
sg49
I-29
sg50
I-29
sg51
I-29
ssI219
(dp386
g4
I-27
sg5
I-27
sg9
I-27
sg22
I-27
sg12
I-27
sg13
I-27
sg14
I-27
sg16
I-27
sS'('
I-27
sg10
I-27
sg20
I-27
sg21
I-27
sg19
I-27
sg28
I-27
sg31
I-27
sg35
I-27
sS'['
I-27
sg38
I-27
sg41
I-27
sg42
I-27
sS'}'
I-27
sg44
I-27
sg45
I-27
sg46
I-27
sg48
I-27
sg49
I-27
sg50
I-27
sg51
I-27
ssI220
(dp387
g132
I84
sg114
I64
sg117
I73
sg127
I90
sg115
I65
sg123
I81
sg118
I67
sg119
I76
sg128
I91
sg113
I63
sg129
I94
sg116
I69
sg124
I85
sg125
I86
sS'identifier'
p388
I307
sg131
I96
ssI221
(dp389
S'identifier'
p390
I309
ssI222
(dp391
g41
I-140
ssI223
(dp392
g3
I-49
sg4
I-49
sg5
I-49
sg6
I-49
sg7
I-49
sg8
I-49
sg9
I-49
sg10
I-49
sg11
I-49
sg12
I-49
sg13
I-49
sg14
I-49
sg15
I-49
sg16
I-49
sg17
I-49
sS'('
I-49
sg18
I-49
sg19
I-49
sg20
I-49
sg21
I-49
sg22
I-49
sg23
I-49
sg25
I-49
sg26
I-49
sg27
I-49
sg28
I-49
sg29
I-49
sg30
I-49
sg31
I-49
sg32
I-49
sg33
I-49
sg34
I-49
sg50
I-49
sg35
I-49
sS'['
I3
sg36
I-49
sg37
I-49
sg38
I-49
sg39
I-49
sg40
I-49
sg41
I-49
sg42
I-49
sg43
I-49
sg44
I-49
sg45
I-49
sg238
I174
sg47
I-49
sg48
I-49
sg49
I-49
sS'}'
I-84
sg51
I-49
sg52
I-49
ssI224
(dp393
S'ATTRIBUTE'
p394
I311
ssI225
(dp395
g4
I-170
sg5
I-170
sg9
I-170
sg22
I-170
sg12
I-170
sg13
I-170
sg14
I-170
sg16
I-170
sS'('
I-170
sg10
I-170
sg20
I-170
sg21
I-170
sg19
I-170
sg28
I-170
sg31
I-170
sg35
I-170
sS'['
I-170
sg38
I-170
sg41
I-170
sg42
I-170
sS'}'
I-170
sg44
I-170
sg45
I-170
sg46
I-170
sg48
I-170
sg49
I-170
sg50
I-170
sg51
I-170
ssI226
(dp396
g3
I-242
sg5
I-242
sg11
I-242
sg15
I-242
sg17
I-242
sS')'
I-242
sS'('
I-242
sg18
I-242
sS','
I-242
sg169
I-242
sg23
I-242
sS'>'
I-242
sg25
I-242
sg27
I-242
sg30
I-242
sg32
I-242
sg33
I-242
sg34
I-242
sS'['
I122
sg170
I-242
sg39
I-242
sg40
I-242
sg41
I-242
sg43
I-242
sS'?'
I123
sg48
I-242
sg49
I-242
sg171
I-242
sg52
I-242
ssI227
(dp397
g3
I-240
sg5
I-240
sg11
I-240
sg15
I-240
sg17
I-240
sS')'
I-240
sS'('
I-240
sg18
I-240
sS','
I-240
sg169
I-240
sg23
I-240
sS'>'
I-240
sg25
I-240
sg27
I-240
sg30
I-240
sg32
I-240
sg33
I-240
sg34
I-240
sg170
I-240
sg39
I-240
sg40
I-240
sg41
I-240
sg43
I-240
sg48
I-240
sg49
I-240
sg171
I-240
sg52
I-240
ssI228
(dp398
S')'
I-209
sS'OR'
p399
I313
ssI229
(dp400
g3
I-242
sg5
I-242
sg11
I-242
sg15
I-242
sg17
I-242
sS')'
I-242
sS'('
I-242
sg18
I-242
sS','
I-242
sg169
I-242
sg23
I-242
sS'>'
I-242
sg25
I-242
sg27
I-242
sg30
I-242
sg32
I-242
sg33
I-242
sg34
I-242
sS'['
I122
sg170
I-242
sg39
I-242
sg40
I-242
sg41
I-242
sg43
I-242
sS'?'
I123
sg48
I-242
sg49
I-242
sg171
I-242
sg52
I-242
ssI230
(dp401
g113
I63
sg114
I64
sg115
I65
sg116
I69
sg117
I73
sS'('
I75
sg118
I67
sg119
I76
sg120
I77
sg121
I78
sg122
I80
sg123
I81
sg124
I85
sg125
I86
sg126
I89
sg127
I90
sg128
I91
sg129
I94
sg130
I95
sg131
I96
sg132
I84
sg133
I93
ssI231
(dp402
g113
I63
sg114
I64
sg115
I65
sg116
I69
sg117
I73
sS'('
I75
sg118
I67
sg119
I76
sg120
I77
sg121
I78
sg122
I80
sg123
I81
sg124
I85
sg125
I86
sg126
I89
sg127
I90
sg128
I91
sg129
I94
sg130
I95
sg131
I96
sg132
I84
sg133
I93
ssI232
(dp403
g3
I-246
sg5
I-246
sg11
I-246
sg15
I-246
sg17
I-246
sS')'
I-246
sS'('
I-246
sg18
I-246
sS','
I-246
sg169
I-246
sg23
I-246
sS'>'
I-246
sg25
I-246
sg27
I-246
sg30
I-246
sg32
I-246
sg33
I-246
sg34
I-246
sg170
I-246
sg39
I-246
sg40
I-246
sg41
I-246
sg43
I-246
sS'?'
I127
sg48
I-246
sg49
I-246
sg171
I-246
sg52
I-246
ssI233
(dp404
g3
I-246
sg5
I-246
sg11
I-246
sg15
I-246
sg17
I-246
sS')'
I-246
sS'('
I-246
sg18
I-246
sS','
I-246
sg169
I-246
sg23
I-246
sS'>'
I-246
sg25
I-246
sg27
I-246
sg30
I-246
sg32
I-246
sg33
I-246
sg34
I-246
sg170
I-246
sg39
I-246
sg40
I-246
sg41
I-246
sg43
I-246
sS'?'
I127
sg48
I-246
sg49
I-246
sg171
I-246
sg52
I-246
ssI234
(dp405
g3
I-243
sg5
I-243
sg11
I-243
sg15
I-243
sg17
I-243
sS')'
I-243
sS'('
I-243
sg18
I-243
sS','
I-243
sg169
I-243
sg23
I-243
sS'>'
I-243
sg25
I-243
sg27
I-243
sg30
I-243
sg32
I-243
sg33
I-243
sg34
I-243
sg170
I-243
sg39
I-243
sg40
I-243
sg41
I-243
sg43
I-243
sg48
I-243
sg49
I-243
sg171
I-243
sg52
I-243
ssI235
(dp406
g3
I-237
sg5
I-237
sg11
I-237
sg15
I-237
sg17
I-237
sS')'
I-237
sS'('
I-237
sg18
I-237
sS','
I-237
sg169
I-237
sg23
I-237
sS'>'
I-237
sg25
I-237
sg27
I-237
sg30
I-237
sg32
I-237
sg33
I-237
sg34
I-237
sg170
I-237
sg39
I-237
sg40
I-237
sg41
I-237
sg43
I-237
sS'?'
I-237
sg48
I-237
sg49
I-237
sg171
I-237
sg52
I-237
ssI236
(dp407
S';'
I320
ssI237
(dp408
S';'
I321
ssI238
(dp409
g4
I-38
sg5
I-38
sg6
I-38
sg7
I-38
sg8
I-38
sg9
I-38
sg10
I-38
sg11
I-38
sg12
I-38
sg13
I-38
sg14
I-38
sg15
I-38
sg16
I-38
sg17
I-38
sS'('
I-38
sg19
I-38
sg20
I-38
sg21
I-38
sg22
I-38
sg23
I-38
sg28
I-38
sg29
I-38
sg31
I-38
sg32
I-38
sg33
I-38
sg34
I-38
sg35
I-38
sS'['
I-38
sg37
I-38
sg38
I-38
sg40
I-38
sg41
I-38
sg42
I-38
sS'}'
I-38
sg44
I-38
sg45
I-38
sg46
I-38
sg48
I-38
sg49
I-38
sg50
I-38
sg51
I-38
sg52
I-38
ssI239
(dp410
g4
I-175
sg5
I-175
sg6
I-175
sg7
I-175
sg8
I-175
sg9
I-175
sg10
I-175
sg11
I-175
sg12
I-175
sg13
I-175
sg14
I-175
sg15
I-175
sg16
I-175
sg17
I-175
sS'('
I-175
sg19
I-175
sg20
I-175
sg21
I-175
sg22
I-175
sg23
I-175
sg28
I-175
sg29
I-175
sg31
I-175
sg32
I-175
sg33
I-175
sg34
I-175
sg35
I-175
sS'['
I-175
sg37
I-175
sg38
I-175
sg40
I-175
sg41
I-175
sg42
I-175
sS'}'
I-175
sg44
I-175
sg45
I-175
sg46
I-175
sg48
I-175
sg49
I-175
sg50
I-175
sg51
I-175
sg52
I-175
ssI240
(dp411
g4
I-42
sg5
I-42
sg6
I-42
sg7
I-42
sg8
I-42
sg9
I-42
sg10
I-42
sg11
I-42
sg12
I-42
sg13
I-42
sg14
I-42
sg15
I-42
sg16
I-42
sg17
I-42
sS'('
I-42
sg19
I-42
sg20
I-42
sg21
I-42
sg22
I-42
sg23
I-42
sg28
I-42
sg29
I-42
sg31
I-42
sg32
I-42
sg33
I-42
sg34
I-42
sg35
I-42
sS'['
I-42
sg37
I-42
sg38
I-42
sg40
I-42
sg41
I-42
sg42
I-42
sS'}'
I-42
sg44
I-42
sg45
I-42
sg46
I-42
sg48
I-42
sg49
I-42
sg50
I-42
sg51
I-42
sg52
I-42
ssI241
(dp412
g4
I-149
sg13
I-149
sg8
I-149
sg9
I-149
sg12
I-149
sg15
I-149
sg16
I-149
sg17
I-149
sS'('
I-149
sg10
I-149
sg20
I-149
sg21
I-149
sg19
I-149
sg28
I-149
sg31
I-149
sg33
I-149
sg34
I-149
sg35
I-149
sg14
I-149
sg38
I-149
sg50
I-149
sg42
I-149
sg44
I-149
sg45
I-149
sg48
I-149
sg49
I-149
sg51
I-149
sg52
I-149
ssI242
(dp413
S'<'
I322
ssI243
(dp414
g4
I-46
sg5
I-46
sg6
I-46
sg7
I-46
sg8
I-46
sg9
I-46
sg10
I-46
sg11
I-46
sg12
I-46
sg13
I-46
sg14
I-46
sg15
I-46
sg16
I-46
sg17
I-46
sS'('
I-46
sg19
I-46
sg20
I-46
sg21
I-46
sg22
I-46
sg23
I-46
sg28
I-46
sg29
I-46
sg31
I-46
sg32
I-46
sg33
I-46
sg34
I-46
sg35
I-46
sS'['
I-46
sg37
I-46
sg38
I-46
sg40
I-46
sg41
I-46
sg42
I-46
sS'}'
I-46
sg44
I-46
sg45
I-46
sg46
I-46
sg48
I-46
sg49
I-46
sg50
I-46
sg51
I-46
sg52
I-46
ssI244
(dp415
g4
I-151
sg13
I-151
sg8
I-151
sg9
I-151
sg12
I-151
sg15
I-151
sg16
I-151
sg17
I-151
sS'('
I-151
sg10
I-151
sg20
I-151
sg21
I-151
sg19
I-151
sg28
I-151
sg31
I-151
sg33
I-151
sg34
I-151
sg35
I-151
sg14
I-151
sg38
I-151
sg50
I-151
sg42
I-151
sg44
I-151
sg45
I-151
sg48
I-151
sg49
I-151
sg51
I-151
sg52
I-151
ssI245
(dp416
g4
I-43
sg5
I-43
sg6
I-43
sg7
I-43
sg8
I-43
sg9
I-43
sg10
I-43
sg11
I-43
sg12
I-43
sg13
I-43
sg14
I-43
sg15
I-43
sg16
I-43
sg17
I-43
sS'('
I-43
sg19
I-43
sg20
I-43
sg21
I-43
sg22
I-43
sg23
I-43
sg28
I-43
sg29
I-43
sg31
I-43
sg32
I-43
sg33
I-43
sg34
I-43
sg35
I-43
sS'['
I-43
sg37
I-43
sg38
I-43
sg40
I-43
sg41
I-43
sg42
I-43
sS'}'
I-43
sg44
I-43
sg45
I-43
sg46
I-43
sg48
I-43
sg49
I-43
sg50
I-43
sg51
I-43
sg52
I-43
ssI246
(dp417
S'<'
I323
ssI247
(dp418
g113
I63
sg114
I64
sg214
I149
sg115
I65
sg302
I222
sg116
I69
sg117
I73
sS'('
I75
sg118
I67
sg119
I76
sg120
I77
sg121
I78
sg122
I80
sg123
I81
sg124
I85
sg125
I86
sg126
I89
sg41
I-141
sg128
I91
sg129
I94
sg130
I95
sg127
I90
sg131
I96
sg132
I84
sg133
I93
ssI248
(dp419
g4
I-148
sg13
I-148
sg8
I-148
sg9
I-148
sg12
I-148
sg15
I-148
sg16
I-148
sg17
I-148
sS'('
I-148
sg10
I-148
sg20
I-148
sg21
I-148
sg19
I-148
sg28
I-148
sg31
I-148
sg33
I-148
sg34
I-148
sg35
I-148
sg14
I-148
sg38
I-148
sg50
I-148
sg42
I-148
sg44
I-148
sg45
I-148
sg48
I-148
sg49
I-148
sg51
I-148
sg52
I-148
ssI249
(dp420
g4
I-41
sg5
I-41
sg6
I-41
sg7
I-41
sg8
I-41
sg9
I-41
sg10
I-41
sg11
I-41
sg12
I-41
sg13
I-41
sg14
I-41
sg15
I-41
sg16
I-41
sg17
I-41
sS'('
I-41
sg19
I-41
sg20
I-41
sg21
I-41
sg22
I-41
sg23
I-41
sg28
I-41
sg29
I-41
sg31
I-41
sg32
I-41
sg33
I-41
sg34
I-41
sg35
I-41
sS'['
I-41
sg37
I-41
sg38
I-41
sg40
I-41
sg41
I-41
sg42
I-41
sS'}'
I-41
sg44
I-41
sg45
I-41
sg46
I-41
sg48
I-41
sg49
I-41
sg50
I-41
sg51
I-41
sg52
I-41
ssI250
(dp421
g323
I264
sg335
I256
sg322
I246
ssI251
(dp422
g4
I-147
sg13
I-147
sg8
I-147
sg9
I-147
sg12
I-147
sg15
I-147
sg16
I-147
sg17
I-147
sS'('
I-147
sg10
I-147
sg20
I-147
sg21
I-147
sg19
I-147
sg28
I-147
sg31
I-147
sg33
I-147
sg34
I-147
sg35
I-147
sg14
I-147
sg38
I-147
sg50
I-147
sg42
I-147
sg44
I-147
sg45
I-147
sg48
I-147
sg49
I-147
sg51
I-147
sg52
I-147
ssI252
(dp423
g4
I-47
sg5
I-47
sg6
I-47
sg7
I-47
sg8
I-47
sg9
I-47
sg10
I-47
sg11
I-47
sg12
I-47
sg13
I-47
sg14
I-47
sg15
I-47
sg16
I-47
sg17
I-47
sS'('
I-47
sg19
I-47
sg20
I-47
sg21
I-47
sg22
I-47
sg23
I-47
sg28
I-47
sg29
I-47
sg31
I-47
sg32
I-47
sg33
I-47
sg34
I-47
sg35
I-47
sS'['
I-47
sg37
I-47
sg38
I-47
sg40
I-47
sg41
I-47
sg42
I-47
sS'}'
I-47
sg44
I-47
sg45
I-47
sg46
I-47
sg48
I-47
sg49
I-47
sg50
I-47
sg51
I-47
sg52
I-47
ssI253
(dp424
g4
I-39
sg5
I-39
sg6
I-39
sg7
I-39
sg8
I-39
sg9
I-39
sg10
I-39
sg11
I-39
sg12
I-39
sg13
I-39
sg14
I-39
sg15
I-39
sg16
I-39
sg17
I-39
sS'('
I-39
sg19
I-39
sg20
I-39
sg21
I-39
sg22
I-39
sg23
I-39
sg28
I-39
sg29
I-39
sg31
I-39
sg32
I-39
sg33
I-39
sg34
I-39
sg35
I-39
sS'['
I-39
sg37
I-39
sg38
I-39
sg40
I-39
sg41
I-39
sg42
I-39
sS'}'
I-39
sg44
I-39
sg45
I-39
sg46
I-39
sg48
I-39
sg49
I-39
sg50
I-39
sg51
I-39
sg52
I-39
ssI254
(dp425
g4
I-45
sg5
I-45
sg6
I-45
sg7
I-45
sg8
I-45
sg9
I-45
sg10
I-45
sg11
I-45
sg12
I-45
sg13
I-45
sg14
I-45
sg15
I-45
sg16
I-45
sg17
I-45
sS'('
I-45
sg19
I-45
sg20
I-45
sg21
I-45
sg22
I-45
sg23
I-45
sg28
I-45
sg29
I-45
sg31
I-45
sg32
I-45
sg33
I-45
sg34
I-45
sg35
I-45
sS'['
I-45
sg37
I-45
sg38
I-45
sg40
I-45
sg41
I-45
sg42
I-45
sS'}'
I-45
sg44
I-45
sg45
I-45
sg46
I-45
sg48
I-45
sg49
I-45
sg50
I-45
sg51
I-45
sg52
I-45
ssI255
(dp426
g113
I63
sg114
I64
sg214
I149
sg115
I65
sg302
I222
sg116
I69
sg117
I73
sS'('
I75
sg118
I67
sg119
I76
sg120
I77
sg121
I78
sS';'
I332
sg122
I80
sg123
I81
sg124
I85
sg125
I86
sg126
I89
sg41
I-141
sg128
I91
sg129
I94
sg130
I95
sg127
I90
sg131
I96
sg132
I84
sg133
I93
ssI256
(dp427
g113
I63
sg114
I64
sg115
I65
sg116
I69
sg117
I73
sS'('
I75
sg118
I67
sg119
I76
sg120
I77
sg121
I78
sg122
I80
sg123
I81
sg124
I85
sg125
I86
sg126
I89
sg127
I90
sg128
I91
sg129
I94
sg130
I95
sg131
I96
sg132
I84
sg133
I93
ssI257
(dp428
g4
I-176
sg5
I-176
sg6
I-176
sg7
I-176
sg8
I-176
sg9
I-176
sg10
I-176
sg11
I-176
sg12
I-176
sg13
I-176
sg14
I-176
sg15
I-176
sg16
I-176
sg17
I-176
sS'('
I-176
sg19
I-176
sg20
I-176
sg21
I-176
sg22
I-176
sg23
I-176
sg28
I-176
sg29
I-176
sg31
I-176
sg32
I-176
sg33
I-176
sg34
I-176
sg35
I-176
sS'['
I-176
sg37
I-176
sg38
I-176
sg40
I-176
sg41
I-176
sg42
I-176
sS'}'
I-176
sg44
I-176
sg45
I-176
sg46
I-176
sg48
I-176
sg49
I-176
sg50
I-176
sg51
I-176
sg52
I-176
ssI258
(dp429
g3
I-49
sg4
I-49
sg5
I-49
sg6
I-49
sg7
I-49
sg8
I-49
sg9
I-49
sg10
I-49
sg11
I-49
sg12
I-49
sg13
I-49
sg14
I-49
sg15
I-49
sg16
I-49
sg17
I-49
sS'('
I-49
sg18
I-49
sg19
I-49
sg20
I-49
sg21
I-49
sg22
I-49
sg23
I-49
sg25
I-49
sg26
I-49
sg27
I-49
sg28
I-49
sg29
I-49
sg30
I-49
sg31
I-49
sg32
I-49
sg33
I-49
sg34
I-49
sg50
I-49
sg35
I-49
sS'['
I3
sg36
I-49
sg37
I-49
sg38
I-49
sg39
I-49
sg40
I-49
sg41
I-49
sg42
I-49
sg43
I-49
sg44
I-49
sg45
I-49
sg270
I192
sg47
I-49
sg48
I-49
sg49
I-49
sS'}'
I-35
sg51
I-49
sg52
I-49
ssI259
(dp430
g4
I-135
sg5
I-135
sg6
I-135
sg7
I-135
sg8
I-135
sg9
I-135
sg10
I-135
sg11
I-135
sg12
I-135
sg13
I-135
sg14
I-135
sg15
I-135
sg16
I-135
sg17
I-135
sS'('
I-135
sg19
I-135
sg20
I-135
sg21
I-135
sg22
I-135
sg23
I-135
sg28
I-135
sg29
I-135
sg31
I-135
sg32
I-135
sg33
I-135
sg34
I-135
sg35
I-135
sS'['
I-135
sg37
I-135
sg38
I-135
sg40
I-135
sg41
I-135
sg42
I-135
sS'}'
I-135
sg44
I-135
sg45
I-135
sg46
I-135
sg48
I-135
sg49
I-135
sg50
I-135
sg51
I-135
sg52
I-135
ssI260
(dp431
g41
I-141
sg302
I222
ssI261
(dp432
g4
I-40
sg5
I-40
sg6
I-40
sg7
I-40
sg8
I-40
sg9
I-40
sg10
I-40
sg11
I-40
sg12
I-40
sg13
I-40
sg14
I-40
sg15
I-40
sg16
I-40
sg17
I-40
sS'('
I-40
sg19
I-40
sg20
I-40
sg21
I-40
sg22
I-40
sg23
I-40
sg28
I-40
sg29
I-40
sg31
I-40
sg32
I-40
sg33
I-40
sg34
I-40
sg35
I-40
sS'['
I-40
sg37
I-40
sg38
I-40
sg40
I-40
sg41
I-40
sg42
I-40
sS'}'
I-40
sg44
I-40
sg45
I-40
sg46
I-40
sg48
I-40
sg49
I-40
sg50
I-40
sg51
I-40
sg52
I-40
ssI262
(dp433
S';'
I338
ssI263
(dp434
g4
I-146
sg13
I-146
sg8
I-146
sg9
I-146
sg12
I-146
sg325
I248
sg16
I-146
sg326
I241
sS'('
I-146
sg10
I-146
sg20
I-146
sg21
I-146
sg19
I-146
sg28
I-146
sg31
I-146
sg331
I244
sg332
I251
sg35
I-146
sg14
I-146
sg49
I-146
sg50
I-146
sg42
I-146
sg44
I-146
sg45
I-146
sg48
I-146
sg38
I-146
sg51
I-146
sg337
I270
ssI264
(dp435
S'<'
I341
ssI265
(dp436
g4
I-44
sg5
I-44
sg6
I-44
sg7
I-44
sg8
I-44
sg9
I-44
sg10
I-44
sg11
I-44
sg12
I-44
sg13
I-44
sg14
I-44
sg15
I-44
sg16
I-44
sg17
I-44
sS'('
I-44
sg19
I-44
sg20
I-44
sg21
I-44
sg22
I-44
sg23
I-44
sg28
I-44
sg29
I-44
sg31
I-44
sg32
I-44
sg33
I-44
sg34
I-44
sg35
I-44
sS'['
I-44
sg37
I-44
sg38
I-44
sg40
I-44
sg41
I-44
sg42
I-44
sS'}'
I-44
sg44
I-44
sg45
I-44
sg46
I-44
sg48
I-44
sg49
I-44
sg50
I-44
sg51
I-44
sg52
I-44
ssI266
(dp437
g113
I63
sg114
I64
sg214
I149
sg115
I65
sg116
I69
sg117
I73
sS'('
I75
sg118
I67
sg119
I76
sg120
I77
sg121
I78
sS';'
I343
sS'='
I344
sg122
I80
sg123
I81
sg124
I85
sg125
I86
sg126
I89
sg127
I90
sg128
I91
sg129
I94
sg130
I95
sg131
I96
sg132
I84
sg133
I93
ssI267
(dp438
g4
I-143
sg5
I-143
sg6
I-143
sg7
I-143
sg8
I-143
sg9
I-143
sg10
I-143
sg11
I-143
sg12
I-143
sg13
I-143
sg14
I-143
sg15
I-143
sg16
I-143
sg17
I-143
sS'('
I-143
sg19
I-143
sg20
I-143
sg21
I-143
sg22
I-143
sg23
I-143
sg28
I-143
sg29
I-143
sg31
I-143
sg32
I-143
sg33
I-143
sg34
I-143
sg35
I-143
sS'['
I-143
sg37
I-143
sg38
I-143
sg40
I-143
sg41
I-143
sg42
I-143
sS'}'
I-143
sg44
I-143
sg45
I-143
sg46
I-143
sg48
I-143
sg49
I-143
sg50
I-143
sg51
I-143
sg52
I-143
ssI268
(dp439
S'<'
I346
ssI269
(dp440
S'('
I-154
sS'identifier'
p441
I349
ssI270
(dp442
g4
I-150
sg13
I-150
sg8
I-150
sg9
I-150
sg12
I-150
sg15
I-150
sg16
I-150
sg17
I-150
sS'('
I-150
sg10
I-150
sg20
I-150
sg21
I-150
sg19
I-150
sg28
I-150
sg31
I-150
sg33
I-150
sg34
I-150
sg35
I-150
sg14
I-150
sg38
I-150
sg50
I-150
sg42
I-150
sg44
I-150
sg45
I-150
sg48
I-150
sg49
I-150
sg51
I-150
sg52
I-150
ssI271
(dp443
S')'
I350
ssI272
(dp444
S';'
I351
ssI273
(dp445
S')'
I-158
ssI274
(dp446
S')'
I-188
sS'='
I-188
sS','
I-188
ssI275
(dp447
S')'
I-183
sS'='
I-183
sS','
I-183
ssI276
(dp448
S')'
I-196
sS'='
I-196
sS','
I-196
ssI277
(dp449
S')'
I-195
sS'='
I-195
sS','
I-195
ssI278
(dp450
S')'
I-184
sS'='
I-184
sS','
I-184
ssI279
(dp451
S')'
I-163
sS','
I-163
ssI280
(dp452
S')'
I-194
sS'='
I-194
sS','
I-194
ssI281
(dp453
S')'
I-198
sS'='
I-198
sS','
I-198
ssI282
(dp454
S')'
I-186
sS'='
I-186
sS','
I-186
ssI283
(dp455
S')'
I-187
sS'='
I-187
sS','
I-187
ssI284
(dp456
S')'
I-191
sS'='
I-191
sS','
I-191
ssI285
(dp457
S')'
I-192
sS'='
I-192
sS','
I-192
ssI286
(dp458
S')'
I-189
sS'='
I-189
sS','
I-189
ssI287
(dp459
S')'
I-190
sS'='
I-190
sS','
I-190
ssI288
(dp460
S')'
I-193
sS'='
I-193
sS','
I-193
ssI289
(dp461
S')'
I-197
sS'='
I-197
sS','
I-197
ssI290
(dp462
S')'
I-181
sS'='
I-181
sS','
I-181
ssI291
(dp463
S')'
I-165
sS'='
I-165
sS','
I-165
ssI292
(dp464
S')'
I-182
sS'='
I-182
sS','
I-182
ssI293
(dp465
S')'
I-199
sS'='
I-199
sS','
I-199
ssI294
(dp466
S')'
I-166
sS'='
I-166
sS','
I-166
ssI295
(dp467
S')'
I-185
sS'='
I-185
sS','
I-185
ssI296
(dp468
S')'
I-78
sS';'
I-78
sS'='
I352
sS','
I-78
ssI297
(dp469
S')'
I-73
ssI298
(dp470
S')'
I-251
sS']'
I-251
sS'}'
I-251
sS','
I204
ssI299
(dp471
S']'
I-256
sS','
I-256
ssI300
(dp472
g25
I-55
sg39
I-55
sg27
I-55
sg30
I-55
sg3
I-55
sg43
I-55
sg46
I-55
sg47
I-55
sS'['
I-55
sg49
I-55
sg24
I-55
ssI301
(dp473
S'identifier'
p474
I355
ssI302
(dp475
S'}'
I-65
ssI303
(dp476
S'string'
p477
I356
ssI304
(dp478
S'}'
I-91
ssI305
(dp479
g25
I-82
sg39
I-82
sg27
I-82
sg30
I-82
sg3
I-82
sg43
I-82
sg46
I-82
sg47
I-82
sS'['
I-82
sg49
I-82
sg24
I-82
ssI306
(dp480
g3
I-246
sg5
I-246
sg11
I-246
sg15
I-246
sg17
I-246
sS')'
I-246
sS'('
I-246
sg18
I-246
sS','
I-246
sg169
I-246
sg23
I-246
sS'>'
I-246
sg25
I-246
sg27
I-246
sg30
I-246
sg32
I-246
sg33
I-246
sg34
I-246
sg170
I-246
sg39
I-246
sg40
I-246
sg41
I-246
sg43
I-246
sS'?'
I127
sg48
I-246
sg49
I-246
sg171
I-246
sg52
I-246
ssI307
(dp481
g3
I-246
sg5
I-246
sg11
I-246
sg15
I-246
sg17
I-246
sS')'
I-246
sS'('
I-246
sg18
I-246
sS','
I-246
sg169
I-246
sg23
I-246
sS'>'
I-246
sg25
I-246
sg27
I-246
sg30
I-246
sg32
I-246
sg33
I-246
sg34
I-246
sg170
I-246
sg39
I-246
sg40
I-246
sg41
I-246
sg43
I-246
sS'?'
I127
sg48
I-246
sg49
I-246
sg171
I-246
sg52
I-246
ssI308
(dp482
S'identifier'
p483
I359
ssI309
(dp484
S'('
I360
sS';'
I361
ssI310
(dp485
S'}'
I-83
ssI311
(dp486
g113
I63
sg114
I64
sg115
I65
sg116
I69
sg117
I73
sS'('
I75
sg118
I67
sg119
I76
sg120
I77
sg121
I78
sg122
I80
sg123
I81
sg124
I85
sg125
I86
sg126
I89
sg127
I90
sg128
I91
sg129
I94
sg130
I95
sg131
I96
sg132
I84
sg133
I93
ssI312
(dp487
g3
I-239
sg5
I-239
sg11
I-239
sg15
I-239
sg17
I-239
sS')'
I-239
sS'('
I-239
sg18
I-239
sS','
I-239
sg169
I-239
sg23
I-239
sS'>'
I-239
sg25
I-239
sg27
I-239
sg30
I-239
sg32
I-239
sg33
I-239
sg34
I-239
sg170
I-239
sg39
I-239
sg40
I-239
sg41
I-239
sg43
I-239
sg48
I-239
sg49
I-239
sg171
I-239
sg52
I-239
ssI313
(dp488
g113
I63
sg114
I64
sg115
I65
sg116
I69
sg117
I73
sS'('
I75
sg118
I67
sg119
I76
sg120
I77
sg121
I78
sg122
I80
sg123
I81
sg124
I85
sg125
I86
sg126
I89
sg127
I90
sg128
I91
sg129
I94
sg130
I95
sg131
I96
sg132
I84
sg185
I131
ssI314
(dp489
S')'
I364
ssI315
(dp490
S')'
I-207
sg171
I-207
ssI316
(dp491
S'>'
I365
ssI317
(dp492
S'>'
I366
ssI318
(dp493
g3
I-214
sg5
I-214
sg11
I-214
sg15
I-214
sg17
I-214
sS')'
I-214
sS'('
I-214
sg18
I-214
sS','
I-214
sg169
I-214
sg23
I-214
sS'>'
I-214
sg25
I-214
sg27
I-214
sg30
I-214
sg32
I-214
sg33
I-214
sg34
I-214
sg170
I-214
sg39
I-214
sg40
I-214
sg41
I-214
sg43
I-214
sg48
I-214
sg49
I-214
sg171
I-214
sg52
I-214
ssI319
(dp494
g3
I-213
sg5
I-213
sg11
I-213
sg15
I-213
sg17
I-213
sS')'
I-213
sS'('
I-213
sg18
I-213
sS','
I-213
sg169
I-213
sg23
I-213
sS'>'
I-213
sg25
I-213
sg27
I-213
sg30
I-213
sg32
I-213
sg33
I-213
sg34
I-213
sg170
I-213
sg39
I-213
sg40
I-213
sg41
I-213
sg43
I-213
sg48
I-213
sg49
I-213
sg171
I-213
sg52
I-213
ssI320
(dp495
g25
I-75
sg39
I-75
sg27
I-75
sg30
I-75
sg3
I-75
sg43
I-75
sg46
I-75
sg47
I-75
sS'['
I-75
sg49
I-75
sg24
I-75
ssI321
(dp496
g25
I-32
sg39
I-32
sg27
I-32
sg30
I-32
sg3
I-32
sg43
I-32
sg46
I-32
sg47
I-32
sS'['
I-32
sg49
I-32
sg24
I-32
ssI322
(dp497
g113
I63
sg114
I64
sg115
I65
sg116
I69
sg117
I73
sS'('
I75
sg118
I67
sg119
I76
sg120
I77
sg121
I78
sg122
I80
sg123
I81
sg124
I85
sg125
I86
sg126
I89
sg127
I90
sg128
I91
sg129
I94
sg130
I95
sg131
I96
sg132
I84
sg133
I93
ssI323
(dp498
g113
I63
sg114
I64
sg115
I65
sg116
I69
sg117
I73
sS'('
I75
sg118
I67
sg119
I76
sg120
I77
sg121
I78
sg122
I80
sg123
I81
sg124
I85
sg125
I86
sg126
I89
sg127
I90
sg128
I91
sg129
I94
sg130
I95
sg131
I96
sg132
I84
sg133
I93
ssI324
(dp499
g4
I-127
sg5
I-127
sg6
I-127
sg7
I-127
sg8
I-127
sg9
I-127
sg10
I-127
sg11
I-127
sg12
I-127
sg13
I-127
sg14
I-127
sg15
I-127
sg16
I-127
sg17
I-127
sS'('
I-127
sg19
I-127
sg20
I-127
sg21
I-127
sg22
I-127
sg23
I-127
sg28
I-127
sg29
I-127
sg31
I-127
sg32
I-127
sg33
I-127
sg34
I-127
sg35
I-127
sS'['
I-127
sg37
I-127
sg38
I-127
sg40
I-127
sg41
I-127
sg42
I-127
sS'}'
I-127
sg44
I-127
sg45
I-127
sg46
I-127
sg48
I-127
sg49
I-127
sg50
I-127
sg51
I-127
sg52
I-127
ssI325
(dp500
S'('
I-154
sg441
I349
ssI326
(dp501
g335
I256
ssI327
(dp502
g4
I-131
sg5
I-131
sg6
I-131
sg7
I-131
sg8
I-131
sg9
I-131
sg10
I-131
sg11
I-131
sg12
I-131
sg13
I-131
sg14
I-131
sg15
I-131
sg16
I-131
sg17
I-131
sS'('
I-131
sg19
I-131
sg20
I-131
sg21
I-131
sg22
I-131
sg23
I-131
sg28
I-131
sg29
I-131
sg31
I-131
sg32
I-131
sg33
I-131
sg34
I-131
sg35
I-131
sS'['
I-131
sg37
I-131
sg38
I-131
sg40
I-131
sg41
I-131
sg42
I-131
sS'}'
I-131
sg44
I-131
sg45
I-131
sg46
I-131
sg48
I-131
sg49
I-131
sg50
I-131
sg51
I-131
sg52
I-131
ssI328
(dp503
g4
I-133
sg5
I-133
sg6
I-133
sg7
I-133
sg8
I-133
sg9
I-133
sg10
I-133
sg11
I-133
sg12
I-133
sg13
I-133
sg14
I-133
sg15
I-133
sg16
I-133
sg17
I-133
sS'('
I-133
sg19
I-133
sg20
I-133
sg21
I-133
sg22
I-133
sg23
I-133
sg28
I-133
sg29
I-133
sg31
I-133
sg32
I-133
sg33
I-133
sg34
I-133
sg35
I-133
sS'['
I-133
sg37
I-133
sg38
I-133
sg40
I-133
sg41
I-133
sg42
I-133
sS'}'
I-133
sg44
I-133
sg45
I-133
sg46
I-133
sg48
I-133
sg49
I-133
sg50
I-133
sg51
I-133
sg52
I-133
ssI329
(dp504
g4
I-132
sg5
I-132
sg6
I-132
sg7
I-132
sg8
I-132
sg9
I-132
sg10
I-132
sg11
I-132
sg12
I-132
sg13
I-132
sg14
I-132
sg15
I-132
sg16
I-132
sg17
I-132
sS'('
I-132
sg19
I-132
sg20
I-132
sg21
I-132
sg22
I-132
sg23
I-132
sg28
I-132
sg29
I-132
sg31
I-132
sg32
I-132
sg33
I-132
sg34
I-132
sg35
I-132
sS'['
I-132
sg37
I-132
sg38
I-132
sg40
I-132
sg41
I-132
sg42
I-132
sS'}'
I-132
sg44
I-132
sg45
I-132
sg46
I-132
sg48
I-132
sg49
I-132
sg50
I-132
sg51
I-132
sg52
I-132
ssI330
(dp505
g4
I-130
sg5
I-130
sg6
I-130
sg7
I-130
sg8
I-130
sg9
I-130
sg10
I-130
sg11
I-130
sg12
I-130
sg13
I-130
sg14
I-130
sg15
I-130
sg16
I-130
sg17
I-130
sS'('
I-130
sg19
I-130
sg20
I-130
sg21
I-130
sg22
I-130
sg23
I-130
sg28
I-130
sg29
I-130
sg31
I-130
sg32
I-130
sg33
I-130
sg34
I-130
sg35
I-130
sS'['
I-130
sg37
I-130
sg38
I-130
sg40
I-130
sg41
I-130
sg42
I-130
sS'}'
I-130
sg44
I-130
sg45
I-130
sg46
I-130
sg48
I-130
sg49
I-130
sg50
I-130
sg51
I-130
sg52
I-130
ssI331
(dp506
g4
I-123
sg5
I-123
sg6
I-123
sg7
I-123
sg8
I-123
sg9
I-123
sg10
I-123
sg11
I-123
sg12
I-123
sg13
I-123
sg14
I-123
sg15
I-123
sg16
I-123
sg17
I-123
sS'('
I-123
sg19
I-123
sg20
I-123
sg21
I-123
sg22
I-123
sg23
I-123
sg28
I-123
sg29
I-123
sg31
I-123
sg32
I-123
sg33
I-123
sg34
I-123
sg35
I-123
sS'['
I-123
sg37
I-123
sg38
I-123
sg40
I-123
sg41
I-123
sg42
I-123
sS'}'
I-123
sg44
I-123
sg45
I-123
sg46
I-123
sg48
I-123
sg49
I-123
sg50
I-123
sg51
I-123
sg52
I-123
ssI332
(dp507
g4
I-126
sg5
I-126
sg6
I-126
sg7
I-126
sg8
I-126
sg9
I-126
sg10
I-126
sg11
I-126
sg12
I-126
sg13
I-126
sg14
I-126
sg15
I-126
sg16
I-126
sg17
I-126
sS'('
I-126
sg19
I-126
sg20
I-126
sg21
I-126
sg22
I-126
sg23
I-126
sg28
I-126
sg29
I-126
sg31
I-126
sg32
I-126
sg33
I-126
sg34
I-126
sg35
I-126
sS'['
I-126
sg37
I-126
sg38
I-126
sg40
I-126
sg41
I-126
sg42
I-126
sS'}'
I-126
sg44
I-126
sg45
I-126
sg46
I-126
sg48
I-126
sg49
I-126
sg50
I-126
sg51
I-126
sg52
I-126
ssI333
(dp508
S'('
I-154
sg441
I349
ssI334
(dp509
g335
I256
ssI335
(dp510
S'identifier'
p511
I375
sS'REQUIRED'
p512
I373
ssI336
(dp513
S'}'
I-34
ssI337
(dp514
g335
I256
ssI338
(dp515
g4
I-51
sg5
I-51
sg6
I-51
sg7
I-51
sg8
I-51
sg9
I-51
sg10
I-51
sg11
I-51
sg12
I-51
sg13
I-51
sg14
I-51
sg15
I-51
sg16
I-51
sg17
I-51
sS'('
I-51
sg19
I-51
sg20
I-51
sg21
I-51
sg22
I-51
sg23
I-51
sg28
I-51
sg29
I-51
sg31
I-51
sg32
I-51
sg33
I-51
sg34
I-51
sg35
I-51
sS'['
I-51
sg37
I-51
sg38
I-51
sg40
I-51
sg41
I-51
sg42
I-51
sS'}'
I-51
sg44
I-51
sg45
I-51
sg46
I-51
sg48
I-51
sg49
I-51
sg50
I-51
sg51
I-51
sg52
I-51
ssI339
(dp516
g113
I63
sg114
I64
sg214
I149
sg115
I65
sg116
I69
sg117
I73
sS'('
I75
sg118
I67
sg119
I76
sg120
I77
sg121
I78
sg122
I80
sg123
I81
sg124
I85
sg125
I86
sg126
I89
sg127
I90
sg128
I91
sg129
I94
sg130
I95
sg131
I96
sg132
I84
sg133
I93
ssI340
(dp517
g4
I-146
sg13
I-146
sg8
I-146
sg9
I-146
sg12
I-146
sg325
I248
sg16
I-146
sg326
I241
sS'('
I-146
sg10
I-146
sg20
I-146
sg21
I-146
sg19
I-146
sg28
I-146
sg31
I-146
sg331
I244
sg332
I251
sg35
I-146
sg14
I-146
sg49
I-146
sg50
I-146
sg42
I-146
sg44
I-146
sg45
I-146
sg48
I-146
sg38
I-146
sg51
I-146
sg337
I270
ssI341
(dp518
g113
I63
sg114
I64
sg115
I65
sg116
I69
sg117
I73
sS'('
I75
sg118
I67
sg119
I76
sg120
I77
sg121
I78
sg122
I80
sg123
I81
sg124
I85
sg125
I86
sg126
I89
sg127
I90
sg128
I91
sg129
I94
sg130
I95
sg131
I96
sg132
I84
sg133
I93
ssI342
(dp519
g4
I-107
sg5
I-107
sg6
I-107
sg7
I-107
sg8
I-107
sg9
I-107
sg10
I-107
sg11
I-107
sg12
I-107
sg13
I-107
sg14
I-107
sg15
I-107
sg16
I-107
sg17
I-107
sS'('
I-107
sg19
I-107
sg20
I-107
sg21
I-107
sg22
I-107
sg23
I-107
sg28
I-107
sg29
I-107
sg31
I-107
sg32
I-107
sg33
I-107
sg34
I-107
sg35
I-107
sS'['
I-107
sg37
I-107
sg38
I-107
sg40
I-107
sg41
I-107
sg42
I-107
sS'}'
I-107
sg44
I-107
sg45
I-107
sg46
I-107
sg48
I-107
sg49
I-107
sg50
I-107
sg51
I-107
sg52
I-107
ssI343
(dp520
g4
I-110
sg5
I-110
sg6
I-110
sg7
I-110
sg8
I-110
sg9
I-110
sg10
I-110
sg11
I-110
sg12
I-110
sg13
I-110
sg14
I-110
sg15
I-110
sg16
I-110
sg17
I-110
sS'('
I-110
sg19
I-110
sg20
I-110
sg21
I-110
sg22
I-110
sg23
I-110
sg28
I-110
sg29
I-110
sg31
I-110
sg32
I-110
sg33
I-110
sg34
I-110
sg35
I-110
sS'['
I-110
sg37
I-110
sg38
I-110
sg40
I-110
sg41
I-110
sg42
I-110
sS'}'
I-110
sg44
I-110
sg45
I-110
sg46
I-110
sg48
I-110
sg49
I-110
sg50
I-110
sg51
I-110
sg52
I-110
ssI344
(dp521
S'{'
I383
sS'identifier'
p522
I382
sS'['
I381
ssI345
(dp523
S'('
I-154
sg441
I349
ssI346
(dp524
g113
I63
sg114
I64
sg115
I65
sg116
I69
sg117
I73
sS'('
I75
sg118
I67
sg119
I76
sg120
I77
sg121
I78
sg122
I80
sg123
I81
sg124
I85
sg125
I86
sg126
I89
sg127
I90
sg128
I91
sg129
I94
sg130
I95
sg131
I96
sg132
I84
sg133
I93
ssI347
(dp525
g4
I-142
sg5
I-142
sg6
I-142
sg7
I-142
sg8
I-142
sg9
I-142
sg10
I-142
sg11
I-142
sg12
I-142
sg13
I-142
sg14
I-142
sg15
I-142
sg16
I-142
sg17
I-142
sS'('
I-142
sg19
I-142
sg20
I-142
sg21
I-142
sg22
I-142
sg23
I-142
sg28
I-142
sg29
I-142
sg31
I-142
sg32
I-142
sg33
I-142
sg34
I-142
sg35
I-142
sS'['
I-142
sg37
I-142
sg38
I-142
sg40
I-142
sg41
I-142
sg42
I-142
sS'}'
I-142
sg44
I-142
sg45
I-142
sg46
I-142
sg48
I-142
sg49
I-142
sg50
I-142
sg51
I-142
sg52
I-142
ssI348
(dp526
S'('
I387
ssI349
(dp527
S'('
I-153
ssI350
(dp528
S';'
I388
ssI351
(dp529
g25
I-20
sg39
I-20
sg27
I-20
sg30
I-20
sg3
I-20
sg43
I-20
sg46
I-20
sg47
I-20
sS'['
I-20
sg49
I-20
sg24
I-20
ssI352
(dp530
S'FALSE'
p531
I390
sS'string'
p532
I391
sS'NAN'
p533
I400
sS'float'
p534
I394
sS'-'
I395
sS'integer'
p535
I399
sS'INFINITY'
p536
I401
sS'['
I402
sS'NULL'
p537
I398
sS'TRUE'
p538
I405
ssI353
(dp539
S')'
I-162
sS','
I-162
ssI354
(dp540
S')'
I-250
sS']'
I-250
sS'}'
I-250
ssI355
(dp541
S')'
I-78
sS';'
I-78
sS'='
I352
sS','
I-78
ssI356
(dp542
S'}'
I-92
sS','
I213
ssI357
(dp543
g49
I-216
ssI358
(dp544
g49
I-217
ssI359
(dp545
S'='
I408
ssI360
(dp546
S')'
I409
ssI361
(dp547
g4
I-169
sg5
I-169
sg9
I-169
sg22
I-169
sg12
I-169
sg13
I-169
sg14
I-169
sg16
I-169
sS'('
I-169
sg10
I-169
sg20
I-169
sg21
I-169
sg19
I-169
sg28
I-169
sg31
I-169
sg35
I-169
sS'['
I-169
sg38
I-169
sg41
I-169
sg42
I-169
sS'}'
I-169
sg44
I-169
sg45
I-169
sg46
I-169
sg48
I-169
sg49
I-169
sg50
I-169
sg51
I-169
ssI362
(dp548
S'identifier'
p549
I410
ssI363
(dp550
S')'
I-209
sg399
I313
ssI364
(dp551
g3
I-204
sg5
I-204
sg11
I-204
sg15
I-204
sg17
I-204
sS')'
I-204
sS'('
I-204
sg18
I-204
sS','
I-204
sg169
I-204
sg23
I-204
sS'>'
I-204
sg25
I-204
sg27
I-204
sg30
I-204
sg32
I-204
sg33
I-204
sg34
I-204
sS'['
I-204
sg170
I-204
sg39
I-204
sg40
I-204
sg41
I-204
sg43
I-204
sS'?'
I-204
sg48
I-204
sg49
I-204
sg171
I-204
sg52
I-204
ssI365
(dp552
g3
I-260
sg5
I-260
sg11
I-260
sg15
I-260
sg17
I-260
sS')'
I-260
sS'('
I-260
sg18
I-260
sS','
I-260
sg169
I-260
sg23
I-260
sS'>'
I-260
sg25
I-260
sg27
I-260
sg30
I-260
sg32
I-260
sg33
I-260
sg34
I-260
sg170
I-260
sg39
I-260
sg40
I-260
sg41
I-260
sg43
I-260
sS'?'
I-260
sg48
I-260
sg49
I-260
sg171
I-260
sg52
I-260
ssI366
(dp553
g3
I-261
sg5
I-261
sg11
I-261
sg15
I-261
sg17
I-261
sS')'
I-261
sS'('
I-261
sg18
I-261
sS','
I-261
sg169
I-261
sg23
I-261
sS'>'
I-261
sg25
I-261
sg27
I-261
sg30
I-261
sg32
I-261
sg33
I-261
sg34
I-261
sg170
I-261
sg39
I-261
sg40
I-261
sg41
I-261
sg43
I-261
sS'?'
I-261
sg48
I-261
sg49
I-261
sg171
I-261
sg52
I-261
ssI367
(dp554
S','
I412
sS'>'
I-174
ssI368
(dp555
S'>'
I414
ssI369
(dp556
g4
I-129
sg5
I-129
sg6
I-129
sg7
I-129
sg8
I-129
sg9
I-129
sg10
I-129
sg11
I-129
sg12
I-129
sg13
I-129
sg14
I-129
sg15
I-129
sg16
I-129
sg17
I-129
sS'('
I-129
sg19
I-129
sg20
I-129
sg21
I-129
sg22
I-129
sg23
I-129
sg28
I-129
sg29
I-129
sg31
I-129
sg32
I-129
sg33
I-129
sg34
I-129
sg35
I-129
sS'['
I-129
sg37
I-129
sg38
I-129
sg40
I-129
sg41
I-129
sg42
I-129
sS'}'
I-129
sg44
I-129
sg45
I-129
sg46
I-129
sg48
I-129
sg49
I-129
sg50
I-129
sg51
I-129
sg52
I-129
ssI370
(dp557
g4
I-128
sg5
I-128
sg6
I-128
sg7
I-128
sg8
I-128
sg9
I-128
sg10
I-128
sg11
I-128
sg12
I-128
sg13
I-128
sg14
I-128
sg15
I-128
sg16
I-128
sg17
I-128
sS'('
I-128
sg19
I-128
sg20
I-128
sg21
I-128
sg22
I-128
sg23
I-128
sg28
I-128
sg29
I-128
sg31
I-128
sg32
I-128
sg33
I-128
sg34
I-128
sg35
I-128
sS'['
I-128
sg37
I-128
sg38
I-128
sg40
I-128
sg41
I-128
sg42
I-128
sS'}'
I-128
sg44
I-128
sg45
I-128
sg46
I-128
sg48
I-128
sg49
I-128
sg50
I-128
sg51
I-128
sg52
I-128
ssI371
(dp558
g4
I-125
sg5
I-125
sg6
I-125
sg7
I-125
sg8
I-125
sg9
I-125
sg10
I-125
sg11
I-125
sg12
I-125
sg13
I-125
sg14
I-125
sg15
I-125
sg16
I-125
sg17
I-125
sS'('
I-125
sg19
I-125
sg20
I-125
sg21
I-125
sg22
I-125
sg23
I-125
sg28
I-125
sg29
I-125
sg31
I-125
sg32
I-125
sg33
I-125
sg34
I-125
sg35
I-125
sS'['
I-125
sg37
I-125
sg38
I-125
sg40
I-125
sg41
I-125
sg42
I-125
sS'}'
I-125
sg44
I-125
sg45
I-125
sg46
I-125
sg48
I-125
sg49
I-125
sg50
I-125
sg51
I-125
sg52
I-125
ssI372
(dp559
g4
I-124
sg5
I-124
sg6
I-124
sg7
I-124
sg8
I-124
sg9
I-124
sg10
I-124
sg11
I-124
sg12
I-124
sg13
I-124
sg14
I-124
sg15
I-124
sg16
I-124
sg17
I-124
sS'('
I-124
sg19
I-124
sg20
I-124
sg21
I-124
sg22
I-124
sg23
I-124
sg28
I-124
sg29
I-124
sg31
I-124
sg32
I-124
sg33
I-124
sg34
I-124
sg35
I-124
sS'['
I-124
sg37
I-124
sg38
I-124
sg40
I-124
sg41
I-124
sg42
I-124
sS'}'
I-124
sg44
I-124
sg45
I-124
sg46
I-124
sg48
I-124
sg49
I-124
sg50
I-124
sg51
I-124
sg52
I-124
ssI373
(dp560
S';'
I-139
ssI374
(dp561
S';'
I415
ssI375
(dp562
S';'
I-138
ssI376
(dp563
S';'
I-137
ssI377
(dp564
g4
I-134
sg5
I-134
sg6
I-134
sg7
I-134
sg8
I-134
sg9
I-134
sg10
I-134
sg11
I-134
sg12
I-134
sg13
I-134
sg14
I-134
sg15
I-134
sg16
I-134
sg17
I-134
sS'('
I-134
sg19
I-134
sg20
I-134
sg21
I-134
sg22
I-134
sg23
I-134
sg28
I-134
sg29
I-134
sg31
I-134
sg32
I-134
sg33
I-134
sg34
I-134
sg35
I-134
sS'['
I-134
sg37
I-134
sg38
I-134
sg40
I-134
sg41
I-134
sg42
I-134
sS'}'
I-134
sg44
I-134
sg45
I-134
sg46
I-134
sg48
I-134
sg49
I-134
sg50
I-134
sg51
I-134
sg52
I-134
ssI378
(dp565
S'('
I-154
sg441
I349
ssI379
(dp566
g4
I-145
sg13
I-145
sg8
I-145
sg9
I-145
sg12
I-145
sg16
I-145
sS'('
I-145
sg10
I-145
sg20
I-145
sg21
I-145
sg19
I-145
sg28
I-145
sg31
I-145
sg35
I-145
sg14
I-145
sg49
I-145
sg50
I-145
sg42
I-145
sg44
I-145
sg45
I-145
sg48
I-145
sg38
I-145
sg51
I-145
ssI380
(dp567
S','
I417
ssI381
(dp568
S'GETTER'
p569
I419
sS']'
I-122
sS'identifier'
p570
I420
ssI382
(dp571
S';'
I-113
ssI383
(dp572
S'ATTRIBUTE'
p573
I421
sS'identifier'
p574
I425
sS'GETTER'
p575
I424
sS'}'
I-119
sS'INHERIT'
p576
I422
ssI384
(dp577
S';'
I426
ssI385
(dp578
g4
I-108
sg5
I-108
sg6
I-108
sg7
I-108
sg8
I-108
sg9
I-108
sg10
I-108
sg11
I-108
sg12
I-108
sg13
I-108
sg14
I-108
sg15
I-108
sg16
I-108
sg17
I-108
sS'('
I-108
sg19
I-108
sg20
I-108
sg21
I-108
sg22
I-108
sg23
I-108
sg28
I-108
sg29
I-108
sg31
I-108
sg32
I-108
sg33
I-108
sg34
I-108
sg35
I-108
sS'['
I-108
sg37
I-108
sg38
I-108
sg40
I-108
sg41
I-108
sg42
I-108
sS'}'
I-108
sg44
I-108
sg45
I-108
sg46
I-108
sg48
I-108
sg49
I-108
sg50
I-108
sg51
I-108
sg52
I-108
ssI386
(dp579
S'>'
I427
ssI387
(dp580
g3
I-49
sg4
I-49
sg5
I-49
sg6
I-49
sg7
I-49
sg8
I-49
sg9
I-49
sg10
I-49
sg11
I-49
sg12
I-49
sg13
I-49
sg14
I-49
sg15
I-49
sg16
I-49
sg17
I-49
sS')'
I-156
sS'('
I-49
sg18
I-49
sg19
I-49
sg20
I-49
sg21
I-49
sg22
I-49
sg23
I-49
sg25
I-49
sg26
I-49
sg27
I-49
sg28
I-49
sg29
I-49
sg30
I-49
sg31
I-49
sg32
I-49
sg33
I-49
sg34
I-49
sg35
I-49
sS'['
I3
sg36
I-49
sg37
I-49
sg38
I-49
sg39
I-49
sg40
I-49
sg41
I-49
sg42
I-49
sg43
I-49
sg44
I-49
sg45
I-49
sg157
I111
sg47
I-49
sg48
I-49
sg49
I-49
sg50
I-49
sg51
I-49
sg52
I-49
ssI388
(dp581
g25
I-95
sg39
I-95
sg27
I-95
sg30
I-95
sg3
I-95
sg43
I-95
sg46
I-95
sg47
I-95
sS'['
I-95
sg49
I-95
sg24
I-95
ssI389
(dp582
S')'
I-17
sS';'
I-17
sS','
I-17
ssI390
(dp583
S')'
I-102
sS';'
I-102
sS','
I-102
ssI391
(dp584
S')'
I-24
sS';'
I-24
sS']'
I-24
sS','
I-24
ssI392
(dp585
S')'
I-15
sS';'
I-15
sS','
I-15
ssI393
(dp586
S')'
I-77
sS';'
I-77
sS','
I-77
ssI394
(dp587
S')'
I-103
sS';'
I-103
sS','
I-103
ssI395
(dp588
S'INFINITY'
p589
I429
ssI396
(dp590
S')'
I-16
sS';'
I-16
sS','
I-16
ssI397
(dp591
S')'
I-13
sS';'
I-13
sS','
I-13
ssI398
(dp592
S')'
I-100
sS';'
I-100
sS','
I-100
ssI399
(dp593
S')'
I-21
sS';'
I-21
sS','
I-21
ssI400
(dp594
S')'
I-106
sS';'
I-106
sS','
I-106
ssI401
(dp595
S')'
I-105
sS';'
I-105
sS','
I-105
ssI402
(dp596
S']'
I430
ssI403
(dp597
S')'
I-14
sS';'
I-14
sS','
I-14
ssI404
(dp598
S')'
I-79
sS';'
I-79
sS','
I-79
ssI405
(dp599
S')'
I-101
sS';'
I-101
sS','
I-101
ssI406
(dp600
S';'
I431
ssI407
(dp601
S'}'
I-93
ssI408
(dp602
g531
I390
sg160
I112
sg533
I400
sg534
I394
sS'-'
I395
sg535
I399
sg536
I401
sg537
I398
sg538
I405
ssI409
(dp603
S';'
I433
ssI410
(dp604
S';'
I434
ssI411
(dp605
S')'
I-208
ssI412
(dp606
g113
I63
sg114
I64
sg115
I65
sg116
I69
sg117
I73
sS'('
I75
sg118
I67
sg119
I76
sg120
I77
sg121
I78
sg122
I80
sg123
I81
sg124
I85
sg125
I86
sg126
I89
sg127
I90
sg128
I91
sg129
I94
sg130
I95
sg131
I96
sg132
I84
sg133
I93
ssI413
(dp607
S'>'
I436
ssI414
(dp608
S';'
I437
ssI415
(dp609
g4
I-136
sg5
I-136
sg6
I-136
sg7
I-136
sg8
I-136
sg9
I-136
sg10
I-136
sg11
I-136
sg12
I-136
sg13
I-136
sg14
I-136
sg15
I-136
sg16
I-136
sg17
I-136
sS'('
I-136
sg19
I-136
sg20
I-136
sg21
I-136
sg22
I-136
sg23
I-136
sg28
I-136
sg29
I-136
sg31
I-136
sg32
I-136
sg33
I-136
sg34
I-136
sg35
I-136
sS'['
I-136
sg37
I-136
sg38
I-136
sg40
I-136
sg41
I-136
sg42
I-136
sS'}'
I-136
sg44
I-136
sg45
I-136
sg46
I-136
sg48
I-136
sg49
I-136
sg50
I-136
sg51
I-136
sg52
I-136
ssI416
(dp610
g4
I-144
sg5
I-144
sg6
I-144
sg7
I-144
sg8
I-144
sg9
I-144
sg10
I-144
sg11
I-144
sg12
I-144
sg13
I-144
sg14
I-144
sg15
I-144
sg16
I-144
sg17
I-144
sS'('
I-144
sg19
I-144
sg20
I-144
sg21
I-144
sg22
I-144
sg23
I-144
sg28
I-144
sg29
I-144
sg31
I-144
sg32
I-144
sg33
I-144
sg34
I-144
sg35
I-144
sS'['
I-144
sg37
I-144
sg38
I-144
sg40
I-144
sg41
I-144
sg42
I-144
sS'}'
I-144
sg44
I-144
sg45
I-144
sg46
I-144
sg48
I-144
sg49
I-144
sg50
I-144
sg51
I-144
sg52
I-144
ssI417
(dp611
g113
I63
sg114
I64
sg115
I65
sg116
I69
sg117
I73
sS'('
I75
sg118
I67
sg119
I76
sg120
I77
sg121
I78
sg122
I80
sg123
I81
sg124
I85
sg125
I86
sg126
I89
sg127
I90
sg128
I91
sg129
I94
sg130
I95
sg131
I96
sg132
I84
sg133
I93
ssI418
(dp612
S']'
I439
ssI419
(dp613
S']'
I-120
ssI420
(dp614
S')'
I-251
sS']'
I-251
sS'}'
I-251
sS','
I204
ssI421
(dp615
S'}'
I-115
ssI422
(dp616
S')'
I-251
sS']'
I-251
sS'}'
I-251
sS','
I442
ssI423
(dp617
S'}'
I443
ssI424
(dp618
S'}'
I-114
ssI425
(dp619
S')'
I-251
sS']'
I-251
sS'}'
I-251
sS','
I204
ssI426
(dp620
g4
I-109
sg5
I-109
sg6
I-109
sg7
I-109
sg8
I-109
sg9
I-109
sg10
I-109
sg11
I-109
sg12
I-109
sg13
I-109
sg14
I-109
sg15
I-109
sg16
I-109
sg17
I-109
sS'('
I-109
sg19
I-109
sg20
I-109
sg21
I-109
sg22
I-109
sg23
I-109
sg28
I-109
sg29
I-109
sg31
I-109
sg32
I-109
sg33
I-109
sg34
I-109
sg35
I-109
sS'['
I-109
sg37
I-109
sg38
I-109
sg40
I-109
sg41
I-109
sg42
I-109
sS'}'
I-109
sg44
I-109
sg45
I-109
sg46
I-109
sg48
I-109
sg49
I-109
sg50
I-109
sg51
I-109
sg52
I-109
ssI427
(dp621
S';'
I445
ssI428
(dp622
S')'
I446
ssI429
(dp623
S')'
I-104
sS';'
I-104
sS','
I-104
ssI430
(dp624
S')'
I-81
sS';'
I-81
sS','
I-81
ssI431
(dp625
g4
I-70
sg13
I-70
sg9
I-70
sg12
I-70
sg14
I-70
sg16
I-70
sS'('
I-70
sg18
I-70
sg10
I-70
sg20
I-70
sg21
I-70
sg19
I-70
sg28
I-70
sg31
I-70
sg35
I-70
sS'['
I-70
sg38
I-70
sg50
I-70
sg42
I-70
sg44
I-70
sg45
I-70
sg46
I-70
sg48
I-70
sg49
I-70
sS'}'
I-70
sg51
I-70
ssI432
(dp626
S';'
I447
ssI433
(dp627
g4
I-36
sg5
I-36
sg9
I-36
sg22
I-36
sg12
I-36
sg13
I-36
sg14
I-36
sg16
I-36
sS'('
I-36
sg10
I-36
sg20
I-36
sg21
I-36
sg19
I-36
sg28
I-36
sg31
I-36
sg35
I-36
sS'['
I-36
sg38
I-36
sg41
I-36
sg42
I-36
sS'}'
I-36
sg44
I-36
sg45
I-36
sg46
I-36
sg48
I-36
sg49
I-36
sg50
I-36
sg51
I-36
ssI434
(dp628
g4
I-33
sg5
I-33
sg9
I-33
sg22
I-33
sg12
I-33
sg13
I-33
sg14
I-33
sg16
I-33
sS'('
I-33
sg10
I-33
sg20
I-33
sg21
I-33
sg19
I-33
sg28
I-33
sg31
I-33
sg35
I-33
sS'['
I-33
sg38
I-33
sg41
I-33
sg42
I-33
sS'}'
I-33
sg44
I-33
sg45
I-33
sg46
I-33
sg48
I-33
sg49
I-33
sg50
I-33
sg51
I-33
ssI435
(dp629
S'>'
I-173
ssI436
(dp630
S';'
I448
ssI437
(dp631
g4
I-178
sg5
I-178
sg6
I-178
sg7
I-178
sg8
I-178
sg9
I-178
sg10
I-178
sg11
I-178
sg12
I-178
sg13
I-178
sg14
I-178
sg15
I-178
sg16
I-178
sg17
I-178
sS'('
I-178
sg19
I-178
sg20
I-178
sg21
I-178
sg22
I-178
sg23
I-178
sg28
I-178
sg29
I-178
sg31
I-178
sg32
I-178
sg33
I-178
sg34
I-178
sg35
I-178
sS'['
I-178
sg37
I-178
sg38
I-178
sg40
I-178
sg41
I-178
sg42
I-178
sS'}'
I-178
sg44
I-178
sg45
I-178
sg46
I-178
sg48
I-178
sg49
I-178
sg50
I-178
sg51
I-178
sg52
I-178
ssI438
(dp632
S'>'
I449
ssI439
(dp633
S';'
I-112
ssI440
(dp634
S']'
I-121
ssI441
(dp635
S'}'
I-117
ssI442
(dp636
S'ATTRIBUTE'
p637
I450
sg371
I298
ssI443
(dp638
S';'
I-111
ssI444
(dp639
S'}'
I-118
ssI445
(dp640
g4
I-172
sg5
I-172
sg6
I-172
sg7
I-172
sg8
I-172
sg9
I-172
sg10
I-172
sg11
I-172
sg12
I-172
sg13
I-172
sg14
I-172
sg15
I-172
sg16
I-172
sg17
I-172
sS'('
I-172
sg19
I-172
sg20
I-172
sg21
I-172
sg22
I-172
sg23
I-172
sg28
I-172
sg29
I-172
sg31
I-172
sg32
I-172
sg33
I-172
sg34
I-172
sg35
I-172
sS'['
I-172
sg37
I-172
sg38
I-172
sg40
I-172
sg41
I-172
sg42
I-172
sS'}'
I-172
sg44
I-172
sg45
I-172
sg46
I-172
sg48
I-172
sg49
I-172
sg50
I-172
sg51
I-172
sg52
I-172
ssI446
(dp641
S';'
I451
ssI447
(dp642
g4
I-99
sg5
I-99
sg6
I-99
sg7
I-99
sg8
I-99
sg9
I-99
sg10
I-99
sg11
I-99
sg12
I-99
sg13
I-99
sg14
I-99
sg15
I-99
sg16
I-99
sg17
I-99
sS'('
I-99
sg19
I-99
sg20
I-99
sg21
I-99
sg22
I-99
sg23
I-99
sg28
I-99
sg29
I-99
sg31
I-99
sg32
I-99
sg33
I-99
sg34
I-99
sg35
I-99
sS'['
I-99
sg37
I-99
sg38
I-99
sg40
I-99
sg41
I-99
sg42
I-99
sS'}'
I-99
sg44
I-99
sg45
I-99
sg46
I-99
sg48
I-99
sg49
I-99
sg50
I-99
sg51
I-99
sg52
I-99
ssI448
(dp643
g4
I-171
sg5
I-171
sg6
I-171
sg7
I-171
sg8
I-171
sg9
I-171
sg10
I-171
sg11
I-171
sg12
I-171
sg13
I-171
sg14
I-171
sg15
I-171
sg16
I-171
sg17
I-171
sS'('
I-171
sg19
I-171
sg20
I-171
sg21
I-171
sg22
I-171
sg23
I-171
sg28
I-171
sg29
I-171
sg31
I-171
sg32
I-171
sg33
I-171
sg34
I-171
sg35
I-171
sS'['
I-171
sg37
I-171
sg38
I-171
sg40
I-171
sg41
I-171
sg42
I-171
sS'}'
I-171
sg44
I-171
sg45
I-171
sg46
I-171
sg48
I-171
sg49
I-171
sg50
I-171
sg51
I-171
sg52
I-171
ssI449
(dp644
S';'
I452
ssI450
(dp645
S'}'
I-116
ssI451
(dp646
g4
I-152
sg5
I-152
sg6
I-152
sg7
I-152
sg8
I-152
sg9
I-152
sg10
I-152
sg11
I-152
sg12
I-152
sg13
I-152
sg14
I-152
sg15
I-152
sg16
I-152
sg17
I-152
sS'('
I-152
sg19
I-152
sg20
I-152
sg21
I-152
sg22
I-152
sg23
I-152
sg28
I-152
sg29
I-152
sg31
I-152
sg32
I-152
sg33
I-152
sg34
I-152
sg35
I-152
sS'['
I-152
sg37
I-152
sg38
I-152
sg40
I-152
sg41
I-152
sg42
I-152
sS'}'
I-152
sg44
I-152
sg45
I-152
sg46
I-152
sg48
I-152
sg49
I-152
sg50
I-152
sg51
I-152
sg52
I-152
ssI452
(dp647
g4
I-177
sg5
I-177
sg6
I-177
sg7
I-177
sg8
I-177
sg9
I-177
sg10
I-177
sg11
I-177
sg12
I-177
sg13
I-177
sg14
I-177
sg15
I-177
sg16
I-177
sg17
I-177
sS'('
I-177
sg19
I-177
sg20
I-177
sg21
I-177
sg22
I-177
sg23
I-177
sg28
I-177
sg29
I-177
sg31
I-177
sg32
I-177
sg33
I-177
sg34
I-177
sg35
I-177
sS'['
I-177
sg37
I-177
sg38
I-177
sg40
I-177
sg41
I-177
sg42
I-177
sS'}'
I-177
sg44
I-177
sg45
I-177
sg46
I-177
sg48
I-177
sg49
I-177
sg50
I-177
sg51
I-177
sg52
I-177
ss.(dp1
I0
(dp2
S'Definitions'
p3
I2
sS'ExtendedAttributeList'
p4
I1
ssI1
(dp5
S'Definition'
p6
I9
sS'Exception'
p7
I10
sS'Partial'
p8
I17
sS'Dictionary'
p9
I6
sS'CallbackOrInterface'
p10
I5
sS'Enum'
p11
I7
sS'Typedef'
p12
I4
sS'Interface'
p13
I8
sS'ImplementsStatement'
p14
I14
ssI2
(dp15
sI3
(dp16
S'ExtendedAttribute'
p17
I23
sS'ExtendedAttributeStringLiteral'
p18
I24
sS'ExtendedAttributeNamedArgList'
p19
I22
sS'ExtendedAttributeArgList'
p20
I26
sS'ExtendedAttributeIdentList'
p21
I27
sS'ExtendedAttributeIdent'
p22
I25
sS'ExtendedAttributeNoArgs'
p23
I28
sS'ExtendedAttributeStringLiteralList'
p24
I29
ssI4
(dp25
sI5
(dp26
sI6
(dp27
sI7
(dp28
sI8
(dp29
sI9
(dp30
S'Definitions'
p31
I31
sg4
I1
ssI10
(dp32
sI11
(dp33
sI12
(dp34
sI13
(dp35
sI14
(dp36
sI15
(dp37
S'ExtendedAttributeListNoComments'
p38
I37
ssI16
(dp39
S'PartialDictionary'
p40
I40
sS'PartialInterface'
p41
I45
sS'PartialDefinition'
p42
I42
ssI17
(dp43
sI18
(dp44
S'Interface'
p45
I48
sS'CallbackRestOrInterface'
p46
I46
sS'CallbackRest'
p47
I47
ssI19
(dp48
sI20
(dp49
sI21
(dp50
sI22
(dp51
sI23
(dp52
S'ExtendedAttributes'
p53
I53
ssI24
(dp54
sI25
(dp55
sI26
(dp56
sI27
(dp57
sI28
(dp58
sI29
(dp59
sI30
(dp60
sI31
(dp61
sI32
(dp62
sI33
(dp63
S'Inheritance'
p64
I59
ssI34
(dp65
sI35
(dp66
sI36
(dp67
S'Inheritance'
p68
I62
ssI37
(dp69
S'StringType'
p70
I71
sS'NonAnyType'
p71
I79
sS'RecordType'
p72
I72
sS'FloatType'
p73
I74
sS'UnionType'
p74
I87
sS'PrimitiveType'
p75
I66
sS'PromiseType'
p76
I82
sS'UnsignedIntegerType'
p77
I92
sS'SingleType'
p78
I68
sS'Type'
p79
I70
sS'UnrestrictedFloatType'
p80
I88
sS'IntegerType'
p81
I83
ssI38
(dp82
sI39
(dp83
S'ExtendedAttribute'
p84
I98
sg18
I24
sg19
I22
sg20
I26
sg21
I27
sg22
I25
sg23
I28
sg24
I29
ssI40
(dp85
sI41
(dp86
sI42
(dp87
sI43
(dp88
sI44
(dp89
sI45
(dp90
sI46
(dp91
sI47
(dp92
sI48
(dp93
sI49
(dp94
sI50
(dp95
sI51
(dp96
S'Inheritance'
p97
I103
ssI52
(dp98
sI53
(dp99
sI54
(dp100
S'ExtendedAttribute'
p101
I106
sg18
I24
sg19
I22
sg20
I26
sg21
I27
sg22
I25
sg23
I28
sg24
I29
ssI55
(dp102
S'ArgumentList'
p103
I108
sS'ExtendedAttributeList'
p104
I110
sS'Argument'
p105
I109
ssI56
(dp106
S'StringLiteral'
p107
I114
ssI57
(dp108
sI58
(dp109
sI59
(dp110
sI60
(dp111
sI61
(dp112
S'ExtendedAttributeList'
p113
I119
sS'EnumValueList'
p114
I118
ssI62
(dp115
sI63
(dp116
sI64
(dp117
sI65
(dp118
sI66
(dp119
S'TypeSuffix'
p120
I121
ssI67
(dp121
g81
I124
ssI68
(dp122
sI69
(dp123
sI70
(dp124
sI71
(dp125
sI72
(dp126
S'Null'
p127
I126
ssI73
(dp128
sI74
(dp129
sI75
(dp130
g70
I71
sS'NonAnyType'
p131
I130
sg72
I72
sg73
I74
sg75
I66
sg76
I82
sS'UnionMemberType'
p132
I129
sg77
I92
sS'UnionType'
p133
I128
sg80
I88
sg81
I83
ssI76
(dp134
S'OptionalLong'
p135
I132
ssI77
(dp136
sI78
(dp137
sI79
(dp138
sI80
(dp139
sI81
(dp140
sI82
(dp141
S'Null'
p142
I137
ssI83
(dp143
sI84
(dp144
sI85
(dp145
sI86
(dp146
sI87
(dp147
S'TypeSuffix'
p148
I138
ssI88
(dp149
sI89
(dp150
S'TypeSuffix'
p151
I139
ssI90
(dp152
sI91
(dp153
sI92
(dp154
sI93
(dp155
S'TypeSuffixStartingWithArray'
p156
I141
ssI94
(dp157
sI95
(dp158
sI96
(dp159
g73
I143
ssI97
(dp160
sI98
(dp161
S'ExtendedAttributes'
p162
I144
ssI99
(dp163
sI100
(dp164
sI101
(dp165
sI102
(dp166
g70
I71
sg71
I79
sg72
I72
sg73
I74
sS'Type'
p167
I150
sg75
I66
sg76
I82
sg77
I92
sg78
I68
sS'ReturnType'
p168
I151
sg74
I87
sg80
I88
sg81
I83
ssI103
(dp169
sI104
(dp170
sI105
(dp171
sI106
(dp172
S'ExtendedAttributes'
p173
I154
ssI107
(dp174
sI108
(dp175
sI109
(dp176
S'Arguments'
p177
I157
ssI110
(dp178
g77
I92
sg70
I71
sg71
I79
sg72
I72
sg73
I74
sg74
I87
sg75
I66
sg76
I82
sS'OptionalOrRequiredArgument'
p179
I160
sg81
I83
sg78
I68
sS'Type'
p180
I158
sg80
I88
ssI111
(dp181
sI112
(dp182
sI113
(dp183
S'StringLiteralList'
p184
I164
sS'StringLiteral'
p185
I162
sS'IdentifierList'
p186
I163
ssI114
(dp187
sI115
(dp188
sI116
(dp189
sI117
(dp190
S'ExtendedAttributeList'
p191
I168
sS'DictionaryMembers'
p192
I167
ssI118
(dp193
sI119
(dp194
sI120
(dp195
S'ExtendedAttributeList'
p196
I173
sS'ExceptionMembers'
p197
I172
ssI121
(dp198
sI122
(dp199
sI123
(dp200
S'TypeSuffixStartingWithArray'
p201
I177
ssI124
(dp202
sI125
(dp203
sI126
(dp204
sI127
(dp205
sI128
(dp206
S'TypeSuffix'
p207
I179
ssI129
(dp208
sI130
(dp209
sI131
(dp210
sI132
(dp211
sI133
(dp212
sI134
(dp213
S'StringType'
p214
I182
ssI135
(dp215
g70
I71
sg71
I79
sg72
I72
sg73
I74
sg74
I87
sg75
I66
sg76
I82
sg77
I92
sg78
I68
sS'Type'
p216
I184
sg80
I88
sg81
I83
ssI136
(dp217
g70
I71
sg71
I79
sg72
I72
sg73
I74
sg74
I87
sg75
I66
sg76
I82
sg77
I92
sg78
I68
sS'Type'
p218
I185
sg80
I88
sg81
I83
ssI137
(dp219
sI138
(dp220
sI139
(dp221
sI140
(dp222
sI141
(dp223
sI142
(dp224
g70
I71
sg71
I79
sg72
I72
sg73
I74
sg74
I87
sg75
I66
sg76
I82
sg77
I92
sg78
I68
sS'ReturnType'
p225
I187
sg167
I150
sg80
I88
sg81
I83
ssI143
(dp226
sI144
(dp227
sI145
(dp228
S'ExtendedAttribute'
p229
I106
sg18
I24
sg19
I22
sg20
I26
sg21
I27
sg22
I25
sg23
I28
sg24
I29
ssI146
(dp230
sI147
(dp231
S'DictionaryMembers'
p232
I189
sg191
I168
ssI148
(dp233
S'InterfaceMembers'
p234
I190
sS'ExtendedAttributeList'
p235
I191
ssI149
(dp236
sI150
(dp237
sI151
(dp238
sI152
(dp239
S'InterfaceMembers'
p240
I194
sg235
I191
ssI153
(dp241
sI154
(dp242
sI155
(dp243
sI156
(dp244
g104
I110
sS'Argument'
p245
I196
ssI157
(dp246
sI158
(dp247
S'Ellipsis'
p248
I198
ssI159
(dp249
g70
I71
sg71
I79
sg72
I72
sg73
I74
sg180
I200
sg75
I66
sg76
I82
sg77
I92
sg78
I68
sg74
I87
sg80
I88
sg81
I83
ssI160
(dp250
sI161
(dp251
sI162
(dp252
sI163
(dp253
sI164
(dp254
sI165
(dp255
S'Identifiers'
p256
I205
ssI166
(dp257
S'ArgumentList'
p258
I206
sg104
I110
sg105
I109
ssI167
(dp259
sI168
(dp260
S'DictionaryMember'
p261
I210
sS'Required'
p262
I209
ssI169
(dp263
sI170
(dp264
sI171
(dp265
S'EnumValueListComma'
p266
I214
ssI172
(dp267
sI173
(dp268
g77
I92
sg70
I71
sg71
I79
sS'Const'
p269
I216
sg72
I72
sg73
I74
sg74
I87
sS'ExceptionMember'
p270
I223
sg75
I66
sS'Attribute'
p271
I217
sg76
I82
sS'ReadOnly'
p272
I224
sS'ExceptionOperation'
p273
I218
sg81
I83
sg78
I68
sS'ExceptionField'
p274
I219
sS'Type'
p275
I221
sg80
I88
ssI174
(dp276
sI175
(dp277
sI176
(dp278
S'TypeSuffix'
p279
I227
ssI177
(dp280
sI178
(dp281
sI179
(dp282
sI180
(dp283
g70
I71
sg131
I130
sg72
I72
sg73
I74
sg75
I66
sg76
I82
sg132
I228
sg77
I92
sg133
I128
sg80
I88
sg81
I83
ssI181
(dp284
sI182
(dp285
sI183
(dp286
sI184
(dp287
sI185
(dp288
sI186
(dp289
S'TypeSuffix'
p290
I234
ssI187
(dp291
sI188
(dp292
sI189
(dp293
sI190
(dp294
sI191
(dp295
S'InterfaceMember'
p296
I258
sS'AttributeRest'
p297
I259
sS'MaplikeRest'
p298
I239
sg78
I68
sS'Const'
p299
I238
sS'Type'
p300
I150
sg70
I71
sS'Stringifier'
p301
I249
sg73
I74
sS'StaticMember'
p302
I240
sS'ReadonlyMember'
p303
I265
sg71
I79
sS'SpecialOperation'
p304
I267
sg76
I82
sg75
I66
sS'ReadWriteSetlike'
p305
I252
sS'ReturnType'
p306
I269
sg74
I87
sg80
I88
sS'Serializer'
p307
I261
sg72
I72
sS'ReadWriteAttribute'
p308
I254
sS'SetlikeRest'
p309
I257
sg77
I92
sS'ReadWriteMaplike'
p310
I243
sS'Iterable'
p311
I245
sS'Operation'
p312
I253
sS'Special'
p313
I263
sg81
I83
ssI192
(dp314
sI193
(dp315
S'ArgumentList'
p316
I271
sg104
I110
sg105
I109
ssI194
(dp317
sI195
(dp318
sI196
(dp319
S'Arguments'
p320
I273
ssI197
(dp321
sI198
(dp322
S'ArgumentName'
p323
I279
sS'ArgumentNameKeyword'
p324
I291
ssI199
(dp325
sI200
(dp326
S'ArgumentName'
p327
I296
sg324
I291
ssI201
(dp328
S'StringLiteralList'
p329
I297
sg185
I162
ssI202
(dp330
sI203
(dp331
sI204
(dp332
sI205
(dp333
sI206
(dp334
sI207
(dp335
sI208
(dp336
sI209
(dp337
g70
I71
sg71
I79
sg72
I72
sg73
I74
sg74
I87
sg75
I66
sg76
I82
sg77
I92
sg78
I68
sS'Type'
p338
I301
sg80
I88
sg81
I83
ssI210
(dp339
g191
I168
sS'DictionaryMembers'
p340
I302
ssI211
(dp341
sI212
(dp342
sI213
(dp343
S'ExtendedAttributeList'
p344
I303
sS'EnumValueListString'
p345
I304
ssI214
(dp346
sI215
(dp347
sI216
(dp348
sI217
(dp349
sI218
(dp350
sI219
(dp351
sI220
(dp352
S'ConstType'
p353
I308
sg70
I71
sg73
I74
sS'PrimitiveType'
p354
I306
sg77
I92
sg80
I88
sg81
I83
ssI221
(dp355
sI222
(dp356
sI223
(dp357
g196
I173
sS'ExceptionMembers'
p358
I310
ssI224
(dp359
sI225
(dp360
sI226
(dp361
S'TypeSuffix'
p362
I312
ssI227
(dp363
sI228
(dp364
S'UnionMemberTypes'
p365
I314
ssI229
(dp366
S'TypeSuffix'
p367
I315
ssI230
(dp368
g214
I71
sg71
I79
sg72
I72
sg73
I74
sg74
I87
sg75
I66
sg76
I82
sg77
I92
sg78
I68
sS'Type'
p369
I316
sg80
I88
sg81
I83
ssI231
(dp370
g70
I71
sg71
I79
sg72
I72
sg73
I74
sg74
I87
sg75
I66
sg76
I82
sg77
I92
sg78
I68
sS'Type'
p371
I317
sg80
I88
sg81
I83
ssI232
(dp372
S'Null'
p373
I318
ssI233
(dp374
S'Null'
p375
I319
ssI234
(dp376
sI235
(dp377
sI236
(dp378
sI237
(dp379
sI238
(dp380
sI239
(dp381
sI240
(dp382
sI241
(dp383
sI242
(dp384
sI243
(dp385
sI244
(dp386
sI245
(dp387
sI246
(dp388
sI247
(dp389
g77
I92
sg70
I71
sg71
I79
sg72
I72
sg73
I74
sg74
I87
sS'StaticMemberRest'
p390
I324
sg75
I66
sg76
I82
sS'ReadOnly'
p391
I326
sg81
I83
sg78
I68
sS'ReturnType'
p392
I325
sg167
I150
sg80
I88
ssI248
(dp393
sI249
(dp394
sI250
(dp395
S'ReadonlyMemberRest'
p396
I330
sS'SetlikeRest'
p397
I328
sS'MaplikeRest'
p398
I329
sS'AttributeRest'
p399
I327
ssI251
(dp400
sI252
(dp401
sI253
(dp402
sI254
(dp403
sI255
(dp404
g77
I92
sg70
I71
sg71
I79
sg72
I72
sg73
I74
sg74
I87
sS'StringifierRest'
p405
I331
sg75
I66
sg76
I82
sS'ReadOnly'
p406
I334
sg81
I83
sg78
I68
sS'ReturnType'
p407
I333
sg167
I150
sg80
I88
ssI256
(dp408
g70
I71
sg71
I79
sg72
I72
sg73
I74
sg74
I87
sg75
I66
sg76
I82
sg77
I92
sg78
I68
sS'Type'
p409
I335
sg80
I88
sg81
I83
ssI257
(dp410
sI258
(dp411
S'InterfaceMembers'
p412
I336
sg235
I191
ssI259
(dp413
sI260
(dp414
S'ReadOnly'
p415
I337
ssI261
(dp416
sI262
(dp417
sI263
(dp418
S'Specials'
p419
I339
sg313
I340
ssI264
(dp420
sI265
(dp421
sI266
(dp422
S'SerializerRest'
p423
I342
sg70
I71
sg71
I79
sg72
I72
sg73
I74
sg74
I87
sg77
I92
sg75
I66
sg76
I82
sg81
I83
sg78
I68
sS'ReturnType'
p424
I345
sg167
I150
sg80
I88
ssI267
(dp425
sI268
(dp426
sI269
(dp427
S'OperationRest'
p428
I347
sS'OptionalIdentifier'
p429
I348
ssI270
(dp430
sI271
(dp431
sI272
(dp432
sI273
(dp433
sI274
(dp434
sI275
(dp435
sI276
(dp436
sI277
(dp437
sI278
(dp438
sI279
(dp439
sI280
(dp440
sI281
(dp441
sI282
(dp442
sI283
(dp443
sI284
(dp444
sI285
(dp445
sI286
(dp446
sI287
(dp447
sI288
(dp448
sI289
(dp449
sI290
(dp450
sI291
(dp451
sI292
(dp452
sI293
(dp453
sI294
(dp454
sI295
(dp455
sI296
(dp456
S'Default'
p457
I353
ssI297
(dp458
sI298
(dp459
S'Identifiers'
p460
I354
ssI299
(dp461
sI300
(dp462
sI301
(dp463
sI302
(dp464
sI303
(dp465
sI304
(dp466
sI305
(dp467
sI306
(dp468
S'Null'
p469
I357
ssI307
(dp470
S'Null'
p471
I358
ssI308
(dp472
sI309
(dp473
sI310
(dp474
sI311
(dp475
g70
I71
sg71
I79
sg72
I72
sg73
I74
sg74
I87
sg75
I66
sg76
I82
sg77
I92
sg78
I68
sS'Type'
p476
I362
sg80
I88
sg81
I83
ssI312
(dp477
sI313
(dp478
g70
I71
sg131
I130
sg72
I72
sg73
I74
sg75
I66
sg76
I82
sS'UnionMemberType'
p479
I363
sg77
I92
sg133
I128
sg80
I88
sg81
I83
ssI314
(dp480
sI315
(dp481
sI316
(dp482
sI317
(dp483
sI318
(dp484
sI319
(dp485
sI320
(dp486
sI321
(dp487
sI322
(dp488
g70
I71
sg71
I79
sg72
I72
sg73
I74
sg74
I87
sg75
I66
sg76
I82
sg77
I92
sg78
I68
sg300
I367
sg80
I88
sg81
I83
ssI323
(dp489
g70
I71
sg71
I79
sg72
I72
sg73
I74
sg74
I87
sg75
I66
sg76
I82
sg77
I92
sg78
I68
sS'Type'
p490
I368
sg80
I88
sg81
I83
ssI324
(dp491
sI325
(dp492
S'OperationRest'
p493
I369
sg429
I348
ssI326
(dp494
S'AttributeRest'
p495
I370
ssI327
(dp496
sI328
(dp497
sI329
(dp498
sI330
(dp499
sI331
(dp500
sI332
(dp501
sI333
(dp502
S'OperationRest'
p503
I371
sg429
I348
ssI334
(dp504
S'AttributeRest'
p505
I372
ssI335
(dp506
S'AttributeName'
p507
I374
sS'AttributeNameKeyword'
p508
I376
ssI336
(dp509
sI337
(dp510
g297
I377
ssI338
(dp511
sI339
(dp512
g77
I92
sg70
I71
sg71
I79
sg72
I72
sg73
I74
sg74
I87
sg75
I66
sg76
I82
sg81
I83
sg78
I68
sS'ReturnType'
p513
I378
sg167
I150
sg80
I88
ssI340
(dp514
S'Specials'
p515
I379
sS'Special'
p516
I340
ssI341
(dp517
g70
I71
sg71
I79
sg72
I72
sg73
I74
sg74
I87
sg75
I66
sg76
I82
sg77
I92
sg78
I68
sS'Type'
p518
I380
sg80
I88
sg81
I83
ssI342
(dp519
sI343
(dp520
sI344
(dp521
S'SerializationPattern'
p522
I384
ssI345
(dp523
S'OperationRest'
p524
I385
sg429
I348
ssI346
(dp525
g70
I71
sg71
I79
sg72
I72
sg73
I74
sg74
I87
sg75
I66
sg76
I82
sg77
I92
sg78
I68
sS'Type'
p526
I386
sg80
I88
sg81
I83
ssI347
(dp527
sI348
(dp528
sI349
(dp529
sI350
(dp530
sI351
(dp531
sI352
(dp532
S'DefaultValue'
p533
I393
sS'ConstValue'
p534
I404
sS'StringLiteral'
p535
I396
sS'FloatLiteral'
p536
I403
sS'BooleanLiteral'
p537
I397
sS'null'
p538
I389
sS'IntegerLiteral'
p539
I392
ssI353
(dp540
sI354
(dp541
sI355
(dp542
S'Default'
p543
I406
ssI356
(dp544
S'EnumValueListComma'
p545
I407
ssI357
(dp546
sI358
(dp547
sI359
(dp548
sI360
(dp549
sI361
(dp550
sI362
(dp551
sI363
(dp552
S'UnionMemberTypes'
p553
I411
ssI364
(dp554
sI365
(dp555
sI366
(dp556
sI367
(dp557
S'OptionalType'
p558
I413
ssI368
(dp559
sI369
(dp560
sI370
(dp561
sI371
(dp562
sI372
(dp563
sI373
(dp564
sI374
(dp565
sI375
(dp566
sI376
(dp567
sI377
(dp568
sI378
(dp569
S'OperationRest'
p570
I416
sg429
I348
ssI379
(dp571
sI380
(dp572
sI381
(dp573
S'SerializationPatternList'
p574
I418
ssI382
(dp575
sI383
(dp576
S'SerializationPatternMap'
p577
I423
ssI384
(dp578
sI385
(dp579
sI386
(dp580
sI387
(dp581
S'ArgumentList'
p582
I428
sg104
I110
sg105
I109
ssI388
(dp583
sI389
(dp584
sI390
(dp585
sI391
(dp586
sI392
(dp587
sI393
(dp588
sI394
(dp589
sI395
(dp590
sI396
(dp591
sI397
(dp592
sI398
(dp593
sI399
(dp594
sI400
(dp595
sI401
(dp596
sI402
(dp597
sI403
(dp598
sI404
(dp599
sI405
(dp600
sI406
(dp601
sI407
(dp602
sI408
(dp603
S'ConstValue'
p604
I432
sg535
I396
sg537
I397
sg536
I403
sg538
I389
sg539
I392
ssI409
(dp605
sI410
(dp606
sI411
(dp607
sI412
(dp608
g70
I71
sg71
I79
sg72
I72
sg73
I74
sg74
I87
sg75
I66
sg76
I82
sg77
I92
sg78
I68
sS'Type'
p609
I435
sg80
I88
sg81
I83
ssI413
(dp610
sI414
(dp611
sI415
(dp612
sI416
(dp613
sI417
(dp614
g70
I71
sg71
I79
sg72
I72
sg73
I74
sg74
I87
sg75
I66
sg76
I82
sg77
I92
sg78
I68
sg518
I438
sg80
I88
sg81
I83
ssI418
(dp615
sI419
(dp616
sI420
(dp617
S'Identifiers'
p618
I440
ssI421
(dp619
sI422
(dp620
S'Identifiers'
p621
I441
ssI423
(dp622
sI424
(dp623
sI425
(dp624
S'Identifiers'
p625
I444
ssI426
(dp626
sI427
(dp627
sI428
(dp628
sI429
(dp629
sI430
(dp630
sI431
(dp631
sI432
(dp632
sI433
(dp633
sI434
(dp634
sI435
(dp635
sI436
(dp636
sI437
(dp637
sI438
(dp638
sI439
(dp639
sI440
(dp640
sI441
(dp641
sI442
(dp642
sI443
(dp643
sI444
(dp644
sI445
(dp645
sI446
(dp646
sI447
(dp647
sI448
(dp648
sI449
(dp649
sI450
(dp650
sI451
(dp651
sI452
(dp652
s.(lp1
(S"S' -> Definitions"
p2
S"S'"
p3
I1
NNNtp4
a(S'Definitions -> ExtendedAttributeList Definition Definitions'
p5
S'Definitions'
p6
I3
S'p_Definitions'
p7
S'../../third_party/blink/Source/bindings/scripts/blink_idl_parser.py'
p8
I108
tp9
a(S'Definitions -> <empty>'
p10
g6
I0
g7
g8
I109
tp11
a(S'Definition -> CallbackOrInterface'
p12
S'Definition'
p13
I1
S'p_Definition'
p14
S'../../third_party/blink/Source/bindings/scripts/../../../../../tools/idl_parser/idl_parser.py'
p15
I187
tp16
a(S'Definition -> Partial'
p17
g13
I1
g14
g15
I188
tp18
a(S'Definition -> Dictionary'
p19
g13
I1
g14
g15
I189
tp20
a(S'Definition -> Exception'
p21
g13
I1
g14
g15
I190
tp22
a(S'Definition -> Enum'
p23
g13
I1
g14
g15
I191
tp24
a(S'Definition -> Typedef'
p25
g13
I1
g14
g15
I192
tp26
a(S'Definition -> ImplementsStatement'
p27
g13
I1
g14
g15
I193
tp28
a(S'Definition -> error ;'
p29
S'Definition'
p30
I2
S'p_DefinitionError'
p31
S'../../third_party/blink/Source/bindings/scripts/../../../../../tools/idl_parser/idl_parser.py'
p32
I198
tp33
a(S'CallbackOrInterface -> CALLBACK CallbackRestOrInterface'
p34
S'CallbackOrInterface'
p35
I2
S'p_CallbackOrInterface'
p36
S'../../third_party/blink/Source/bindings/scripts/../../../../../tools/idl_parser/idl_parser.py'
p37
I203
tp38
a(S'CallbackOrInterface -> Interface'
p39
g35
I1
g36
g37
I204
tp40
a(S'ConstValue -> BooleanLiteral'
p41
S'ConstValue'
p42
I1
S'p_ConstValue'
p43
S'../../third_party/blink/Source/bindings/scripts/blink_idl_parser.py'
p44
I209
tp45
a(S'ConstValue -> FloatLiteral'
p46
g42
I1
g43
g44
I210
tp47
a(S'ConstValue -> IntegerLiteral'
p48
g42
I1
g43
g44
I211
tp49
a(S'ConstValue -> StringLiteral'
p50
g42
I1
g43
g44
I212
tp51
a(S'ConstValue -> null'
p52
g42
I1
g43
g44
I213
tp53
a(S'CallbackRestOrInterface -> CallbackRest'
p54
S'CallbackRestOrInterface'
p55
I1
S'p_CallbackRestOrInterface'
p56
S'../../third_party/blink/Source/bindings/scripts/../../../../../tools/idl_parser/idl_parser.py'
p57
I213
tp58
a(S'CallbackRestOrInterface -> Interface'
p59
g55
I1
g56
g57
I214
tp60
a(S'Interface -> INTERFACE identifier Inheritance { InterfaceMembers } ;'
p61
S'Interface'
p62
I7
S'p_Interface'
p63
S'../../third_party/blink/Source/bindings/scripts/../../../../../tools/idl_parser/idl_parser.py'
p64
I219
tp65
a(S'IntegerLiteral -> integer'
p66
S'IntegerLiteral'
p67
I1
S'p_IntegerLiteral'
p68
S'../../third_party/blink/Source/bindings/scripts/blink_idl_parser.py'
p69
I223
tp70
a(S'Interface -> INTERFACE identifier Inheritance { error'
p71
S'Interface'
p72
I5
S'p_InterfaceError'
p73
S'../../third_party/blink/Source/bindings/scripts/../../../../../tools/idl_parser/idl_parser.py'
p74
I224
tp75
a(S'Partial -> PARTIAL PartialDefinition'
p76
S'Partial'
p77
I2
S'p_Partial'
p78
S'../../third_party/blink/Source/bindings/scripts/../../../../../tools/idl_parser/idl_parser.py'
p79
I229
tp80
a(S'StringLiteral -> string'
p81
S'StringLiteral'
p82
I1
S'p_StringLiteral'
p83
S'../../third_party/blink/Source/bindings/scripts/blink_idl_parser.py'
p84
I229
tp85
a(S'Partial -> PARTIAL error'
p86
S'Partial'
p87
I2
S'p_PartialError'
p88
S'../../third_party/blink/Source/bindings/scripts/../../../../../tools/idl_parser/idl_parser.py'
p89
I235
tp90
a(S'ExceptionMember -> Const'
p91
S'ExceptionMember'
p92
I1
S'p_ExceptionMember'
p93
S'../../third_party/blink/Source/bindings/scripts/blink_idl_parser.py'
p94
I235
tp95
a(S'ExceptionMember -> ExceptionField'
p96
g92
I1
g93
g94
I236
tp97
a(S'ExceptionMember -> Attribute'
p98
g92
I1
g93
g94
I237
tp99
a(S'ExceptionMember -> ExceptionOperation'
p100
g92
I1
g93
g94
I238
tp101
a(S'PartialDefinition -> PartialDictionary'
p102
S'PartialDefinition'
p103
I1
S'p_PartialDefinition'
p104
S'../../third_party/blink/Source/bindings/scripts/../../../../../tools/idl_parser/idl_parser.py'
p105
I240
tp106
a(S'PartialDefinition -> PartialInterface'
p107
g103
I1
g104
g105
I241
tp108
a(S'PartialInterface -> INTERFACE identifier { InterfaceMembers } ;'
p109
S'PartialInterface'
p110
I6
S'p_PartialInterface'
p111
S'../../third_party/blink/Source/bindings/scripts/../../../../../tools/idl_parser/idl_parser.py'
p112
I246
tp113
a(S'Attribute -> ReadOnly ATTRIBUTE Type identifier ;'
p114
S'Attribute'
p115
I5
S'p_Attribute'
p116
S'../../third_party/blink/Source/bindings/scripts/blink_idl_parser.py'
p117
I248
tp118
a(S'InterfaceMembers -> ExtendedAttributeList InterfaceMember InterfaceMembers'
p119
S'InterfaceMembers'
p120
I3
S'p_InterfaceMembers'
p121
S'../../third_party/blink/Source/bindings/scripts/../../../../../tools/idl_parser/idl_parser.py'
p122
I251
tp123
a(S'InterfaceMembers -> <empty>'
p124
g120
I0
g121
g122
I252
tp125
a(S'ExceptionOperation -> Type identifier ( ) ;'
p126
S'ExceptionOperation'
p127
I5
S'p_ExceptionOperation'
p128
S'../../third_party/blink/Source/bindings/scripts/blink_idl_parser.py'
p129
I254
tp130
a(S'InterfaceMembers -> error'
p131
S'InterfaceMembers'
p132
I1
S'p_InterfaceMembersError'
p133
S'../../third_party/blink/Source/bindings/scripts/../../../../../tools/idl_parser/idl_parser.py'
p134
I259
tp135
a(S'InterfaceMember -> Const'
p136
S'InterfaceMember'
p137
I1
S'p_InterfaceMember'
p138
S'../../third_party/blink/Source/bindings/scripts/../../../../../tools/idl_parser/idl_parser.py'
p139
I264
tp140
a(S'InterfaceMember -> Operation'
p141
g137
I1
g138
g139
I265
tp142
a(S'InterfaceMember -> Serializer'
p143
g137
I1
g138
g139
I266
tp144
a(S'InterfaceMember -> Stringifier'
p145
g137
I1
g138
g139
I267
tp146
a(S'InterfaceMember -> StaticMember'
p147
g137
I1
g138
g139
I268
tp148
a(S'InterfaceMember -> Iterable'
p149
g137
I1
g138
g139
I269
tp150
a(S'InterfaceMember -> ReadonlyMember'
p151
g137
I1
g138
g139
I270
tp152
a(S'InterfaceMember -> ReadWriteAttribute'
p153
g137
I1
g138
g139
I271
tp154
a(S'InterfaceMember -> ReadWriteMaplike'
p155
g137
I1
g138
g139
I272
tp156
a(S'InterfaceMember -> ReadWriteSetlike'
p157
g137
I1
g138
g139
I273
tp158
a(S'ExtendedAttributeList -> [ ExtendedAttribute ExtendedAttributes ]'
p159
S'ExtendedAttributeList'
p160
I4
S'p_ExtendedAttributeList'
p161
S'../../third_party/blink/Source/bindings/scripts/blink_idl_parser.py'
p162
I266
tp163
a(S'ExtendedAttributeList -> <empty>'
p164
g160
I0
g161
g162
I267
tp165
a(S'ExtendedAttributeList -> [ ExtendedAttribute , error'
p166
S'ExtendedAttributeList'
p167
I4
S'p_ExtendedAttributeListError'
p168
S'../../third_party/blink/Source/bindings/scripts/blink_idl_parser.py'
p169
I275
tp170
a(S'InterfaceMember -> error ;'
p171
S'InterfaceMember'
p172
I2
S'p_InterfaceMemberError'
p173
S'../../third_party/blink/Source/bindings/scripts/../../../../../tools/idl_parser/idl_parser.py'
p174
I278
tp175
a(S'ExtendedAttributes -> , ExtendedAttribute ExtendedAttributes'
p176
S'ExtendedAttributes'
p177
I3
S'p_ExtendedAttributes'
p178
S'../../third_party/blink/Source/bindings/scripts/blink_idl_parser.py'
p179
I282
tp180
a(S'ExtendedAttributes -> ,'
p181
g177
I1
g178
g179
I283
tp182
a(S'ExtendedAttributes -> <empty>'
p183
g177
I0
g178
g179
I284
tp184
a(S'Dictionary -> DICTIONARY identifier Inheritance { DictionaryMembers } ;'
p185
S'Dictionary'
p186
I7
S'p_Dictionary'
p187
S'../../third_party/blink/Source/bindings/scripts/../../../../../tools/idl_parser/idl_parser.py'
p188
I283
tp189
a(S'Dictionary -> DICTIONARY error ;'
p190
S'Dictionary'
p191
I3
S'p_DictionaryError'
p192
S'../../third_party/blink/Source/bindings/scripts/../../../../../tools/idl_parser/idl_parser.py'
p193
I288
tp194
a(S'ExtendedAttribute -> ExtendedAttributeNoArgs'
p195
S'ExtendedAttribute'
p196
I1
S'p_ExtendedAttribute'
p197
S'../../third_party/blink/Source/bindings/scripts/blink_idl_parser.py'
p198
I290
tp199
a(S'ExtendedAttribute -> ExtendedAttributeArgList'
p200
g196
I1
g197
g198
I291
tp201
a(S'ExtendedAttribute -> ExtendedAttributeIdent'
p202
g196
I1
g197
g198
I292
tp203
a(S'ExtendedAttribute -> ExtendedAttributeIdentList'
p204
g196
I1
g197
g198
I293
tp205
a(S'ExtendedAttribute -> ExtendedAttributeNamedArgList'
p206
g196
I1
g197
g198
I294
tp207
a(S'ExtendedAttribute -> ExtendedAttributeStringLiteral'
p208
g196
I1
g197
g198
I295
tp209
a(S'ExtendedAttribute -> ExtendedAttributeStringLiteralList'
p210
g196
I1
g197
g198
I296
tp211
a(S'Dictionary -> DICTIONARY identifier Inheritance { error'
p212
S'Dictionary'
p213
I5
S'p_DictionaryError2'
p214
S'../../third_party/blink/Source/bindings/scripts/../../../../../tools/idl_parser/idl_parser.py'
p215
I294
tp216
a(S'DictionaryMembers -> ExtendedAttributeList DictionaryMember DictionaryMembers'
p217
S'DictionaryMembers'
p218
I3
S'p_DictionaryMembers'
p219
S'../../third_party/blink/Source/bindings/scripts/../../../../../tools/idl_parser/idl_parser.py'
p220
I299
tp221
a(S'DictionaryMembers -> <empty>'
p222
g218
I0
g219
g220
I300
tp223
a(S'ExtendedAttributeStringLiteral -> identifier = StringLiteral'
p224
S'ExtendedAttributeStringLiteral'
p225
I3
S'p_ExtendedAttributeStringLiteral'
p226
S'../../third_party/blink/Source/bindings/scripts/blink_idl_parser.py'
p227
I301
tp228
a(S'DictionaryMembers -> ExtendedAttributeList error'
p229
S'DictionaryMembers'
p230
I2
S'p_DictionaryMembersError'
p231
S'../../third_party/blink/Source/bindings/scripts/../../../../../tools/idl_parser/idl_parser.py'
p232
I307
tp233
a(S'ExtendedAttributeStringLiteralList -> identifier = ( StringLiteralList )'
p234
S'ExtendedAttributeStringLiteralList'
p235
I5
S'p_ExtendedAttributeStringLiteralList'
p236
S'../../third_party/blink/Source/bindings/scripts/blink_idl_parser.py'
p237
I311
tp238
a(S'DictionaryMember -> Required Type identifier Default ;'
p239
S'DictionaryMember'
p240
I5
S'p_DictionaryMember'
p241
S'../../third_party/blink/Source/bindings/scripts/../../../../../tools/idl_parser/idl_parser.py'
p242
I312
tp243
a(S'Required -> REQUIRED'
p244
S'Required'
p245
I1
S'p_Required'
p246
S'../../third_party/blink/Source/bindings/scripts/../../../../../tools/idl_parser/idl_parser.py'
p247
I317
tp248
a(S'Required -> <empty>'
p249
g245
I0
g246
g247
I318
tp250
a(S'StringLiteralList -> StringLiteral , StringLiteralList'
p251
S'StringLiteralList'
p252
I3
S'p_StringLiteralList'
p253
S'../../third_party/blink/Source/bindings/scripts/blink_idl_parser.py'
p254
I318
tp255
a(S'StringLiteralList -> StringLiteral'
p256
g252
I1
g253
g254
I319
tp257
a(S'PartialDictionary -> DICTIONARY identifier { DictionaryMembers } ;'
p258
S'PartialDictionary'
p259
I6
S'p_PartialDictionary'
p260
S'../../third_party/blink/Source/bindings/scripts/../../../../../tools/idl_parser/idl_parser.py'
p261
I324
tp262
a(S'PartialDictionary -> DICTIONARY error ;'
p263
S'PartialDictionary'
p264
I3
S'p_PartialDictionaryError'
p265
S'../../third_party/blink/Source/bindings/scripts/../../../../../tools/idl_parser/idl_parser.py'
p266
I330
tp267
a(S'Default -> = DefaultValue'
p268
S'Default'
p269
I2
S'p_Default'
p270
S'../../third_party/blink/Source/bindings/scripts/../../../../../tools/idl_parser/idl_parser.py'
p271
I335
tp272
a(S'Default -> <empty>'
p273
g269
I0
g270
g271
I336
tp274
a(S'DefaultValue -> ConstValue'
p275
S'DefaultValue'
p276
I1
S'p_DefaultValue'
p277
S'../../third_party/blink/Source/bindings/scripts/../../../../../tools/idl_parser/idl_parser.py'
p278
I342
tp279
a(S'DefaultValue -> string'
p280
g276
I1
g277
g278
I343
tp281
a(S'DefaultValue -> [ ]'
p282
g276
I2
g277
g278
I344
tp283
a(S'Exception -> EXCEPTION identifier Inheritance { ExceptionMembers } ;'
p284
S'Exception'
p285
I7
S'p_Exception'
p286
S'../../third_party/blink/Source/bindings/scripts/../../../../../tools/idl_parser/idl_parser.py'
p287
I356
tp288
a(S'ExceptionMembers -> ExtendedAttributeList ExceptionMember ExceptionMembers'
p289
S'ExceptionMembers'
p290
I3
S'p_ExceptionMembers'
p291
S'../../third_party/blink/Source/bindings/scripts/../../../../../tools/idl_parser/idl_parser.py'
p292
I361
tp293
a(S'ExceptionMembers -> <empty>'
p294
g290
I0
g291
g292
I362
tp295
a(S'ExceptionMembers -> error'
p296
S'ExceptionMembers'
p297
I1
S'p_ExceptionMembersError'
p298
S'../../third_party/blink/Source/bindings/scripts/../../../../../tools/idl_parser/idl_parser.py'
p299
I369
tp300
a(S'Inheritance -> : identifier'
p301
S'Inheritance'
p302
I2
S'p_Inheritance'
p303
S'../../third_party/blink/Source/bindings/scripts/../../../../../tools/idl_parser/idl_parser.py'
p304
I374
tp305
a(S'Inheritance -> <empty>'
p306
g302
I0
g303
g304
I375
tp307
a(S'Enum -> ENUM identifier { EnumValueList } ;'
p308
S'Enum'
p309
I6
S'p_Enum'
p310
S'../../third_party/blink/Source/bindings/scripts/../../../../../tools/idl_parser/idl_parser.py'
p311
I381
tp312
a(S'Enum -> ENUM error ;'
p313
S'Enum'
p314
I3
S'p_EnumError'
p315
S'../../third_party/blink/Source/bindings/scripts/../../../../../tools/idl_parser/idl_parser.py'
p316
I386
tp317
a(S'EnumValueList -> ExtendedAttributeList string EnumValueListComma'
p318
S'EnumValueList'
p319
I3
S'p_EnumValueList'
p320
S'../../third_party/blink/Source/bindings/scripts/../../../../../tools/idl_parser/idl_parser.py'
p321
I391
tp322
a(S'EnumValueListComma -> , EnumValueListString'
p323
S'EnumValueListComma'
p324
I2
S'p_EnumValueListComma'
p325
S'../../third_party/blink/Source/bindings/scripts/../../../../../tools/idl_parser/idl_parser.py'
p326
I397
tp327
a(S'EnumValueListComma -> <empty>'
p328
g324
I0
g325
g326
I398
tp329
a(S'EnumValueListString -> ExtendedAttributeList string EnumValueListComma'
p330
S'EnumValueListString'
p331
I3
S'p_EnumValueListString'
p332
S'../../third_party/blink/Source/bindings/scripts/../../../../../tools/idl_parser/idl_parser.py'
p333
I404
tp334
a(S'EnumValueListString -> <empty>'
p335
g331
I0
g332
g333
I405
tp336
a(S'CallbackRest -> identifier = ReturnType ( ArgumentList ) ;'
p337
S'CallbackRest'
p338
I7
S'p_CallbackRest'
p339
S'../../third_party/blink/Source/bindings/scripts/../../../../../tools/idl_parser/idl_parser.py'
p340
I412
tp341
a(S'Typedef -> TYPEDEF ExtendedAttributeListNoComments Type identifier ;'
p342
S'Typedef'
p343
I5
S'p_Typedef'
p344
S'../../third_party/blink/Source/bindings/scripts/../../../../../tools/idl_parser/idl_parser.py'
p345
I418
tp346
a(S'Typedef -> TYPEDEF error ;'
p347
S'Typedef'
p348
I3
S'p_TypedefError'
p349
S'../../third_party/blink/Source/bindings/scripts/../../../../../tools/idl_parser/idl_parser.py'
p350
I423
tp351
a(S'ImplementsStatement -> identifier IMPLEMENTS identifier ;'
p352
S'ImplementsStatement'
p353
I4
S'p_ImplementsStatement'
p354
S'../../third_party/blink/Source/bindings/scripts/../../../../../tools/idl_parser/idl_parser.py'
p355
I428
tp356
a(S'Const -> CONST ConstType identifier = ConstValue ;'
p357
S'Const'
p358
I6
S'p_Const'
p359
S'../../third_party/blink/Source/bindings/scripts/../../../../../tools/idl_parser/idl_parser.py'
p360
I434
tp361
a(S'null -> NULL'
p362
S'null'
p363
I1
S'p_null'
p364
S'../../third_party/blink/Source/bindings/scripts/../../../../../tools/idl_parser/idl_parser.py'
p365
I452
tp366
a(S'BooleanLiteral -> TRUE'
p367
S'BooleanLiteral'
p368
I1
S'p_BooleanLiteral'
p369
S'../../third_party/blink/Source/bindings/scripts/../../../../../tools/idl_parser/idl_parser.py'
p370
I458
tp371
a(S'BooleanLiteral -> FALSE'
p372
g368
I1
g369
g370
I459
tp373
a(S'FloatLiteral -> float'
p374
S'FloatLiteral'
p375
I1
S'p_FloatLiteral'
p376
S'../../third_party/blink/Source/bindings/scripts/../../../../../tools/idl_parser/idl_parser.py'
p377
I465
tp378
a(S'FloatLiteral -> - INFINITY'
p379
g375
I2
g376
g377
I466
tp380
a(S'FloatLiteral -> INFINITY'
p381
g375
I1
g376
g377
I467
tp382
a(S'FloatLiteral -> NAN'
p383
g375
I1
g376
g377
I468
tp384
a(S'Serializer -> SERIALIZER SerializerRest'
p385
S'Serializer'
p386
I2
S'p_Serializer'
p387
S'../../third_party/blink/Source/bindings/scripts/../../../../../tools/idl_parser/idl_parser.py'
p388
I478
tp389
a(S'SerializerRest -> ReturnType OperationRest'
p390
S'SerializerRest'
p391
I2
S'p_SerializerRest'
p392
S'../../third_party/blink/Source/bindings/scripts/../../../../../tools/idl_parser/idl_parser.py'
p393
I485
tp394
a(S'SerializerRest -> = SerializationPattern ;'
p395
g391
I3
g392
g393
I486
tp396
a(S'SerializerRest -> ;'
p397
g391
I1
g392
g393
I487
tp398
a(S'SerializationPattern -> { SerializationPatternMap }'
p399
S'SerializationPattern'
p400
I3
S'p_SerializationPattern'
p401
S'../../third_party/blink/Source/bindings/scripts/../../../../../tools/idl_parser/idl_parser.py'
p402
I496
tp403
a(S'SerializationPattern -> [ SerializationPatternList ]'
p404
g400
I3
g401
g402
I497
tp405
a(S'SerializationPattern -> identifier'
p406
g400
I1
g401
g402
I498
tp407
a(S'SerializationPatternMap -> GETTER'
p408
S'SerializationPatternMap'
p409
I1
S'p_SerializationPatternMap'
p410
S'../../third_party/blink/Source/bindings/scripts/../../../../../tools/idl_parser/idl_parser.py'
p411
I509
tp412
a(S'SerializationPatternMap -> ATTRIBUTE'
p413
g409
I1
g410
g411
I510
tp414
a(S'SerializationPatternMap -> INHERIT , ATTRIBUTE'
p415
g409
I3
g410
g411
I511
tp416
a(S'SerializationPatternMap -> INHERIT Identifiers'
p417
g409
I2
g410
g411
I512
tp418
a(S'SerializationPatternMap -> identifier Identifiers'
p419
g409
I2
g410
g411
I513
tp420
a(S'SerializationPatternMap -> <empty>'
p421
g409
I0
g410
g411
I514
tp422
a(S'SerializationPatternList -> GETTER'
p423
S'SerializationPatternList'
p424
I1
S'p_SerializationPatternList'
p425
S'../../third_party/blink/Source/bindings/scripts/../../../../../tools/idl_parser/idl_parser.py'
p426
I534
tp427
a(S'SerializationPatternList -> identifier Identifiers'
p428
g424
I2
g425
g426
I535
tp429
a(S'SerializationPatternList -> <empty>'
p430
g424
I0
g425
g426
I536
tp431
a(S'Stringifier -> STRINGIFIER StringifierRest'
p432
S'Stringifier'
p433
I2
S'p_Stringifier'
p434
S'../../third_party/blink/Source/bindings/scripts/../../../../../tools/idl_parser/idl_parser.py'
p435
I547
tp436
a(S'StringifierRest -> ReadOnly AttributeRest'
p437
S'StringifierRest'
p438
I2
S'p_StringifierRest'
p439
S'../../third_party/blink/Source/bindings/scripts/../../../../../tools/idl_parser/idl_parser.py'
p440
I552
tp441
a(S'StringifierRest -> ReturnType OperationRest'
p442
g438
I2
g439
g440
I553
tp443
a(S'StringifierRest -> ;'
p444
g438
I1
g439
g440
I554
tp445
a(S'StaticMember -> STATIC StaticMemberRest'
p446
S'StaticMember'
p447
I2
S'p_StaticMember'
p448
S'../../third_party/blink/Source/bindings/scripts/../../../../../tools/idl_parser/idl_parser.py'
p449
I561
tp450
a(S'StaticMemberRest -> ReadOnly AttributeRest'
p451
S'StaticMemberRest'
p452
I2
S'p_StaticMemberRest'
p453
S'../../third_party/blink/Source/bindings/scripts/../../../../../tools/idl_parser/idl_parser.py'
p454
I567
tp455
a(S'StaticMemberRest -> ReturnType OperationRest'
p456
g452
I2
g453
g454
I568
tp457
a(S'ReadonlyMember -> READONLY ReadonlyMemberRest'
p458
S'ReadonlyMember'
p459
I2
S'p_ReadonlyMember'
p460
S'../../third_party/blink/Source/bindings/scripts/../../../../../tools/idl_parser/idl_parser.py'
p461
I577
tp462
a(S'ReadonlyMemberRest -> AttributeRest'
p463
S'ReadonlyMemberRest'
p464
I1
S'p_ReadonlyMemberRest'
p465
S'../../third_party/blink/Source/bindings/scripts/../../../../../tools/idl_parser/idl_parser.py'
p466
I583
tp467
a(S'ReadonlyMemberRest -> MaplikeRest'
p468
g464
I1
g465
g466
I584
tp469
a(S'ReadonlyMemberRest -> SetlikeRest'
p470
g464
I1
g465
g466
I585
tp471
a(S'ReadWriteAttribute -> INHERIT ReadOnly AttributeRest'
p472
S'ReadWriteAttribute'
p473
I3
S'p_ReadWriteAttribute'
p474
S'../../third_party/blink/Source/bindings/scripts/../../../../../tools/idl_parser/idl_parser.py'
p475
I590
tp476
a(S'ReadWriteAttribute -> AttributeRest'
p477
g473
I1
g474
g475
I591
tp478
a(S'AttributeRest -> ATTRIBUTE Type AttributeName ;'
p479
S'AttributeRest'
p480
I4
S'p_AttributeRest'
p481
S'../../third_party/blink/Source/bindings/scripts/../../../../../tools/idl_parser/idl_parser.py'
p482
I601
tp483
a(S'AttributeName -> AttributeNameKeyword'
p484
S'AttributeName'
p485
I1
S'p_AttributeName'
p486
S'../../third_party/blink/Source/bindings/scripts/../../../../../tools/idl_parser/idl_parser.py'
p487
I606
tp488
a(S'AttributeName -> identifier'
p489
g485
I1
g486
g487
I607
tp490
a(S'AttributeNameKeyword -> REQUIRED'
p491
S'AttributeNameKeyword'
p492
I1
S'p_AttributeNameKeyword'
p493
S'../../third_party/blink/Source/bindings/scripts/../../../../../tools/idl_parser/idl_parser.py'
p494
I612
tp495
a(S'ReadOnly -> READONLY'
p496
S'ReadOnly'
p497
I1
S'p_ReadOnly'
p498
S'../../third_party/blink/Source/bindings/scripts/../../../../../tools/idl_parser/idl_parser.py'
p499
I619
tp500
a(S'ReadOnly -> <empty>'
p501
g497
I0
g498
g499
I620
tp502
a(S'Operation -> ReturnType OperationRest'
p503
S'Operation'
p504
I2
S'p_Operation'
p505
S'../../third_party/blink/Source/bindings/scripts/../../../../../tools/idl_parser/idl_parser.py'
p506
I626
tp507
a(S'Operation -> SpecialOperation'
p508
g504
I1
g505
g506
I627
tp509
a(S'SpecialOperation -> Special Specials ReturnType OperationRest'
p510
S'SpecialOperation'
p511
I4
S'p_SpecialOperation'
p512
S'../../third_party/blink/Source/bindings/scripts/../../../../../tools/idl_parser/idl_parser.py'
p513
I636
tp514
a(S'Specials -> Special Specials'
p515
S'Specials'
p516
I2
S'p_Specials'
p517
S'../../third_party/blink/Source/bindings/scripts/../../../../../tools/idl_parser/idl_parser.py'
p518
I642
tp519
a(S'Specials -> <empty>'
p520
g516
I0
g517
g518
I643
tp521
a(S'Special -> GETTER'
p522
S'Special'
p523
I1
S'p_Special'
p524
S'../../third_party/blink/Source/bindings/scripts/../../../../../tools/idl_parser/idl_parser.py'
p525
I649
tp526
a(S'Special -> SETTER'
p527
g523
I1
g524
g525
I650
tp528
a(S'Special -> CREATOR'
p529
g523
I1
g524
g525
I651
tp530
a(S'Special -> DELETER'
p531
g523
I1
g524
g525
I652
tp532
a(S'Special -> LEGACYCALLER'
p533
g523
I1
g524
g525
I653
tp534
a(S'OperationRest -> OptionalIdentifier ( ArgumentList ) ;'
p535
S'OperationRest'
p536
I5
S'p_OperationRest'
p537
S'../../third_party/blink/Source/bindings/scripts/../../../../../tools/idl_parser/idl_parser.py'
p538
I658
tp539
a(S'OptionalIdentifier -> identifier'
p540
S'OptionalIdentifier'
p541
I1
S'p_OptionalIdentifier'
p542
S'../../third_party/blink/Source/bindings/scripts/../../../../../tools/idl_parser/idl_parser.py'
p543
I664
tp544
a(S'OptionalIdentifier -> <empty>'
p545
g541
I0
g542
g543
I665
tp546
a(S'ArgumentList -> Argument Arguments'
p547
S'ArgumentList'
p548
I2
S'p_ArgumentList'
p549
S'../../third_party/blink/Source/bindings/scripts/../../../../../tools/idl_parser/idl_parser.py'
p550
I673
tp551
a(S'ArgumentList -> <empty>'
p552
g548
I0
g549
g550
I674
tp553
a(S'ArgumentList -> error'
p554
S'ArgumentList'
p555
I1
S'p_ArgumentListError'
p556
S'../../third_party/blink/Source/bindings/scripts/../../../../../tools/idl_parser/idl_parser.py'
p557
I680
tp558
a(S'Arguments -> , Argument Arguments'
p559
S'Arguments'
p560
I3
S'p_Arguments'
p561
S'../../third_party/blink/Source/bindings/scripts/../../../../../tools/idl_parser/idl_parser.py'
p562
I685
tp563
a(S'Arguments -> <empty>'
p564
g560
I0
g561
g562
I686
tp565
a(S'Arguments -> , error'
p566
S'Arguments'
p567
I2
S'p_ArgumentsError'
p568
S'../../third_party/blink/Source/bindings/scripts/../../../../../tools/idl_parser/idl_parser.py'
p569
I692
tp570
a(S'Argument -> ExtendedAttributeList OptionalOrRequiredArgument'
p571
S'Argument'
p572
I2
S'p_Argument'
p573
S'../../third_party/blink/Source/bindings/scripts/../../../../../tools/idl_parser/idl_parser.py'
p574
I697
tp575
a(S'OptionalOrRequiredArgument -> OPTIONAL Type ArgumentName Default'
p576
S'OptionalOrRequiredArgument'
p577
I4
S'p_OptionalOrRequiredArgument'
p578
S'../../third_party/blink/Source/bindings/scripts/../../../../../tools/idl_parser/idl_parser.py'
p579
I703
tp580
a(S'OptionalOrRequiredArgument -> Type Ellipsis ArgumentName'
p581
g577
I3
g578
g579
I704
tp582
a(S'OptionalOrRequiredArgument -> error'
p583
S'OptionalOrRequiredArgument'
p584
I1
S'p_OptionalOrRequiredArgumentError'
p585
S'../../third_party/blink/Source/bindings/scripts/../../../../../tools/idl_parser/idl_parser.py'
p586
I714
tp587
a(S'ArgumentName -> ArgumentNameKeyword'
p588
S'ArgumentName'
p589
I1
S'p_ArgumentName'
p590
S'../../third_party/blink/Source/bindings/scripts/../../../../../tools/idl_parser/idl_parser.py'
p591
I719
tp592
a(S'ArgumentName -> identifier'
p593
g589
I1
g590
g591
I720
tp594
a(S'Ellipsis -> ELLIPSIS'
p595
S'Ellipsis'
p596
I1
S'p_Ellipsis'
p597
S'../../third_party/blink/Source/bindings/scripts/../../../../../tools/idl_parser/idl_parser.py'
p598
I725
tp599
a(S'Ellipsis -> <empty>'
p600
g596
I0
g597
g598
I726
tp601
a(S'ExceptionField -> Type identifier ;'
p602
S'ExceptionField'
p603
I3
S'p_ExceptionField'
p604
S'../../third_party/blink/Source/bindings/scripts/../../../../../tools/idl_parser/idl_parser.py'
p605
I739
tp606
a(S'ExceptionField -> error'
p607
S'ExceptionField'
p608
I1
S'p_ExceptionFieldError'
p609
S'../../third_party/blink/Source/bindings/scripts/../../../../../tools/idl_parser/idl_parser.py'
p610
I744
tp611
a(S'Iterable -> ITERABLE < Type OptionalType > ;'
p612
S'Iterable'
p613
I6
S'p_Iterable'
p614
S'../../third_party/blink/Source/bindings/scripts/../../../../../tools/idl_parser/idl_parser.py'
p615
I749
tp616
a(S'Iterable -> LEGACYITERABLE < Type > ;'
p617
g613
I5
g614
g615
I750
tp618
a(S'OptionalType -> , Type'
p619
S'OptionalType'
p620
I2
S'p_OptionalType'
p621
S'../../third_party/blink/Source/bindings/scripts/../../../../../tools/idl_parser/idl_parser.py'
p622
I759
tp623
a(S'OptionalType -> <empty>'
p624
g620
I0
g621
g622
I760
tp625
a(S'ReadWriteMaplike -> MaplikeRest'
p626
S'ReadWriteMaplike'
p627
I1
S'p_ReadWriteMaplike'
p628
S'../../third_party/blink/Source/bindings/scripts/../../../../../tools/idl_parser/idl_parser.py'
p629
I766
tp630
a(S'ReadWriteSetlike -> SetlikeRest'
p631
S'ReadWriteSetlike'
p632
I1
S'p_ReadWriteSetlike'
p633
S'../../third_party/blink/Source/bindings/scripts/../../../../../tools/idl_parser/idl_parser.py'
p634
I771
tp635
a(S'MaplikeRest -> MAPLIKE < Type , Type > ;'
p636
S'MaplikeRest'
p637
I7
S'p_MaplikeRest'
p638
S'../../third_party/blink/Source/bindings/scripts/../../../../../tools/idl_parser/idl_parser.py'
p639
I776
tp640
a(S'SetlikeRest -> SETLIKE < Type > ;'
p641
S'SetlikeRest'
p642
I5
S'p_SetlikeRest'
p643
S'../../third_party/blink/Source/bindings/scripts/../../../../../tools/idl_parser/idl_parser.py'
p644
I782
tp645
a(S'ExtendedAttributeListNoComments -> [ ExtendedAttribute ExtendedAttributes ]'
p646
S'ExtendedAttributeListNoComments'
p647
I4
S'p_ExtendedAttributeListNoComments'
p648
S'../../third_party/blink/Source/bindings/scripts/../../../../../tools/idl_parser/idl_parser.py'
p649
I787
tp650
a(S'ExtendedAttributeListNoComments -> <empty>'
p651
g647
I0
g648
g649
I788
tp652
a(S'ArgumentNameKeyword -> ATTRIBUTE'
p653
S'ArgumentNameKeyword'
p654
I1
S'p_ArgumentNameKeyword'
p655
S'../../third_party/blink/Source/bindings/scripts/../../../../../tools/idl_parser/idl_parser.py'
p656
I829
tp657
a(S'ArgumentNameKeyword -> CALLBACK'
p658
g654
I1
g655
g656
I830
tp659
a(S'ArgumentNameKeyword -> CONST'
p660
g654
I1
g655
g656
I831
tp661
a(S'ArgumentNameKeyword -> CREATOR'
p662
g654
I1
g655
g656
I832
tp663
a(S'ArgumentNameKeyword -> DELETER'
p664
g654
I1
g655
g656
I833
tp665
a(S'ArgumentNameKeyword -> DICTIONARY'
p666
g654
I1
g655
g656
I834
tp667
a(S'ArgumentNameKeyword -> ENUM'
p668
g654
I1
g655
g656
I835
tp669
a(S'ArgumentNameKeyword -> EXCEPTION'
p670
g654
I1
g655
g656
I836
tp671
a(S'ArgumentNameKeyword -> GETTER'
p672
g654
I1
g655
g656
I837
tp673
a(S'ArgumentNameKeyword -> IMPLEMENTS'
p674
g654
I1
g655
g656
I838
tp675
a(S'ArgumentNameKeyword -> INHERIT'
p676
g654
I1
g655
g656
I839
tp677
a(S'ArgumentNameKeyword -> LEGACYCALLER'
p678
g654
I1
g655
g656
I840
tp679
a(S'ArgumentNameKeyword -> PARTIAL'
p680
g654
I1
g655
g656
I841
tp681
a(S'ArgumentNameKeyword -> SERIALIZER'
p682
g654
I1
g655
g656
I842
tp683
a(S'ArgumentNameKeyword -> SETTER'
p684
g654
I1
g655
g656
I843
tp685
a(S'ArgumentNameKeyword -> STATIC'
p686
g654
I1
g655
g656
I844
tp687
a(S'ArgumentNameKeyword -> STRINGIFIER'
p688
g654
I1
g655
g656
I845
tp689
a(S'ArgumentNameKeyword -> TYPEDEF'
p690
g654
I1
g655
g656
I846
tp691
a(S'ArgumentNameKeyword -> UNRESTRICTED'
p692
g654
I1
g655
g656
I847
tp693
a(S'Type -> SingleType'
p694
S'Type'
p695
I1
S'p_Type'
p696
S'../../third_party/blink/Source/bindings/scripts/../../../../../tools/idl_parser/idl_parser.py'
p697
I854
tp698
a(S'Type -> UnionType TypeSuffix'
p699
g695
I2
g696
g697
I855
tp700
a(S'SingleType -> NonAnyType'
p701
S'SingleType'
p702
I1
S'p_SingleType'
p703
S'../../third_party/blink/Source/bindings/scripts/../../../../../tools/idl_parser/idl_parser.py'
p704
I863
tp705
a(S'SingleType -> ANY TypeSuffixStartingWithArray'
p706
g702
I2
g703
g704
I864
tp707
a(S'UnionType -> ( UnionMemberType OR UnionMemberType UnionMemberTypes )'
p708
S'UnionType'
p709
I6
S'p_UnionType'
p710
S'../../third_party/blink/Source/bindings/scripts/../../../../../tools/idl_parser/idl_parser.py'
p711
I872
tp712
a(S'UnionMemberType -> NonAnyType'
p713
S'UnionMemberType'
p714
I1
S'p_UnionMemberType'
p715
S'../../third_party/blink/Source/bindings/scripts/../../../../../tools/idl_parser/idl_parser.py'
p716
I878
tp717
a(S'UnionMemberType -> UnionType TypeSuffix'
p718
g714
I2
g715
g716
I879
tp719
a(S'UnionMemberType -> ANY [ ] TypeSuffix'
p720
g714
I4
g715
g716
I880
tp721
a(S'UnionMemberTypes -> OR UnionMemberType UnionMemberTypes'
p722
S'UnionMemberTypes'
p723
I3
S'p_UnionMemberTypes'
p724
S'../../third_party/blink/Source/bindings/scripts/../../../../../tools/idl_parser/idl_parser.py'
p725
I891
tp726
a(S'UnionMemberTypes -> <empty>'
p727
g723
I0
g724
g725
I892
tp728
a(S'NonAnyType -> PrimitiveType TypeSuffix'
p729
S'NonAnyType'
p730
I2
S'p_NonAnyType'
p731
S'../../third_party/blink/Source/bindings/scripts/../../../../../tools/idl_parser/idl_parser.py'
p732
I901
tp733
a(S'NonAnyType -> PromiseType Null'
p734
g730
I2
g731
g732
I902
tp735
a(S'NonAnyType -> identifier TypeSuffix'
p736
g730
I2
g731
g732
I903
tp737
a(S'NonAnyType -> SEQUENCE < Type > Null'
p738
g730
I5
g731
g732
I904
tp739
a(S'NonAnyType -> FROZENARRAY < Type > Null'
p740
g730
I5
g731
g732
I905
tp741
a(S'NonAnyType -> RecordType Null'
p742
g730
I2
g731
g732
I906
tp743
a(S'ConstType -> PrimitiveType Null'
p744
S'ConstType'
p745
I2
S'p_ConstType'
p746
S'../../third_party/blink/Source/bindings/scripts/../../../../../tools/idl_parser/idl_parser.py'
p747
I922
tp748
a(S'ConstType -> identifier Null'
p749
g745
I2
g746
g747
I923
tp750
a(S'PrimitiveType -> UnsignedIntegerType'
p751
S'PrimitiveType'
p752
I1
S'p_PrimitiveType'
p753
S'../../third_party/blink/Source/bindings/scripts/../../../../../tools/idl_parser/idl_parser.py'
p754
I933
tp755
a(S'PrimitiveType -> UnrestrictedFloatType'
p756
g752
I1
g753
g754
I934
tp757
a(S'PrimitiveType -> StringType'
p758
g752
I1
g753
g754
I935
tp759
a(S'PrimitiveType -> BOOLEAN'
p760
g752
I1
g753
g754
I936
tp761
a(S'PrimitiveType -> BYTE'
p762
g752
I1
g753
g754
I937
tp763
a(S'PrimitiveType -> OCTET'
p764
g752
I1
g753
g754
I938
tp765
a(S'PrimitiveType -> OBJECT'
p766
g752
I1
g753
g754
I939
tp767
a(S'PrimitiveType -> DATE'
p768
g752
I1
g753
g754
I940
tp769
a(S'PrimitiveType -> REGEXP'
p770
g752
I1
g753
g754
I941
tp771
a(S'UnrestrictedFloatType -> UNRESTRICTED FloatType'
p772
S'UnrestrictedFloatType'
p773
I2
S'p_UnrestrictedFloatType'
p774
S'../../third_party/blink/Source/bindings/scripts/../../../../../tools/idl_parser/idl_parser.py'
p775
I950
tp776
a(S'UnrestrictedFloatType -> FloatType'
p777
g773
I1
g774
g775
I951
tp778
a(S'FloatType -> FLOAT'
p779
S'FloatType'
p780
I1
S'p_FloatType'
p781
S'../../third_party/blink/Source/bindings/scripts/../../../../../tools/idl_parser/idl_parser.py'
p782
I962
tp783
a(S'FloatType -> DOUBLE'
p784
g780
I1
g781
g782
I963
tp785
a(S'UnsignedIntegerType -> UNSIGNED IntegerType'
p786
S'UnsignedIntegerType'
p787
I2
S'p_UnsignedIntegerType'
p788
S'../../third_party/blink/Source/bindings/scripts/../../../../../tools/idl_parser/idl_parser.py'
p789
I968
tp790
a(S'UnsignedIntegerType -> IntegerType'
p791
g787
I1
g788
g789
I969
tp792
a(S'IntegerType -> SHORT'
p793
S'IntegerType'
p794
I1
S'p_IntegerType'
p795
S'../../third_party/blink/Source/bindings/scripts/../../../../../tools/idl_parser/idl_parser.py'
p796
I977
tp797
a(S'IntegerType -> LONG OptionalLong'
p798
g794
I2
g795
g796
I978
tp799
a(S'OptionalLong -> LONG'
p800
S'OptionalLong'
p801
I1
S'p_OptionalLong'
p802
S'../../third_party/blink/Source/bindings/scripts/../../../../../tools/idl_parser/idl_parser.py'
p803
I986
tp804
a(S'OptionalLong -> <empty>'
p805
g801
I0
g802
g803
I987
tp806
a(S'PromiseType -> PROMISE < ReturnType >'
p807
S'PromiseType'
p808
I4
S'p_PromiseType'
p809
S'../../third_party/blink/Source/bindings/scripts/../../../../../tools/idl_parser/idl_parser.py'
p810
I995
tp811
a(S'PromiseType -> PROMISE'
p812
g808
I1
g809
g810
I996
tp813
a(S'TypeSuffix -> [ integer ] TypeSuffix'
p814
S'TypeSuffix'
p815
I4
S'p_TypeSuffix'
p816
S'../../third_party/blink/Source/bindings/scripts/../../../../../tools/idl_parser/idl_parser.py'
p817
I1009
tp818
a(S'TypeSuffix -> [ ] TypeSuffix'
p819
g815
I3
g816
g817
I1010
tp820
a(S'TypeSuffix -> ? TypeSuffixStartingWithArray'
p821
g815
I2
g816
g817
I1011
tp822
a(S'TypeSuffix -> <empty>'
p823
g815
I0
g816
g817
I1012
tp824
a(S'TypeSuffixStartingWithArray -> [ ] TypeSuffix'
p825
S'TypeSuffixStartingWithArray'
p826
I3
S'p_TypeSuffixStartingWithArray'
p827
S'../../third_party/blink/Source/bindings/scripts/../../../../../tools/idl_parser/idl_parser.py'
p828
I1025
tp829
a(S'TypeSuffixStartingWithArray -> <empty>'
p830
g826
I0
g827
g828
I1026
tp831
a(S'Null -> ?'
p832
S'Null'
p833
I1
S'p_Null'
p834
S'../../third_party/blink/Source/bindings/scripts/../../../../../tools/idl_parser/idl_parser.py'
p835
I1032
tp836
a(S'Null -> <empty>'
p837
g833
I0
g834
g835
I1033
tp838
a(S'ReturnType -> Type'
p839
S'ReturnType'
p840
I1
S'p_ReturnType'
p841
S'../../third_party/blink/Source/bindings/scripts/../../../../../tools/idl_parser/idl_parser.py'
p842
I1039
tp843
a(S'ReturnType -> VOID'
p844
g840
I1
g841
g842
I1040
tp845
a(S'IdentifierList -> identifier Identifiers'
p846
S'IdentifierList'
p847
I2
S'p_IdentifierList'
p848
S'../../third_party/blink/Source/bindings/scripts/../../../../../tools/idl_parser/idl_parser.py'
p849
I1049
tp850
a(S'Identifiers -> , identifier Identifiers'
p851
S'Identifiers'
p852
I3
S'p_Identifiers'
p853
S'../../third_party/blink/Source/bindings/scripts/../../../../../tools/idl_parser/idl_parser.py'
p854
I1054
tp855
a(S'Identifiers -> <empty>'
p856
g852
I0
g853
g854
I1055
tp857
a(S'ExtendedAttributeNoArgs -> identifier'
p858
S'ExtendedAttributeNoArgs'
p859
I1
S'p_ExtendedAttributeNoArgs'
p860
S'../../third_party/blink/Source/bindings/scripts/../../../../../tools/idl_parser/idl_parser.py'
p861
I1061
tp862
a(S'ExtendedAttributeArgList -> identifier ( ArgumentList )'
p863
S'ExtendedAttributeArgList'
p864
I4
S'p_ExtendedAttributeArgList'
p865
S'../../third_party/blink/Source/bindings/scripts/../../../../../tools/idl_parser/idl_parser.py'
p866
I1066
tp867
a(S'ExtendedAttributeIdent -> identifier = identifier'
p868
S'ExtendedAttributeIdent'
p869
I3
S'p_ExtendedAttributeIdent'
p870
S'../../third_party/blink/Source/bindings/scripts/../../../../../tools/idl_parser/idl_parser.py'
p871
I1072
tp872
a(S'ExtendedAttributeIdentList -> identifier = ( IdentifierList )'
p873
S'ExtendedAttributeIdentList'
p874
I5
S'p_ExtendedAttributeIdentList'
p875
S'../../third_party/blink/Source/bindings/scripts/../../../../../tools/idl_parser/idl_parser.py'
p876
I1078
tp877
a(S'ExtendedAttributeNamedArgList -> identifier = identifier ( ArgumentList )'
p878
S'ExtendedAttributeNamedArgList'
p879
I6
S'p_ExtendedAttributeNamedArgList'
p880
S'../../third_party/blink/Source/bindings/scripts/../../../../../tools/idl_parser/idl_parser.py'
p881
I1084
tp882
a(S'StringType -> BYTESTRING'
p883
S'StringType'
p884
I1
S'p_StringType'
p885
S'../../third_party/blink/Source/bindings/scripts/../../../../../tools/idl_parser/idl_parser.py'
p886
I1091
tp887
a(S'StringType -> DOMSTRING'
p888
g884
I1
g885
g886
I1092
tp889
a(S'StringType -> USVSTRING'
p890
g884
I1
g885
g886
I1093
tp891
a(S'RecordType -> RECORD < StringType , Type >'
p892
S'RecordType'
p893
I6
S'p_RecordType'
p894
S'../../third_party/blink/Source/bindings/scripts/../../../../../tools/idl_parser/idl_parser.py'
p895
I1098
tp896
a(S'RecordType -> RECORD < error , Type >'
p897
S'RecordType'
p898
I6
S'p_RecordTypeError'
p899
S'../../third_party/blink/Source/bindings/scripts/../../../../../tools/idl_parser/idl_parser.py'
p900
I1103
tp901
a.