ccopy_reg
_reconstructor
p1
(cmojom.parse.ast
Mojom
p2
c__builtin__
object
p3
NtRp4
(dp5
S'import_list'
p6
g1
(cmojom.parse.ast
ImportList
p7
g3
NtRp8
(dp9
S'items'
p10
(lp11
sS'lineno'
p12
NsS'filename'
p13
NsbsS'definition_list'
p14
(lp15
g1
(cmojom.parse.ast
Enum
p16
g3
NtRp17
(dp18
S'attribute_list'
p19
NsS'enum_value_list'
p20
g1
(cmojom.parse.ast
EnumValueList
p21
g3
NtRp22
(dp23
g10
(lp24
g1
(cmojom.parse.ast
EnumValue
p25
g3
NtRp26
(dp27
g19
NsS'value'
p28
Nsg12
I29
sS'mojom_name'
p29
S'kNone'
p30
sg13
S'../../ui/accessibility/ax_enums.mojom'
p31
sbag1
(g25
g3
NtRp32
(dp33
g19
Nsg28
Nsg12
I30
sg29
S'kActiveDescendantChanged'
p34
sg13
g31
sbag1
(g25
g3
NtRp35
(dp36
g19
Nsg28
Nsg12
I31
sg29
S'kAlert'
p37
sg13
g31
sbag1
(g25
g3
NtRp38
(dp39
g19
Nsg28
Nsg12
I32
sg29
S'kAriaAttributeChanged'
p40
sg13
g31
sbag1
(g25
g3
NtRp41
(dp42
g19
Nsg28
Nsg12
I33
sg29
S'kAutocorrectionOccured'
p43
sg13
g31
sbag1
(g25
g3
NtRp44
(dp45
g19
Nsg28
Nsg12
I34
sg29
S'kBlur'
p46
sg13
g31
sbag1
(g25
g3
NtRp47
(dp48
g19
Nsg28
Nsg12
I35
sg29
S'kCheckedStateChanged'
p49
sg13
g31
sbag1
(g25
g3
NtRp50
(dp51
g19
Nsg28
Nsg12
I36
sg29
S'kChildrenChanged'
p52
sg13
g31
sbag1
(g25
g3
NtRp53
(dp54
g19
Nsg28
Nsg12
I37
sg29
S'kClicked'
p55
sg13
g31
sbag1
(g25
g3
NtRp56
(dp57
g19
Nsg28
Nsg12
I38
sg29
S'kDocumentSelectionChanged'
p58
sg13
g31
sbag1
(g25
g3
NtRp59
(dp60
g19
Nsg28
Nsg12
I39
sg29
S'kDocumentTitleChanged'
p61
sg13
g31
sbag1
(g25
g3
NtRp62
(dp63
g19
Nsg28
Nsg12
I40
sg29
S'kEndOfTest'
p64
sg13
g31
sbag1
(g25
g3
NtRp65
(dp66
g19
Nsg28
Nsg12
I41
sg29
S'kExpandedChanged'
p67
sg13
g31
sbag1
(g25
g3
NtRp68
(dp69
g19
Nsg28
Nsg12
I42
sg29
S'kFocus'
p70
sg13
g31
sbag1
(g25
g3
NtRp71
(dp72
g19
Nsg28
Nsg12
I43
sg29
S'kFocusContext'
p73
sg13
g31
sbag1
(g25
g3
NtRp74
(dp75
g19
Nsg28
Nsg12
I44
sg29
S'kHide'
p76
sg13
g31
sbag1
(g25
g3
NtRp77
(dp78
g19
Nsg28
Nsg12
I45
sg29
S'kHitTestResult'
p79
sg13
g31
sbag1
(g25
g3
NtRp80
(dp81
g19
Nsg28
Nsg12
I46
sg29
S'kHover'
p82
sg13
g31
sbag1
(g25
g3
NtRp83
(dp84
g19
Nsg28
Nsg12
I47
sg29
S'kImageFrameUpdated'
p85
sg13
g31
sbag1
(g25
g3
NtRp86
(dp87
g19
Nsg28
Nsg12
I48
sg29
S'kInvalidStatusChanged'
p88
sg13
g31
sbag1
(g25
g3
NtRp89
(dp90
g19
Nsg28
Nsg12
I49
sg29
S'kLayoutComplete'
p91
sg13
g31
sbag1
(g25
g3
NtRp92
(dp93
g19
Nsg28
Nsg12
I50
sg29
S'kLiveRegionCreated'
p94
sg13
g31
sbag1
(g25
g3
NtRp95
(dp96
g19
Nsg28
Nsg12
I51
sg29
S'kLiveRegionChanged'
p97
sg13
g31
sbag1
(g25
g3
NtRp98
(dp99
g19
Nsg28
Nsg12
I52
sg29
S'kLoadComplete'
p100
sg13
g31
sbag1
(g25
g3
NtRp101
(dp102
g19
Nsg28
Nsg12
I53
sg29
S'kLoadStart'
p103
sg13
g31
sbag1
(g25
g3
NtRp104
(dp105
g19
Nsg28
Nsg12
I54
sg29
S'kLocationChanged'
p106
sg13
g31
sbag1
(g25
g3
NtRp107
(dp108
g19
Nsg28
Nsg12
I55
sg29
S'kMediaStartedPlaying'
p109
sg13
g31
sbag1
(g25
g3
NtRp110
(dp111
g19
Nsg28
Nsg12
I56
sg29
S'kMediaStoppedPlaying'
p112
sg13
g31
sbag1
(g25
g3
NtRp113
(dp114
g19
Nsg28
Nsg12
I57
sg29
S'kMenuEnd'
p115
sg13
g31
sbag1
(g25
g3
NtRp116
(dp117
g19
Nsg28
Nsg12
I58
sg29
S'kMenuListItemSelected'
p118
sg13
g31
sbag1
(g25
g3
NtRp119
(dp120
g19
Nsg28
Nsg12
I59
sg29
S'kMenuListValueChanged'
p121
sg13
g31
sbag1
(g25
g3
NtRp122
(dp123
g19
Nsg28
Nsg12
I60
sg29
S'kMenuPopupEnd'
p124
sg13
g31
sbag1
(g25
g3
NtRp125
(dp126
g19
Nsg28
Nsg12
I61
sg29
S'kMenuPopupHide'
p127
sg13
g31
sbag1
(g25
g3
NtRp128
(dp129
g19
Nsg28
Nsg12
I62
sg29
S'kMenuPopupStart'
p130
sg13
g31
sbag1
(g25
g3
NtRp131
(dp132
g19
Nsg28
Nsg12
I63
sg29
S'kMenuStart'
p133
sg13
g31
sbag1
(g25
g3
NtRp134
(dp135
g19
Nsg28
Nsg12
I64
sg29
S'kMouseCanceled'
p136
sg13
g31
sbag1
(g25
g3
NtRp137
(dp138
g19
Nsg28
Nsg12
I65
sg29
S'kMouseDragged'
p139
sg13
g31
sbag1
(g25
g3
NtRp140
(dp141
g19
Nsg28
Nsg12
I66
sg29
S'kMouseMoved'
p142
sg13
g31
sbag1
(g25
g3
NtRp143
(dp144
g19
Nsg28
Nsg12
I67
sg29
S'kMousePressed'
p145
sg13
g31
sbag1
(g25
g3
NtRp146
(dp147
g19
Nsg28
Nsg12
I68
sg29
S'kMouseReleased'
p148
sg13
g31
sbag1
(g25
g3
NtRp149
(dp150
g19
Nsg28
Nsg12
I69
sg29
S'kRowCollapsed'
p151
sg13
g31
sbag1
(g25
g3
NtRp152
(dp153
g19
Nsg28
Nsg12
I70
sg29
S'kRowCountChanged'
p154
sg13
g31
sbag1
(g25
g3
NtRp155
(dp156
g19
Nsg28
Nsg12
I71
sg29
S'kRowExpanded'
p157
sg13
g31
sbag1
(g25
g3
NtRp158
(dp159
g19
Nsg28
Nsg12
I72
sg29
S'kScrollPositionChanged'
p160
sg13
g31
sbag1
(g25
g3
NtRp161
(dp162
g19
Nsg28
Nsg12
I73
sg29
S'kScrolledToAnchor'
p163
sg13
g31
sbag1
(g25
g3
NtRp164
(dp165
g19
Nsg28
Nsg12
I74
sg29
S'kSelectedChildrenChanged'
p166
sg13
g31
sbag1
(g25
g3
NtRp167
(dp168
g19
Nsg28
Nsg12
I75
sg29
S'kSelection'
p169
sg13
g31
sbag1
(g25
g3
NtRp170
(dp171
g19
Nsg28
Nsg12
I76
sg29
S'kSelectionAdd'
p172
sg13
g31
sbag1
(g25
g3
NtRp173
(dp174
g19
Nsg28
Nsg12
I77
sg29
S'kSelectionRemove'
p175
sg13
g31
sbag1
(g25
g3
NtRp176
(dp177
g19
Nsg28
Nsg12
I78
sg29
S'kShow'
p178
sg13
g31
sbag1
(g25
g3
NtRp179
(dp180
g19
Nsg28
Nsg12
I79
sg29
S'kStateChanged'
p181
sg13
g31
sbag1
(g25
g3
NtRp182
(dp183
g19
Nsg28
Nsg12
I80
sg29
S'kTextChanged'
p184
sg13
g31
sbag1
(g25
g3
NtRp185
(dp186
g19
Nsg28
Nsg12
I81
sg29
S'kWindowActivated'
p187
sg13
g31
sbag1
(g25
g3
NtRp188
(dp189
g19
Nsg28
Nsg12
I82
sg29
S'kWindowDeactivated'
p190
sg13
g31
sbag1
(g25
g3
NtRp191
(dp192
g19
Nsg28
Nsg12
I83
sg29
S'kTextSelectionChanged'
p193
sg13
g31
sbag1
(g25
g3
NtRp194
(dp195
g19
Nsg28
Nsg12
I84
sg29
S'kTreeChanged'
p196
sg13
g31
sbag1
(g25
g3
NtRp197
(dp198
g19
Nsg28
Nsg12
I87
sg29
S'kValueChanged'
p199
sg13
g31
sbasg12
I29
sg13
g31
sbsg12
I28
sg29
S'Event'
p200
sg13
g31
sbag1
(g16
g3
NtRp201
(dp202
g19
Nsg20
g1
(g21
g3
NtRp203
(dp204
g10
(lp205
g1
(g25
g3
NtRp206
(dp207
g19
Nsg28
Nsg12
I103
sg29
S'kNone'
p208
sg13
g31
sbag1
(g25
g3
NtRp209
(dp210
g19
Nsg28
Nsg12
I104
sg29
S'kAbbr'
p211
sg13
g31
sbag1
(g25
g3
NtRp212
(dp213
g19
Nsg28
Nsg12
I105
sg29
S'kAlert'
p214
sg13
g31
sbag1
(g25
g3
NtRp215
(dp216
g19
Nsg28
Nsg12
I106
sg29
S'kAlertDialog'
p217
sg13
g31
sbag1
(g25
g3
NtRp218
(dp219
g19
Nsg28
Nsg12
I107
sg29
S'kAnchor'
p220
sg13
g31
sbag1
(g25
g3
NtRp221
(dp222
g19
Nsg28
Nsg12
I108
sg29
S'kAnnotation'
p223
sg13
g31
sbag1
(g25
g3
NtRp224
(dp225
g19
Nsg28
Nsg12
I109
sg29
S'kApplication'
p226
sg13
g31
sbag1
(g25
g3
NtRp227
(dp228
g19
Nsg28
Nsg12
I110
sg29
S'kArticle'
p229
sg13
g31
sbag1
(g25
g3
NtRp230
(dp231
g19
Nsg28
Nsg12
I111
sg29
S'kAudio'
p232
sg13
g31
sbag1
(g25
g3
NtRp233
(dp234
g19
Nsg28
Nsg12
I112
sg29
S'kBanner'
p235
sg13
g31
sbag1
(g25
g3
NtRp236
(dp237
g19
Nsg28
Nsg12
I113
sg29
S'kBlockquote'
p238
sg13
g31
sbag1
(g25
g3
NtRp239
(dp240
g19
Nsg28
Nsg12
I114
sg29
S'kButton'
p241
sg13
g31
sbag1
(g25
g3
NtRp242
(dp243
g19
Nsg28
Nsg12
I115
sg29
S'kCanvas'
p244
sg13
g31
sbag1
(g25
g3
NtRp245
(dp246
g19
Nsg28
Nsg12
I116
sg29
S'kCaption'
p247
sg13
g31
sbag1
(g25
g3
NtRp248
(dp249
g19
Nsg28
Nsg12
I117
sg29
S'kCaret'
p250
sg13
g31
sbag1
(g25
g3
NtRp251
(dp252
g19
Nsg28
Nsg12
I118
sg29
S'kCell'
p253
sg13
g31
sbag1
(g25
g3
NtRp254
(dp255
g19
Nsg28
Nsg12
I119
sg29
S'kCheckBox'
p256
sg13
g31
sbag1
(g25
g3
NtRp257
(dp258
g19
Nsg28
Nsg12
I120
sg29
S'kClient'
p259
sg13
g31
sbag1
(g25
g3
NtRp260
(dp261
g19
Nsg28
Nsg12
I121
sg29
S'kColorWell'
p262
sg13
g31
sbag1
(g25
g3
NtRp263
(dp264
g19
Nsg28
Nsg12
I122
sg29
S'kColumn'
p265
sg13
g31
sbag1
(g25
g3
NtRp266
(dp267
g19
Nsg28
Nsg12
I123
sg29
S'kColumnHeader'
p268
sg13
g31
sbag1
(g25
g3
NtRp269
(dp270
g19
Nsg28
Nsg12
I124
sg29
S'kComboBoxGrouping'
p271
sg13
g31
sbag1
(g25
g3
NtRp272
(dp273
g19
Nsg28
Nsg12
I125
sg29
S'kComboBoxMenuButton'
p274
sg13
g31
sbag1
(g25
g3
NtRp275
(dp276
g19
Nsg28
Nsg12
I126
sg29
S'kComplementary'
p277
sg13
g31
sbag1
(g25
g3
NtRp278
(dp279
g19
Nsg28
Nsg12
I127
sg29
S'kContentDeletion'
p280
sg13
g31
sbag1
(g25
g3
NtRp281
(dp282
g19
Nsg28
Nsg12
I128
sg29
S'kContentInsertion'
p283
sg13
g31
sbag1
(g25
g3
NtRp284
(dp285
g19
Nsg28
Nsg12
I129
sg29
S'kContentInfo'
p286
sg13
g31
sbag1
(g25
g3
NtRp287
(dp288
g19
Nsg28
Nsg12
I130
sg29
S'kDate'
p289
sg13
g31
sbag1
(g25
g3
NtRp290
(dp291
g19
Nsg28
Nsg12
I131
sg29
S'kDateTime'
p292
sg13
g31
sbag1
(g25
g3
NtRp293
(dp294
g19
Nsg28
Nsg12
I132
sg29
S'kDefinition'
p295
sg13
g31
sbag1
(g25
g3
NtRp296
(dp297
g19
Nsg28
Nsg12
I133
sg29
S'kDescriptionList'
p298
sg13
g31
sbag1
(g25
g3
NtRp299
(dp300
g19
Nsg28
Nsg12
I134
sg29
S'kDescriptionListDetail'
p301
sg13
g31
sbag1
(g25
g3
NtRp302
(dp303
g19
Nsg28
Nsg12
I135
sg29
S'kDescriptionListTerm'
p304
sg13
g31
sbag1
(g25
g3
NtRp305
(dp306
g19
Nsg28
Nsg12
I136
sg29
S'kDesktop'
p307
sg13
g31
sbag1
(g25
g3
NtRp308
(dp309
g19
Nsg28
Nsg12
I137
sg29
S'kDetails'
p310
sg13
g31
sbag1
(g25
g3
NtRp311
(dp312
g19
Nsg28
Nsg12
I138
sg29
S'kDialog'
p313
sg13
g31
sbag1
(g25
g3
NtRp314
(dp315
g19
Nsg28
Nsg12
I139
sg29
S'kDirectory'
p316
sg13
g31
sbag1
(g25
g3
NtRp317
(dp318
g19
Nsg28
Nsg12
I140
sg29
S'kDisclosureTriangle'
p319
sg13
g31
sbag1
(g25
g3
NtRp320
(dp321
g19
Nsg28
Nsg12
I144
sg29
S'kDocAbstract'
p322
sg13
g31
sbag1
(g25
g3
NtRp323
(dp324
g19
Nsg28
Nsg12
I145
sg29
S'kDocAcknowledgments'
p325
sg13
g31
sbag1
(g25
g3
NtRp326
(dp327
g19
Nsg28
Nsg12
I146
sg29
S'kDocAfterword'
p328
sg13
g31
sbag1
(g25
g3
NtRp329
(dp330
g19
Nsg28
Nsg12
I147
sg29
S'kDocAppendix'
p331
sg13
g31
sbag1
(g25
g3
NtRp332
(dp333
g19
Nsg28
Nsg12
I148
sg29
S'kDocBackLink'
p334
sg13
g31
sbag1
(g25
g3
NtRp335
(dp336
g19
Nsg28
Nsg12
I149
sg29
S'kDocBiblioEntry'
p337
sg13
g31
sbag1
(g25
g3
NtRp338
(dp339
g19
Nsg28
Nsg12
I150
sg29
S'kDocBibliography'
p340
sg13
g31
sbag1
(g25
g3
NtRp341
(dp342
g19
Nsg28
Nsg12
I151
sg29
S'kDocBiblioRef'
p343
sg13
g31
sbag1
(g25
g3
NtRp344
(dp345
g19
Nsg28
Nsg12
I152
sg29
S'kDocChapter'
p346
sg13
g31
sbag1
(g25
g3
NtRp347
(dp348
g19
Nsg28
Nsg12
I153
sg29
S'kDocColophon'
p349
sg13
g31
sbag1
(g25
g3
NtRp350
(dp351
g19
Nsg28
Nsg12
I154
sg29
S'kDocConclusion'
p352
sg13
g31
sbag1
(g25
g3
NtRp353
(dp354
g19
Nsg28
Nsg12
I155
sg29
S'kDocCover'
p355
sg13
g31
sbag1
(g25
g3
NtRp356
(dp357
g19
Nsg28
Nsg12
I156
sg29
S'kDocCredit'
p358
sg13
g31
sbag1
(g25
g3
NtRp359
(dp360
g19
Nsg28
Nsg12
I157
sg29
S'kDocCredits'
p361
sg13
g31
sbag1
(g25
g3
NtRp362
(dp363
g19
Nsg28
Nsg12
I158
sg29
S'kDocDedication'
p364
sg13
g31
sbag1
(g25
g3
NtRp365
(dp366
g19
Nsg28
Nsg12
I159
sg29
S'kDocEndnote'
p367
sg13
g31
sbag1
(g25
g3
NtRp368
(dp369
g19
Nsg28
Nsg12
I160
sg29
S'kDocEndnotes'
p370
sg13
g31
sbag1
(g25
g3
NtRp371
(dp372
g19
Nsg28
Nsg12
I161
sg29
S'kDocEpigraph'
p373
sg13
g31
sbag1
(g25
g3
NtRp374
(dp375
g19
Nsg28
Nsg12
I162
sg29
S'kDocEpilogue'
p376
sg13
g31
sbag1
(g25
g3
NtRp377
(dp378
g19
Nsg28
Nsg12
I163
sg29
S'kDocErrata'
p379
sg13
g31
sbag1
(g25
g3
NtRp380
(dp381
g19
Nsg28
Nsg12
I164
sg29
S'kDocExample'
p382
sg13
g31
sbag1
(g25
g3
NtRp383
(dp384
g19
Nsg28
Nsg12
I165
sg29
S'kDocFootnote'
p385
sg13
g31
sbag1
(g25
g3
NtRp386
(dp387
g19
Nsg28
Nsg12
I166
sg29
S'kDocForeword'
p388
sg13
g31
sbag1
(g25
g3
NtRp389
(dp390
g19
Nsg28
Nsg12
I167
sg29
S'kDocGlossary'
p391
sg13
g31
sbag1
(g25
g3
NtRp392
(dp393
g19
Nsg28
Nsg12
I168
sg29
S'kDocGlossRef'
p394
sg13
g31
sbag1
(g25
g3
NtRp395
(dp396
g19
Nsg28
Nsg12
I169
sg29
S'kDocIndex'
p397
sg13
g31
sbag1
(g25
g3
NtRp398
(dp399
g19
Nsg28
Nsg12
I170
sg29
S'kDocIntroduction'
p400
sg13
g31
sbag1
(g25
g3
NtRp401
(dp402
g19
Nsg28
Nsg12
I171
sg29
S'kDocNoteRef'
p403
sg13
g31
sbag1
(g25
g3
NtRp404
(dp405
g19
Nsg28
Nsg12
I172
sg29
S'kDocNotice'
p406
sg13
g31
sbag1
(g25
g3
NtRp407
(dp408
g19
Nsg28
Nsg12
I173
sg29
S'kDocPageBreak'
p409
sg13
g31
sbag1
(g25
g3
NtRp410
(dp411
g19
Nsg28
Nsg12
I174
sg29
S'kDocPageList'
p412
sg13
g31
sbag1
(g25
g3
NtRp413
(dp414
g19
Nsg28
Nsg12
I175
sg29
S'kDocPart'
p415
sg13
g31
sbag1
(g25
g3
NtRp416
(dp417
g19
Nsg28
Nsg12
I176
sg29
S'kDocPreface'
p418
sg13
g31
sbag1
(g25
g3
NtRp419
(dp420
g19
Nsg28
Nsg12
I177
sg29
S'kDocPrologue'
p421
sg13
g31
sbag1
(g25
g3
NtRp422
(dp423
g19
Nsg28
Nsg12
I178
sg29
S'kDocPullquote'
p424
sg13
g31
sbag1
(g25
g3
NtRp425
(dp426
g19
Nsg28
Nsg12
I179
sg29
S'kDocQna'
p427
sg13
g31
sbag1
(g25
g3
NtRp428
(dp429
g19
Nsg28
Nsg12
I180
sg29
S'kDocSubtitle'
p430
sg13
g31
sbag1
(g25
g3
NtRp431
(dp432
g19
Nsg28
Nsg12
I181
sg29
S'kDocTip'
p433
sg13
g31
sbag1
(g25
g3
NtRp434
(dp435
g19
Nsg28
Nsg12
I182
sg29
S'kDocToc'
p436
sg13
g31
sbag1
(g25
g3
NtRp437
(dp438
g19
Nsg28
Nsg12
I185
sg29
S'kDocument'
p439
sg13
g31
sbag1
(g25
g3
NtRp440
(dp441
g19
Nsg28
Nsg12
I186
sg29
S'kEmbeddedObject'
p442
sg13
g31
sbag1
(g25
g3
NtRp443
(dp444
g19
Nsg28
Nsg12
I187
sg29
S'kFeed'
p445
sg13
g31
sbag1
(g25
g3
NtRp446
(dp447
g19
Nsg28
Nsg12
I188
sg29
S'kFigcaption'
p448
sg13
g31
sbag1
(g25
g3
NtRp449
(dp450
g19
Nsg28
Nsg12
I189
sg29
S'kFigure'
p451
sg13
g31
sbag1
(g25
g3
NtRp452
(dp453
g19
Nsg28
Nsg12
I190
sg29
S'kFooter'
p454
sg13
g31
sbag1
(g25
g3
NtRp455
(dp456
g19
Nsg28
Nsg12
I191
sg29
S'kForm'
p457
sg13
g31
sbag1
(g25
g3
NtRp458
(dp459
g19
Nsg28
Nsg12
I192
sg29
S'kGenericContainer'
p460
sg13
g31
sbag1
(g25
g3
NtRp461
(dp462
g19
Nsg28
Nsg12
I196
sg29
S'kGraphicsDocument'
p463
sg13
g31
sbag1
(g25
g3
NtRp464
(dp465
g19
Nsg28
Nsg12
I197
sg29
S'kGraphicsObject'
p466
sg13
g31
sbag1
(g25
g3
NtRp467
(dp468
g19
Nsg28
Nsg12
I198
sg29
S'kGraphicsSymbol'
p469
sg13
g31
sbag1
(g25
g3
NtRp470
(dp471
g19
Nsg28
Nsg12
I201
sg29
S'kGrid'
p472
sg13
g31
sbag1
(g25
g3
NtRp473
(dp474
g19
Nsg28
Nsg12
I202
sg29
S'kGroup'
p475
sg13
g31
sbag1
(g25
g3
NtRp476
(dp477
g19
Nsg28
Nsg12
I203
sg29
S'kHeading'
p478
sg13
g31
sbag1
(g25
g3
NtRp479
(dp480
g19
Nsg28
Nsg12
I204
sg29
S'kIframe'
p481
sg13
g31
sbag1
(g25
g3
NtRp482
(dp483
g19
Nsg28
Nsg12
I205
sg29
S'kIframePresentational'
p484
sg13
g31
sbag1
(g25
g3
NtRp485
(dp486
g19
Nsg28
Nsg12
I206
sg29
S'kIgnored'
p487
sg13
g31
sbag1
(g25
g3
NtRp488
(dp489
g19
Nsg28
Nsg12
I207
sg29
S'kImage'
p490
sg13
g31
sbag1
(g25
g3
NtRp491
(dp492
g19
Nsg28
Nsg12
I208
sg29
S'kImageMap'
p493
sg13
g31
sbag1
(g25
g3
NtRp494
(dp495
g19
Nsg28
Nsg12
I209
sg29
S'kInlineTextBox'
p496
sg13
g31
sbag1
(g25
g3
NtRp497
(dp498
g19
Nsg28
Nsg12
I210
sg29
S'kInputTime'
p499
sg13
g31
sbag1
(g25
g3
NtRp500
(dp501
g19
Nsg28
Nsg12
I211
sg29
S'kKeyboard'
p502
sg13
g31
sbag1
(g25
g3
NtRp503
(dp504
g19
Nsg28
Nsg12
I212
sg29
S'kLabelText'
p505
sg13
g31
sbag1
(g25
g3
NtRp506
(dp507
g19
Nsg28
Nsg12
I213
sg29
S'kLayoutTable'
p508
sg13
g31
sbag1
(g25
g3
NtRp509
(dp510
g19
Nsg28
Nsg12
I214
sg29
S'kLayoutTableCell'
p511
sg13
g31
sbag1
(g25
g3
NtRp512
(dp513
g19
Nsg28
Nsg12
I215
sg29
S'kLayoutTableColumn'
p514
sg13
g31
sbag1
(g25
g3
NtRp515
(dp516
g19
Nsg28
Nsg12
I216
sg29
S'kLayoutTableRow'
p517
sg13
g31
sbag1
(g25
g3
NtRp518
(dp519
g19
Nsg28
Nsg12
I217
sg29
S'kLegend'
p520
sg13
g31
sbag1
(g25
g3
NtRp521
(dp522
g19
Nsg28
Nsg12
I218
sg29
S'kLineBreak'
p523
sg13
g31
sbag1
(g25
g3
NtRp524
(dp525
g19
Nsg28
Nsg12
I219
sg29
S'kLink'
p526
sg13
g31
sbag1
(g25
g3
NtRp527
(dp528
g19
Nsg28
Nsg12
I220
sg29
S'kList'
p529
sg13
g31
sbag1
(g25
g3
NtRp530
(dp531
g19
Nsg28
Nsg12
I221
sg29
S'kListBox'
p532
sg13
g31
sbag1
(g25
g3
NtRp533
(dp534
g19
Nsg28
Nsg12
I222
sg29
S'kListBoxOption'
p535
sg13
g31
sbag1
(g25
g3
NtRp536
(dp537
g19
Nsg28
Nsg12
I226
sg29
S'kListGrid'
p538
sg13
g31
sbag1
(g25
g3
NtRp539
(dp540
g19
Nsg28
Nsg12
I227
sg29
S'kListItem'
p541
sg13
g31
sbag1
(g25
g3
NtRp542
(dp543
g19
Nsg28
Nsg12
I228
sg29
S'kListMarker'
p544
sg13
g31
sbag1
(g25
g3
NtRp545
(dp546
g19
Nsg28
Nsg12
I229
sg29
S'kLog'
p547
sg13
g31
sbag1
(g25
g3
NtRp548
(dp549
g19
Nsg28
Nsg12
I230
sg29
S'kMain'
p550
sg13
g31
sbag1
(g25
g3
NtRp551
(dp552
g19
Nsg28
Nsg12
I231
sg29
S'kMark'
p553
sg13
g31
sbag1
(g25
g3
NtRp554
(dp555
g19
Nsg28
Nsg12
I232
sg29
S'kMarquee'
p556
sg13
g31
sbag1
(g25
g3
NtRp557
(dp558
g19
Nsg28
Nsg12
I233
sg29
S'kMath'
p559
sg13
g31
sbag1
(g25
g3
NtRp560
(dp561
g19
Nsg28
Nsg12
I234
sg29
S'kMenu'
p562
sg13
g31
sbag1
(g25
g3
NtRp563
(dp564
g19
Nsg28
Nsg12
I235
sg29
S'kMenuBar'
p565
sg13
g31
sbag1
(g25
g3
NtRp566
(dp567
g19
Nsg28
Nsg12
I236
sg29
S'kMenuButton'
p568
sg13
g31
sbag1
(g25
g3
NtRp569
(dp570
g19
Nsg28
Nsg12
I237
sg29
S'kMenuItem'
p571
sg13
g31
sbag1
(g25
g3
NtRp572
(dp573
g19
Nsg28
Nsg12
I238
sg29
S'kMenuItemCheckBox'
p574
sg13
g31
sbag1
(g25
g3
NtRp575
(dp576
g19
Nsg28
Nsg12
I239
sg29
S'kMenuItemRadio'
p577
sg13
g31
sbag1
(g25
g3
NtRp578
(dp579
g19
Nsg28
Nsg12
I240
sg29
S'kMenuListOption'
p580
sg13
g31
sbag1
(g25
g3
NtRp581
(dp582
g19
Nsg28
Nsg12
I241
sg29
S'kMenuListPopup'
p583
sg13
g31
sbag1
(g25
g3
NtRp584
(dp585
g19
Nsg28
Nsg12
I242
sg29
S'kMeter'
p586
sg13
g31
sbag1
(g25
g3
NtRp587
(dp588
g19
Nsg28
Nsg12
I243
sg29
S'kNavigation'
p589
sg13
g31
sbag1
(g25
g3
NtRp590
(dp591
g19
Nsg28
Nsg12
I244
sg29
S'kNote'
p592
sg13
g31
sbag1
(g25
g3
NtRp593
(dp594
g19
Nsg28
Nsg12
I245
sg29
S'kPane'
p595
sg13
g31
sbag1
(g25
g3
NtRp596
(dp597
g19
Nsg28
Nsg12
I246
sg29
S'kParagraph'
p598
sg13
g31
sbag1
(g25
g3
NtRp599
(dp600
g19
Nsg28
Nsg12
I247
sg29
S'kPopUpButton'
p601
sg13
g31
sbag1
(g25
g3
NtRp602
(dp603
g19
Nsg28
Nsg12
I248
sg29
S'kPre'
p604
sg13
g31
sbag1
(g25
g3
NtRp605
(dp606
g19
Nsg28
Nsg12
I249
sg29
S'kPresentational'
p607
sg13
g31
sbag1
(g25
g3
NtRp608
(dp609
g19
Nsg28
Nsg12
I250
sg29
S'kProgressIndicator'
p610
sg13
g31
sbag1
(g25
g3
NtRp611
(dp612
g19
Nsg28
Nsg12
I251
sg29
S'kRadioButton'
p613
sg13
g31
sbag1
(g25
g3
NtRp614
(dp615
g19
Nsg28
Nsg12
I252
sg29
S'kRadioGroup'
p616
sg13
g31
sbag1
(g25
g3
NtRp617
(dp618
g19
Nsg28
Nsg12
I253
sg29
S'kRegion'
p619
sg13
g31
sbag1
(g25
g3
NtRp620
(dp621
g19
Nsg28
Nsg12
I254
sg29
S'kRootWebArea'
p622
sg13
g31
sbag1
(g25
g3
NtRp623
(dp624
g19
Nsg28
Nsg12
I255
sg29
S'kRow'
p625
sg13
g31
sbag1
(g25
g3
NtRp626
(dp627
g19
Nsg28
Nsg12
I256
sg29
S'kRowHeader'
p628
sg13
g31
sbag1
(g25
g3
NtRp629
(dp630
g19
Nsg28
Nsg12
I257
sg29
S'kRuby'
p631
sg13
g31
sbag1
(g25
g3
NtRp632
(dp633
g19
Nsg28
Nsg12
I258
sg29
S'kScrollBar'
p634
sg13
g31
sbag1
(g25
g3
NtRp635
(dp636
g19
Nsg28
Nsg12
I259
sg29
S'kScrollView'
p637
sg13
g31
sbag1
(g25
g3
NtRp638
(dp639
g19
Nsg28
Nsg12
I260
sg29
S'kSearch'
p640
sg13
g31
sbag1
(g25
g3
NtRp641
(dp642
g19
Nsg28
Nsg12
I261
sg29
S'kSearchBox'
p643
sg13
g31
sbag1
(g25
g3
NtRp644
(dp645
g19
Nsg28
Nsg12
I262
sg29
S'kSlider'
p646
sg13
g31
sbag1
(g25
g3
NtRp647
(dp648
g19
Nsg28
Nsg12
I263
sg29
S'kSliderThumb'
p649
sg13
g31
sbag1
(g25
g3
NtRp650
(dp651
g19
Nsg28
Nsg12
I264
sg29
S'kSpinButton'
p652
sg13
g31
sbag1
(g25
g3
NtRp653
(dp654
g19
Nsg28
Nsg12
I265
sg29
S'kSplitter'
p655
sg13
g31
sbag1
(g25
g3
NtRp656
(dp657
g19
Nsg28
Nsg12
I266
sg29
S'kStaticText'
p658
sg13
g31
sbag1
(g25
g3
NtRp659
(dp660
g19
Nsg28
Nsg12
I267
sg29
S'kStatus'
p661
sg13
g31
sbag1
(g25
g3
NtRp662
(dp663
g19
Nsg28
Nsg12
I268
sg29
S'kSvgRoot'
p664
sg13
g31
sbag1
(g25
g3
NtRp665
(dp666
g19
Nsg28
Nsg12
I269
sg29
S'kSwitch'
p667
sg13
g31
sbag1
(g25
g3
NtRp668
(dp669
g19
Nsg28
Nsg12
I270
sg29
S'kTab'
p670
sg13
g31
sbag1
(g25
g3
NtRp671
(dp672
g19
Nsg28
Nsg12
I271
sg29
S'kTabList'
p673
sg13
g31
sbag1
(g25
g3
NtRp674
(dp675
g19
Nsg28
Nsg12
I272
sg29
S'kTabPanel'
p676
sg13
g31
sbag1
(g25
g3
NtRp677
(dp678
g19
Nsg28
Nsg12
I273
sg29
S'kTable'
p679
sg13
g31
sbag1
(g25
g3
NtRp680
(dp681
g19
Nsg28
Nsg12
I274
sg29
S'kTableHeaderContainer'
p682
sg13
g31
sbag1
(g25
g3
NtRp683
(dp684
g19
Nsg28
Nsg12
I275
sg29
S'kTerm'
p685
sg13
g31
sbag1
(g25
g3
NtRp686
(dp687
g19
Nsg28
Nsg12
I276
sg29
S'kTextField'
p688
sg13
g31
sbag1
(g25
g3
NtRp689
(dp690
g19
Nsg28
Nsg12
I277
sg29
S'kTextFieldWithComboBox'
p691
sg13
g31
sbag1
(g25
g3
NtRp692
(dp693
g19
Nsg28
Nsg12
I278
sg29
S'kTime'
p694
sg13
g31
sbag1
(g25
g3
NtRp695
(dp696
g19
Nsg28
Nsg12
I279
sg29
S'kTimer'
p697
sg13
g31
sbag1
(g25
g3
NtRp698
(dp699
g19
Nsg28
Nsg12
I280
sg29
S'kTitleBar'
p700
sg13
g31
sbag1
(g25
g3
NtRp701
(dp702
g19
Nsg28
Nsg12
I281
sg29
S'kToggleButton'
p703
sg13
g31
sbag1
(g25
g3
NtRp704
(dp705
g19
Nsg28
Nsg12
I282
sg29
S'kToolbar'
p706
sg13
g31
sbag1
(g25
g3
NtRp707
(dp708
g19
Nsg28
Nsg12
I283
sg29
S'kTooltip'
p709
sg13
g31
sbag1
(g25
g3
NtRp710
(dp711
g19
Nsg28
Nsg12
I284
sg29
S'kTree'
p712
sg13
g31
sbag1
(g25
g3
NtRp713
(dp714
g19
Nsg28
Nsg12
I285
sg29
S'kTreeGrid'
p715
sg13
g31
sbag1
(g25
g3
NtRp716
(dp717
g19
Nsg28
Nsg12
I286
sg29
S'kTreeItem'
p718
sg13
g31
sbag1
(g25
g3
NtRp719
(dp720
g19
Nsg28
Nsg12
I287
sg29
S'kUnknown'
p721
sg13
g31
sbag1
(g25
g3
NtRp722
(dp723
g19
Nsg28
Nsg12
I288
sg29
S'kVideo'
p724
sg13
g31
sbag1
(g25
g3
NtRp725
(dp726
g19
Nsg28
Nsg12
I289
sg29
S'kWebArea'
p727
sg13
g31
sbag1
(g25
g3
NtRp728
(dp729
g19
Nsg28
Nsg12
I290
sg29
S'kWebView'
p730
sg13
g31
sbag1
(g25
g3
NtRp731
(dp732
g19
Nsg28
Nsg12
I291
sg29
S'kWindow'
p733
sg13
g31
sbasg12
I103
sg13
g31
sbsg12
I102
sg29
S'Role'
p734
sg13
g31
sbag1
(g16
g3
NtRp735
(dp736
g19
Nsg20
g1
(g21
g3
NtRp737
(dp738
g10
(lp739
g1
(g25
g3
NtRp740
(dp741
g19
Nsg28
Nsg12
I295
sg29
S'kNone'
p742
sg13
g31
sbag1
(g25
g3
NtRp743
(dp744
g19
Nsg28
Nsg12
I296
sg29
S'kAutofillAvailable'
p745
sg13
g31
sbag1
(g25
g3
NtRp746
(dp747
g19
Nsg28
Nsg12
I297
sg29
S'kCollapsed'
p748
sg13
g31
sbag1
(g25
g3
NtRp749
(dp750
g19
Nsg28
Nsg12
I298
sg29
S'kDefault'
p751
sg13
g31
sbag1
(g25
g3
NtRp752
(dp753
g19
Nsg28
Nsg12
I299
sg29
S'kEditable'
p754
sg13
g31
sbag1
(g25
g3
NtRp755
(dp756
g19
Nsg28
Nsg12
I300
sg29
S'kExpanded'
p757
sg13
g31
sbag1
(g25
g3
NtRp758
(dp759
g19
Nsg28
Nsg12
I301
sg29
S'kFocusable'
p760
sg13
g31
sbag1
(g25
g3
NtRp761
(dp762
g19
Nsg28
Nsg12
I303
sg29
S'kHorizontal'
p763
sg13
g31
sbag1
(g25
g3
NtRp764
(dp765
g19
Nsg28
Nsg12
I304
sg29
S'kHovered'
p766
sg13
g31
sbag1
(g25
g3
NtRp767
(dp768
g19
Nsg28
Nsg12
I306
sg29
S'kIgnored'
p769
sg13
g31
sbag1
(g25
g3
NtRp770
(dp771
g19
Nsg28
Nsg12
I307
sg29
S'kInvisible'
p772
sg13
g31
sbag1
(g25
g3
NtRp773
(dp774
g19
Nsg28
Nsg12
I308
sg29
S'kLinked'
p775
sg13
g31
sbag1
(g25
g3
NtRp776
(dp777
g19
Nsg28
Nsg12
I309
sg29
S'kMultiline'
p778
sg13
g31
sbag1
(g25
g3
NtRp779
(dp780
g19
Nsg28
Nsg12
I310
sg29
S'kMultiselectable'
p781
sg13
g31
sbag1
(g25
g3
NtRp782
(dp783
g19
Nsg28
Nsg12
I311
sg29
S'kProtected'
p784
sg13
g31
sbag1
(g25
g3
NtRp785
(dp786
g19
Nsg28
Nsg12
I312
sg29
S'kRequired'
p787
sg13
g31
sbag1
(g25
g3
NtRp788
(dp789
g19
Nsg28
Nsg12
I313
sg29
S'kRichlyEditable'
p790
sg13
g31
sbag1
(g25
g3
NtRp791
(dp792
g19
Nsg28
Nsg12
I315
sg29
S'kVertical'
p793
sg13
g31
sbag1
(g25
g3
NtRp794
(dp795
g19
Nsg28
Nsg12
I316
sg29
S'kVisited'
p796
sg13
g31
sbasg12
I295
sg13
g31
sbsg12
I294
sg29
S'State'
p797
sg13
g31
sbag1
(g16
g3
NtRp798
(dp799
g19
Nsg20
g1
(g21
g3
NtRp800
(dp801
g10
(lp802
g1
(g25
g3
NtRp803
(dp804
g19
Nsg28
Nsg12
I323
sg29
S'kNone'
p805
sg13
g31
sbag1
(g25
g3
NtRp806
(dp807
g19
Nsg28
Nsg12
I326
sg29
S'kAnnotatePageImages'
p808
sg13
g31
sbag1
(g25
g3
NtRp809
(dp810
g19
Nsg28
Nsg12
I328
sg29
S'kBlur'
p811
sg13
g31
sbag1
(g25
g3
NtRp812
(dp813
g19
Nsg28
Nsg12
I333
sg29
S'kClearAccessibilityFocus'
p814
sg13
g31
sbag1
(g25
g3
NtRp815
(dp816
g19
Nsg28
Nsg12
I335
sg29
S'kCustomAction'
p817
sg13
g31
sbag1
(g25
g3
NtRp818
(dp819
g19
Nsg28
Nsg12
I338
sg29
S'kDecrement'
p820
sg13
g31
sbag1
(g25
g3
NtRp821
(dp822
g19
Nsg28
Nsg12
I341
sg29
S'kDoDefault'
p823
sg13
g31
sbag1
(g25
g3
NtRp824
(dp825
g19
Nsg28
Nsg12
I343
sg29
S'kFocus'
p826
sg13
g31
sbag1
(g25
g3
NtRp827
(dp828
g19
Nsg28
Nsg12
I346
sg29
S'kGetImageData'
p829
sg13
g31
sbag1
(g25
g3
NtRp830
(dp831
g19
Nsg28
Nsg12
I349
sg29
S'kGetTextLocation'
p832
sg13
g31
sbag1
(g25
g3
NtRp833
(dp834
g19
Nsg28
Nsg12
I351
sg29
S'kHideTooltip'
p835
sg13
g31
sbag1
(g25
g3
NtRp836
(dp837
g19
Nsg28
Nsg12
I355
sg29
S'kHitTest'
p838
sg13
g31
sbag1
(g25
g3
NtRp839
(dp840
g19
Nsg28
Nsg12
I358
sg29
S'kIncrement'
p841
sg13
g31
sbag1
(g25
g3
NtRp842
(dp843
g19
Nsg28
Nsg12
I362
sg29
S'kInternalInvalidateTree'
p844
sg13
g31
sbag1
(g25
g3
NtRp845
(dp846
g19
Nsg28
Nsg12
I367
sg29
S'kLoadInlineTextBoxes'
p847
sg13
g31
sbag1
(g25
g3
NtRp848
(dp849
g19
Nsg28
Nsg12
I371
sg29
S'kReplaceSelectedText'
p850
sg13
g31
sbag1
(g25
g3
NtRp851
(dp852
g19
Nsg28
Nsg12
I375
sg29
S'kScrollBackward'
p853
sg13
g31
sbag1
(g25
g3
NtRp854
(dp855
g19
Nsg28
Nsg12
I376
sg29
S'kScrollDown'
p856
sg13
g31
sbag1
(g25
g3
NtRp857
(dp858
g19
Nsg28
Nsg12
I377
sg29
S'kScrollForward'
p859
sg13
g31
sbag1
(g25
g3
NtRp860
(dp861
g19
Nsg28
Nsg12
I378
sg29
S'kScrollLeft'
p862
sg13
g31
sbag1
(g25
g3
NtRp863
(dp864
g19
Nsg28
Nsg12
I379
sg29
S'kScrollRight'
p865
sg13
g31
sbag1
(g25
g3
NtRp866
(dp867
g19
Nsg28
Nsg12
I380
sg29
S'kScrollUp'
p868
sg13
g31
sbag1
(g25
g3
NtRp869
(dp870
g19
Nsg28
Nsg12
I385
sg29
S'kScrollToMakeVisible'
p871
sg13
g31
sbag1
(g25
g3
NtRp872
(dp873
g19
Nsg28
Nsg12
I389
sg29
S'kScrollToPoint'
p874
sg13
g31
sbag1
(g25
g3
NtRp875
(dp876
g19
Nsg28
Nsg12
I394
sg29
S'kSetAccessibilityFocus'
p877
sg13
g31
sbag1
(g25
g3
NtRp878
(dp879
g19
Nsg28
Nsg12
I396
sg29
S'kSetScrollOffset'
p880
sg13
g31
sbag1
(g25
g3
NtRp881
(dp882
g19
Nsg28
Nsg12
I397
sg29
S'kSetSelection'
p883
sg13
g31
sbag1
(g25
g3
NtRp884
(dp885
g19
Nsg28
Nsg12
I402
sg29
S'kSetSequentialFocusNavigationStartingPoint'
p886
sg13
g31
sbag1
(g25
g3
NtRp887
(dp888
g19
Nsg28
Nsg12
I406
sg29
S'kSetValue'
p889
sg13
g31
sbag1
(g25
g3
NtRp890
(dp891
g19
Nsg28
Nsg12
I407
sg29
S'kShowContextMenu'
p892
sg13
g31
sbag1
(g25
g3
NtRp893
(dp894
g19
Nsg28
Nsg12
I410
sg29
S'kSignalEndOfTest'
p895
sg13
g31
sbag1
(g25
g3
NtRp896
(dp897
g19
Nsg28
Nsg12
I411
sg29
S'kShowTooltip'
p898
sg13
g31
sbasg12
I323
sg13
g31
sbsg12
I322
sg29
S'Action'
p899
sg13
g31
sbag1
(g16
g3
NtRp900
(dp901
g19
Nsg20
g1
(g21
g3
NtRp902
(dp903
g10
(lp904
g1
(g25
g3
NtRp905
(dp906
g19
Nsg28
Nsg12
I415
sg29
S'kNone'
p907
sg13
g31
sbag1
(g25
g3
NtRp908
(dp909
g19
Nsg28
Nsg12
I416
sg29
S'kRequestImages'
p910
sg13
g31
sbag1
(g25
g3
NtRp911
(dp912
g19
Nsg28
Nsg12
I417
sg29
S'kRequestInlineTextBoxes'
p913
sg13
g31
sbasg12
I415
sg13
g31
sbsg12
I414
sg29
S'ActionFlags'
p914
sg13
g31
sbag1
(g16
g3
NtRp915
(dp916
g19
Nsg20
g1
(g21
g3
NtRp917
(dp918
g10
(lp919
g1
(g25
g3
NtRp920
(dp921
g19
Nsg28
Nsg12
I427
sg29
S'kNone'
p922
sg13
g31
sbag1
(g25
g3
NtRp923
(dp924
g19
Nsg28
Nsg12
I428
sg29
S'kActivate'
p925
sg13
g31
sbag1
(g25
g3
NtRp926
(dp927
g19
Nsg28
Nsg12
I429
sg29
S'kCheck'
p928
sg13
g31
sbag1
(g25
g3
NtRp929
(dp930
g19
Nsg28
Nsg12
I430
sg29
S'kClick'
p931
sg13
g31
sbag1
(g25
g3
NtRp932
(dp933
g19
Nsg28
Nsg12
I436
sg29
S'kClickAncestor'
p934
sg13
g31
sbag1
(g25
g3
NtRp935
(dp936
g19
Nsg28
Nsg12
I438
sg29
S'kJump'
p937
sg13
g31
sbag1
(g25
g3
NtRp938
(dp939
g19
Nsg28
Nsg12
I439
sg29
S'kOpen'
p940
sg13
g31
sbag1
(g25
g3
NtRp941
(dp942
g19
Nsg28
Nsg12
I440
sg29
S'kPress'
p943
sg13
g31
sbag1
(g25
g3
NtRp944
(dp945
g19
Nsg28
Nsg12
I441
sg29
S'kSelect'
p946
sg13
g31
sbag1
(g25
g3
NtRp947
(dp948
g19
Nsg28
Nsg12
I442
sg29
S'kUncheck'
p949
sg13
g31
sbasg12
I427
sg13
g31
sbsg12
I426
sg29
S'DefaultActionVerb'
p950
sg13
g31
sbag1
(g16
g3
NtRp951
(dp952
g19
Nsg20
g1
(g21
g3
NtRp953
(dp954
g10
(lp955
g1
(g25
g3
NtRp956
(dp957
g19
Nsg28
Nsg12
I447
sg29
S'kNone'
p958
sg13
g31
sbag1
(g25
g3
NtRp959
(dp960
g19
Nsg28
Nsg12
I448
sg29
S'kNodeCreated'
p961
sg13
g31
sbag1
(g25
g3
NtRp962
(dp963
g19
Nsg28
Nsg12
I449
sg29
S'kSubtreeCreated'
p964
sg13
g31
sbag1
(g25
g3
NtRp965
(dp966
g19
Nsg28
Nsg12
I450
sg29
S'kNodeChanged'
p967
sg13
g31
sbag1
(g25
g3
NtRp968
(dp969
g19
Nsg28
Nsg12
I451
sg29
S'kNodeRemoved'
p970
sg13
g31
sbasg12
I447
sg13
g31
sbsg12
I446
sg29
S'Mutation'
p971
sg13
g31
sbag1
(g16
g3
NtRp972
(dp973
g19
Nsg20
g1
(g21
g3
NtRp974
(dp975
g10
(lp976
g1
(g25
g3
NtRp977
(dp978
g19
Nsg28
Nsg12
I455
sg29
S'kNone'
p979
sg13
g31
sbag1
(g25
g3
NtRp980
(dp981
g19
Nsg28
Nsg12
I456
sg29
S'kAccessKey'
p982
sg13
g31
sbag1
(g25
g3
NtRp983
(dp984
g19
Nsg28
Nsg12
I458
sg29
S'kAriaInvalidValue'
p985
sg13
g31
sbag1
(g25
g3
NtRp986
(dp987
g19
Nsg28
Nsg12
I459
sg29
S'kAutoComplete'
p988
sg13
g31
sbag1
(g25
g3
NtRp989
(dp990
g19
Nsg28
Nsg12
I460
sg29
S'kChildTreeId'
p991
sg13
g31
sbag1
(g25
g3
NtRp992
(dp993
g19
Nsg28
Nsg12
I461
sg29
S'kClassName'
p994
sg13
g31
sbag1
(g25
g3
NtRp995
(dp996
g19
Nsg28
Nsg12
I462
sg29
S'kContainerLiveRelevant'
p997
sg13
g31
sbag1
(g25
g3
NtRp998
(dp999
g19
Nsg28
Nsg12
I463
sg29
S'kContainerLiveStatus'
p1000
sg13
g31
sbag1
(g25
g3
NtRp1001
(dp1002
g19
Nsg28
Nsg12
I464
sg29
S'kDescription'
p1003
sg13
g31
sbag1
(g25
g3
NtRp1004
(dp1005
g19
Nsg28
Nsg12
I465
sg29
S'kDisplay'
p1006
sg13
g31
sbag1
(g25
g3
NtRp1007
(dp1008
g19
Nsg28
Nsg12
I467
sg29
S'kFontFamily'
p1009
sg13
g31
sbag1
(g25
g3
NtRp1010
(dp1011
g19
Nsg28
Nsg12
I468
sg29
S'kHtmlTag'
p1012
sg13
g31
sbag1
(g25
g3
NtRp1013
(dp1014
g19
Nsg28
Nsg12
I471
sg29
S'kImageAnnotation'
p1015
sg13
g31
sbag1
(g25
g3
NtRp1016
(dp1017
g19
Nsg28
Nsg12
I472
sg29
S'kImageDataUrl'
p1018
sg13
g31
sbag1
(g25
g3
NtRp1019
(dp1020
g19
Nsg28
Nsg12
I473
sg29
S'kInnerHtml'
p1021
sg13
g31
sbag1
(g25
g3
NtRp1022
(dp1023
g19
Nsg28
Nsg12
I474
sg29
S'kKeyShortcuts'
p1024
sg13
g31
sbag1
(g25
g3
NtRp1025
(dp1026
g19
Nsg28
Nsg12
I476
sg29
S'kLanguage'
p1027
sg13
g31
sbag1
(g25
g3
NtRp1028
(dp1029
g19
Nsg28
Nsg12
I477
sg29
S'kName'
p1030
sg13
g31
sbag1
(g25
g3
NtRp1031
(dp1032
g19
Nsg28
Nsg12
I478
sg29
S'kLiveRelevant'
p1033
sg13
g31
sbag1
(g25
g3
NtRp1034
(dp1035
g19
Nsg28
Nsg12
I479
sg29
S'kLiveStatus'
p1036
sg13
g31
sbag1
(g25
g3
NtRp1037
(dp1038
g19
Nsg28
Nsg12
I481
sg29
S'kPlaceholder'
p1039
sg13
g31
sbag1
(g25
g3
NtRp1040
(dp1041
g19
Nsg28
Nsg12
I482
sg29
S'kRole'
p1042
sg13
g31
sbag1
(g25
g3
NtRp1043
(dp1044
g19
Nsg28
Nsg12
I483
sg29
S'kRoleDescription'
p1045
sg13
g31
sbag1
(g25
g3
NtRp1046
(dp1047
g19
Nsg28
Nsg12
I485
sg29
S'kTooltip'
p1048
sg13
g31
sbag1
(g25
g3
NtRp1049
(dp1050
g19
Nsg28
Nsg12
I486
sg29
S'kUrl'
p1051
sg13
g31
sbag1
(g25
g3
NtRp1052
(dp1053
g19
Nsg28
Nsg12
I487
sg29
S'kValue'
p1054
sg13
g31
sbasg12
I455
sg13
g31
sbsg12
I454
sg29
S'StringAttribute'
p1055
sg13
g31
sbag1
(g16
g3
NtRp1056
(dp1057
g19
Nsg20
g1
(g21
g3
NtRp1058
(dp1059
g10
(lp1060
g1
(g25
g3
NtRp1061
(dp1062
g19
Nsg28
Nsg12
I491
sg29
S'kNone'
p1063
sg13
g31
sbag1
(g25
g3
NtRp1064
(dp1065
g19
Nsg28
Nsg12
I492
sg29
S'kDefaultActionVerb'
p1066
sg13
g31
sbag1
(g25
g3
NtRp1067
(dp1068
g19
Nsg28
Nsg12
I494
sg29
S'kScrollX'
p1069
sg13
g31
sbag1
(g25
g3
NtRp1070
(dp1071
g19
Nsg28
Nsg12
I495
sg29
S'kScrollXMin'
p1072
sg13
g31
sbag1
(g25
g3
NtRp1073
(dp1074
g19
Nsg28
Nsg12
I496
sg29
S'kScrollXMax'
p1075
sg13
g31
sbag1
(g25
g3
NtRp1076
(dp1077
g19
Nsg28
Nsg12
I497
sg29
S'kScrollY'
p1078
sg13
g31
sbag1
(g25
g3
NtRp1079
(dp1080
g19
Nsg28
Nsg12
I498
sg29
S'kScrollYMin'
p1081
sg13
g31
sbag1
(g25
g3
NtRp1082
(dp1083
g19
Nsg28
Nsg12
I499
sg29
S'kScrollYMax'
p1084
sg13
g31
sbag1
(g25
g3
NtRp1085
(dp1086
g19
Nsg28
Nsg12
I502
sg29
S'kTextSelStart'
p1087
sg13
g31
sbag1
(g25
g3
NtRp1088
(dp1089
g19
Nsg28
Nsg12
I503
sg29
S'kTextSelEnd'
p1090
sg13
g31
sbag1
(g25
g3
NtRp1091
(dp1092
g19
Nsg28
Nsg12
I506
sg29
S'kAriaColumnCount'
p1093
sg13
g31
sbag1
(g25
g3
NtRp1094
(dp1095
g19
Nsg28
Nsg12
I507
sg29
S'kAriaCellColumnIndex'
p1096
sg13
g31
sbag1
(g25
g3
NtRp1097
(dp1098
g19
Nsg28
Nsg12
I508
sg29
S'kAriaRowCount'
p1099
sg13
g31
sbag1
(g25
g3
NtRp1100
(dp1101
g19
Nsg28
Nsg12
I509
sg29
S'kAriaCellRowIndex'
p1102
sg13
g31
sbag1
(g25
g3
NtRp1103
(dp1104
g19
Nsg28
Nsg12
I512
sg29
S'kTableRowCount'
p1105
sg13
g31
sbag1
(g25
g3
NtRp1106
(dp1107
g19
Nsg28
Nsg12
I513
sg29
S'kTableColumnCount'
p1108
sg13
g31
sbag1
(g25
g3
NtRp1109
(dp1110
g19
Nsg28
Nsg12
I514
sg29
S'kTableHeaderId'
p1111
sg13
g31
sbag1
(g25
g3
NtRp1112
(dp1113
g19
Nsg28
Nsg12
I517
sg29
S'kTableRowIndex'
p1114
sg13
g31
sbag1
(g25
g3
NtRp1115
(dp1116
g19
Nsg28
Nsg12
I518
sg29
S'kTableRowHeaderId'
p1117
sg13
g31
sbag1
(g25
g3
NtRp1118
(dp1119
g19
Nsg28
Nsg12
I521
sg29
S'kTableColumnIndex'
p1120
sg13
g31
sbag1
(g25
g3
NtRp1121
(dp1122
g19
Nsg28
Nsg12
I522
sg29
S'kTableColumnHeaderId'
p1123
sg13
g31
sbag1
(g25
g3
NtRp1124
(dp1125
g19
Nsg28
Nsg12
I525
sg29
S'kTableCellColumnIndex'
p1126
sg13
g31
sbag1
(g25
g3
NtRp1127
(dp1128
g19
Nsg28
Nsg12
I526
sg29
S'kTableCellColumnSpan'
p1129
sg13
g31
sbag1
(g25
g3
NtRp1130
(dp1131
g19
Nsg28
Nsg12
I527
sg29
S'kTableCellRowIndex'
p1132
sg13
g31
sbag1
(g25
g3
NtRp1133
(dp1134
g19
Nsg28
Nsg12
I528
sg29
S'kTableCellRowSpan'
p1135
sg13
g31
sbag1
(g25
g3
NtRp1136
(dp1137
g19
Nsg28
Nsg12
I529
sg29
S'kSortDirection'
p1138
sg13
g31
sbag1
(g25
g3
NtRp1139
(dp1140
g19
Nsg28
Nsg12
I532
sg29
S'kHierarchicalLevel'
p1141
sg13
g31
sbag1
(g25
g3
NtRp1142
(dp1143
g19
Nsg28
Nsg12
I536
sg29
S'kNameFrom'
p1144
sg13
g31
sbag1
(g25
g3
NtRp1145
(dp1146
g19
Nsg28
Nsg12
I540
sg29
S'kDescriptionFrom'
p1147
sg13
g31
sbag1
(g25
g3
NtRp1148
(dp1149
g19
Nsg28
Nsg12
I543
sg29
S'kActivedescendantId'
p1150
sg13
g31
sbag1
(g25
g3
NtRp1151
(dp1152
g19
Nsg28
Nsg12
I544
sg29
S'kDetailsId'
p1153
sg13
g31
sbag1
(g25
g3
NtRp1154
(dp1155
g19
Nsg28
Nsg12
I545
sg29
S'kErrormessageId'
p1156
sg13
g31
sbag1
(g25
g3
NtRp1157
(dp1158
g19
Nsg28
Nsg12
I546
sg29
S'kInPageLinkTargetId'
p1159
sg13
g31
sbag1
(g25
g3
NtRp1160
(dp1161
g19
Nsg28
Nsg12
I547
sg29
S'kMemberOfId'
p1162
sg13
g31
sbag1
(g25
g3
NtRp1163
(dp1164
g19
Nsg28
Nsg12
I548
sg29
S'kNextOnLineId'
p1165
sg13
g31
sbag1
(g25
g3
NtRp1166
(dp1167
g19
Nsg28
Nsg12
I549
sg29
S'kPopupForId'
p1168
sg13
g31
sbag1
(g25
g3
NtRp1169
(dp1170
g19
Nsg28
Nsg12
I550
sg29
S'kPreviousOnLineId'
p1171
sg13
g31
sbag1
(g25
g3
NtRp1172
(dp1173
g19
Nsg28
Nsg12
I555
sg29
S'kRestriction'
p1174
sg13
g31
sbag1
(g25
g3
NtRp1175
(dp1176
g19
Nsg28
Nsg12
I558
sg29
S'kSetSize'
p1177
sg13
g31
sbag1
(g25
g3
NtRp1178
(dp1179
g19
Nsg28
Nsg12
I559
sg29
S'kPosInSet'
p1180
sg13
g31
sbag1
(g25
g3
NtRp1181
(dp1182
g19
Nsg28
Nsg12
I562
sg29
S'kColorValue'
p1183
sg13
g31
sbag1
(g25
g3
NtRp1184
(dp1185
g19
Nsg28
Nsg12
I566
sg29
S'kAriaCurrentState'
p1186
sg13
g31
sbag1
(g25
g3
NtRp1187
(dp1188
g19
Nsg28
Nsg12
I571
sg29
S'kBackgroundColor'
p1189
sg13
g31
sbag1
(g25
g3
NtRp1190
(dp1191
g19
Nsg28
Nsg12
I572
sg29
S'kColor'
p1192
sg13
g31
sbag1
(g25
g3
NtRp1193
(dp1194
g19
Nsg28
Nsg12
I574
sg29
S'kHasPopup'
p1195
sg13
g31
sbag1
(g25
g3
NtRp1196
(dp1197
g19
Nsg28
Nsg12
I577
sg29
S'kImageAnnotationStatus'
p1198
sg13
g31
sbag1
(g25
g3
NtRp1199
(dp1200
g19
Nsg28
Nsg12
I581
sg29
S'kInvalidState'
p1201
sg13
g31
sbag1
(g25
g3
NtRp1202
(dp1203
g19
Nsg28
Nsg12
I584
sg29
S'kCheckedState'
p1204
sg13
g31
sbag1
(g25
g3
NtRp1205
(dp1206
g19
Nsg28
Nsg12
I587
sg29
S'kListStyle'
p1207
sg13
g31
sbag1
(g25
g3
NtRp1208
(dp1209
g19
Nsg28
Nsg12
I590
sg29
S'kTextDirection'
p1210
sg13
g31
sbag1
(g25
g3
NtRp1211
(dp1212
g19
Nsg28
Nsg12
I593
sg29
S'kTextPosition'
p1213
sg13
g31
sbag1
(g25
g3
NtRp1214
(dp1215
g19
Nsg28
Nsg12
I596
sg29
S'kTextStyle'
p1216
sg13
g31
sbag1
(g25
g3
NtRp1217
(dp1218
g19
Nsg28
Nsg12
I599
sg29
S'kTextOverlineStyle'
p1219
sg13
g31
sbag1
(g25
g3
NtRp1220
(dp1221
g19
Nsg28
Nsg12
I602
sg29
S'kTextStrikethroughStyle'
p1222
sg13
g31
sbag1
(g25
g3
NtRp1223
(dp1224
g19
Nsg28
Nsg12
I605
sg29
S'kTextUnderlineStyle'
p1225
sg13
g31
sbag1
(g25
g3
NtRp1226
(dp1227
g19
Nsg28
Nsg12
I608
sg29
S'kPreviousFocusId'
p1228
sg13
g31
sbag1
(g25
g3
NtRp1229
(dp1230
g19
Nsg28
Nsg12
I609
sg29
S'kNextFocusId'
p1231
sg13
g31
sbasg12
I491
sg13
g31
sbsg12
I490
sg29
S'IntAttribute'
p1232
sg13
g31
sbag1
(g16
g3
NtRp1233
(dp1234
g19
Nsg20
g1
(g21
g3
NtRp1235
(dp1236
g10
(lp1237
g1
(g25
g3
NtRp1238
(dp1239
g19
Nsg28
Nsg12
I613
sg29
S'kNone'
p1240
sg13
g31
sbag1
(g25
g3
NtRp1241
(dp1242
g19
Nsg28
Nsg12
I615
sg29
S'kValueForRange'
p1243
sg13
g31
sbag1
(g25
g3
NtRp1244
(dp1245
g19
Nsg28
Nsg12
I616
sg29
S'kMinValueForRange'
p1246
sg13
g31
sbag1
(g25
g3
NtRp1247
(dp1248
g19
Nsg28
Nsg12
I617
sg29
S'kMaxValueForRange'
p1249
sg13
g31
sbag1
(g25
g3
NtRp1250
(dp1251
g19
Nsg28
Nsg12
I618
sg29
S'kStepValueForRange'
p1252
sg13
g31
sbag1
(g25
g3
NtRp1253
(dp1254
g19
Nsg28
Nsg12
I622
sg29
S'kFontSize'
p1255
sg13
g31
sbag1
(g25
g3
NtRp1256
(dp1257
g19
Nsg28
Nsg12
I627
sg29
S'kFontWeight'
p1258
sg13
g31
sbasg12
I613
sg13
g31
sbsg12
I612
sg29
S'FloatAttribute'
p1259
sg13
g31
sbag1
(g16
g3
NtRp1260
(dp1261
g19
Nsg20
g1
(g21
g3
NtRp1262
(dp1263
g10
(lp1264
g1
(g25
g3
NtRp1265
(dp1266
g19
Nsg28
Nsg12
I639
sg29
S'kNone'
p1267
sg13
g31
sbag1
(g25
g3
NtRp1268
(dp1269
g19
Nsg28
Nsg12
I641
sg29
S'kBusy'
p1270
sg13
g31
sbag1
(g25
g3
NtRp1271
(dp1272
g19
Nsg28
Nsg12
I644
sg29
S'kEditableRoot'
p1273
sg13
g31
sbag1
(g25
g3
NtRp1274
(dp1275
g19
Nsg28
Nsg12
I647
sg29
S'kContainerLiveAtomic'
p1276
sg13
g31
sbag1
(g25
g3
NtRp1277
(dp1278
g19
Nsg28
Nsg12
I648
sg29
S'kContainerLiveBusy'
p1279
sg13
g31
sbag1
(g25
g3
NtRp1280
(dp1281
g19
Nsg28
Nsg12
I649
sg29
S'kLiveAtomic'
p1282
sg13
g31
sbag1
(g25
g3
NtRp1283
(dp1284
g19
Nsg28
Nsg12
I652
sg29
S'kModal'
p1285
sg13
g31
sbag1
(g25
g3
NtRp1286
(dp1287
g19
Nsg28
Nsg12
I656
sg29
S'kUpdateLocationOnly'
p1288
sg13
g31
sbag1
(g25
g3
NtRp1289
(dp1290
g19
Nsg28
Nsg12
I659
sg29
S'kCanvasHasFallback'
p1291
sg13
g31
sbag1
(g25
g3
NtRp1292
(dp1293
g19
Nsg28
Nsg12
I662
sg29
S'kScrollable'
p1294
sg13
g31
sbag1
(g25
g3
NtRp1295
(dp1296
g19
Nsg28
Nsg12
I665
sg29
S'kClickable'
p1297
sg13
g31
sbag1
(g25
g3
NtRp1298
(dp1299
g19
Nsg28
Nsg12
I669
sg29
S'kClipsChildren'
p1300
sg13
g31
sbag1
(g25
g3
NtRp1301
(dp1302
g19
Nsg28
Nsg12
I672
sg29
S'kSelected'
p1303
sg13
g31
sbag1
(g25
g3
NtRp1304
(dp1305
g19
Nsg28
Nsg12
I675
sg29
S'kSupportsTextLocation'
p1306
sg13
g31
sbasg12
I639
sg13
g31
sbsg12
I638
sg29
S'BoolAttribute'
p1307
sg13
g31
sbag1
(g16
g3
NtRp1308
(dp1309
g19
Nsg20
g1
(g21
g3
NtRp1310
(dp1311
g10
(lp1312
g1
(g25
g3
NtRp1313
(dp1314
g19
Nsg28
Nsg12
I679
sg29
S'kNone'
p1315
sg13
g31
sbag1
(g25
g3
NtRp1316
(dp1317
g19
Nsg28
Nsg12
I684
sg29
S'kIndirectChildIds'
p1318
sg13
g31
sbag1
(g25
g3
NtRp1319
(dp1320
g19
Nsg28
Nsg12
I687
sg29
S'kControlsIds'
p1321
sg13
g31
sbag1
(g25
g3
NtRp1322
(dp1323
g19
Nsg28
Nsg12
I688
sg29
S'kDescribedbyIds'
p1324
sg13
g31
sbag1
(g25
g3
NtRp1325
(dp1326
g19
Nsg28
Nsg12
I689
sg29
S'kFlowtoIds'
p1327
sg13
g31
sbag1
(g25
g3
NtRp1328
(dp1329
g19
Nsg28
Nsg12
I690
sg29
S'kLabelledbyIds'
p1330
sg13
g31
sbag1
(g25
g3
NtRp1331
(dp1332
g19
Nsg28
Nsg12
I691
sg29
S'kRadioGroupIds'
p1333
sg13
g31
sbag1
(g25
g3
NtRp1334
(dp1335
g19
Nsg28
Nsg12
I696
sg29
S'kMarkerTypes'
p1336
sg13
g31
sbag1
(g25
g3
NtRp1337
(dp1338
g19
Nsg28
Nsg12
I697
sg29
S'kMarkerStarts'
p1339
sg13
g31
sbag1
(g25
g3
NtRp1340
(dp1341
g19
Nsg28
Nsg12
I698
sg29
S'kMarkerEnds'
p1342
sg13
g31
sbag1
(g25
g3
NtRp1343
(dp1344
g19
Nsg28
Nsg12
I706
sg29
S'kCharacterOffsets'
p1345
sg13
g31
sbag1
(g25
g3
NtRp1346
(dp1347
g19
Nsg28
Nsg12
I712
sg29
S'kCachedLineStarts'
p1348
sg13
g31
sbag1
(g25
g3
NtRp1349
(dp1350
g19
Nsg28
Nsg12
I716
sg29
S'kWordStarts'
p1351
sg13
g31
sbag1
(g25
g3
NtRp1352
(dp1353
g19
Nsg28
Nsg12
I717
sg29
S'kWordEnds'
p1354
sg13
g31
sbag1
(g25
g3
NtRp1355
(dp1356
g19
Nsg28
Nsg12
I723
sg29
S'kCustomActionIds'
p1357
sg13
g31
sbasg12
I679
sg13
g31
sbsg12
I678
sg29
S'IntListAttribute'
p1358
sg13
g31
sbag1
(g16
g3
NtRp1359
(dp1360
g19
Nsg20
g1
(g21
g3
NtRp1361
(dp1362
g10
(lp1363
g1
(g25
g3
NtRp1364
(dp1365
g19
Nsg28
Nsg12
I727
sg29
S'kNone'
p1366
sg13
g31
sbag1
(g25
g3
NtRp1367
(dp1368
g19
Nsg28
Nsg12
I730
sg29
S'kCustomActionDescriptions'
p1369
sg13
g31
sbasg12
I727
sg13
g31
sbsg12
I726
sg29
S'StringListAttribute'
p1370
sg13
g31
sbag1
(g16
g3
NtRp1371
(dp1372
g19
Nsg20
g1
(g21
g3
NtRp1373
(dp1374
g10
(lp1375
g1
(g25
g3
NtRp1376
(dp1377
g19
Nsg28
Nsg12
I736
sg29
S'kNone'
p1378
sg13
g31
sbag1
(g25
g3
NtRp1379
(dp1380
g19
Nsg28
S'1'
sg12
I738
sg29
S'kSpelling'
p1381
sg13
g31
sbag1
(g25
g3
NtRp1382
(dp1383
g19
Nsg28
S'2'
sg12
I739
sg29
S'kGrammar'
p1384
sg13
g31
sbag1
(g25
g3
NtRp1385
(dp1386
g19
Nsg28
S'3'
sg12
I740
sg29
S'kSpellingGrammar'
p1387
sg13
g31
sbag1
(g25
g3
NtRp1388
(dp1389
g19
Nsg28
S'4'
sg12
I741
sg29
S'kTextMatch'
p1390
sg13
g31
sbag1
(g25
g3
NtRp1391
(dp1392
g19
Nsg28
S'5'
sg12
I742
sg29
S'kSpellingTextMatch'
p1393
sg13
g31
sbag1
(g25
g3
NtRp1394
(dp1395
g19
Nsg28
S'6'
sg12
I743
sg29
S'kGrammarTextMatch'
p1396
sg13
g31
sbag1
(g25
g3
NtRp1397
(dp1398
g19
Nsg28
S'7'
sg12
I744
sg29
S'kSpellingGrammarTextMatch'
p1399
sg13
g31
sbag1
(g25
g3
NtRp1400
(dp1401
g19
Nsg28
S'16'
p1402
sg12
I747
sg29
S'kActiveSuggestion'
p1403
sg13
g31
sbag1
(g25
g3
NtRp1404
(dp1405
g19
Nsg28
S'17'
p1406
sg12
I748
sg29
S'kSpellingActiveSuggestion'
p1407
sg13
g31
sbag1
(g25
g3
NtRp1408
(dp1409
g19
Nsg28
S'18'
p1410
sg12
I749
sg29
S'kGrammarActiveSuggestion'
p1411
sg13
g31
sbag1
(g25
g3
NtRp1412
(dp1413
g19
Nsg28
S'19'
p1414
sg12
I750
sg29
S'kSpellingGrammarActiveSuggestion'
p1415
sg13
g31
sbag1
(g25
g3
NtRp1416
(dp1417
g19
Nsg28
S'20'
p1418
sg12
I751
sg29
S'kTextMatchActiveSuggestion'
p1419
sg13
g31
sbag1
(g25
g3
NtRp1420
(dp1421
g19
Nsg28
S'21'
p1422
sg12
I752
sg29
S'kSpellingTextMatchActiveSuggestion'
p1423
sg13
g31
sbag1
(g25
g3
NtRp1424
(dp1425
g19
Nsg28
S'22'
p1426
sg12
I753
sg29
S'kGrammarTextMatchActiveSuggestion'
p1427
sg13
g31
sbag1
(g25
g3
NtRp1428
(dp1429
g19
Nsg28
S'23'
p1430
sg12
I754
sg29
S'kSpellingGrammarTextMatchActiveSuggestion'
p1431
sg13
g31
sbag1
(g25
g3
NtRp1432
(dp1433
g19
Nsg28
S'32'
p1434
sg12
I755
sg29
S'kSuggestion'
p1435
sg13
g31
sbag1
(g25
g3
NtRp1436
(dp1437
g19
Nsg28
S'33'
p1438
sg12
I756
sg29
S'kSpellingSuggestion'
p1439
sg13
g31
sbag1
(g25
g3
NtRp1440
(dp1441
g19
Nsg28
S'34'
p1442
sg12
I757
sg29
S'kGrammarSuggestion'
p1443
sg13
g31
sbag1
(g25
g3
NtRp1444
(dp1445
g19
Nsg28
S'35'
p1446
sg12
I758
sg29
S'kSpellingGrammarSuggestion'
p1447
sg13
g31
sbag1
(g25
g3
NtRp1448
(dp1449
g19
Nsg28
S'36'
p1450
sg12
I759
sg29
S'kTextMatchSuggestion'
p1451
sg13
g31
sbag1
(g25
g3
NtRp1452
(dp1453
g19
Nsg28
S'37'
p1454
sg12
I760
sg29
S'kSpellingTextMatchSuggestion'
p1455
sg13
g31
sbag1
(g25
g3
NtRp1456
(dp1457
g19
Nsg28
S'38'
p1458
sg12
I761
sg29
S'kGrammarTextMatchSuggestion'
p1459
sg13
g31
sbag1
(g25
g3
NtRp1460
(dp1461
g19
Nsg28
S'39'
p1462
sg12
I762
sg29
S'kSpellingGrammarTextMatchSuggestion'
p1463
sg13
g31
sbag1
(g25
g3
NtRp1464
(dp1465
g19
Nsg28
S'48'
p1466
sg12
I764
sg29
S'kActiveSuggestionSuggestion'
p1467
sg13
g31
sbag1
(g25
g3
NtRp1468
(dp1469
g19
Nsg28
S'49'
p1470
sg12
I765
sg29
S'kSpellingActiveSuggestionSuggestion'
p1471
sg13
g31
sbag1
(g25
g3
NtRp1472
(dp1473
g19
Nsg28
S'50'
p1474
sg12
I766
sg29
S'kGrammarActiveSuggestionSuggestion'
p1475
sg13
g31
sbag1
(g25
g3
NtRp1476
(dp1477
g19
Nsg28
S'51'
p1478
sg12
I767
sg29
S'kSpellingGrammarActiveSuggestionSuggestion'
p1479
sg13
g31
sbag1
(g25
g3
NtRp1480
(dp1481
g19
Nsg28
S'52'
p1482
sg12
I768
sg29
S'kTextMatchActiveSuggestionSuggestion'
p1483
sg13
g31
sbag1
(g25
g3
NtRp1484
(dp1485
g19
Nsg28
S'53'
p1486
sg12
I769
sg29
S'kSpellingTextMatchActiveSuggestionSuggestion'
p1487
sg13
g31
sbag1
(g25
g3
NtRp1488
(dp1489
g19
Nsg28
S'54'
p1490
sg12
I770
sg29
S'kGrammarTextMatchActiveSuggestionSuggestion'
p1491
sg13
g31
sbag1
(g25
g3
NtRp1492
(dp1493
g19
Nsg28
S'55'
p1494
sg12
I771
sg29
S'kSpellingGrammarTextMatchActiveSuggestionSuggestion'
p1495
sg13
g31
sbasg12
I736
sg13
g31
sbsg12
I735
sg29
S'MarkerType'
p1496
sg13
g31
sbag1
(g16
g3
NtRp1497
(dp1498
g19
Nsg20
g1
(g21
g3
NtRp1499
(dp1500
g10
(lp1501
g1
(g25
g3
NtRp1502
(dp1503
g19
Nsg28
Nsg12
I775
sg29
S'kNone'
p1504
sg13
g31
sbag1
(g25
g3
NtRp1505
(dp1506
g19
Nsg28
Nsg12
I776
sg29
S'kCircle'
p1507
sg13
g31
sbag1
(g25
g3
NtRp1508
(dp1509
g19
Nsg28
Nsg12
I777
sg29
S'kDisc'
p1510
sg13
g31
sbag1
(g25
g3
NtRp1511
(dp1512
g19
Nsg28
Nsg12
I778
sg29
S'kImage'
p1513
sg13
g31
sbag1
(g25
g3
NtRp1514
(dp1515
g19
Nsg28
Nsg12
I779
sg29
S'kNumeric'
p1516
sg13
g31
sbag1
(g25
g3
NtRp1517
(dp1518
g19
Nsg28
Nsg12
I780
sg29
S'kSquare'
p1519
sg13
g31
sbag1
(g25
g3
NtRp1520
(dp1521
g19
Nsg28
Nsg12
I781
sg29
S'kOther'
p1522
sg13
g31
sbasg12
I775
sg13
g31
sbsg12
I774
sg29
S'ListStyle'
p1523
sg13
g31
sbag1
(g16
g3
NtRp1524
(dp1525
g19
Nsg20
g1
(g21
g3
NtRp1526
(dp1527
g10
(lp1528
g1
(g25
g3
NtRp1529
(dp1530
g19
Nsg28
Nsg12
I785
sg29
S'kNone'
p1531
sg13
g31
sbag1
(g25
g3
NtRp1532
(dp1533
g19
Nsg28
Nsg12
I786
sg29
S'kLtr'
p1534
sg13
g31
sbag1
(g25
g3
NtRp1535
(dp1536
g19
Nsg28
Nsg12
I787
sg29
S'kRtl'
p1537
sg13
g31
sbag1
(g25
g3
NtRp1538
(dp1539
g19
Nsg28
Nsg12
I788
sg29
S'kTtb'
p1540
sg13
g31
sbag1
(g25
g3
NtRp1541
(dp1542
g19
Nsg28
Nsg12
I789
sg29
S'kBtt'
p1543
sg13
g31
sbasg12
I785
sg13
g31
sbsg12
I784
sg29
S'TextDirection'
p1544
sg13
g31
sbag1
(g16
g3
NtRp1545
(dp1546
g19
Nsg20
g1
(g21
g3
NtRp1547
(dp1548
g10
(lp1549
g1
(g25
g3
NtRp1550
(dp1551
g19
Nsg28
Nsg12
I793
sg29
S'kNone'
p1552
sg13
g31
sbag1
(g25
g3
NtRp1553
(dp1554
g19
Nsg28
Nsg12
I794
sg29
S'kSubscript'
p1555
sg13
g31
sbag1
(g25
g3
NtRp1556
(dp1557
g19
Nsg28
Nsg12
I795
sg29
S'kSuperscript'
p1558
sg13
g31
sbasg12
I793
sg13
g31
sbsg12
I792
sg29
S'TextPosition'
p1559
sg13
g31
sbag1
(g16
g3
NtRp1560
(dp1561
g19
Nsg20
g1
(g21
g3
NtRp1562
(dp1563
g10
(lp1564
g1
(g25
g3
NtRp1565
(dp1566
g19
Nsg28
Nsg12
I801
sg29
S'kBold'
p1567
sg13
g31
sbag1
(g25
g3
NtRp1568
(dp1569
g19
Nsg28
Nsg12
I802
sg29
S'kItalic'
p1570
sg13
g31
sbag1
(g25
g3
NtRp1571
(dp1572
g19
Nsg28
Nsg12
I803
sg29
S'kUnderline'
p1573
sg13
g31
sbag1
(g25
g3
NtRp1574
(dp1575
g19
Nsg28
Nsg12
I804
sg29
S'kLineThrough'
p1576
sg13
g31
sbag1
(g25
g3
NtRp1577
(dp1578
g19
Nsg28
Nsg12
I805
sg29
S'kOverline'
p1579
sg13
g31
sbag1
(g25
g3
NtRp1580
(dp1581
g19
Nsg28
Nsg12
I806
sg29
S'kNone'
p1582
sg13
g31
sbasg12
I801
sg13
g31
sbsg12
I800
sg29
S'TextStyle'
p1583
sg13
g31
sbag1
(g16
g3
NtRp1584
(dp1585
g19
Nsg20
g1
(g21
g3
NtRp1586
(dp1587
g10
(lp1588
g1
(g25
g3
NtRp1589
(dp1590
g19
Nsg28
Nsg12
I810
sg29
S'kNone'
p1591
sg13
g31
sbag1
(g25
g3
NtRp1592
(dp1593
g19
Nsg28
Nsg12
I811
sg29
S'kDotted'
p1594
sg13
g31
sbag1
(g25
g3
NtRp1595
(dp1596
g19
Nsg28
Nsg12
I812
sg29
S'kDashed'
p1597
sg13
g31
sbag1
(g25
g3
NtRp1598
(dp1599
g19
Nsg28
Nsg12
I813
sg29
S'kSolid'
p1600
sg13
g31
sbag1
(g25
g3
NtRp1601
(dp1602
g19
Nsg28
Nsg12
I814
sg29
S'kDouble'
p1603
sg13
g31
sbag1
(g25
g3
NtRp1604
(dp1605
g19
Nsg28
Nsg12
I815
sg29
S'kWavy'
p1606
sg13
g31
sbasg12
I810
sg13
g31
sbsg12
I809
sg29
S'TextDecorationStyle'
p1607
sg13
g31
sbag1
(g16
g3
NtRp1608
(dp1609
g19
Nsg20
g1
(g21
g3
NtRp1610
(dp1611
g10
(lp1612
g1
(g25
g3
NtRp1613
(dp1614
g19
Nsg28
Nsg12
I819
sg29
S'kNone'
p1615
sg13
g31
sbag1
(g25
g3
NtRp1616
(dp1617
g19
Nsg28
Nsg12
I820
sg29
S'kFalse'
p1618
sg13
g31
sbag1
(g25
g3
NtRp1619
(dp1620
g19
Nsg28
Nsg12
I821
sg29
S'kTrue'
p1621
sg13
g31
sbag1
(g25
g3
NtRp1622
(dp1623
g19
Nsg28
Nsg12
I822
sg29
S'kPage'
p1624
sg13
g31
sbag1
(g25
g3
NtRp1625
(dp1626
g19
Nsg28
Nsg12
I823
sg29
S'kStep'
p1627
sg13
g31
sbag1
(g25
g3
NtRp1628
(dp1629
g19
Nsg28
Nsg12
I824
sg29
S'kLocation'
p1630
sg13
g31
sbag1
(g25
g3
NtRp1631
(dp1632
g19
Nsg28
Nsg12
I825
sg29
S'kUnclippedLocation'
p1633
sg13
g31
sbag1
(g25
g3
NtRp1634
(dp1635
g19
Nsg28
Nsg12
I826
sg29
S'kDate'
p1636
sg13
g31
sbag1
(g25
g3
NtRp1637
(dp1638
g19
Nsg28
Nsg12
I827
sg29
S'kTime'
p1639
sg13
g31
sbasg12
I819
sg13
g31
sbsg12
I818
sg29
S'AriaCurrentState'
p1640
sg13
g31
sbag1
(g16
g3
NtRp1641
(dp1642
g19
Nsg20
g1
(g21
g3
NtRp1643
(dp1644
g10
(lp1645
g1
(g25
g3
NtRp1646
(dp1647
g19
Nsg28
S'0'
sg12
I831
sg29
S'kFalse'
p1648
sg13
g31
sbag1
(g25
g3
NtRp1649
(dp1650
g19
Nsg28
Nsg12
I832
sg29
S'kTrue'
p1651
sg13
g31
sbag1
(g25
g3
NtRp1652
(dp1653
g19
Nsg28
Nsg12
I833
sg29
S'kMenu'
p1654
sg13
g31
sbag1
(g25
g3
NtRp1655
(dp1656
g19
Nsg28
Nsg12
I834
sg29
S'kListbox'
p1657
sg13
g31
sbag1
(g25
g3
NtRp1658
(dp1659
g19
Nsg28
Nsg12
I835
sg29
S'kTree'
p1660
sg13
g31
sbag1
(g25
g3
NtRp1661
(dp1662
g19
Nsg28
Nsg12
I836
sg29
S'kGrid'
p1663
sg13
g31
sbag1
(g25
g3
NtRp1664
(dp1665
g19
Nsg28
Nsg12
I837
sg29
S'kDialog'
p1666
sg13
g31
sbag1
(g25
g3
NtRp1667
(dp1668
g19
Nsg28
(S'IDENTIFIER'
p1669
S'kFalse'
tp1670
sg12
I838
sg29
S'kNone'
p1671
sg13
g31
sbasg12
I831
sg13
g31
sbsg12
I830
sg29
S'HasPopup'
p1672
sg13
g31
sbag1
(g16
g3
NtRp1673
(dp1674
g19
Nsg20
g1
(g21
g3
NtRp1675
(dp1676
g10
(lp1677
g1
(g25
g3
NtRp1678
(dp1679
g19
Nsg28
Nsg12
I842
sg29
S'kNone'
p1680
sg13
g31
sbag1
(g25
g3
NtRp1681
(dp1682
g19
Nsg28
Nsg12
I843
sg29
S'kFalse'
p1683
sg13
g31
sbag1
(g25
g3
NtRp1684
(dp1685
g19
Nsg28
Nsg12
I844
sg29
S'kTrue'
p1686
sg13
g31
sbag1
(g25
g3
NtRp1687
(dp1688
g19
Nsg28
Nsg12
I845
sg29
S'kSpelling'
p1689
sg13
g31
sbag1
(g25
g3
NtRp1690
(dp1691
g19
Nsg28
Nsg12
I846
sg29
S'kGrammar'
p1692
sg13
g31
sbag1
(g25
g3
NtRp1693
(dp1694
g19
Nsg28
Nsg12
I847
sg29
S'kOther'
p1695
sg13
g31
sbasg12
I842
sg13
g31
sbsg12
I841
sg29
S'InvalidState'
p1696
sg13
g31
sbag1
(g16
g3
NtRp1697
(dp1698
g19
Nsg20
g1
(g21
g3
NtRp1699
(dp1700
g10
(lp1701
g1
(g25
g3
NtRp1702
(dp1703
g19
Nsg28
Nsg12
I855
sg29
S'kNone'
p1704
sg13
g31
sbag1
(g25
g3
NtRp1705
(dp1706
g19
Nsg28
Nsg12
I856
sg29
S'kReadOnly'
p1707
sg13
g31
sbag1
(g25
g3
NtRp1708
(dp1709
g19
Nsg28
Nsg12
I857
sg29
S'kDisabled'
p1710
sg13
g31
sbasg12
I855
sg13
g31
sbsg12
I854
sg29
S'Restriction'
p1711
sg13
g31
sbag1
(g16
g3
NtRp1712
(dp1713
g19
Nsg20
g1
(g21
g3
NtRp1714
(dp1715
g10
(lp1716
g1
(g25
g3
NtRp1717
(dp1718
g19
Nsg28
Nsg12
I861
sg29
S'kNone'
p1719
sg13
g31
sbag1
(g25
g3
NtRp1720
(dp1721
g19
Nsg28
Nsg12
I862
sg29
S'kFalse'
p1722
sg13
g31
sbag1
(g25
g3
NtRp1723
(dp1724
g19
Nsg28
Nsg12
I863
sg29
S'kTrue'
p1725
sg13
g31
sbag1
(g25
g3
NtRp1726
(dp1727
g19
Nsg28
Nsg12
I864
sg29
S'kMixed'
p1728
sg13
g31
sbasg12
I861
sg13
g31
sbsg12
I860
sg29
S'CheckedState'
p1729
sg13
g31
sbag1
(g16
g3
NtRp1730
(dp1731
g19
Nsg20
g1
(g21
g3
NtRp1732
(dp1733
g10
(lp1734
g1
(g25
g3
NtRp1735
(dp1736
g19
Nsg28
Nsg12
I868
sg29
S'kNone'
p1737
sg13
g31
sbag1
(g25
g3
NtRp1738
(dp1739
g19
Nsg28
Nsg12
I869
sg29
S'kUnsorted'
p1740
sg13
g31
sbag1
(g25
g3
NtRp1741
(dp1742
g19
Nsg28
Nsg12
I870
sg29
S'kAscending'
p1743
sg13
g31
sbag1
(g25
g3
NtRp1744
(dp1745
g19
Nsg28
Nsg12
I871
sg29
S'kDescending'
p1746
sg13
g31
sbag1
(g25
g3
NtRp1747
(dp1748
g19
Nsg28
Nsg12
I872
sg29
S'kOther'
p1749
sg13
g31
sbasg12
I868
sg13
g31
sbsg12
I867
sg29
S'SortDirection'
p1750
sg13
g31
sbag1
(g16
g3
NtRp1751
(dp1752
g19
Nsg20
g1
(g21
g3
NtRp1753
(dp1754
g10
(lp1755
g1
(g25
g3
NtRp1756
(dp1757
g19
Nsg28
Nsg12
I876
sg29
S'kNone'
p1758
sg13
g31
sbag1
(g25
g3
NtRp1759
(dp1760
g19
Nsg28
Nsg12
I877
sg29
S'kUninitialized'
p1761
sg13
g31
sbag1
(g25
g3
NtRp1762
(dp1763
g19
Nsg28
Nsg12
I878
sg29
S'kAttribute'
p1764
sg13
g31
sbag1
(g25
g3
NtRp1765
(dp1766
g19
Nsg28
Nsg12
I879
sg29
S'kAttributeExplicitlyEmpty'
p1767
sg13
g31
sbag1
(g25
g3
NtRp1768
(dp1769
g19
Nsg28
Nsg12
I880
sg29
S'kCaption'
p1770
sg13
g31
sbag1
(g25
g3
NtRp1771
(dp1772
g19
Nsg28
Nsg12
I881
sg29
S'kContents'
p1773
sg13
g31
sbag1
(g25
g3
NtRp1774
(dp1775
g19
Nsg28
Nsg12
I882
sg29
S'kPlaceholder'
p1776
sg13
g31
sbag1
(g25
g3
NtRp1777
(dp1778
g19
Nsg28
Nsg12
I883
sg29
S'kRelatedElement'
p1779
sg13
g31
sbag1
(g25
g3
NtRp1780
(dp1781
g19
Nsg28
Nsg12
I884
sg29
S'kTitle'
p1782
sg13
g31
sbag1
(g25
g3
NtRp1783
(dp1784
g19
Nsg28
Nsg12
I885
sg29
S'kValue'
p1785
sg13
g31
sbasg12
I876
sg13
g31
sbsg12
I875
sg29
S'NameFrom'
p1786
sg13
g31
sbag1
(g16
g3
NtRp1787
(dp1788
g19
Nsg20
g1
(g21
g3
NtRp1789
(dp1790
g10
(lp1791
g1
(g25
g3
NtRp1792
(dp1793
g19
Nsg28
Nsg12
I889
sg29
S'kNone'
p1794
sg13
g31
sbag1
(g25
g3
NtRp1795
(dp1796
g19
Nsg28
Nsg12
I890
sg29
S'kUninitialized'
p1797
sg13
g31
sbag1
(g25
g3
NtRp1798
(dp1799
g19
Nsg28
Nsg12
I891
sg29
S'kAttribute'
p1800
sg13
g31
sbag1
(g25
g3
NtRp1801
(dp1802
g19
Nsg28
Nsg12
I892
sg29
S'kContents'
p1803
sg13
g31
sbag1
(g25
g3
NtRp1804
(dp1805
g19
Nsg28
Nsg12
I893
sg29
S'kRelatedElement'
p1806
sg13
g31
sbasg12
I889
sg13
g31
sbsg12
I888
sg29
S'DescriptionFrom'
p1807
sg13
g31
sbag1
(g16
g3
NtRp1808
(dp1809
g19
Nsg20
g1
(g21
g3
NtRp1810
(dp1811
g10
(lp1812
g1
(g25
g3
NtRp1813
(dp1814
g19
Nsg28
Nsg12
I897
sg29
S'kNone'
p1815
sg13
g31
sbag1
(g25
g3
NtRp1816
(dp1817
g19
Nsg28
Nsg12
I898
sg29
S'kUser'
p1818
sg13
g31
sbag1
(g25
g3
NtRp1819
(dp1820
g19
Nsg28
Nsg12
I899
sg29
S'kPage'
p1821
sg13
g31
sbag1
(g25
g3
NtRp1822
(dp1823
g19
Nsg28
Nsg12
I900
sg29
S'kAction'
p1824
sg13
g31
sbasg12
I897
sg13
g31
sbsg12
I896
sg29
S'EventFrom'
p1825
sg13
g31
sbag1
(g16
g3
NtRp1826
(dp1827
g19
Nsg20
g1
(g21
g3
NtRp1828
(dp1829
g10
(lp1830
g1
(g25
g3
NtRp1831
(dp1832
g19
Nsg28
Nsg12
I905
sg29
S'kNone'
p1833
sg13
g31
sbag1
(g25
g3
NtRp1834
(dp1835
g19
Nsg28
Nsg12
I906
sg29
S'kClick'
p1836
sg13
g31
sbag1
(g25
g3
NtRp1837
(dp1838
g19
Nsg28
Nsg12
I907
sg29
S'kSwipeLeft1'
p1839
sg13
g31
sbag1
(g25
g3
NtRp1840
(dp1841
g19
Nsg28
Nsg12
I908
sg29
S'kSwipeUp1'
p1842
sg13
g31
sbag1
(g25
g3
NtRp1843
(dp1844
g19
Nsg28
Nsg12
I909
sg29
S'kSwipeRight1'
p1845
sg13
g31
sbag1
(g25
g3
NtRp1846
(dp1847
g19
Nsg28
Nsg12
I910
sg29
S'kSwipeDown1'
p1848
sg13
g31
sbag1
(g25
g3
NtRp1849
(dp1850
g19
Nsg28
Nsg12
I911
sg29
S'kSwipeLeft2'
p1851
sg13
g31
sbag1
(g25
g3
NtRp1852
(dp1853
g19
Nsg28
Nsg12
I912
sg29
S'kSwipeUp2'
p1854
sg13
g31
sbag1
(g25
g3
NtRp1855
(dp1856
g19
Nsg28
Nsg12
I913
sg29
S'kSwipeRight2'
p1857
sg13
g31
sbag1
(g25
g3
NtRp1858
(dp1859
g19
Nsg28
Nsg12
I914
sg29
S'kSwipeDown2'
p1860
sg13
g31
sbag1
(g25
g3
NtRp1861
(dp1862
g19
Nsg28
Nsg12
I915
sg29
S'kSwipeLeft3'
p1863
sg13
g31
sbag1
(g25
g3
NtRp1864
(dp1865
g19
Nsg28
Nsg12
I916
sg29
S'kSwipeUp3'
p1866
sg13
g31
sbag1
(g25
g3
NtRp1867
(dp1868
g19
Nsg28
Nsg12
I917
sg29
S'kSwipeRight3'
p1869
sg13
g31
sbag1
(g25
g3
NtRp1870
(dp1871
g19
Nsg28
Nsg12
I918
sg29
S'kSwipeDown3'
p1872
sg13
g31
sbag1
(g25
g3
NtRp1873
(dp1874
g19
Nsg28
Nsg12
I919
sg29
S'kSwipeLeft4'
p1875
sg13
g31
sbag1
(g25
g3
NtRp1876
(dp1877
g19
Nsg28
Nsg12
I920
sg29
S'kSwipeUp4'
p1878
sg13
g31
sbag1
(g25
g3
NtRp1879
(dp1880
g19
Nsg28
Nsg12
I921
sg29
S'kSwipeRight4'
p1881
sg13
g31
sbag1
(g25
g3
NtRp1882
(dp1883
g19
Nsg28
Nsg12
I922
sg29
S'kSwipeDown4'
p1884
sg13
g31
sbag1
(g25
g3
NtRp1885
(dp1886
g19
Nsg28
Nsg12
I923
sg29
S'kTap2'
p1887
sg13
g31
sbag1
(g25
g3
NtRp1888
(dp1889
g19
Nsg28
Nsg12
I924
sg29
S'kTap3'
p1890
sg13
g31
sbag1
(g25
g3
NtRp1891
(dp1892
g19
Nsg28
Nsg12
I925
sg29
S'kTap4'
p1893
sg13
g31
sbasg12
I905
sg13
g31
sbsg12
I904
sg29
S'Gesture'
p1894
sg13
g31
sbag1
(g16
g3
NtRp1895
(dp1896
g19
Nsg20
g1
(g21
g3
NtRp1897
(dp1898
g10
(lp1899
g1
(g25
g3
NtRp1900
(dp1901
g19
Nsg28
Nsg12
I929
sg29
S'kNone'
p1902
sg13
g31
sbag1
(g25
g3
NtRp1903
(dp1904
g19
Nsg28
Nsg12
I930
sg29
S'kDownstream'
p1905
sg13
g31
sbag1
(g25
g3
NtRp1906
(dp1907
g19
Nsg28
Nsg12
I931
sg29
S'kUpstream'
p1908
sg13
g31
sbasg12
I929
sg13
g31
sbsg12
I928
sg29
S'TextAffinity'
p1909
sg13
g31
sbag1
(g16
g3
NtRp1910
(dp1911
g19
Nsg20
g1
(g21
g3
NtRp1912
(dp1913
g10
(lp1914
g1
(g25
g3
NtRp1915
(dp1916
g19
Nsg28
Nsg12
I936
sg29
S'kNone'
p1917
sg13
g31
sbag1
(g25
g3
NtRp1918
(dp1919
g19
Nsg28
Nsg12
I938
sg29
S'kUndefined'
p1920
sg13
g31
sbag1
(g25
g3
NtRp1921
(dp1922
g19
Nsg28
Nsg12
I941
sg29
S'kBefore'
p1923
sg13
g31
sbag1
(g25
g3
NtRp1924
(dp1925
g19
Nsg28
Nsg12
I944
sg29
S'kEqual'
p1926
sg13
g31
sbag1
(g25
g3
NtRp1927
(dp1928
g19
Nsg28
Nsg12
I947
sg29
S'kAfter'
p1929
sg13
g31
sbasg12
I936
sg13
g31
sbsg12
I935
sg29
S'TreeOrder'
p1930
sg13
g31
sbag1
(g16
g3
NtRp1931
(dp1932
g19
Nsg20
g1
(g21
g3
NtRp1933
(dp1934
g10
(lp1935
g1
(g25
g3
NtRp1936
(dp1937
g19
Nsg28
Nsg12
I952
sg29
S'kUnknown'
p1938
sg13
g31
sbag1
(g25
g3
NtRp1939
(dp1940
g19
Nsg28
Nsg12
I953
sg29
S'kToken'
p1941
sg13
g31
sbasg12
I952
sg13
g31
sbsg12
I951
sg29
S'AXTreeIDType'
p1942
sg13
g31
sbag1
(g16
g3
NtRp1943
(dp1944
g19
Nsg20
g1
(g21
g3
NtRp1945
(dp1946
g10
(lp1947
g1
(g25
g3
NtRp1948
(dp1949
g19
Nsg28
Nsg12
I958
sg29
S'kNone'
p1950
sg13
g31
sbag1
(g25
g3
NtRp1951
(dp1952
g19
Nsg28
Nsg12
I962
sg29
S'kWillNotAnnotateDueToScheme'
p1953
sg13
g31
sbag1
(g25
g3
NtRp1954
(dp1955
g19
Nsg28
Nsg12
I966
sg29
S'kIneligibleForAnnotation'
p1956
sg13
g31
sbag1
(g25
g3
NtRp1957
(dp1958
g19
Nsg28
Nsg12
I969
sg29
S'kEligibleForAnnotation'
p1959
sg13
g31
sbag1
(g25
g3
NtRp1960
(dp1961
g19
Nsg28
Nsg12
I972
sg29
S'kAnnotationPending'
p1962
sg13
g31
sbag1
(g25
g3
NtRp1963
(dp1964
g19
Nsg28
Nsg12
I976
sg29
S'kAnnotationSucceeded'
p1965
sg13
g31
sbag1
(g25
g3
NtRp1966
(dp1967
g19
Nsg28
Nsg12
I980
sg29
S'kAnnotationEmpty'
p1968
sg13
g31
sbag1
(g25
g3
NtRp1969
(dp1970
g19
Nsg28
Nsg12
I984
sg29
S'kAnnotationAdult'
p1971
sg13
g31
sbag1
(g25
g3
NtRp1972
(dp1973
g19
Nsg28
Nsg12
I988
sg29
S'kAnnotationProcessFailed'
p1974
sg13
g31
sbasg12
I958
sg13
g31
sbsg12
I956
sg29
S'ImageAnnotationStatus'
p1975
sg13
g31
sbasg12
NsS'module'
p1976
g1
(cmojom.parse.ast
Module
p1977
g3
NtRp1978
(dp1979
S'mojom_namespace'
p1980
(g1669
S'ax.mojom'
tp1981
sg12
I6
sg19
Nsg13
g31
sbsg13
Nsb.