ccopy_reg
_reconstructor
p1
(cmojom.parse.ast
Mojom
p2
c__builtin__
object
p3
NtRp4
(dp5
S'import_list'
p6
g1
(cmojom.parse.ast
ImportList
p7
g3
NtRp8
(dp9
S'items'
p10
(lp11
g1
(cmojom.parse.ast
Import
p12
g3
NtRp13
(dp14
S'attribute_list'
p15
NsS'lineno'
p16
I7
sS'import_filename'
p17
S'mojo/public/mojom/base/time.mojom'
p18
sS'filename'
p19
S'../../ui/events/mojo/event.mojom'
p20
sbag1
(g12
g3
NtRp21
(dp22
g15
Nsg16
I8
sg17
S'ui/events/mojo/event_constants.mojom'
p23
sg19
g20
sbag1
(g12
g3
NtRp24
(dp25
g15
Nsg16
I9
sg17
S'ui/events/mojo/keyboard_codes.mojom'
p26
sg19
g20
sbag1
(g12
g3
NtRp27
(dp28
g15
Nsg16
I10
sg17
S'ui/gfx/geometry/mojo/geometry.mojom'
p29
sg19
g20
sbag1
(g12
g3
NtRp30
(dp31
g15
Nsg16
I11
sg17
S'ui/latency/mojo/latency_info.mojom'
p32
sg19
g20
sbasg16
I7
sg19
g20
sbsS'definition_list'
p33
(lp34
g1
(cmojom.parse.ast
Struct
p35
g3
NtRp36
(dp37
S'body'
p38
g1
(cmojom.parse.ast
StructBody
p39
g3
NtRp40
(dp41
g10
(lp42
g1
(cmojom.parse.ast
StructField
p43
g3
NtRp44
(dp45
S'ordinal'
p46
NsS'default_value'
p47
NsS'mojom_name'
p48
S'key_code'
p49
sg15
Nsg19
NsS'typename'
p50
S'int32'
p51
sg16
Nsbag1
(g43
g3
NtRp52
(dp53
g46
Nsg47
Nsg48
S'dom_code'
p54
sg15
Nsg19
Nsg50
S'uint32'
p55
sg16
Nsbag1
(g43
g3
NtRp56
(dp57
g46
Nsg47
Nsg48
S'dom_key'
p58
sg15
Nsg19
Nsg50
S'int32'
p59
sg16
Nsbag1
(g43
g3
NtRp60
(dp61
g46
Nsg47
Nsg48
S'is_char'
p62
sg15
Nsg19
Nsg50
S'bool'
p63
sg16
Nsbasg16
Nsg19
Nsbsg15
Nsg16
Nsg48
S'KeyData'
p64
sg19
Nsbag1
(g35
g3
NtRp65
(dp66
g38
g1
(g39
g3
NtRp67
(dp68
g10
(lp69
g1
(g43
g3
NtRp70
(dp71
g46
Nsg47
Nsg48
S'relative_location'
p72
sg15
Nsg19
Nsg50
S'gfx.mojom.PointF'
p73
sg16
Nsbag1
(g43
g3
NtRp74
(dp75
g46
Nsg47
Nsg48
S'root_location'
p76
sg15
Nsg19
Nsg50
S'gfx.mojom.PointF'
p77
sg16
Nsbasg16
Nsg19
Nsbsg15
Nsg16
Nsg48
S'LocationData'
p78
sg19
Nsbag1
(g35
g3
NtRp79
(dp80
g38
g1
(g39
g3
NtRp81
(dp82
g10
(lp83
g1
(g43
g3
NtRp84
(dp85
g46
Nsg47
Nsg48
S'location'
p86
sg15
Nsg19
Nsg50
S'LocationData'
p87
sg16
Nsbag1
(g43
g3
NtRp88
(dp89
g46
Nsg47
Nsg48
S'device_type'
p90
sg15
Nsg19
Nsg50
S'GestureDeviceType'
p91
sg16
Nsbag1
(g43
g3
NtRp92
(dp93
g46
Nsg47
Nsg48
S'scale'
p94
sg15
Nsg19
Nsg50
S'float'
p95
sg16
Nsbasg16
Nsg19
Nsbsg15
Nsg16
Nsg48
S'GestureData'
p96
sg19
Nsbag1
(g35
g3
NtRp97
(dp98
g38
g1
(g39
g3
NtRp99
(dp100
g10
(lp101
g1
(g43
g3
NtRp102
(dp103
g46
Nsg47
Nsg48
S'location'
p104
sg15
Nsg19
Nsg50
S'LocationData'
p105
sg16
Nsbag1
(g43
g3
NtRp106
(dp107
g46
Nsg47
Nsg48
S'x_offset'
p108
sg15
Nsg19
Nsg50
S'float'
p109
sg16
Nsbag1
(g43
g3
NtRp110
(dp111
g46
Nsg47
Nsg48
S'y_offset'
p112
sg15
Nsg19
Nsg50
S'float'
p113
sg16
Nsbag1
(g43
g3
NtRp114
(dp115
g46
Nsg47
Nsg48
S'x_offset_ordinal'
p116
sg15
Nsg19
Nsg50
S'float'
p117
sg16
Nsbag1
(g43
g3
NtRp118
(dp119
g46
Nsg47
Nsg48
S'y_offset_ordinal'
p120
sg15
Nsg19
Nsg50
S'float'
p121
sg16
Nsbag1
(g43
g3
NtRp122
(dp123
g46
Nsg47
Nsg48
S'finger_count'
p124
sg15
Nsg19
Nsg50
S'int32'
p125
sg16
Nsbag1
(g43
g3
NtRp126
(dp127
g46
Nsg47
Nsg48
S'momentum_phase'
p128
sg15
Nsg19
Nsg50
S'EventMomentumPhase'
p129
sg16
Nsbag1
(g43
g3
NtRp130
(dp131
g46
Nsg47
Nsg48
S'scroll_event_phase'
p132
sg15
Nsg19
Nsg50
S'ScrollEventPhase'
p133
sg16
Nsbasg16
Nsg19
Nsbsg15
Nsg16
Nsg48
S'ScrollData'
p134
sg19
Nsbag1
(g35
g3
NtRp135
(dp136
g38
g1
(g39
g3
NtRp137
(dp138
g10
(lp139
g1
(g43
g3
NtRp140
(dp141
g46
Nsg47
Nsg48
S'pointer_type'
p142
sg15
Nsg19
Nsg50
S'PointerKind'
p143
sg16
Nsbag1
(g43
g3
NtRp144
(dp145
g46
Nsg47
Nsg48
S'radius_x'
p146
sg15
Nsg19
Nsg50
S'float'
p147
sg16
Nsbag1
(g43
g3
NtRp148
(dp149
g46
Nsg47
Nsg48
S'radius_y'
p150
sg15
Nsg19
Nsg50
S'float'
p151
sg16
Nsbag1
(g43
g3
NtRp152
(dp153
g46
Nsg47
Nsg48
S'force'
p154
sg15
Nsg19
Nsg50
S'float'
p155
sg16
Nsbag1
(g43
g3
NtRp156
(dp157
g46
Nsg47
Nsg48
S'tilt_x'
p158
sg15
Nsg19
Nsg50
S'float'
p159
sg16
Nsbag1
(g43
g3
NtRp160
(dp161
g46
Nsg47
Nsg48
S'tilt_y'
p162
sg15
Nsg19
Nsg50
S'float'
p163
sg16
Nsbag1
(g43
g3
NtRp164
(dp165
g46
Nsg47
Nsg48
S'tangential_pressure'
p166
sg15
Nsg19
Nsg50
S'float'
p167
sg16
Nsbag1
(g43
g3
NtRp168
(dp169
g46
Nsg47
Nsg48
S'twist'
p170
sg15
Nsg19
Nsg50
S'float'
p171
sg16
Nsbag1
(g43
g3
NtRp172
(dp173
g46
Nsg47
Nsg48
S'id'
p174
sg15
Nsg19
Nsg50
S'int32'
p175
sg16
Nsbag1
(g43
g3
NtRp176
(dp177
g46
Nsg47
Nsg48
S'offset_x'
p178
sg15
Nsg19
Nsg50
S'int32'
p179
sg16
Nsbag1
(g43
g3
NtRp180
(dp181
g46
Nsg47
Nsg48
S'offset_y'
p182
sg15
Nsg19
Nsg50
S'int32'
p183
sg16
Nsbasg16
Nsg19
Nsbsg15
Nsg16
Nsg48
S'PointerDetails'
p184
sg19
Nsbag1
(g35
g3
NtRp185
(dp186
g38
g1
(g39
g3
NtRp187
(dp188
g10
(lp189
g1
(g43
g3
NtRp190
(dp191
g46
Nsg47
Nsg48
S'changed_button_flags'
p192
sg15
Nsg19
Nsg50
S'int32'
p193
sg16
Nsbag1
(g43
g3
NtRp194
(dp195
g46
Nsg47
Nsg48
S'location'
p196
sg15
Nsg19
Nsg50
S'LocationData'
p197
sg16
Nsbag1
(g43
g3
NtRp198
(dp199
g46
Nsg47
Nsg48
S'pointer_details'
p200
sg15
Nsg19
Nsg50
S'PointerDetails'
p201
sg16
Nsbag1
(g43
g3
NtRp202
(dp203
g46
Nsg47
Nsg48
S'wheel_offset'
p204
sg15
Nsg19
Nsg50
S'gfx.mojom.Vector2d'
p205
sg16
Nsbasg16
Nsg19
Nsbsg15
Nsg16
Nsg48
S'MouseData'
p206
sg19
Nsbag1
(g35
g3
NtRp207
(dp208
g38
g1
(g39
g3
NtRp209
(dp210
g10
(lp211
g1
(g43
g3
NtRp212
(dp213
g46
Nsg47
Nsg48
S'may_cause_scrolling'
p214
sg15
Nsg19
Nsg50
S'bool'
p215
sg16
Nsbag1
(g43
g3
NtRp216
(dp217
g46
Nsg47
Nsg48
S'hovering'
p218
sg15
Nsg19
Nsg50
S'bool'
p219
sg16
Nsbag1
(g43
g3
NtRp220
(dp221
g46
Nsg47
Nsg48
S'location'
p222
sg15
Nsg19
Nsg50
S'LocationData'
p223
sg16
Nsbag1
(g43
g3
NtRp224
(dp225
g46
Nsg47
Nsg48
S'pointer_details'
p226
sg15
Nsg19
Nsg50
S'PointerDetails'
p227
sg16
Nsbasg16
Nsg19
Nsbsg15
Nsg16
Nsg48
S'TouchData'
p228
sg19
Nsbag1
(g35
g3
NtRp229
(dp230
g38
g1
(g39
g3
NtRp231
(dp232
g10
(lp233
g1
(g43
g3
NtRp234
(dp235
g46
Nsg47
Nsg48
S'action'
p236
sg15
Nsg19
Nsg50
S'EventType'
p237
sg16
Nsbag1
(g43
g3
NtRp238
(dp239
g46
Nsg47
Nsg48
S'flags'
p240
sg15
Nsg19
Nsg50
S'int32'
p241
sg16
Nsbag1
(g43
g3
NtRp242
(dp243
g46
Nsg47
Nsg48
S'time_stamp'
p244
sg15
Nsg19
Nsg50
S'mojo_base.mojom.TimeTicks'
p245
sg16
Nsbag1
(g43
g3
NtRp246
(dp247
g46
Nsg47
Nsg48
S'latency'
p248
sg15
Nsg19
Nsg50
S'LatencyInfo'
p249
sg16
Nsbag1
(g43
g3
NtRp250
(dp251
g46
Nsg47
Nsg48
S'key_data'
p252
sg15
Nsg19
Nsg50
S'KeyData?'
p253
sg16
Nsbag1
(g43
g3
NtRp254
(dp255
g46
Nsg47
Nsg48
S'gesture_data'
p256
sg15
Nsg19
Nsg50
S'GestureData?'
p257
sg16
Nsbag1
(g43
g3
NtRp258
(dp259
g46
Nsg47
Nsg48
S'scroll_data'
p260
sg15
Nsg19
Nsg50
S'ScrollData?'
p261
sg16
Nsbag1
(g43
g3
NtRp262
(dp263
g46
Nsg47
Nsg48
S'touch_data'
p264
sg15
Nsg19
Nsg50
S'TouchData?'
p265
sg16
Nsbag1
(g43
g3
NtRp266
(dp267
g46
Nsg47
Nsg48
S'mouse_data'
p268
sg15
Nsg19
Nsg50
S'MouseData?'
p269
sg16
Nsbag1
(g43
g3
NtRp270
(dp271
g46
Nsg47
Nsg48
S'properties'
p272
sg15
Nsg19
Nsg50
S'uint8[]{string}?'
p273
sg16
Nsbasg16
Nsg19
Nsbsg15
Nsg16
Nsg48
S'Event'
p274
sg19
Nsbasg16
NsS'module'
p275
g1
(cmojom.parse.ast
Module
p276
g3
NtRp277
(dp278
S'mojom_namespace'
p279
(S'IDENTIFIER'
p280
S'ui.mojom'
tp281
sg16
I5
sg15
Nsg19
g20
sbsg19
Nsb.