ccopy_reg
_reconstructor
p1
(cmojom.parse.ast
Mojom
p2
c__builtin__
object
p3
NtRp4
(dp5
S'import_list'
p6
g1
(cmojom.parse.ast
ImportList
p7
g3
NtRp8
(dp9
S'items'
p10
(lp11
g1
(cmojom.parse.ast
Import
p12
g3
NtRp13
(dp14
S'attribute_list'
p15
NsS'lineno'
p16
I8
sS'import_filename'
p17
S'gpu/ipc/common/dx_diag_node.mojom'
p18
sS'filename'
p19
S'../../gpu/ipc/common/gpu_info.mojom'
p20
sbag1
(g12
g3
NtRp21
(dp22
g15
Nsg16
I9
sg17
S'mojo/public/mojom/base/time.mojom'
p23
sg19
g20
sbag1
(g12
g3
NtRp24
(dp25
g15
Nsg16
I10
sg17
S'ui/gfx/geometry/mojo/geometry.mojom'
p26
sg19
g20
sbasg16
I8
sg19
g20
sbsS'definition_list'
p27
(lp28
g1
(cmojom.parse.ast
Struct
p29
g3
NtRp30
(dp31
S'body'
p32
g1
(cmojom.parse.ast
StructBody
p33
g3
NtRp34
(dp35
g10
(lp36
g1
(cmojom.parse.ast
StructField
p37
g3
NtRp38
(dp39
S'ordinal'
p40
NsS'default_value'
p41
NsS'mojom_name'
p42
S'vendor_id'
p43
sg15
Nsg19
NsS'typename'
p44
S'uint32'
p45
sg16
Nsbag1
(g37
g3
NtRp46
(dp47
g40
Nsg41
Nsg42
S'device_id'
p48
sg15
Nsg19
Nsg44
S'uint32'
p49
sg16
Nsbag1
(g37
g3
NtRp50
(dp51
g40
Nsg41
Nsg42
S'active'
p52
sg15
Nsg19
Nsg44
S'bool'
p53
sg16
Nsbag1
(g37
g3
NtRp54
(dp55
g40
Nsg41
Nsg42
S'vendor_string'
p56
sg15
Nsg19
Nsg44
S'string'
p57
sg16
Nsbag1
(g37
g3
NtRp58
(dp59
g40
Nsg41
Nsg42
S'device_string'
p60
sg15
Nsg19
Nsg44
S'string'
p61
sg16
Nsbag1
(g37
g3
NtRp62
(dp63
g40
Nsg41
Nsg42
S'driver_vendor'
p64
sg15
Nsg19
Nsg44
S'string'
p65
sg16
Nsbag1
(g37
g3
NtRp66
(dp67
g40
Nsg41
Nsg42
S'driver_version'
p68
sg15
Nsg19
Nsg44
S'string'
p69
sg16
Nsbag1
(g37
g3
NtRp70
(dp71
g40
Nsg41
Nsg42
S'driver_date'
p72
sg15
Nsg19
Nsg44
S'string'
p73
sg16
Nsbag1
(g37
g3
NtRp74
(dp75
g40
Nsg41
Nsg42
S'cuda_compute_capability_major'
p76
sg15
Nsg19
Nsg44
S'int32'
p77
sg16
Nsbasg16
Nsg19
Nsbsg15
Nsg16
Nsg42
S'GpuDevice'
p78
sg19
Nsbag1
(cmojom.parse.ast
Enum
p79
g3
NtRp80
(dp81
g15
NsS'enum_value_list'
p82
g1
(cmojom.parse.ast
EnumValueList
p83
g3
NtRp84
(dp85
g10
(lp86
g1
(cmojom.parse.ast
EnumValue
p87
g3
NtRp88
(dp89
g15
NsS'value'
p90
S'-1'
p91
sg16
I27
sg42
S'VIDEO_CODEC_PROFILE_UNKNOWN'
p92
sg19
g20
sbag1
(g87
g3
NtRp93
(dp94
g15
Nsg90
S'0'
sg16
I28
sg42
S'H264PROFILE_BASELINE'
p95
sg19
g20
sbag1
(g87
g3
NtRp96
(dp97
g15
Nsg90
Nsg16
I29
sg42
S'H264PROFILE_MAIN'
p98
sg19
g20
sbag1
(g87
g3
NtRp99
(dp100
g15
Nsg90
Nsg16
I30
sg42
S'H264PROFILE_EXTENDED'
p101
sg19
g20
sbag1
(g87
g3
NtRp102
(dp103
g15
Nsg90
Nsg16
I31
sg42
S'H264PROFILE_HIGH'
p104
sg19
g20
sbag1
(g87
g3
NtRp105
(dp106
g15
Nsg90
Nsg16
I32
sg42
S'H264PROFILE_HIGH10PROFILE'
p107
sg19
g20
sbag1
(g87
g3
NtRp108
(dp109
g15
Nsg90
Nsg16
I33
sg42
S'H264PROFILE_HIGH422PROFILE'
p110
sg19
g20
sbag1
(g87
g3
NtRp111
(dp112
g15
Nsg90
Nsg16
I34
sg42
S'H264PROFILE_HIGH444PREDICTIVEPROFILE'
p113
sg19
g20
sbag1
(g87
g3
NtRp114
(dp115
g15
Nsg90
Nsg16
I35
sg42
S'H264PROFILE_SCALABLEBASELINE'
p116
sg19
g20
sbag1
(g87
g3
NtRp117
(dp118
g15
Nsg90
Nsg16
I36
sg42
S'H264PROFILE_SCALABLEHIGH'
p119
sg19
g20
sbag1
(g87
g3
NtRp120
(dp121
g15
Nsg90
Nsg16
I37
sg42
S'H264PROFILE_STEREOHIGH'
p122
sg19
g20
sbag1
(g87
g3
NtRp123
(dp124
g15
Nsg90
Nsg16
I38
sg42
S'H264PROFILE_MULTIVIEWHIGH'
p125
sg19
g20
sbag1
(g87
g3
NtRp126
(dp127
g15
Nsg90
Nsg16
I39
sg42
S'VP8PROFILE_ANY'
p128
sg19
g20
sbag1
(g87
g3
NtRp129
(dp130
g15
Nsg90
Nsg16
I40
sg42
S'VP9PROFILE_PROFILE0'
p131
sg19
g20
sbag1
(g87
g3
NtRp132
(dp133
g15
Nsg90
Nsg16
I41
sg42
S'VP9PROFILE_PROFILE1'
p134
sg19
g20
sbag1
(g87
g3
NtRp135
(dp136
g15
Nsg90
Nsg16
I42
sg42
S'VP9PROFILE_PROFILE2'
p137
sg19
g20
sbag1
(g87
g3
NtRp138
(dp139
g15
Nsg90
Nsg16
I43
sg42
S'VP9PROFILE_PROFILE3'
p140
sg19
g20
sbag1
(g87
g3
NtRp141
(dp142
g15
Nsg90
Nsg16
I44
sg42
S'HEVCPROFILE_MAIN'
p143
sg19
g20
sbag1
(g87
g3
NtRp144
(dp145
g15
Nsg90
Nsg16
I45
sg42
S'HEVCPROFILE_MAIN10'
p146
sg19
g20
sbag1
(g87
g3
NtRp147
(dp148
g15
Nsg90
Nsg16
I46
sg42
S'HEVCPROFILE_MAIN_STILL_PICTURE'
p149
sg19
g20
sbag1
(g87
g3
NtRp150
(dp151
g15
Nsg90
Nsg16
I47
sg42
S'DOLBYVISION_PROFILE0'
p152
sg19
g20
sbag1
(g87
g3
NtRp153
(dp154
g15
Nsg90
Nsg16
I48
sg42
S'DOLBYVISION_PROFILE4'
p155
sg19
g20
sbag1
(g87
g3
NtRp156
(dp157
g15
Nsg90
Nsg16
I49
sg42
S'DOLBYVISION_PROFILE5'
p158
sg19
g20
sbag1
(g87
g3
NtRp159
(dp160
g15
Nsg90
Nsg16
I50
sg42
S'DOLBYVISION_PROFILE7'
p161
sg19
g20
sbag1
(g87
g3
NtRp162
(dp163
g15
Nsg90
Nsg16
I51
sg42
S'THEORAPROFILE_ANY'
p164
sg19
g20
sbag1
(g87
g3
NtRp165
(dp166
g15
Nsg90
Nsg16
I52
sg42
S'AV1PROFILE_PROFILE_MAIN'
p167
sg19
g20
sbag1
(g87
g3
NtRp168
(dp169
g15
Nsg90
Nsg16
I53
sg42
S'AV1PROFILE_PROFILE_HIGH'
p170
sg19
g20
sbag1
(g87
g3
NtRp171
(dp172
g15
Nsg90
Nsg16
I54
sg42
S'AV1PROFILE_PROFILE_PRO'
p173
sg19
g20
sbasg16
I27
sg19
g20
sbsg16
I26
sg42
S'VideoCodecProfile'
p174
sg19
g20
sbag1
(g29
g3
NtRp175
(dp176
g32
g1
(g33
g3
NtRp177
(dp178
g10
(lp179
g1
(g37
g3
NtRp180
(dp181
g40
Nsg41
Nsg42
S'profile'
p182
sg15
Nsg19
Nsg44
S'VideoCodecProfile'
p183
sg16
Nsbag1
(g37
g3
NtRp184
(dp185
g40
Nsg41
Nsg42
S'max_resolution'
p186
sg15
Nsg19
Nsg44
S'gfx.mojom.Size'
p187
sg16
Nsbag1
(g37
g3
NtRp188
(dp189
g40
Nsg41
Nsg42
S'min_resolution'
p190
sg15
Nsg19
Nsg44
S'gfx.mojom.Size'
p191
sg16
Nsbag1
(g37
g3
NtRp192
(dp193
g40
Nsg41
Nsg42
S'encrypted_only'
p194
sg15
Nsg19
Nsg44
S'bool'
p195
sg16
Nsbasg16
Nsg19
Nsbsg15
Nsg16
Nsg42
S'VideoDecodeAcceleratorSupportedProfile'
p196
sg19
Nsbag1
(g29
g3
NtRp197
(dp198
g32
g1
(g33
g3
NtRp199
(dp200
g10
(lp201
g1
(g37
g3
NtRp202
(dp203
g40
Nsg41
Nsg42
S'supported_profiles'
p204
sg15
Nsg19
Nsg44
S'VideoDecodeAcceleratorSupportedProfile[]'
p205
sg16
Nsbag1
(g37
g3
NtRp206
(dp207
g40
Nsg41
Nsg42
S'flags'
p208
sg15
Nsg19
Nsg44
S'uint32'
p209
sg16
Nsbasg16
Nsg19
Nsbsg15
Nsg16
Nsg42
S'VideoDecodeAcceleratorCapabilities'
p210
sg19
Nsbag1
(g29
g3
NtRp211
(dp212
g32
g1
(g33
g3
NtRp213
(dp214
g10
(lp215
g1
(g37
g3
NtRp216
(dp217
g40
Nsg41
Nsg42
S'profile'
p218
sg15
Nsg19
Nsg44
S'VideoCodecProfile'
p219
sg16
Nsbag1
(g37
g3
NtRp220
(dp221
g40
Nsg41
Nsg42
S'max_resolution'
p222
sg15
Nsg19
Nsg44
S'gfx.mojom.Size'
p223
sg16
Nsbag1
(g37
g3
NtRp224
(dp225
g40
Nsg41
Nsg42
S'max_framerate_numerator'
p226
sg15
Nsg19
Nsg44
S'uint32'
p227
sg16
Nsbag1
(g37
g3
NtRp228
(dp229
g40
Nsg41
Nsg42
S'max_framerate_denominator'
p230
sg15
Nsg19
Nsg44
S'uint32'
p231
sg16
Nsbasg16
Nsg19
Nsbsg15
Nsg16
Nsg42
S'VideoEncodeAcceleratorSupportedProfile'
p232
sg19
Nsbag1
(g79
g3
NtRp233
(dp234
g15
Nsg82
g1
(g83
g3
NtRp235
(dp236
g10
(lp237
g1
(g87
g3
NtRp238
(dp239
g15
Nsg90
Nsg16
I81
sg42
S'kJpeg'
p240
sg19
g20
sbag1
(g87
g3
NtRp241
(dp242
g15
Nsg90
Nsg16
I82
sg42
S'kUnknown'
p243
sg19
g20
sbasg16
I81
sg19
g20
sbsg16
I80
sg42
S'ImageDecodeAcceleratorType'
p244
sg19
g20
sbag1
(g79
g3
NtRp245
(dp246
g15
Nsg82
g1
(g83
g3
NtRp247
(dp248
g10
(lp249
g1
(g87
g3
NtRp250
(dp251
g15
Nsg90
Nsg16
I87
sg42
S'k420'
p252
sg19
g20
sbag1
(g87
g3
NtRp253
(dp254
g15
Nsg90
Nsg16
I88
sg42
S'k422'
p255
sg19
g20
sbag1
(g87
g3
NtRp256
(dp257
g15
Nsg90
Nsg16
I89
sg42
S'k444'
p258
sg19
g20
sbasg16
I87
sg19
g20
sbsg16
I86
sg42
S'ImageDecodeAcceleratorSubsampling'
p259
sg19
g20
sbag1
(g29
g3
NtRp260
(dp261
g32
g1
(g33
g3
NtRp262
(dp263
g10
(lp264
g1
(g37
g3
NtRp265
(dp266
g40
Nsg41
Nsg42
S'image_type'
p267
sg15
Nsg19
Nsg44
S'ImageDecodeAcceleratorType'
p268
sg16
Nsbag1
(g37
g3
NtRp269
(dp270
g40
Nsg41
Nsg42
S'min_encoded_dimensions'
p271
sg15
Nsg19
Nsg44
S'gfx.mojom.Size'
p272
sg16
Nsbag1
(g37
g3
NtRp273
(dp274
g40
Nsg41
Nsg42
S'max_encoded_dimensions'
p275
sg15
Nsg19
Nsg44
S'gfx.mojom.Size'
p276
sg16
Nsbag1
(g37
g3
NtRp277
(dp278
g40
Nsg41
Nsg42
S'subsamplings'
p279
sg15
Nsg19
Nsg44
S'ImageDecodeAcceleratorSubsampling[]'
p280
sg16
Nsbasg16
Nsg19
Nsbsg15
Nsg16
Nsg42
S'ImageDecodeAcceleratorSupportedProfile'
p281
sg19
Nsbag1
(g29
g3
NtRp282
(dp283
g32
g1
(g33
g3
NtRp284
(dp285
g10
(lp286
g1
(g37
g3
NtRp287
(dp288
g40
Nsg41
Nsg42
S'initialization_time'
p289
sg15
Nsg19
Nsg44
S'mojo_base.mojom.TimeDelta'
p290
sg16
Nsbag1
(g37
g3
NtRp291
(dp292
g40
Nsg41
Nsg42
S'optimus'
p293
sg15
Nsg19
Nsg44
S'bool'
p294
sg16
Nsbag1
(g37
g3
NtRp295
(dp296
g40
Nsg41
Nsg42
S'amd_switchable'
p297
sg15
Nsg19
Nsg44
S'bool'
p298
sg16
Nsbag1
(g37
g3
NtRp299
(dp300
g40
Nsg41
Nsg42
S'gpu'
p301
sg15
Nsg19
Nsg44
S'GpuDevice'
p302
sg16
Nsbag1
(g37
g3
NtRp303
(dp304
g40
Nsg41
Nsg42
S'secondary_gpus'
p305
sg15
Nsg19
Nsg44
S'GpuDevice[]'
p306
sg16
Nsbag1
(g37
g3
NtRp307
(dp308
g40
Nsg41
Nsg42
S'pixel_shader_version'
p309
sg15
Nsg19
Nsg44
S'string'
p310
sg16
Nsbag1
(g37
g3
NtRp311
(dp312
g40
Nsg41
Nsg42
S'vertex_shader_version'
p313
sg15
Nsg19
Nsg44
S'string'
p314
sg16
Nsbag1
(g37
g3
NtRp315
(dp316
g40
Nsg41
Nsg42
S'max_msaa_samples'
p317
sg15
Nsg19
Nsg44
S'string'
p318
sg16
Nsbag1
(g37
g3
NtRp319
(dp320
g40
Nsg41
Nsg42
S'machine_model_name'
p321
sg15
Nsg19
Nsg44
S'string'
p322
sg16
Nsbag1
(g37
g3
NtRp323
(dp324
g40
Nsg41
Nsg42
S'machine_model_version'
p325
sg15
Nsg19
Nsg44
S'string'
p326
sg16
Nsbag1
(g37
g3
NtRp327
(dp328
g40
Nsg41
Nsg42
S'gl_version'
p329
sg15
Nsg19
Nsg44
S'string'
p330
sg16
Nsbag1
(g37
g3
NtRp331
(dp332
g40
Nsg41
Nsg42
S'gl_vendor'
p333
sg15
Nsg19
Nsg44
S'string'
p334
sg16
Nsbag1
(g37
g3
NtRp335
(dp336
g40
Nsg41
Nsg42
S'gl_renderer'
p337
sg15
Nsg19
Nsg44
S'string'
p338
sg16
Nsbag1
(g37
g3
NtRp339
(dp340
g40
Nsg41
Nsg42
S'gl_extensions'
p341
sg15
Nsg19
Nsg44
S'string'
p342
sg16
Nsbag1
(g37
g3
NtRp343
(dp344
g40
Nsg41
Nsg42
S'gl_ws_vendor'
p345
sg15
Nsg19
Nsg44
S'string'
p346
sg16
Nsbag1
(g37
g3
NtRp347
(dp348
g40
Nsg41
Nsg42
S'gl_ws_version'
p349
sg15
Nsg19
Nsg44
S'string'
p350
sg16
Nsbag1
(g37
g3
NtRp351
(dp352
g40
Nsg41
Nsg42
S'gl_ws_extensions'
p353
sg15
Nsg19
Nsg44
S'string'
p354
sg16
Nsbag1
(g37
g3
NtRp355
(dp356
g40
Nsg41
Nsg42
S'gl_reset_notification_strategy'
p357
sg15
Nsg19
Nsg44
S'uint32'
p358
sg16
Nsbag1
(g37
g3
NtRp359
(dp360
g40
Nsg41
Nsg42
S'software_rendering'
p361
sg15
Nsg19
Nsg44
S'bool'
p362
sg16
Nsbag1
(g37
g3
NtRp363
(dp364
g40
Nsg41
Nsg42
S'direct_rendering_version'
p365
sg15
Nsg19
Nsg44
S'string'
p366
sg16
Nsbag1
(g37
g3
NtRp367
(dp368
g40
Nsg41
Nsg42
S'sandboxed'
p369
sg15
Nsg19
Nsg44
S'bool'
p370
sg16
Nsbag1
(g37
g3
NtRp371
(dp372
g40
Nsg41
Nsg42
S'in_process_gpu'
p373
sg15
Nsg19
Nsg44
S'bool'
p374
sg16
Nsbag1
(g37
g3
NtRp375
(dp376
g40
Nsg41
Nsg42
S'passthrough_cmd_decoder'
p377
sg15
Nsg19
Nsg44
S'bool'
p378
sg16
Nsbag1
(g37
g3
NtRp379
(dp380
g40
Nsg41
Nsg42
S'can_support_threaded_texture_mailbox'
p381
sg15
Nsg19
Nsg44
S'bool'
p382
sg16
Nsbag1
(g37
g3
NtRp383
(dp384
g40
Nsg41
Nsg42
S'video_decode_accelerator_capabilities'
p385
sg15
Nsg19
Nsg44
S'VideoDecodeAcceleratorCapabilities'
p386
sg16
Nsbag1
(g37
g3
NtRp387
(dp388
g40
Nsg41
Nsg42
S'video_encode_accelerator_supported_profiles'
p389
sg15
Nsg19
Nsg44
S'VideoEncodeAcceleratorSupportedProfile[]'
p390
sg16
Nsbag1
(g37
g3
NtRp391
(dp392
g40
Nsg41
Nsg42
S'jpeg_decode_accelerator_supported'
p393
sg15
Nsg19
Nsg44
S'bool'
p394
sg16
Nsbag1
(g37
g3
NtRp395
(dp396
g40
Nsg41
Nsg42
S'image_decode_accelerator_supported_profiles'
p397
sg15
Nsg19
Nsg44
S'ImageDecodeAcceleratorSupportedProfile[]'
p398
sg16
Nsbag1
(g37
g3
NtRp399
(dp400
g40
Nsg41
Nsg42
S'system_visual'
p401
sg15
Nsg19
Nsg44
S'uint64'
p402
sg16
Nsbag1
(g37
g3
NtRp403
(dp404
g40
Nsg41
Nsg42
S'rgba_visual'
p405
sg15
Nsg19
Nsg44
S'uint64'
p406
sg16
Nsbag1
(g37
g3
NtRp407
(dp408
g40
Nsg41
Nsg42
S'oop_rasterization_supported'
p409
sg15
Nsg19
Nsg44
S'bool'
p410
sg16
Nsbasg16
Nsg19
Nsbsg15
Nsg16
Nsg42
S'GpuInfo'
p411
sg19
Nsbasg16
NsS'module'
p412
g1
(cmojom.parse.ast
Module
p413
g3
NtRp414
(dp415
S'mojom_namespace'
p416
(S'IDENTIFIER'
p417
S'gpu.mojom'
tp418
sg16
I6
sg15
Nsg19
g20
sbsg19
Nsb.