ccopy_reg
_reconstructor
p1
(cmojom.parse.ast
Mojom
p2
c__builtin__
object
p3
NtRp4
(dp5
S'import_list'
p6
g1
(cmojom.parse.ast
ImportList
p7
g3
NtRp8
(dp9
S'items'
p10
(lp11
sS'lineno'
p12
NsS'filename'
p13
NsbsS'definition_list'
p14
(lp15
g1
(cmojom.parse.ast
Interface
p16
g3
NtRp17
(dp18
S'body'
p19
g1
(cmojom.parse.ast
InterfaceBody
p20
g3
NtRp21
(dp22
g10
(lp23
g1
(cmojom.parse.ast
Method
p24
g3
NtRp25
(dp26
S'ordinal'
p27
NsS'mojom_name'
p28
S'GetSize'
p29
sS'parameter_list'
p30
g1
(cmojom.parse.ast
ParameterList
p31
g3
NtRp32
(dp33
g10
(lp34
sg12
Nsg13
NsbsS'attribute_list'
p35
Nsg13
Nsg12
NsS'response_parameter_list'
p36
g1
(g31
g3
NtRp37
(dp38
g10
(lp39
g1
(cmojom.parse.ast
Parameter
p40
g3
NtRp41
(dp42
g27
Nsg28
S'status'
p43
sg35
Nsg13
S'../../services/network/public/mojom/chunked_data_pipe_getter.mojom'
p44
sS'typename'
p45
S'int32'
p46
sg12
I27
sbag1
(g40
g3
NtRp47
(dp48
g27
Nsg28
S'size'
p49
sg35
Nsg13
g44
sg45
S'uint64'
p50
sg12
I27
sbasg12
I27
sg13
g44
sbsbag1
(g24
g3
NtRp51
(dp52
g27
Nsg28
S'StartReading'
p53
sg30
g1
(g31
g3
NtRp54
(dp55
g10
(lp56
g1
(g40
g3
NtRp57
(dp58
g27
Nsg28
S'pipe'
p59
sg35
Nsg13
g44
sg45
S'handle<data_pipe_producer>'
p60
sg12
I34
sbasg12
I34
sg13
g44
sbsg35
Nsg13
Nsg12
Nsg36
Nsbasg12
Nsg13
Nsbsg35
Nsg12
Nsg28
S'ChunkedDataPipeGetter'
p61
sg13
Nsbasg12
NsS'module'
p62
g1
(cmojom.parse.ast
Module
p63
g3
NtRp64
(dp65
S'mojom_namespace'
p66
(S'IDENTIFIER'
p67
S'network.mojom'
tp68
sg12
I5
sg35
Nsg13
g44
sbsg13
Nsb.