ccopy_reg
_reconstructor
p1
(cmojom.parse.ast
Mojom
p2
c__builtin__
object
p3
NtRp4
(dp5
S'import_list'
p6
g1
(cmojom.parse.ast
ImportList
p7
g3
NtRp8
(dp9
S'items'
p10
(lp11
g1
(cmojom.parse.ast
Import
p12
g3
NtRp13
(dp14
S'attribute_list'
p15
NsS'lineno'
p16
I7
sS'import_filename'
p17
S'components/content_settings/core/common/content_settings.mojom'
p18
sS'filename'
p19
S'../../services/network/public/mojom/cookie_manager.mojom'
p20
sbag1
(g12
g3
NtRp21
(dp22
g15
Nsg16
I8
sg17
S'mojo/public/mojom/base/time.mojom'
p23
sg19
g20
sbag1
(g12
g3
NtRp24
(dp25
g15
Nsg16
I9
sg17
S'url/mojom/url.mojom'
p26
sg19
g20
sbasg16
I7
sg19
g20
sbsS'definition_list'
p27
(lp28
g1
(cmojom.parse.ast
Struct
p29
g3
NtRp30
(dp31
S'body'
p32
g1
(cmojom.parse.ast
StructBody
p33
g3
NtRp34
(dp35
g10
(lp36
g1
(cmojom.parse.ast
StructField
p37
g3
NtRp38
(dp39
S'ordinal'
p40
NsS'default_value'
p41
S'false'
p42
sS'mojom_name'
p43
S'block_third_party_cookies'
p44
sg15
Nsg19
NsS'typename'
p45
S'bool'
p46
sg16
Nsbag1
(g37
g3
NtRp47
(dp48
g40
Nsg41
Nsg43
S'settings'
p49
sg15
Nsg19
Nsg45
S'content_settings.mojom.ContentSettingPatternSource[]'
p50
sg16
Nsbag1
(g37
g3
NtRp51
(dp52
g40
Nsg41
Nsg43
S'secure_origin_cookies_allowed_schemes'
p53
sg15
Nsg19
Nsg45
S'string[]'
p54
sg16
Nsbag1
(g37
g3
NtRp55
(dp56
g40
Nsg41
Nsg43
S'matching_scheme_cookies_allowed_schemes'
p57
sg15
Nsg19
Nsg45
S'string[]'
p58
sg16
Nsbag1
(g37
g3
NtRp59
(dp60
g40
Nsg41
Nsg43
S'third_party_cookies_allowed_schemes'
p61
sg15
Nsg19
Nsg45
S'string[]'
p62
sg16
Nsbag1
(g37
g3
NtRp63
(dp64
g40
Nsg41
S'false'
p65
sg43
S'allow_file_scheme_cookies'
p66
sg15
Nsg19
Nsg45
S'bool'
p67
sg16
Nsbasg16
Nsg19
Nsbsg15
Nsg16
Nsg43
S'CookieManagerParams'
p68
sg19
Nsbag1
(cmojom.parse.ast
Enum
p69
g3
NtRp70
(dp71
g15
NsS'enum_value_list'
p72
g1
(cmojom.parse.ast
EnumValueList
p73
g3
NtRp74
(dp75
g10
(lp76
g1
(cmojom.parse.ast
EnumValue
p77
g3
NtRp78
(dp79
g15
NsS'value'
p80
Nsg16
I34
sg43
S'LOW'
p81
sg19
g20
sbag1
(g77
g3
NtRp82
(dp83
g15
Nsg80
Nsg16
I35
sg43
S'MEDIUM'
p84
sg19
g20
sbag1
(g77
g3
NtRp85
(dp86
g15
Nsg80
Nsg16
I36
sg43
S'HIGH'
p87
sg19
g20
sbasg16
I34
sg19
g20
sbsg16
I33
sg43
S'CookiePriority'
p88
sg19
g20
sbag1
(g69
g3
NtRp89
(dp90
g15
Nsg72
g1
(g73
g3
NtRp91
(dp92
g10
(lp93
g1
(g77
g3
NtRp94
(dp95
g15
Nsg80
S'-1'
p96
sg16
I44
sg43
S'UNSPECIFIED'
p97
sg19
g20
sbag1
(g77
g3
NtRp98
(dp99
g15
Nsg80
S'0'
sg16
I45
sg43
S'NO_RESTRICTION'
p100
sg19
g20
sbag1
(g77
g3
NtRp101
(dp102
g15
Nsg80
S'1'
sg16
I46
sg43
S'LAX_MODE'
p103
sg19
g20
sbag1
(g77
g3
NtRp104
(dp105
g15
Nsg80
S'2'
sg16
I47
sg43
S'STRICT_MODE'
p106
sg19
g20
sbag1
(g77
g3
NtRp107
(dp108
g15
Nsg80
S'3'
sg16
I48
sg43
S'EXTENDED_MODE'
p109
sg19
g20
sbasg16
I44
sg19
g20
sbsg16
I43
sg43
S'CookieSameSite'
p110
sg19
g20
sbag1
(g69
g3
NtRp111
(dp112
g15
Nsg72
g1
(g73
g3
NtRp113
(dp114
g10
(lp115
g1
(g77
g3
NtRp116
(dp117
g15
Nsg80
Nsg16
I52
sg43
S'CROSS_SITE'
p118
sg19
g20
sbag1
(g77
g3
NtRp119
(dp120
g15
Nsg80
Nsg16
I53
sg43
S'SAME_SITE_LAX'
p121
sg19
g20
sbag1
(g77
g3
NtRp122
(dp123
g15
Nsg80
Nsg16
I54
sg43
S'SAME_SITE_STRICT'
p124
sg19
g20
sbasg16
I52
sg19
g20
sbsg16
I51
sg43
S'CookieSameSiteContext'
p125
sg19
g20
sbag1
(g29
g3
NtRp126
(dp127
g32
g1
(g33
g3
NtRp128
(dp129
g10
(lp130
g1
(g37
g3
NtRp131
(dp132
g40
Nsg41
S'true'
p133
sg43
S'exclude_httponly'
p134
sg15
Nsg19
Nsg45
S'bool'
p135
sg16
Nsbag1
(g37
g3
NtRp136
(dp137
g40
Nsg41
(S'IDENTIFIER'
p138
S'CROSS_SITE'
tp139
sg43
S'same_site_cookie_context'
p140
sg15
Nsg19
Nsg45
S'CookieSameSiteContext'
p141
sg16
Nsbag1
(g37
g3
NtRp142
(dp143
g40
Nsg41
S'true'
p144
sg43
S'update_access_time'
p145
sg15
Nsg19
Nsg45
S'bool'
p146
sg16
Nsbag1
(g37
g3
NtRp147
(dp148
g40
Nsg41
Nsg43
S'server_time'
p149
sg15
Nsg19
Nsg45
S'mojo_base.mojom.Time?'
p150
sg16
Nsbag1
(g37
g3
NtRp151
(dp152
g40
Nsg41
S'false'
p153
sg43
S'return_excluded_cookies'
p154
sg15
Nsg19
Nsg45
S'bool'
p155
sg16
Nsbasg16
Nsg19
Nsbsg15
Nsg16
Nsg43
S'CookieOptions'
p156
sg19
Nsbag1
(g29
g3
NtRp157
(dp158
g32
g1
(g33
g3
NtRp159
(dp160
g10
(lp161
g1
(g37
g3
NtRp162
(dp163
g40
Nsg41
Nsg43
S'name'
p164
sg15
Nsg19
Nsg45
S'string'
p165
sg16
Nsbag1
(g37
g3
NtRp166
(dp167
g40
Nsg41
Nsg43
S'value'
p168
sg15
Nsg19
Nsg45
S'string'
p169
sg16
Nsbag1
(g37
g3
NtRp170
(dp171
g40
Nsg41
Nsg43
S'domain'
p172
sg15
Nsg19
Nsg45
S'string'
p173
sg16
Nsbag1
(g37
g3
NtRp174
(dp175
g40
Nsg41
Nsg43
S'path'
p176
sg15
Nsg19
Nsg45
S'string'
p177
sg16
Nsbag1
(g37
g3
NtRp178
(dp179
g40
Nsg41
Nsg43
S'creation'
p180
sg15
Nsg19
Nsg45
S'mojo_base.mojom.Time'
p181
sg16
Nsbag1
(g37
g3
NtRp182
(dp183
g40
Nsg41
Nsg43
S'expiry'
p184
sg15
Nsg19
Nsg45
S'mojo_base.mojom.Time'
p185
sg16
Nsbag1
(g37
g3
NtRp186
(dp187
g40
Nsg41
Nsg43
S'last_access'
p188
sg15
Nsg19
Nsg45
S'mojo_base.mojom.Time'
p189
sg16
Nsbag1
(g37
g3
NtRp190
(dp191
g40
Nsg41
S'false'
p192
sg43
S'secure'
p193
sg15
Nsg19
Nsg45
S'bool'
p194
sg16
Nsbag1
(g37
g3
NtRp195
(dp196
g40
Nsg41
S'false'
p197
sg43
S'httponly'
p198
sg15
Nsg19
Nsg45
S'bool'
p199
sg16
Nsbag1
(g37
g3
NtRp200
(dp201
g40
Nsg41
(g138
S'NO_RESTRICTION'
tp202
sg43
S'site_restrictions'
p203
sg15
Nsg19
Nsg45
S'CookieSameSite'
p204
sg16
Nsbag1
(g37
g3
NtRp205
(dp206
g40
Nsg41
(g138
S'MEDIUM'
tp207
sg43
S'priority'
p208
sg15
Nsg19
Nsg45
S'CookiePriority'
p209
sg16
Nsbasg16
Nsg19
Nsbsg15
Nsg16
Nsg43
S'CanonicalCookie'
p210
sg19
Nsbag1
(g69
g3
NtRp211
(dp212
g15
Nsg72
g1
(g73
g3
NtRp213
(dp214
g10
(lp215
g1
(g77
g3
NtRp216
(dp217
g15
Nsg80
Nsg16
I86
sg43
S'INCLUDE'
p218
sg19
g20
sbag1
(g77
g3
NtRp219
(dp220
g15
Nsg80
Nsg16
I87
sg43
S'EXCLUDE_HTTP_ONLY'
p221
sg19
g20
sbag1
(g77
g3
NtRp222
(dp223
g15
Nsg80
Nsg16
I88
sg43
S'EXCLUDE_SECURE_ONLY'
p224
sg19
g20
sbag1
(g77
g3
NtRp225
(dp226
g15
Nsg80
Nsg16
I89
sg43
S'EXCLUDE_DOMAIN_MISMATCH'
p227
sg19
g20
sbag1
(g77
g3
NtRp228
(dp229
g15
Nsg80
Nsg16
I90
sg43
S'EXCLUDE_NOT_ON_PATH'
p230
sg19
g20
sbag1
(g77
g3
NtRp231
(dp232
g15
Nsg80
Nsg16
I91
sg43
S'EXCLUDE_SAMESITE_STRICT'
p233
sg19
g20
sbag1
(g77
g3
NtRp234
(dp235
g15
Nsg80
Nsg16
I92
sg43
S'EXCLUDE_SAMESITE_LAX'
p236
sg19
g20
sbag1
(g77
g3
NtRp237
(dp238
g15
Nsg80
Nsg16
I93
sg43
S'EXCLUDE_SAMESITE_EXTENDED'
p239
sg19
g20
sbag1
(g77
g3
NtRp240
(dp241
g15
Nsg80
Nsg16
I94
sg43
S'EXCLUDE_SAMESITE_UNSPECIFIED_TREATED_AS_LAX'
p242
sg19
g20
sbag1
(g77
g3
NtRp243
(dp244
g15
Nsg80
Nsg16
I95
sg43
S'EXCLUDE_SAMESITE_NONE_INSECURE'
p245
sg19
g20
sbag1
(g77
g3
NtRp246
(dp247
g15
Nsg80
Nsg16
I96
sg43
S'EXCLUDE_USER_PREFERENCES'
p248
sg19
g20
sbag1
(g77
g3
NtRp249
(dp250
g15
Nsg80
Nsg16
I99
sg43
S'EXCLUDE_FAILURE_TO_STORE'
p251
sg19
g20
sbag1
(g77
g3
NtRp252
(dp253
g15
Nsg80
Nsg16
I100
sg43
S'EXCLUDE_NONCOOKIEABLE_SCHEME'
p254
sg19
g20
sbag1
(g77
g3
NtRp255
(dp256
g15
Nsg80
Nsg16
I101
sg43
S'EXCLUDE_OVERWRITE_SECURE'
p257
sg19
g20
sbag1
(g77
g3
NtRp258
(dp259
g15
Nsg80
Nsg16
I102
sg43
S'EXCLUDE_OVERWRITE_HTTP_ONLY'
p260
sg19
g20
sbag1
(g77
g3
NtRp261
(dp262
g15
Nsg80
Nsg16
I103
sg43
S'EXCLUDE_INVALID_DOMAIN'
p263
sg19
g20
sbag1
(g77
g3
NtRp264
(dp265
g15
Nsg80
Nsg16
I104
sg43
S'EXCLUDE_INVALID_PREFIX'
p266
sg19
g20
sbag1
(g77
g3
NtRp267
(dp268
g15
Nsg80
Nsg16
I107
sg43
S'EXCLUDE_UNKNOWN_ERROR'
p269
sg19
g20
sbasg16
I86
sg19
g20
sbsg16
I85
sg43
S'CookieInclusionStatus'
p270
sg19
g20
sbag1
(g29
g3
NtRp271
(dp272
g32
g1
(g33
g3
NtRp273
(dp274
g10
(lp275
g1
(g37
g3
NtRp276
(dp277
g40
Nsg41
Nsg43
S'cookie'
p278
sg15
Nsg19
Nsg45
S'CanonicalCookie'
p279
sg16
Nsbag1
(g37
g3
NtRp280
(dp281
g40
Nsg41
Nsg43
S'status'
p282
sg15
Nsg19
Nsg45
S'CookieInclusionStatus'
p283
sg16
Nsbasg16
Nsg19
Nsbsg15
Nsg16
Nsg43
S'CookieWithStatus'
p284
sg19
Nsbag1
(g69
g3
NtRp285
(dp286
g15
Nsg72
g1
(g73
g3
NtRp287
(dp288
g10
(lp289
g1
(g77
g3
NtRp290
(dp291
g15
Nsg80
Nsg16
I119
sg43
S'INSERTED'
p292
sg19
g20
sbag1
(g77
g3
NtRp293
(dp294
g15
Nsg80
Nsg16
I121
sg43
S'EXPLICIT'
p295
sg19
g20
sbag1
(g77
g3
NtRp296
(dp297
g15
Nsg80
Nsg16
I123
sg43
S'UNKNOWN_DELETION'
p298
sg19
g20
sbag1
(g77
g3
NtRp299
(dp300
g15
Nsg80
Nsg16
I126
sg43
S'OVERWRITE'
p301
sg19
g20
sbag1
(g77
g3
NtRp302
(dp303
g15
Nsg80
Nsg16
I128
sg43
S'EXPIRED'
p304
sg19
g20
sbag1
(g77
g3
NtRp305
(dp306
g15
Nsg80
Nsg16
I130
sg43
S'EVICTED'
p307
sg19
g20
sbag1
(g77
g3
NtRp308
(dp309
g15
Nsg80
Nsg16
I132
sg43
S'EXPIRED_OVERWRITE'
p310
sg19
g20
sbasg16
I119
sg19
g20
sbsg16
I117
sg43
S'CookieChangeCause'
p311
sg19
g20
sbag1
(g69
g3
NtRp312
(dp313
g15
Nsg72
g1
(g73
g3
NtRp314
(dp315
g10
(lp316
g1
(g77
g3
NtRp317
(dp318
g15
Nsg80
Nsg16
I138
sg43
S'IGNORE_CONTROL'
p319
sg19
g20
sbag1
(g77
g3
NtRp320
(dp321
g15
Nsg80
Nsg16
I139
sg43
S'SESSION_COOKIES'
p322
sg19
g20
sbag1
(g77
g3
NtRp323
(dp324
g15
Nsg80
Nsg16
I140
sg43
S'PERSISTENT_COOKIES'
p325
sg19
g20
sbasg16
I138
sg19
g20
sbsg16
I137
sg43
S'CookieDeletionSessionControl'
p326
sg19
g20
sbag1
(g29
g3
NtRp327
(dp328
g32
g1
(g33
g3
NtRp329
(dp330
g10
(lp331
g1
(g37
g3
NtRp332
(dp333
g40
Nsg41
Nsg43
S'created_after_time'
p334
sg15
Nsg19
Nsg45
S'mojo_base.mojom.Time?'
p335
sg16
Nsbag1
(g37
g3
NtRp336
(dp337
g40
Nsg41
Nsg43
S'created_before_time'
p338
sg15
Nsg19
Nsg45
S'mojo_base.mojom.Time?'
p339
sg16
Nsbag1
(g37
g3
NtRp340
(dp341
g40
Nsg41
Nsg43
S'excluding_domains'
p342
sg15
Nsg19
Nsg45
S'string[]?'
p343
sg16
Nsbag1
(g37
g3
NtRp344
(dp345
g40
Nsg41
Nsg43
S'including_domains'
p346
sg15
Nsg19
Nsg45
S'string[]?'
p347
sg16
Nsbag1
(g37
g3
NtRp348
(dp349
g40
Nsg41
Nsg43
S'cookie_name'
p350
sg15
Nsg19
Nsg45
S'string?'
p351
sg16
Nsbag1
(g37
g3
NtRp352
(dp353
g40
Nsg41
Nsg43
S'host_name'
p354
sg15
Nsg19
Nsg45
S'string?'
p355
sg16
Nsbag1
(g37
g3
NtRp356
(dp357
g40
Nsg41
Nsg43
S'url'
p358
sg15
Nsg19
Nsg45
S'url.mojom.Url?'
p359
sg16
Nsbag1
(g37
g3
NtRp360
(dp361
g40
Nsg41
(g138
S'IGNORE_CONTROL'
tp362
sg43
S'session_control'
p363
sg15
Nsg19
Nsg45
S'CookieDeletionSessionControl'
p364
sg16
Nsbasg16
Nsg19
Nsbsg15
Nsg16
Nsg43
S'CookieDeletionFilter'
p365
sg19
Nsbag1
(cmojom.parse.ast
Interface
p366
g3
NtRp367
(dp368
g32
g1
(cmojom.parse.ast
InterfaceBody
p369
g3
NtRp370
(dp371
g10
(lp372
g1
(cmojom.parse.ast
Method
p373
g3
NtRp374
(dp375
g40
Nsg43
S'OnCookieChange'
p376
sS'parameter_list'
p377
g1
(cmojom.parse.ast
ParameterList
p378
g3
NtRp379
(dp380
g10
(lp381
g1
(cmojom.parse.ast
Parameter
p382
g3
NtRp383
(dp384
g40
Nsg43
S'cookie'
p385
sg15
Nsg19
g20
sg45
S'CanonicalCookie'
p386
sg16
I203
sbag1
(g382
g3
NtRp387
(dp388
g40
Nsg43
S'cause'
p389
sg15
Nsg19
g20
sg45
S'CookieChangeCause'
p390
sg16
I203
sbasg16
I203
sg19
g20
sbsg15
Nsg19
Nsg16
NsS'response_parameter_list'
p391
Nsbasg16
Nsg19
Nsbsg15
Nsg16
Nsg43
S'CookieChangeListener'
p392
sg19
Nsbag1
(g366
g3
NtRp393
(dp394
g32
g1
(g369
g3
NtRp395
(dp396
g10
(lp397
g1
(g373
g3
NtRp398
(dp399
g40
Nsg43
S'GetAllCookies'
p400
sg377
g1
(g378
g3
NtRp401
(dp402
g10
(lp403
sg16
Nsg19
Nsbsg15
Nsg19
Nsg16
Nsg391
g1
(g378
g3
NtRp404
(dp405
g10
(lp406
g1
(g382
g3
NtRp407
(dp408
g40
Nsg43
S'cookies'
p409
sg15
Nsg19
g20
sg45
S'CanonicalCookie[]'
p410
sg16
I215
sbasg16
I215
sg19
g20
sbsbag1
(g373
g3
NtRp411
(dp412
g40
Nsg43
S'GetCookieList'
p413
sg377
g1
(g378
g3
NtRp414
(dp415
g10
(lp416
g1
(g382
g3
NtRp417
(dp418
g40
Nsg43
S'url'
p419
sg15
Nsg19
g20
sg45
S'url.mojom.Url'
p420
sg16
I223
sbag1
(g382
g3
NtRp421
(dp422
g40
Nsg43
S'cookie_options'
p423
sg15
Nsg19
g20
sg45
S'CookieOptions'
p424
sg16
I223
sbasg16
I223
sg19
g20
sbsg15
Nsg19
Nsg16
Nsg391
g1
(g378
g3
NtRp425
(dp426
g10
(lp427
g1
(g382
g3
NtRp428
(dp429
g40
Nsg43
S'cookies'
p430
sg15
Nsg19
g20
sg45
S'CanonicalCookie[]'
p431
sg16
I224
sbag1
(g382
g3
NtRp432
(dp433
g40
Nsg43
S'excluded_cookies'
p434
sg15
Nsg19
g20
sg45
S'CookieWithStatus[]'
p435
sg16
I225
sbasg16
I224
sg19
g20
sbsbag1
(g373
g3
NtRp436
(dp437
g40
Nsg43
S'SetCanonicalCookie'
p438
sg377
g1
(g378
g3
NtRp439
(dp440
g10
(lp441
g1
(g382
g3
NtRp442
(dp443
g40
Nsg43
S'cookie'
p444
sg15
Nsg19
g20
sg45
S'CanonicalCookie'
p445
sg16
I234
sbag1
(g382
g3
NtRp446
(dp447
g40
Nsg43
S'source_scheme'
p448
sg15
Nsg19
g20
sg45
S'string'
p449
sg16
I234
sbag1
(g382
g3
NtRp450
(dp451
g40
Nsg43
S'cookie_options'
p452
sg15
Nsg19
g20
sg45
S'CookieOptions'
p453
sg16
I235
sbasg16
I234
sg19
g20
sbsg15
Nsg19
Nsg16
Nsg391
g1
(g378
g3
NtRp454
(dp455
g10
(lp456
g1
(g382
g3
NtRp457
(dp458
g40
Nsg43
S'status'
p459
sg15
Nsg19
g20
sg45
S'CookieInclusionStatus'
p460
sg16
I236
sbasg16
I236
sg19
g20
sbsbag1
(g373
g3
NtRp461
(dp462
g40
Nsg43
S'DeleteCanonicalCookie'
p463
sg377
g1
(g378
g3
NtRp464
(dp465
g10
(lp466
g1
(g382
g3
NtRp467
(dp468
g40
Nsg43
S'cookie'
p469
sg15
Nsg19
g20
sg45
S'CanonicalCookie'
p470
sg16
I239
sbasg16
I239
sg19
g20
sbsg15
Nsg19
Nsg16
Nsg391
g1
(g378
g3
NtRp471
(dp472
g10
(lp473
g1
(g382
g3
NtRp474
(dp475
g40
Nsg43
S'success'
p476
sg15
Nsg19
g20
sg45
S'bool'
p477
sg16
I239
sbasg16
I239
sg19
g20
sbsbag1
(g373
g3
NtRp478
(dp479
g40
Nsg43
S'DeleteCookies'
p480
sg377
g1
(g378
g3
NtRp481
(dp482
g10
(lp483
g1
(g382
g3
NtRp484
(dp485
g40
Nsg43
S'filter'
p486
sg15
Nsg19
g20
sg45
S'CookieDeletionFilter'
p487
sg16
I243
sbasg16
I243
sg19
g20
sbsg15
Nsg19
Nsg16
Nsg391
g1
(g378
g3
NtRp488
(dp489
g10
(lp490
g1
(g382
g3
NtRp491
(dp492
g40
Nsg43
S'num_deleted'
p493
sg15
Nsg19
g20
sg45
S'uint32'
p494
sg16
I243
sbasg16
I243
sg19
g20
sbsbag1
(g373
g3
NtRp495
(dp496
g40
Nsg43
S'AddCookieChangeListener'
p497
sg377
g1
(g378
g3
NtRp498
(dp499
g10
(lp500
g1
(g382
g3
NtRp501
(dp502
g40
Nsg43
S'url'
p503
sg15
Nsg19
g20
sg45
S'url.mojom.Url'
p504
sg16
I259
sbag1
(g382
g3
NtRp505
(dp506
g40
Nsg43
S'name'
p507
sg15
Nsg19
g20
sg45
S'string'
p508
sg16
I260
sbag1
(g382
g3
NtRp509
(dp510
g40
Nsg43
S'listener'
p511
sg15
Nsg19
g20
sg45
S'CookieChangeListener'
p512
sg16
I261
sbasg16
I259
sg19
g20
sbsg15
Nsg19
Nsg16
Nsg391
Nsbag1
(g373
g3
NtRp513
(dp514
g40
Nsg43
S'AddGlobalChangeListener'
p515
sg377
g1
(g378
g3
NtRp516
(dp517
g10
(lp518
g1
(g382
g3
NtRp519
(dp520
g40
Nsg43
S'notification_pointer'
p521
sg15
Nsg19
g20
sg45
S'CookieChangeListener'
p522
sg16
I269
sbasg16
I269
sg19
g20
sbsg15
Nsg19
Nsg16
Nsg391
Nsbag1
(g373
g3
NtRp523
(dp524
g40
Nsg43
S'CloneInterface'
p525
sg377
g1
(g378
g3
NtRp526
(dp527
g10
(lp528
g1
(g382
g3
NtRp529
(dp530
g40
Nsg43
S'new_interface'
p531
sg15
Nsg19
g20
sg45
S'CookieManager&'
p532
sg16
I274
sbasg16
I274
sg19
g20
sbsg15
Nsg19
Nsg16
Nsg391
Nsbag1
(g373
g3
NtRp533
(dp534
g40
Nsg43
S'FlushCookieStore'
p535
sg377
g1
(g378
g3
NtRp536
(dp537
g10
(lp538
sg16
Nsg19
Nsbsg15
Nsg19
Nsg16
Nsg391
g1
(g378
g3
NtRp539
(dp540
g10
(lp541
sg16
Nsg19
Nsbsbag1
(g373
g3
NtRp542
(dp543
g40
Nsg43
S'AllowFileSchemeCookies'
p544
sg377
g1
(g378
g3
NtRp545
(dp546
g10
(lp547
g1
(g382
g3
NtRp548
(dp549
g40
Nsg43
S'allow'
p550
sg15
Nsg19
g20
sg45
S'bool'
p551
sg16
I284
sbasg16
I284
sg19
g20
sbsg15
Nsg19
Nsg16
Nsg391
g1
(g378
g3
NtRp552
(dp553
g10
(lp554
g1
(g382
g3
NtRp555
(dp556
g40
Nsg43
S'success'
p557
sg15
Nsg19
g20
sg45
S'bool'
p558
sg16
I284
sbasg16
I284
sg19
g20
sbsbag1
(g373
g3
NtRp559
(dp560
g40
Nsg43
S'SetContentSettings'
p561
sg377
g1
(g378
g3
NtRp562
(dp563
g10
(lp564
g1
(g382
g3
NtRp565
(dp566
g40
Nsg43
S'settings'
p567
sg15
Nsg19
g20
sg45
S'content_settings.mojom.ContentSettingPatternSource[]'
p568
sg16
I289
sbasg16
I289
sg19
g20
sbsg15
Nsg19
Nsg16
Nsg391
Nsbag1
(g373
g3
NtRp569
(dp570
g40
Nsg43
S'SetForceKeepSessionState'
p571
sg377
g1
(g378
g3
NtRp572
(dp573
g10
(lp574
sg16
Nsg19
Nsbsg15
Nsg19
Nsg16
Nsg391
Nsbag1
(g373
g3
NtRp575
(dp576
g40
Nsg43
S'BlockThirdPartyCookies'
p577
sg377
g1
(g378
g3
NtRp578
(dp579
g10
(lp580
g1
(g382
g3
NtRp581
(dp582
g40
Nsg43
S'block'
p583
sg15
Nsg19
g20
sg45
S'bool'
p584
sg16
I295
sbasg16
I295
sg19
g20
sbsg15
Nsg19
Nsg16
Nsg391
Nsbasg16
Nsg19
Nsbsg15
Nsg16
Nsg43
S'CookieManager'
p585
sg19
Nsbasg16
NsS'module'
p586
g1
(cmojom.parse.ast
Module
p587
g3
NtRp588
(dp589
S'mojom_namespace'
p590
(g138
S'network.mojom'
tp591
sg16
I5
sg15
Nsg19
g20
sbsg19
Nsb.