ccopy_reg
_reconstructor
p1
(cmojom.parse.ast
Mojom
p2
c__builtin__
object
p3
NtRp4
(dp5
S'import_list'
p6
g1
(cmojom.parse.ast
ImportList
p7
g3
NtRp8
(dp9
S'items'
p10
(lp11
sS'lineno'
p12
NsS'filename'
p13
NsbsS'definition_list'
p14
(lp15
g1
(cmojom.parse.ast
Enum
p16
g3
NtRp17
(dp18
S'attribute_list'
p19
NsS'enum_value_list'
p20
g1
(cmojom.parse.ast
EnumValueList
p21
g3
NtRp22
(dp23
g10
(lp24
g1
(cmojom.parse.ast
EnumValue
p25
g3
NtRp26
(dp27
g19
NsS'value'
p28
Nsg12
I11
sS'mojom_name'
p29
S'kAllowSubdomains'
p30
sg13
S'../../services/network/public/mojom/cors_origin_pattern.mojom'
p31
sbag1
(g25
g3
NtRp32
(dp33
g19
Nsg28
Nsg12
I14
sg29
S'kAllowRegistrableDomains'
p34
sg13
g31
sbag1
(g25
g3
NtRp35
(dp36
g19
Nsg28
Nsg12
I17
sg29
S'kDisallowSubdomains'
p37
sg13
g31
sbasg12
I11
sg13
g31
sbsg12
I9
sg29
S'CorsOriginAccessMatchMode'
p38
sg13
g31
sbag1
(g16
g3
NtRp39
(dp40
g19
Nsg20
g1
(g21
g3
NtRp41
(dp42
g10
(lp43
g1
(g25
g3
NtRp44
(dp45
g19
Nsg28
Nsg12
I22
sg29
S'kNoMatchingOrigin'
p46
sg13
g31
sbag1
(g25
g3
NtRp47
(dp48
g19
Nsg28
Nsg12
I23
sg29
S'kDefaultPriority'
p49
sg13
g31
sbag1
(g25
g3
NtRp50
(dp51
g19
Nsg28
Nsg12
I24
sg29
S'kLowPriority'
p52
sg13
g31
sbag1
(g25
g3
NtRp53
(dp54
g19
Nsg28
Nsg12
I25
sg29
S'kMediumPriority'
p55
sg13
g31
sbag1
(g25
g3
NtRp56
(dp57
g19
Nsg28
Nsg12
I26
sg29
S'kHighPriority'
p58
sg13
g31
sbag1
(g25
g3
NtRp59
(dp60
g19
Nsg28
Nsg12
I27
sg29
S'kMaxPriority'
p61
sg13
g31
sbasg12
I22
sg13
g31
sbsg12
I21
sg29
S'CorsOriginAccessMatchPriority'
p62
sg13
g31
sbag1
(cmojom.parse.ast
Struct
p63
g3
NtRp64
(dp65
S'body'
p66
g1
(cmojom.parse.ast
StructBody
p67
g3
NtRp68
(dp69
g10
(lp70
g1
(cmojom.parse.ast
StructField
p71
g3
NtRp72
(dp73
S'ordinal'
p74
NsS'default_value'
p75
Nsg29
S'protocol'
p76
sg19
Nsg13
NsS'typename'
p77
S'string'
p78
sg12
Nsbag1
(g71
g3
NtRp79
(dp80
g74
Nsg75
Nsg29
S'domain'
p81
sg19
Nsg13
Nsg77
S'string'
p82
sg12
Nsbag1
(g71
g3
NtRp83
(dp84
g74
Nsg75
Nsg29
S'mode'
p85
sg19
Nsg13
Nsg77
S'CorsOriginAccessMatchMode'
p86
sg12
Nsbag1
(g71
g3
NtRp87
(dp88
g74
Nsg75
Nsg29
S'priority'
p89
sg19
Nsg13
Nsg77
S'CorsOriginAccessMatchPriority'
p90
sg12
Nsbasg12
Nsg13
Nsbsg19
Nsg12
Nsg29
S'CorsOriginPattern'
p91
sg13
Nsbag1
(g63
g3
NtRp92
(dp93
g66
g1
(g67
g3
NtRp94
(dp95
g10
(lp96
g1
(g71
g3
NtRp97
(dp98
g74
Nsg75
Nsg29
S'source_origin'
p99
sg19
Nsg13
Nsg77
S'string'
p100
sg12
Nsbag1
(g71
g3
NtRp101
(dp102
g74
Nsg75
Nsg29
S'allow_patterns'
p103
sg19
Nsg13
Nsg77
S'CorsOriginPattern[]'
p104
sg12
Nsbag1
(g71
g3
NtRp105
(dp106
g74
Nsg75
Nsg29
S'block_patterns'
p107
sg19
Nsg13
Nsg77
S'CorsOriginPattern[]'
p108
sg12
Nsbasg12
Nsg13
Nsbsg19
Nsg12
Nsg29
S'CorsOriginAccessPatterns'
p109
sg13
Nsbasg12
NsS'module'
p110
g1
(cmojom.parse.ast
Module
p111
g3
NtRp112
(dp113
S'mojom_namespace'
p114
(S'IDENTIFIER'
p115
S'network.mojom'
tp116
sg12
I5
sg19
Nsg13
g31
sbsg13
Nsb.