ccopy_reg
_reconstructor
p1
(cmojom.parse.ast
Mojom
p2
c__builtin__
object
p3
NtRp4
(dp5
S'import_list'
p6
g1
(cmojom.parse.ast
ImportList
p7
g3
NtRp8
(dp9
S'items'
p10
(lp11
sS'lineno'
p12
NsS'filename'
p13
NsbsS'definition_list'
p14
(lp15
g1
(cmojom.parse.ast
Enum
p16
g3
NtRp17
(dp18
S'attribute_list'
p19
NsS'enum_value_list'
p20
g1
(cmojom.parse.ast
EnumValueList
p21
g3
NtRp22
(dp23
g10
(lp24
g1
(cmojom.parse.ast
EnumValue
p25
g3
NtRp26
(dp27
g19
NsS'value'
p28
Nsg12
I9
sS'mojom_name'
p29
S'kConsiderPreflight'
p30
sg13
S'../../services/network/public/mojom/cors.mojom'
p31
sbag1
(g25
g3
NtRp32
(dp33
g19
Nsg28
Nsg12
I10
sg29
S'kPreventPreflight'
p34
sg13
g31
sbasg12
I9
sg13
g31
sbsg12
I8
sg29
S'CorsPreflightPolicy'
p35
sg13
g31
sbag1
(g16
g3
NtRp36
(dp37
g19
Nsg20
g1
(g21
g3
NtRp38
(dp39
g10
(lp40
g1
(g25
g3
NtRp41
(dp42
g19
Nsg28
Nsg12
I16
sg29
S'kDisallowedByMode'
p43
sg13
g31
sbag1
(g25
g3
NtRp44
(dp45
g19
Nsg28
Nsg12
I17
sg29
S'kInvalidResponse'
p46
sg13
g31
sbag1
(g25
g3
NtRp47
(dp48
g19
Nsg28
Nsg12
I21
sg29
S'kWildcardOriginNotAllowed'
p49
sg13
g31
sbag1
(g25
g3
NtRp50
(dp51
g19
Nsg28
Nsg12
I24
sg29
S'kMissingAllowOriginHeader'
p52
sg13
g31
sbag1
(g25
g3
NtRp53
(dp54
g19
Nsg28
Nsg12
I28
sg29
S'kMultipleAllowOriginValues'
p55
sg13
g31
sbag1
(g25
g3
NtRp56
(dp57
g19
Nsg28
Nsg12
I31
sg29
S'kInvalidAllowOriginValue'
p58
sg13
g31
sbag1
(g25
g3
NtRp59
(dp60
g19
Nsg28
Nsg12
I34
sg29
S'kAllowOriginMismatch'
p61
sg13
g31
sbag1
(g25
g3
NtRp62
(dp63
g19
Nsg28
Nsg12
I38
sg29
S'kInvalidAllowCredentials'
p64
sg13
g31
sbag1
(g25
g3
NtRp65
(dp66
g19
Nsg28
Nsg12
I41
sg29
S'kCorsDisabledScheme'
p67
sg13
g31
sbag1
(g25
g3
NtRp68
(dp69
g19
Nsg28
Nsg12
I45
sg29
S'kPreflightInvalidStatus'
p70
sg13
g31
sbag1
(g25
g3
NtRp71
(dp72
g19
Nsg28
Nsg12
I48
sg29
S'kPreflightDisallowedRedirect'
p73
sg13
g31
sbag1
(g25
g3
NtRp74
(dp75
g19
Nsg28
Nsg12
I52
sg29
S'kPreflightWildcardOriginNotAllowed'
p76
sg13
g31
sbag1
(g25
g3
NtRp77
(dp78
g19
Nsg28
Nsg12
I56
sg29
S'kPreflightMissingAllowOriginHeader'
p79
sg13
g31
sbag1
(g25
g3
NtRp80
(dp81
g19
Nsg28
Nsg12
I60
sg29
S'kPreflightMultipleAllowOriginValues'
p82
sg13
g31
sbag1
(g25
g3
NtRp83
(dp84
g19
Nsg28
Nsg12
I64
sg29
S'kPreflightInvalidAllowOriginValue'
p85
sg13
g31
sbag1
(g25
g3
NtRp86
(dp87
g19
Nsg28
Nsg12
I67
sg29
S'kPreflightAllowOriginMismatch'
p88
sg13
g31
sbag1
(g25
g3
NtRp89
(dp90
g19
Nsg28
Nsg12
I71
sg29
S'kPreflightInvalidAllowCredentials'
p91
sg13
g31
sbag1
(g25
g3
NtRp92
(dp93
g19
Nsg28
Nsg12
I76
sg29
S'kPreflightMissingAllowExternal'
p94
sg13
g31
sbag1
(g25
g3
NtRp95
(dp96
g19
Nsg28
Nsg12
I77
sg29
S'kPreflightInvalidAllowExternal'
p97
sg13
g31
sbag1
(g25
g3
NtRp98
(dp99
g19
Nsg28
Nsg12
I81
sg29
S'kInvalidAllowMethodsPreflightResponse'
p100
sg13
g31
sbag1
(g25
g3
NtRp101
(dp102
g19
Nsg28
Nsg12
I85
sg29
S'kInvalidAllowHeadersPreflightResponse'
p103
sg13
g31
sbag1
(g25
g3
NtRp104
(dp105
g19
Nsg28
Nsg12
I88
sg29
S'kMethodDisallowedByPreflightResponse'
p106
sg13
g31
sbag1
(g25
g3
NtRp107
(dp108
g19
Nsg28
Nsg12
I91
sg29
S'kHeaderDisallowedByPreflightResponse'
p109
sg13
g31
sbag1
(g25
g3
NtRp110
(dp111
g19
Nsg28
Nsg12
I94
sg29
S'kRedirectContainsCredentials'
p112
sg13
g31
sbasg12
I16
sg13
g31
sbsg12
I14
sg29
S'CorsError'
p113
sg13
g31
sbasg12
NsS'module'
p114
g1
(cmojom.parse.ast
Module
p115
g3
NtRp116
(dp117
S'mojom_namespace'
p118
(S'IDENTIFIER'
p119
S'network.mojom'
tp120
sg12
I5
sg19
Nsg13
g31
sbsg13
Nsb.