ccopy_reg
_reconstructor
p1
(cmojom.parse.ast
Mojom
p2
c__builtin__
object
p3
NtRp4
(dp5
S'import_list'
p6
g1
(cmojom.parse.ast
ImportList
p7
g3
NtRp8
(dp9
S'items'
p10
(lp11
sS'lineno'
p12
NsS'filename'
p13
NsbsS'definition_list'
p14
(lp15
g1
(cmojom.parse.ast
Enum
p16
g3
NtRp17
(dp18
S'attribute_list'
p19
NsS'enum_value_list'
p20
g1
(cmojom.parse.ast
EnumValueList
p21
g3
NtRp22
(dp23
g10
(lp24
g1
(cmojom.parse.ast
EnumValue
p25
g3
NtRp26
(dp27
g19
NsS'value'
p28
S'0'
sg12
I8
sS'mojom_name'
p29
S'HASH_ALGO_NONE'
p30
sg13
S'../../services/network/public/mojom/digitally_signed.mojom'
p31
sbag1
(g25
g3
NtRp32
(dp33
g19
Nsg28
S'1'
sg12
I9
sg29
S'HASH_ALGO_MD5'
p34
sg13
g31
sbag1
(g25
g3
NtRp35
(dp36
g19
Nsg28
S'2'
sg12
I10
sg29
S'HASH_ALGO_SHA1'
p37
sg13
g31
sbag1
(g25
g3
NtRp38
(dp39
g19
Nsg28
S'3'
sg12
I11
sg29
S'HASH_ALGO_SHA224'
p40
sg13
g31
sbag1
(g25
g3
NtRp41
(dp42
g19
Nsg28
S'4'
sg12
I12
sg29
S'HASH_ALGO_SHA256'
p43
sg13
g31
sbag1
(g25
g3
NtRp44
(dp45
g19
Nsg28
S'5'
sg12
I13
sg29
S'HASH_ALGO_SHA384'
p46
sg13
g31
sbag1
(g25
g3
NtRp47
(dp48
g19
Nsg28
S'6'
sg12
I14
sg29
S'HASH_ALGO_SHA512'
p49
sg13
g31
sbasg12
I8
sg13
g31
sbsg12
I7
sg29
S'HashAlgorithm'
p50
sg13
g31
sbag1
(g16
g3
NtRp51
(dp52
g19
Nsg20
g1
(g21
g3
NtRp53
(dp54
g10
(lp55
g1
(g25
g3
NtRp56
(dp57
g19
Nsg28
S'0'
sg12
I19
sg29
S'SIG_ALGO_ANONYMOUS'
p58
sg13
g31
sbag1
(g25
g3
NtRp59
(dp60
g19
Nsg28
S'1'
sg12
I20
sg29
S'SIG_ALGO_RSA'
p61
sg13
g31
sbag1
(g25
g3
NtRp62
(dp63
g19
Nsg28
S'2'
sg12
I21
sg29
S'SIG_ALGO_DSA'
p64
sg13
g31
sbag1
(g25
g3
NtRp65
(dp66
g19
Nsg28
S'3'
sg12
I22
sg29
S'SIG_ALGO_ECDSA'
p67
sg13
g31
sbasg12
I19
sg13
g31
sbsg12
I18
sg29
S'SignatureAlgorithm'
p68
sg13
g31
sbag1
(cmojom.parse.ast
Struct
p69
g3
NtRp70
(dp71
S'body'
p72
g1
(cmojom.parse.ast
StructBody
p73
g3
NtRp74
(dp75
g10
(lp76
g1
(cmojom.parse.ast
StructField
p77
g3
NtRp78
(dp79
S'ordinal'
p80
NsS'default_value'
p81
Nsg29
S'hash_algorithm'
p82
sg19
Nsg13
NsS'typename'
p83
S'HashAlgorithm'
p84
sg12
Nsbag1
(g77
g3
NtRp85
(dp86
g80
Nsg81
Nsg29
S'signature_algorithm'
p87
sg19
Nsg13
Nsg83
S'SignatureAlgorithm'
p88
sg12
Nsbag1
(g77
g3
NtRp89
(dp90
g80
Nsg81
Nsg29
S'signature'
p91
sg19
Nsg13
Nsg83
S'uint8[]'
p92
sg12
Nsbasg12
Nsg13
Nsbsg19
Nsg12
Nsg29
S'DigitallySigned'
p93
sg13
Nsbasg12
NsS'module'
p94
g1
(cmojom.parse.ast
Module
p95
g3
NtRp96
(dp97
S'mojom_namespace'
p98
(S'IDENTIFIER'
p99
S'network.mojom'
tp100
sg12
I4
sg19
Nsg13
g31
sbsg13
Nsb.