ccopy_reg
_reconstructor
p1
(cmojom.parse.ast
Mojom
p2
c__builtin__
object
p3
NtRp4
(dp5
S'import_list'
p6
g1
(cmojom.parse.ast
ImportList
p7
g3
NtRp8
(dp9
S'items'
p10
(lp11
sS'lineno'
p12
NsS'filename'
p13
NsbsS'definition_list'
p14
(lp15
g1
(cmojom.parse.ast
Enum
p16
g3
NtRp17
(dp18
S'attribute_list'
p19
NsS'enum_value_list'
p20
g1
(cmojom.parse.ast
EnumValueList
p21
g3
NtRp22
(dp23
g10
(lp24
g1
(cmojom.parse.ast
EnumValue
p25
g3
NtRp26
(dp27
g19
NsS'value'
p28
Nsg12
I13
sS'mojom_name'
p29
S'kSameOrigin'
p30
sg13
S'../../services/network/public/mojom/fetch_api.mojom'
p31
sbag1
(g25
g3
NtRp32
(dp33
g19
Nsg28
Nsg12
I14
sg29
S'kNoCors'
p34
sg13
g31
sbag1
(g25
g3
NtRp35
(dp36
g19
Nsg28
Nsg12
I15
sg29
S'kCors'
p37
sg13
g31
sbag1
(g25
g3
NtRp38
(dp39
g19
Nsg28
Nsg12
I16
sg29
S'kCorsWithForcedPreflight'
p40
sg13
g31
sbag1
(g25
g3
NtRp41
(dp42
g19
Nsg28
Nsg12
I17
sg29
S'kNavigate'
p43
sg13
g31
sbasg12
I13
sg13
g31
sbsg12
I12
sg29
S'FetchRequestMode'
p44
sg13
g31
sbag1
(g16
g3
NtRp45
(dp46
g19
Nsg20
g1
(g21
g3
NtRp47
(dp48
g10
(lp49
g1
(g25
g3
NtRp50
(dp51
g19
Nsg28
Nsg12
I24
sg29
S'kFollow'
p52
sg13
g31
sbag1
(g25
g3
NtRp53
(dp54
g19
Nsg28
Nsg12
I25
sg29
S'kError'
p55
sg13
g31
sbag1
(g25
g3
NtRp56
(dp57
g19
Nsg28
Nsg12
I26
sg29
S'kManual'
p58
sg13
g31
sbasg12
I24
sg13
g31
sbsg12
I23
sg29
S'FetchRedirectMode'
p59
sg13
g31
sbag1
(g16
g3
NtRp60
(dp61
g19
Nsg20
g1
(g21
g3
NtRp62
(dp63
g10
(lp64
g1
(g25
g3
NtRp65
(dp66
g19
Nsg28
Nsg12
I32
sg29
S'kOmit'
p67
sg13
g31
sbag1
(g25
g3
NtRp68
(dp69
g19
Nsg28
Nsg12
I33
sg29
S'kSameOrigin'
p70
sg13
g31
sbag1
(g25
g3
NtRp71
(dp72
g19
Nsg28
Nsg12
I34
sg29
S'kInclude'
p73
sg13
g31
sbasg12
I32
sg13
g31
sbsg12
I31
sg29
S'FetchCredentialsMode'
p74
sg13
g31
sbag1
(g16
g3
NtRp75
(dp76
g19
Nsg20
g1
(g21
g3
NtRp77
(dp78
g10
(lp79
g1
(g25
g3
NtRp80
(dp81
g19
Nsg28
Nsg12
I43
sg29
S'kBasic'
p82
sg13
g31
sbag1
(g25
g3
NtRp83
(dp84
g19
Nsg28
Nsg12
I44
sg29
S'kCors'
p85
sg13
g31
sbag1
(g25
g3
NtRp86
(dp87
g19
Nsg28
Nsg12
I45
sg29
S'kDefault'
p88
sg13
g31
sbag1
(g25
g3
NtRp89
(dp90
g19
Nsg28
Nsg12
I46
sg29
S'kError'
p91
sg13
g31
sbag1
(g25
g3
NtRp92
(dp93
g19
Nsg28
Nsg12
I47
sg29
S'kOpaque'
p94
sg13
g31
sbag1
(g25
g3
NtRp95
(dp96
g19
Nsg28
Nsg12
I48
sg29
S'kOpaqueRedirect'
p97
sg13
g31
sbasg12
I43
sg13
g31
sbsg12
I42
sg29
S'FetchResponseType'
p98
sg13
g31
sbag1
(g16
g3
NtRp99
(dp100
g19
Nsg20
g1
(g21
g3
NtRp101
(dp102
g10
(lp103
g1
(g25
g3
NtRp104
(dp105
g19
Nsg28
Nsg12
I58
sg29
S'kUnspecified'
p106
sg13
g31
sbag1
(g25
g3
NtRp107
(dp108
g19
Nsg28
Nsg12
I60
sg29
S'kNetwork'
p109
sg13
g31
sbag1
(g25
g3
NtRp110
(dp111
g19
Nsg28
Nsg12
I63
sg29
S'kHttpCache'
p112
sg13
g31
sbag1
(g25
g3
NtRp113
(dp114
g19
Nsg28
Nsg12
I66
sg29
S'kCacheStorage'
p115
sg13
g31
sbasg12
I58
sg13
g31
sbsg12
I55
sg29
S'FetchResponseSource'
p116
sg13
g31
sbasg12
NsS'module'
p117
g1
(cmojom.parse.ast
Module
p118
g3
NtRp119
(dp120
S'mojom_namespace'
p121
(S'IDENTIFIER'
p122
S'network.mojom'
tp123
sg12
I5
sg19
Nsg13
g31
sbsg13
Nsb.