ccopy_reg
_reconstructor
p1
(cmojom.parse.ast
Mojom
p2
c__builtin__
object
p3
NtRp4
(dp5
S'import_list'
p6
g1
(cmojom.parse.ast
ImportList
p7
g3
NtRp8
(dp9
S'items'
p10
(lp11
sS'lineno'
p12
NsS'filename'
p13
NsbsS'definition_list'
p14
(lp15
g1
(cmojom.parse.ast
Struct
p16
g3
NtRp17
(dp18
S'body'
p19
g1
(cmojom.parse.ast
StructBody
p20
g3
NtRp21
(dp22
g10
(lp23
g1
(cmojom.parse.ast
StructField
p24
g3
NtRp25
(dp26
S'ordinal'
p27
NsS'default_value'
p28
NsS'mojom_name'
p29
S'key'
p30
sS'attribute_list'
p31
Nsg13
NsS'typename'
p32
S'string'
p33
sg12
Nsbag1
(g24
g3
NtRp34
(dp35
g27
Nsg28
Nsg29
S'value'
p36
sg31
Nsg13
Nsg32
S'string'
p37
sg12
Nsbasg12
Nsg13
Nsbsg31
Nsg12
Nsg29
S'HttpRequestHeaderKeyValuePair'
p38
sg13
Nsbag1
(g16
g3
NtRp39
(dp40
g19
g1
(g20
g3
NtRp41
(dp42
g10
(lp43
g1
(g24
g3
NtRp44
(dp45
g27
Nsg28
Nsg29
S'headers'
p46
sg31
Nsg13
Nsg32
S'HttpRequestHeaderKeyValuePair[]'
p47
sg12
Nsbasg12
Nsg13
Nsbsg31
Nsg12
Nsg29
S'HttpRequestHeaders'
p48
sg13
Nsbasg12
NsS'module'
p49
g1
(cmojom.parse.ast
Module
p50
g3
NtRp51
(dp52
S'mojom_namespace'
p53
(S'IDENTIFIER'
p54
S'network.mojom'
tp55
sg12
I5
sg31
Nsg13
S'../../services/network/public/mojom/http_request_headers.mojom'
p56
sbsg13
Nsb.