ccopy_reg
_reconstructor
p1
(cmojom.parse.ast
Mojom
p2
c__builtin__
object
p3
NtRp4
(dp5
S'import_list'
p6
g1
(cmojom.parse.ast
ImportList
p7
g3
NtRp8
(dp9
S'items'
p10
(lp11
g1
(cmojom.parse.ast
Import
p12
g3
NtRp13
(dp14
S'attribute_list'
p15
NsS'lineno'
p16
I7
sS'import_filename'
p17
S'services/network/public/mojom/ip_address.mojom'
p18
sS'filename'
p19
S'../../services/network/public/mojom/mdns_responder.mojom'
p20
sbasg16
I7
sg19
g20
sbsS'definition_list'
p21
(lp22
g1
(cmojom.parse.ast
Interface
p23
g3
NtRp24
(dp25
S'body'
p26
g1
(cmojom.parse.ast
InterfaceBody
p27
g3
NtRp28
(dp29
g10
(lp30
g1
(cmojom.parse.ast
Method
p31
g3
NtRp32
(dp33
S'ordinal'
p34
NsS'mojom_name'
p35
S'CreateNameForAddress'
p36
sS'parameter_list'
p37
g1
(cmojom.parse.ast
ParameterList
p38
g3
NtRp39
(dp40
g10
(lp41
g1
(cmojom.parse.ast
Parameter
p42
g3
NtRp43
(dp44
g34
Nsg35
S'address'
p45
sg15
Nsg19
g20
sS'typename'
p46
S'IPAddress'
p47
sg16
I34
sbasg16
I34
sg19
g20
sbsg15
Nsg19
Nsg16
NsS'response_parameter_list'
p48
g1
(g38
g3
NtRp49
(dp50
g10
(lp51
g1
(g42
g3
NtRp52
(dp53
g34
Nsg35
S'name'
p54
sg15
Nsg19
g20
sg46
S'string'
p55
sg16
I35
sbag1
(g42
g3
NtRp56
(dp57
g34
Nsg35
S'announcement_scheduled'
p58
sg15
Nsg19
g20
sg46
S'bool'
p59
sg16
I35
sbasg16
I35
sg19
g20
sbsbag1
(g31
g3
NtRp60
(dp61
g34
Nsg35
S'RemoveNameForAddress'
p62
sg37
g1
(g38
g3
NtRp63
(dp64
g10
(lp65
g1
(g42
g3
NtRp66
(dp67
g34
Nsg35
S'address'
p68
sg15
Nsg19
g20
sg46
S'IPAddress'
p69
sg16
I48
sbasg16
I48
sg19
g20
sbsg15
Nsg19
Nsg16
Nsg48
g1
(g38
g3
NtRp70
(dp71
g10
(lp72
g1
(g42
g3
NtRp73
(dp74
g34
Nsg35
S'removed'
p75
sg15
Nsg19
g20
sg46
S'bool'
p76
sg16
I49
sbag1
(g42
g3
NtRp77
(dp78
g34
Nsg35
S'goodbye_scheduled'
p79
sg15
Nsg19
g20
sg46
S'bool'
p80
sg16
I49
sbasg16
I49
sg19
g20
sbsbasg16
Nsg19
Nsbsg15
Nsg16
Nsg35
S'MdnsResponder'
p81
sg19
Nsbasg16
NsS'module'
p82
g1
(cmojom.parse.ast
Module
p83
g3
NtRp84
(dp85
S'mojom_namespace'
p86
(S'IDENTIFIER'
p87
S'network.mojom'
tp88
sg16
I5
sg15
Nsg19
g20
sbsg19
Nsb.