ccopy_reg
_reconstructor
p1
(cmojom.parse.ast
Mojom
p2
c__builtin__
object
p3
NtRp4
(dp5
S'import_list'
p6
g1
(cmojom.parse.ast
ImportList
p7
g3
NtRp8
(dp9
S'items'
p10
(lp11
sS'lineno'
p12
NsS'filename'
p13
NsbsS'definition_list'
p14
(lp15
g1
(cmojom.parse.ast
Enum
p16
g3
NtRp17
(dp18
S'attribute_list'
p19
NsS'enum_value_list'
p20
g1
(cmojom.parse.ast
EnumValueList
p21
g3
NtRp22
(dp23
g10
(lp24
g1
(cmojom.parse.ast
EnumValue
p25
g3
NtRp26
(dp27
g19
NsS'value'
p28
S'0'
sg12
I9
sS'mojom_name'
p29
S'CONNECTION_UNKNOWN'
p30
sg13
S'../../services/network/public/mojom/network_change_manager.mojom'
p31
sbag1
(g25
g3
NtRp32
(dp33
g19
Nsg28
S'1'
sg12
I11
sg29
S'CONNECTION_ETHERNET'
p34
sg13
g31
sbag1
(g25
g3
NtRp35
(dp36
g19
Nsg28
S'2'
sg12
I12
sg29
S'CONNECTION_WIFI'
p37
sg13
g31
sbag1
(g25
g3
NtRp38
(dp39
g19
Nsg28
S'3'
sg12
I13
sg29
S'CONNECTION_2G'
p40
sg13
g31
sbag1
(g25
g3
NtRp41
(dp42
g19
Nsg28
S'4'
sg12
I14
sg29
S'CONNECTION_3G'
p43
sg13
g31
sbag1
(g25
g3
NtRp44
(dp45
g19
Nsg28
S'5'
sg12
I15
sg29
S'CONNECTION_4G'
p46
sg13
g31
sbag1
(g25
g3
NtRp47
(dp48
g19
Nsg28
S'6'
sg12
I16
sg29
S'CONNECTION_NONE'
p49
sg13
g31
sbag1
(g25
g3
NtRp50
(dp51
g19
Nsg28
S'7'
sg12
I17
sg29
S'CONNECTION_BLUETOOTH'
p52
sg13
g31
sbag1
(g25
g3
NtRp53
(dp54
g19
Nsg28
(S'IDENTIFIER'
p55
S'CONNECTION_BLUETOOTH'
tp56
sg12
I18
sg29
S'CONNECTION_LAST'
p57
sg13
g31
sbasg12
I9
sg13
g31
sbsg12
I8
sg29
S'ConnectionType'
p58
sg13
g31
sbag1
(g16
g3
NtRp59
(dp60
g19
Nsg20
g1
(g21
g3
NtRp61
(dp62
g10
(lp63
g1
(g25
g3
NtRp64
(dp65
g19
Nsg28
S'0'
sg12
I23
sg29
S'SUBTYPE_UNKNOWN'
p66
sg13
g31
sbag1
(g25
g3
NtRp67
(dp68
g19
Nsg28
Nsg12
I24
sg29
S'SUBTYPE_NONE'
p69
sg13
g31
sbag1
(g25
g3
NtRp70
(dp71
g19
Nsg28
Nsg12
I25
sg29
S'SUBTYPE_OTHER'
p72
sg13
g31
sbag1
(g25
g3
NtRp73
(dp74
g19
Nsg28
Nsg12
I26
sg29
S'SUBTYPE_GSM'
p75
sg13
g31
sbag1
(g25
g3
NtRp76
(dp77
g19
Nsg28
Nsg12
I27
sg29
S'SUBTYPE_IDEN'
p78
sg13
g31
sbag1
(g25
g3
NtRp79
(dp80
g19
Nsg28
Nsg12
I28
sg29
S'SUBTYPE_CDMA'
p81
sg13
g31
sbag1
(g25
g3
NtRp82
(dp83
g19
Nsg28
Nsg12
I29
sg29
S'SUBTYPE_1XRTT'
p84
sg13
g31
sbag1
(g25
g3
NtRp85
(dp86
g19
Nsg28
Nsg12
I30
sg29
S'SUBTYPE_GPRS'
p87
sg13
g31
sbag1
(g25
g3
NtRp88
(dp89
g19
Nsg28
Nsg12
I31
sg29
S'SUBTYPE_EDGE'
p90
sg13
g31
sbag1
(g25
g3
NtRp91
(dp92
g19
Nsg28
Nsg12
I32
sg29
S'SUBTYPE_UMTS'
p93
sg13
g31
sbag1
(g25
g3
NtRp94
(dp95
g19
Nsg28
Nsg12
I33
sg29
S'SUBTYPE_EVDO_REV_0'
p96
sg13
g31
sbag1
(g25
g3
NtRp97
(dp98
g19
Nsg28
Nsg12
I34
sg29
S'SUBTYPE_EVDO_REV_A'
p99
sg13
g31
sbag1
(g25
g3
NtRp100
(dp101
g19
Nsg28
Nsg12
I35
sg29
S'SUBTYPE_HSPA'
p102
sg13
g31
sbag1
(g25
g3
NtRp103
(dp104
g19
Nsg28
Nsg12
I36
sg29
S'SUBTYPE_EVDO_REV_B'
p105
sg13
g31
sbag1
(g25
g3
NtRp106
(dp107
g19
Nsg28
Nsg12
I37
sg29
S'SUBTYPE_HSDPA'
p108
sg13
g31
sbag1
(g25
g3
NtRp109
(dp110
g19
Nsg28
Nsg12
I38
sg29
S'SUBTYPE_HSUPA'
p111
sg13
g31
sbag1
(g25
g3
NtRp112
(dp113
g19
Nsg28
Nsg12
I39
sg29
S'SUBTYPE_EHRPD'
p114
sg13
g31
sbag1
(g25
g3
NtRp115
(dp116
g19
Nsg28
Nsg12
I40
sg29
S'SUBTYPE_HSPAP'
p117
sg13
g31
sbag1
(g25
g3
NtRp118
(dp119
g19
Nsg28
Nsg12
I41
sg29
S'SUBTYPE_LTE'
p120
sg13
g31
sbag1
(g25
g3
NtRp121
(dp122
g19
Nsg28
Nsg12
I42
sg29
S'SUBTYPE_LTE_ADVANCED'
p123
sg13
g31
sbag1
(g25
g3
NtRp124
(dp125
g19
Nsg28
Nsg12
I43
sg29
S'SUBTYPE_BLUETOOTH_1_2'
p126
sg13
g31
sbag1
(g25
g3
NtRp127
(dp128
g19
Nsg28
Nsg12
I44
sg29
S'SUBTYPE_BLUETOOTH_2_1'
p129
sg13
g31
sbag1
(g25
g3
NtRp130
(dp131
g19
Nsg28
Nsg12
I45
sg29
S'SUBTYPE_BLUETOOTH_3_0'
p132
sg13
g31
sbag1
(g25
g3
NtRp133
(dp134
g19
Nsg28
Nsg12
I46
sg29
S'SUBTYPE_BLUETOOTH_4_0'
p135
sg13
g31
sbag1
(g25
g3
NtRp136
(dp137
g19
Nsg28
Nsg12
I47
sg29
S'SUBTYPE_ETHERNET'
p138
sg13
g31
sbag1
(g25
g3
NtRp139
(dp140
g19
Nsg28
Nsg12
I48
sg29
S'SUBTYPE_FAST_ETHERNET'
p141
sg13
g31
sbag1
(g25
g3
NtRp142
(dp143
g19
Nsg28
Nsg12
I49
sg29
S'SUBTYPE_GIGABIT_ETHERNET'
p144
sg13
g31
sbag1
(g25
g3
NtRp145
(dp146
g19
Nsg28
Nsg12
I50
sg29
S'SUBTYPE_10_GIGABIT_ETHERNET'
p147
sg13
g31
sbag1
(g25
g3
NtRp148
(dp149
g19
Nsg28
Nsg12
I51
sg29
S'SUBTYPE_WIFI_B'
p150
sg13
g31
sbag1
(g25
g3
NtRp151
(dp152
g19
Nsg28
Nsg12
I52
sg29
S'SUBTYPE_WIFI_G'
p153
sg13
g31
sbag1
(g25
g3
NtRp154
(dp155
g19
Nsg28
Nsg12
I53
sg29
S'SUBTYPE_WIFI_N'
p156
sg13
g31
sbag1
(g25
g3
NtRp157
(dp158
g19
Nsg28
Nsg12
I54
sg29
S'SUBTYPE_WIFI_AC'
p159
sg13
g31
sbag1
(g25
g3
NtRp160
(dp161
g19
Nsg28
Nsg12
I55
sg29
S'SUBTYPE_WIFI_AD'
p162
sg13
g31
sbag1
(g25
g3
NtRp163
(dp164
g19
Nsg28
(g55
S'SUBTYPE_WIFI_AD'
tp165
sg12
I56
sg29
S'SUBTYPE_LAST'
p166
sg13
g31
sbasg12
I23
sg13
g31
sbsg12
I22
sg29
S'ConnectionSubtype'
p167
sg13
g31
sbag1
(cmojom.parse.ast
Interface
p168
g3
NtRp169
(dp170
S'body'
p171
g1
(cmojom.parse.ast
InterfaceBody
p172
g3
NtRp173
(dp174
g10
(lp175
g1
(cmojom.parse.ast
Method
p176
g3
NtRp177
(dp178
S'ordinal'
p179
Nsg29
S'OnInitialConnectionType'
p180
sS'parameter_list'
p181
g1
(cmojom.parse.ast
ParameterList
p182
g3
NtRp183
(dp184
g10
(lp185
g1
(cmojom.parse.ast
Parameter
p186
g3
NtRp187
(dp188
g179
Nsg29
S'type'
p189
sg19
Nsg13
g31
sS'typename'
p190
S'ConnectionType'
p191
sg12
I63
sbasg12
I63
sg13
g31
sbsg19
Nsg13
Nsg12
NsS'response_parameter_list'
p192
Nsbag1
(g176
g3
NtRp193
(dp194
g179
Nsg29
S'OnNetworkChanged'
p195
sg181
g1
(g182
g3
NtRp196
(dp197
g10
(lp198
g1
(g186
g3
NtRp199
(dp200
g179
Nsg29
S'type'
p201
sg19
Nsg13
g31
sg190
S'ConnectionType'
p202
sg12
I81
sbasg12
I81
sg13
g31
sbsg19
Nsg13
Nsg12
Nsg192
Nsbasg12
Nsg13
Nsbsg19
Nsg12
Nsg29
S'NetworkChangeManagerClient'
p203
sg13
Nsbag1
(g168
g3
NtRp204
(dp205
g171
g1
(g172
g3
NtRp206
(dp207
g10
(lp208
g1
(g176
g3
NtRp209
(dp210
g179
Nsg29
S'RequestNotifications'
p211
sg181
g1
(g182
g3
NtRp212
(dp213
g10
(lp214
g1
(g186
g3
NtRp215
(dp216
g179
Nsg29
S'client_ptr'
p217
sg19
Nsg13
g31
sg190
S'NetworkChangeManagerClient'
p218
sg12
I87
sbasg12
I87
sg13
g31
sbsg19
Nsg13
Nsg12
Nsg192
Nsbasg12
Nsg13
Nsbsg19
Nsg12
Nsg29
S'NetworkChangeManager'
p219
sg13
Nsbasg12
NsS'module'
p220
g1
(cmojom.parse.ast
Module
p221
g3
NtRp222
(dp223
S'mojom_namespace'
p224
(g55
S'network.mojom'
tp225
sg12
I5
sg19
Nsg13
g31
sbsg13
Nsb.