ccopy_reg
_reconstructor
p1
(cmojom.parse.ast
Mojom
p2
c__builtin__
object
p3
NtRp4
(dp5
S'import_list'
p6
g1
(cmojom.parse.ast
ImportList
p7
g3
NtRp8
(dp9
S'items'
p10
(lp11
sS'lineno'
p12
NsS'filename'
p13
NsbsS'definition_list'
p14
(lp15
g1
(cmojom.parse.ast
Enum
p16
g3
NtRp17
(dp18
S'attribute_list'
p19
g1
(cmojom.parse.ast
AttributeList
p20
g3
NtRp21
(dp22
g10
(lp23
g1
(cmojom.parse.ast
Attribute
p24
g3
NtRp25
(dp26
S'value'
p27
I01
sg12
I11
sS'key'
p28
S'Native'
p29
sg13
S'../../services/network/public/mojom/network_types.mojom'
p30
sbasg12
I11
sg13
g30
sbsS'enum_value_list'
p31
Nsg12
I12
sS'mojom_name'
p32
S'EffectiveConnectionType'
p33
sg13
g30
sbasg12
NsS'module'
p34
g1
(cmojom.parse.ast
Module
p35
g3
NtRp36
(dp37
S'mojom_namespace'
p38
(S'IDENTIFIER'
p39
S'network.mojom'
tp40
sg12
I5
sg19
Nsg13
g30
sbsg13
Nsb.