ccopy_reg
_reconstructor
p1
(cmojom.parse.ast
Mojom
p2
c__builtin__
object
p3
NtRp4
(dp5
S'import_list'
p6
g1
(cmojom.parse.ast
ImportList
p7
g3
NtRp8
(dp9
S'items'
p10
(lp11
g1
(cmojom.parse.ast
Import
p12
g3
NtRp13
(dp14
S'attribute_list'
p15
NsS'lineno'
p16
I7
sS'import_filename'
p17
S'services/network/public/mojom/ip_endpoint.mojom'
p18
sS'filename'
p19
S'../../services/network/public/mojom/proxy_resolving_socket.mojom'
p20
sbag1
(g12
g3
NtRp21
(dp22
g15
Nsg16
I8
sg17
S'services/network/public/mojom/mutable_network_traffic_annotation_tag.mojom'
p23
sg19
g20
sbag1
(g12
g3
NtRp24
(dp25
g15
Nsg16
I9
sg17
S'services/network/public/mojom/network_param.mojom'
p26
sg19
g20
sbag1
(g12
g3
NtRp27
(dp28
g15
Nsg16
I10
sg17
S'services/network/public/mojom/ssl_config.mojom'
p29
sg19
g20
sbag1
(g12
g3
NtRp30
(dp31
g15
Nsg16
I11
sg17
S'services/network/public/mojom/tcp_socket.mojom'
p32
sg19
g20
sbag1
(g12
g3
NtRp33
(dp34
g15
Nsg16
I12
sg17
S'services/network/public/mojom/tls_socket.mojom'
p35
sg19
g20
sbag1
(g12
g3
NtRp36
(dp37
g15
Nsg16
I13
sg17
S'url/mojom/url.mojom'
p38
sg19
g20
sbasg16
I7
sg19
g20
sbsS'definition_list'
p39
(lp40
g1
(cmojom.parse.ast
Interface
p41
g3
NtRp42
(dp43
S'body'
p44
g1
(cmojom.parse.ast
InterfaceBody
p45
g3
NtRp46
(dp47
g10
(lp48
g1
(cmojom.parse.ast
Method
p49
g3
NtRp50
(dp51
S'ordinal'
p52
NsS'mojom_name'
p53
S'UpgradeToTLS'
p54
sS'parameter_list'
p55
g1
(cmojom.parse.ast
ParameterList
p56
g3
NtRp57
(dp58
g10
(lp59
g1
(cmojom.parse.ast
Parameter
p60
g3
NtRp61
(dp62
g52
Nsg53
S'host_port_pair'
p63
sg15
Nsg19
g20
sS'typename'
p64
S'HostPortPair'
p65
sg16
I30
sbag1
(g60
g3
NtRp66
(dp67
g52
Nsg53
S'traffic_annotation'
p68
sg15
Nsg19
g20
sg64
S'MutableNetworkTrafficAnnotationTag'
p69
sg16
I31
sbag1
(g60
g3
NtRp70
(dp71
g52
Nsg53
S'request'
p72
sg15
Nsg19
g20
sg64
S'TLSClientSocket&'
p73
sg16
I32
sbag1
(g60
g3
NtRp74
(dp75
g52
Nsg53
S'observer'
p76
sg15
Nsg19
g20
sg64
S'SocketObserver?'
p77
sg16
I33
sbasg16
I30
sg19
g20
sbsg15
Nsg19
Nsg16
NsS'response_parameter_list'
p78
g1
(g56
g3
NtRp79
(dp80
g10
(lp81
g1
(g60
g3
NtRp82
(dp83
g52
Nsg53
S'net_error'
p84
sg15
Nsg19
g20
sg64
S'int32'
p85
sg16
I34
sbag1
(g60
g3
NtRp86
(dp87
g52
Nsg53
S'receive_stream'
p88
sg15
Nsg19
g20
sg64
S'handle<data_pipe_consumer>?'
p89
sg16
I35
sbag1
(g60
g3
NtRp90
(dp91
g52
Nsg53
S'send_stream'
p92
sg15
Nsg19
g20
sg64
S'handle<data_pipe_producer>?'
p93
sg16
I36
sbasg16
I34
sg19
g20
sbsbasg16
Nsg19
Nsbsg15
Nsg16
Nsg53
S'ProxyResolvingSocket'
p94
sg19
Nsbag1
(cmojom.parse.ast
Struct
p95
g3
NtRp96
(dp97
g44
g1
(cmojom.parse.ast
StructBody
p98
g3
NtRp99
(dp100
g10
(lp101
g1
(cmojom.parse.ast
StructField
p102
g3
NtRp103
(dp104
g52
NsS'default_value'
p105
S'false'
p106
sg53
S'use_tls'
p107
sg15
Nsg19
Nsg64
S'bool'
p108
sg16
Nsbag1
(g102
g3
NtRp109
(dp110
g52
Nsg105
S'false'
p111
sg53
S'fake_tls_handshake'
p112
sg15
Nsg19
Nsg64
S'bool'
p113
sg16
Nsbasg16
Nsg19
Nsbsg15
Nsg16
Nsg53
S'ProxyResolvingSocketOptions'
p114
sg19
Nsbag1
(g41
g3
NtRp115
(dp116
g44
g1
(g45
g3
NtRp117
(dp118
g10
(lp119
g1
(g49
g3
NtRp120
(dp121
g52
Nsg53
S'CreateProxyResolvingSocket'
p122
sg55
g1
(g56
g3
NtRp123
(dp124
g10
(lp125
g1
(g60
g3
NtRp126
(dp127
g52
Nsg53
S'url'
p128
sg15
Nsg19
g20
sg64
S'url.mojom.Url'
p129
sg16
I67
sbag1
(g60
g3
NtRp130
(dp131
g52
Nsg53
S'options'
p132
sg15
Nsg19
g20
sg64
S'ProxyResolvingSocketOptions?'
p133
sg16
I68
sbag1
(g60
g3
NtRp134
(dp135
g52
Nsg53
S'traffic_annotation'
p136
sg15
Nsg19
g20
sg64
S'MutableNetworkTrafficAnnotationTag'
p137
sg16
I69
sbag1
(g60
g3
NtRp138
(dp139
g52
Nsg53
S'socket'
p140
sg15
Nsg19
g20
sg64
S'ProxyResolvingSocket&'
p141
sg16
I70
sbag1
(g60
g3
NtRp142
(dp143
g52
Nsg53
S'observer'
p144
sg15
Nsg19
g20
sg64
S'SocketObserver?'
p145
sg16
I71
sbasg16
I67
sg19
g20
sbsg15
Nsg19
Nsg16
Nsg78
g1
(g56
g3
NtRp146
(dp147
g10
(lp148
g1
(g60
g3
NtRp149
(dp150
g52
Nsg53
S'result'
p151
sg15
Nsg19
g20
sg64
S'int32'
p152
sg16
I72
sbag1
(g60
g3
NtRp153
(dp154
g52
Nsg53
S'local_addr'
p155
sg15
Nsg19
g20
sg64
S'network.mojom.IPEndPoint?'
p156
sg16
I73
sbag1
(g60
g3
NtRp157
(dp158
g52
Nsg53
S'peer_addr'
p159
sg15
Nsg19
g20
sg64
S'network.mojom.IPEndPoint?'
p160
sg16
I74
sbag1
(g60
g3
NtRp161
(dp162
g52
Nsg53
S'receive_stream'
p163
sg15
Nsg19
g20
sg64
S'handle<data_pipe_consumer>?'
p164
sg16
I75
sbag1
(g60
g3
NtRp165
(dp166
g52
Nsg53
S'send_stream'
p167
sg15
Nsg19
g20
sg64
S'handle<data_pipe_producer>?'
p168
sg16
I76
sbasg16
I72
sg19
g20
sbsbasg16
Nsg19
Nsbsg15
Nsg16
Nsg53
S'ProxyResolvingSocketFactory'
p169
sg19
Nsbasg16
NsS'module'
p170
g1
(cmojom.parse.ast
Module
p171
g3
NtRp172
(dp173
S'mojom_namespace'
p174
(S'IDENTIFIER'
p175
S'network.mojom'
tp176
sg16
I5
sg15
Nsg19
g20
sbsg19
Nsb.