ccopy_reg
_reconstructor
p1
(cmojom.parse.ast
Mojom
p2
c__builtin__
object
p3
NtRp4
(dp5
S'import_list'
p6
g1
(cmojom.parse.ast
ImportList
p7
g3
NtRp8
(dp9
S'items'
p10
(lp11
g1
(cmojom.parse.ast
Import
p12
g3
NtRp13
(dp14
S'attribute_list'
p15
NsS'lineno'
p16
I6
sS'import_filename'
p17
S'mojo/public/mojom/base/time.mojom'
p18
sS'filename'
p19
S'../../services/network/public/mojom/signed_tree_head.mojom'
p20
sbag1
(g12
g3
NtRp21
(dp22
g15
Nsg16
I7
sg17
S'services/network/public/mojom/digitally_signed.mojom'
p23
sg19
g20
sbasg16
I6
sg19
g20
sbsS'definition_list'
p24
(lp25
g1
(cmojom.parse.ast
Enum
p26
g3
NtRp27
(dp28
g15
NsS'enum_value_list'
p29
g1
(cmojom.parse.ast
EnumValueList
p30
g3
NtRp31
(dp32
g10
(lp33
g1
(cmojom.parse.ast
EnumValue
p34
g3
NtRp35
(dp36
g15
NsS'value'
p37
S'0'
sg16
I12
sS'mojom_name'
p38
S'V1'
p39
sg19
g20
sbasg16
I12
sg19
g20
sbsg16
I10
sg38
S'SignedTreeHeadVersion'
p40
sg19
g20
sbag1
(cmojom.parse.ast
Struct
p41
g3
NtRp42
(dp43
S'body'
p44
g1
(cmojom.parse.ast
StructBody
p45
g3
NtRp46
(dp47
g10
(lp48
g1
(cmojom.parse.ast
StructField
p49
g3
NtRp50
(dp51
S'ordinal'
p52
NsS'default_value'
p53
Nsg38
S'version'
p54
sg15
Nsg19
NsS'typename'
p55
S'SignedTreeHeadVersion'
p56
sg16
Nsbag1
(g49
g3
NtRp57
(dp58
g52
Nsg53
Nsg38
S'timestamp'
p59
sg15
Nsg19
Nsg55
S'mojo_base.mojom.Time'
p60
sg16
Nsbag1
(g49
g3
NtRp61
(dp62
g52
Nsg53
Nsg38
S'tree_size'
p63
sg15
Nsg19
Nsg55
S'uint64'
p64
sg16
Nsbag1
(g49
g3
NtRp65
(dp66
g52
Nsg53
Nsg38
S'sha256_root_hash'
p67
sg15
Nsg19
Nsg55
S'uint8[32]'
p68
sg16
Nsbag1
(g49
g3
NtRp69
(dp70
g52
Nsg53
Nsg38
S'signature'
p71
sg15
Nsg19
Nsg55
S'DigitallySigned'
p72
sg16
Nsbag1
(g49
g3
NtRp73
(dp74
g52
Nsg53
Nsg38
S'log_id'
p75
sg15
Nsg19
Nsg55
S'string'
p76
sg16
Nsbasg16
Nsg19
Nsbsg15
Nsg16
Nsg38
S'SignedTreeHead'
p77
sg19
Nsbasg16
NsS'module'
p78
g1
(cmojom.parse.ast
Module
p79
g3
NtRp80
(dp81
S'mojom_namespace'
p82
(S'IDENTIFIER'
p83
S'network.mojom'
tp84
sg16
I4
sg15
Nsg19
g20
sbsg19
Nsb.