ccopy_reg
_reconstructor
p1
(cmojom.parse.ast
Mojom
p2
c__builtin__
object
p3
NtRp4
(dp5
S'import_list'
p6
g1
(cmojom.parse.ast
ImportList
p7
g3
NtRp8
(dp9
S'items'
p10
(lp11
g1
(cmojom.parse.ast
Import
p12
g3
NtRp13
(dp14
S'attribute_list'
p15
NsS'lineno'
p16
I7
sS'import_filename'
p17
S'mojo/public/mojom/base/unguessable_token.mojom'
p18
sS'filename'
p19
S'../../services/media_session/public/mojom/audio_focus.mojom'
p20
sbag1
(g12
g3
NtRp21
(dp22
g15
Nsg16
I8
sg17
S'services/media_session/public/mojom/media_session.mojom'
p23
sg19
g20
sbasg16
I7
sg19
g20
sbsS'definition_list'
p24
(lp25
g1
(cmojom.parse.ast
Enum
p26
g3
NtRp27
(dp28
g15
g1
(cmojom.parse.ast
AttributeList
p29
g3
NtRp30
(dp31
g10
(lp32
g1
(cmojom.parse.ast
Attribute
p33
g3
NtRp34
(dp35
S'value'
p36
I01
sg16
I13
sS'key'
p37
S'Extensible'
p38
sg19
g20
sbasg16
I13
sg19
g20
sbsS'enum_value_list'
p39
g1
(cmojom.parse.ast
EnumValueList
p40
g3
NtRp41
(dp42
g10
(lp43
g1
(cmojom.parse.ast
EnumValue
p44
g3
NtRp45
(dp46
g15
Nsg36
Nsg16
I17
sS'mojom_name'
p47
S'kDefault'
p48
sg19
g20
sbag1
(g44
g3
NtRp49
(dp50
g15
Nsg36
Nsg16
I21
sg47
S'kNone'
p51
sg19
g20
sbag1
(g44
g3
NtRp52
(dp53
g15
Nsg36
Nsg16
I27
sg47
S'kSingleGroup'
p54
sg19
g20
sbag1
(g44
g3
NtRp55
(dp56
g15
Nsg36
Nsg16
I31
sg47
S'kSingleSession'
p57
sg19
g20
sbasg16
I17
sg19
g20
sbsg16
I14
sg47
S'EnforcementMode'
p58
sg19
g20
sbag1
(g26
g3
NtRp59
(dp60
g15
g1
(g29
g3
NtRp61
(dp62
g10
(lp63
g1
(g33
g3
NtRp64
(dp65
g36
I01
sg16
I35
sg37
S'Extensible'
p66
sg19
g20
sbasg16
I35
sg19
g20
sbsg39
g1
(g40
g3
NtRp67
(dp68
g10
(lp69
g1
(g44
g3
NtRp70
(dp71
g15
Nsg36
Nsg16
I40
sg47
S'kGain'
p72
sg19
g20
sbag1
(g44
g3
NtRp73
(dp74
g15
Nsg36
Nsg16
I45
sg47
S'kGainTransientMayDuck'
p75
sg19
g20
sbag1
(g44
g3
NtRp76
(dp77
g15
Nsg36
Nsg16
I49
sg47
S'kGainTransient'
p78
sg19
g20
sbag1
(g44
g3
NtRp79
(dp80
g15
Nsg36
Nsg16
I53
sg47
S'kAmbient'
p81
sg19
g20
sbasg16
I40
sg19
g20
sbsg16
I36
sg47
S'AudioFocusType'
p82
sg19
g20
sbag1
(cmojom.parse.ast
Struct
p83
g3
NtRp84
(dp85
S'body'
p86
g1
(cmojom.parse.ast
StructBody
p87
g3
NtRp88
(dp89
g10
(lp90
g1
(cmojom.parse.ast
StructField
p91
g3
NtRp92
(dp93
S'ordinal'
p94
NsS'default_value'
p95
Nsg47
S'session_info'
p96
sg15
Nsg19
NsS'typename'
p97
S'MediaSessionInfo'
p98
sg16
Nsbag1
(g91
g3
NtRp99
(dp100
g94
Nsg95
Nsg47
S'audio_focus_type'
p101
sg15
Nsg19
Nsg97
S'AudioFocusType'
p102
sg16
Nsbag1
(g91
g3
NtRp103
(dp104
g94
Nsg95
Nsg47
S'source_name'
p105
sg15
g1
(g29
g3
NtRp106
(dp107
g10
(lp108
g1
(g33
g3
NtRp109
(dp110
g36
I2
sg16
I62
sg37
S'MinVersion'
p111
sg19
g20
sbasg16
I62
sg19
g20
sbsg19
Nsg97
S'string?'
p112
sg16
Nsbag1
(g91
g3
NtRp113
(dp114
g94
Nsg95
Nsg47
S'request_id'
p115
sg15
g1
(g29
g3
NtRp116
(dp117
g10
(lp118
g1
(g33
g3
NtRp119
(dp120
g36
I3
sg16
I63
sg37
S'MinVersion'
p121
sg19
g20
sbasg16
I63
sg19
g20
sbsg19
Nsg97
S'mojo_base.mojom.UnguessableToken?'
p122
sg16
Nsbasg16
Nsg19
Nsbsg15
Nsg16
Nsg47
S'AudioFocusRequestState'
p123
sg19
Nsbag1
(cmojom.parse.ast
Interface
p124
g3
NtRp125
(dp126
g86
g1
(cmojom.parse.ast
InterfaceBody
p127
g3
NtRp128
(dp129
g10
(lp130
g1
(cmojom.parse.ast
Method
p131
g3
NtRp132
(dp133
g94
Nsg47
S'OnFocusGained'
p134
sS'parameter_list'
p135
g1
(cmojom.parse.ast
ParameterList
p136
g3
NtRp137
(dp138
g10
(lp139
g1
(cmojom.parse.ast
Parameter
p140
g3
NtRp141
(dp142
g94
Nsg47
S'state'
p143
sg15
Nsg19
g20
sg97
S'AudioFocusRequestState'
p144
sg16
I69
sbasg16
I69
sg19
g20
sbsg15
Nsg19
Nsg16
NsS'response_parameter_list'
p145
Nsbag1
(g131
g3
NtRp146
(dp147
g94
Nsg47
S'OnFocusLost'
p148
sg135
g1
(g136
g3
NtRp149
(dp150
g10
(lp151
g1
(g140
g3
NtRp152
(dp153
g94
Nsg47
S'state'
p154
sg15
Nsg19
g20
sg97
S'AudioFocusRequestState'
p155
sg16
I72
sbasg16
I72
sg19
g20
sbsg15
Nsg19
Nsg16
Nsg145
Nsbasg16
Nsg19
Nsbsg15
Nsg16
Nsg47
S'AudioFocusObserver'
p156
sg19
Nsbag1
(g124
g3
NtRp157
(dp158
g86
g1
(g127
g3
NtRp159
(dp160
g10
(lp161
g1
(g131
g3
NtRp162
(dp163
g94
g1
(cmojom.parse.ast
Ordinal
p164
g3
NtRp165
(dp166
g16
I81
sg36
I0
sg19
g20
sbsg47
S'RequestAudioFocus'
p167
sg135
g1
(g136
g3
NtRp168
(dp169
g10
(lp170
g1
(g140
g3
NtRp171
(dp172
g94
Nsg47
S'session_info'
p173
sg15
Nsg19
g20
sg97
S'MediaSessionInfo'
p174
sg16
I81
sbag1
(g140
g3
NtRp175
(dp176
g94
Nsg47
S'type'
p177
sg15
Nsg19
g20
sg97
S'AudioFocusType'
p178
sg16
I81
sbasg16
I81
sg19
g20
sbsg15
Nsg19
Nsg16
Nsg145
g1
(g136
g3
NtRp179
(dp180
g10
(lp181
sg16
Nsg19
Nsbsbag1
(g131
g3
NtRp182
(dp183
g94
g1
(g164
g3
NtRp184
(dp185
g16
I84
sg36
I1
sg19
g20
sbsg47
S'AbandonAudioFocus'
p186
sg135
g1
(g136
g3
NtRp187
(dp188
g10
(lp189
sg16
Nsg19
Nsbsg15
Nsg19
Nsg16
Nsg145
Nsbag1
(g131
g3
NtRp190
(dp191
g94
g1
(g164
g3
NtRp192
(dp193
g16
I87
sg36
I2
sg19
g20
sbsg47
S'MediaSessionInfoChanged'
p194
sg135
g1
(g136
g3
NtRp195
(dp196
g10
(lp197
g1
(g140
g3
NtRp198
(dp199
g94
Nsg47
S'session_info'
p200
sg15
Nsg19
g20
sg97
S'MediaSessionInfo'
p201
sg16
I87
sbasg16
I87
sg19
g20
sbsg15
Nsg19
Nsg16
Nsg145
Nsbasg16
Nsg19
Nsbsg15
Nsg16
Nsg47
S'AudioFocusRequestClient'
p202
sg19
Nsbag1
(g124
g3
NtRp203
(dp204
g86
g1
(g127
g3
NtRp205
(dp206
g10
(lp207
g1
(g131
g3
NtRp208
(dp209
g94
g1
(g164
g3
NtRp210
(dp211
g16
I98
sg36
I0
sg19
g20
sbsg47
S'RequestAudioFocus'
p212
sg135
g1
(g136
g3
NtRp213
(dp214
g10
(lp215
g1
(g140
g3
NtRp216
(dp217
g94
Nsg47
S'client'
p218
sg15
Nsg19
g20
sg97
S'AudioFocusRequestClient&'
p219
sg16
I98
sbag1
(g140
g3
NtRp220
(dp221
g94
Nsg47
S'media_session'
p222
sg15
Nsg19
g20
sg97
S'MediaSession'
p223
sg16
I99
sbag1
(g140
g3
NtRp224
(dp225
g94
Nsg47
S'session_info'
p226
sg15
Nsg19
g20
sg97
S'MediaSessionInfo'
p227
sg16
I100
sbag1
(g140
g3
NtRp228
(dp229
g94
Nsg47
S'type'
p230
sg15
Nsg19
g20
sg97
S'AudioFocusType'
p231
sg16
I101
sbasg16
I98
sg19
g20
sbsg15
Nsg19
Nsg16
Nsg145
g1
(g136
g3
NtRp232
(dp233
g10
(lp234
g1
(g140
g3
NtRp235
(dp236
g94
Nsg47
S'request_id'
p237
sg15
Nsg19
g20
sg97
S'mojo_base.mojom.UnguessableToken'
p238
sg16
I102
sbasg16
I102
sg19
g20
sbsbag1
(g131
g3
NtRp239
(dp240
g94
g1
(g164
g3
NtRp241
(dp242
g16
I107
sg36
I4
sg19
g20
sbsg47
S'RequestGroupedAudioFocus'
p243
sg135
g1
(g136
g3
NtRp244
(dp245
g10
(lp246
g1
(g140
g3
NtRp247
(dp248
g94
Nsg47
S'client'
p249
sg15
Nsg19
g20
sg97
S'AudioFocusRequestClient&'
p250
sg16
I108
sbag1
(g140
g3
NtRp251
(dp252
g94
Nsg47
S'media_session'
p253
sg15
Nsg19
g20
sg97
S'MediaSession'
p254
sg16
I109
sbag1
(g140
g3
NtRp255
(dp256
g94
Nsg47
S'session_info'
p257
sg15
Nsg19
g20
sg97
S'MediaSessionInfo'
p258
sg16
I110
sbag1
(g140
g3
NtRp259
(dp260
g94
Nsg47
S'type'
p261
sg15
Nsg19
g20
sg97
S'AudioFocusType'
p262
sg16
I111
sbag1
(g140
g3
NtRp263
(dp264
g94
Nsg47
S'group_id'
p265
sg15
Nsg19
g20
sg97
S'mojo_base.mojom.UnguessableToken'
p266
sg16
I112
sbasg16
I108
sg19
g20
sbsg15
g1
(g29
g3
NtRp267
(dp268
g10
(lp269
g1
(g33
g3
NtRp270
(dp271
g36
I4
sg16
I107
sg37
S'MinVersion'
p272
sg19
g20
sbasg16
I107
sg19
g20
sbsg19
Nsg16
Nsg145
g1
(g136
g3
NtRp273
(dp274
g10
(lp275
g1
(g140
g3
NtRp276
(dp277
g94
Nsg47
S'request_id'
p278
sg15
Nsg19
g20
sg97
S'mojo_base.mojom.UnguessableToken'
p279
sg16
I113
sbasg16
I113
sg19
g20
sbsbag1
(g131
g3
NtRp280
(dp281
g94
g1
(g164
g3
NtRp282
(dp283
g16
I117
sg36
I1
sg19
g20
sbsg47
S'GetFocusRequests'
p284
sg135
g1
(g136
g3
NtRp285
(dp286
g10
(lp287
sg16
Nsg19
Nsbsg15
Nsg19
Nsg16
Nsg145
g1
(g136
g3
NtRp288
(dp289
g10
(lp290
g1
(g140
g3
NtRp291
(dp292
g94
Nsg47
S'requests'
p293
sg15
Nsg19
g20
sg97
S'AudioFocusRequestState[]'
p294
sg16
I117
sbasg16
I117
sg19
g20
sbsbag1
(g131
g3
NtRp295
(dp296
g94
g1
(g164
g3
NtRp297
(dp298
g16
I120
sg36
I2
sg19
g20
sbsg47
S'AddObserver'
p299
sg135
g1
(g136
g3
NtRp300
(dp301
g10
(lp302
g1
(g140
g3
NtRp303
(dp304
g94
Nsg47
S'observer'
p305
sg15
Nsg19
g20
sg97
S'AudioFocusObserver'
p306
sg16
I120
sbasg16
I120
sg19
g20
sbsg15
Nsg19
Nsg16
Nsg145
Nsbag1
(g131
g3
NtRp307
(dp308
g94
g1
(g164
g3
NtRp309
(dp310
g16
I126
sg36
I3
sg19
g20
sbsg47
S'SetSourceName'
p311
sg135
g1
(g136
g3
NtRp312
(dp313
g10
(lp314
g1
(g140
g3
NtRp315
(dp316
g94
Nsg47
S'name'
p317
sg15
Nsg19
g20
sg97
S'string'
p318
sg16
I126
sbasg16
I126
sg19
g20
sbsg15
g1
(g29
g3
NtRp319
(dp320
g10
(lp321
g1
(g33
g3
NtRp322
(dp323
g36
I2
sg16
I126
sg37
S'MinVersion'
p324
sg19
g20
sbasg16
I126
sg19
g20
sbsg19
Nsg16
Nsg145
Nsbag1
(g131
g3
NtRp325
(dp326
g94
g1
(g164
g3
NtRp327
(dp328
g16
I129
sg36
I5
sg19
g20
sbsg47
S'SetEnforcementMode'
p329
sg135
g1
(g136
g3
NtRp330
(dp331
g10
(lp332
g1
(g140
g3
NtRp333
(dp334
g94
Nsg47
S'mode'
p335
sg15
Nsg19
g20
sg97
S'EnforcementMode'
p336
sg16
I129
sbasg16
I129
sg19
g20
sbsg15
g1
(g29
g3
NtRp337
(dp338
g10
(lp339
g1
(g33
g3
NtRp340
(dp341
g36
I5
sg16
I129
sg37
S'MinVersion'
p342
sg19
g20
sbasg16
I129
sg19
g20
sbsg19
Nsg16
Nsg145
Nsbasg16
Nsg19
Nsbsg15
Nsg16
Nsg47
S'AudioFocusManager'
p343
sg19
Nsbag1
(g124
g3
NtRp344
(dp345
g86
g1
(g127
g3
NtRp346
(dp347
g10
(lp348
g1
(g131
g3
NtRp349
(dp350
g94
Nsg47
S'GetDebugInfoForRequest'
p351
sg135
g1
(g136
g3
NtRp352
(dp353
g10
(lp354
g1
(g140
g3
NtRp355
(dp356
g94
Nsg47
S'request_id'
p357
sg15
Nsg19
g20
sg97
S'mojo_base.mojom.UnguessableToken'
p358
sg16
I135
sbasg16
I135
sg19
g20
sbsg15
Nsg19
Nsg16
Nsg145
g1
(g136
g3
NtRp359
(dp360
g10
(lp361
g1
(g140
g3
NtRp362
(dp363
g94
Nsg47
S'debug_info'
p364
sg15
Nsg19
g20
sg97
S'MediaSessionDebugInfo'
p365
sg16
I136
sbasg16
I136
sg19
g20
sbsbasg16
Nsg19
Nsbsg15
Nsg16
Nsg47
S'AudioFocusManagerDebug'
p366
sg19
Nsbasg16
NsS'module'
p367
g1
(cmojom.parse.ast
Module
p368
g3
NtRp369
(dp370
S'mojom_namespace'
p371
(S'IDENTIFIER'
p372
S'media_session.mojom'
tp373
sg16
I5
sg15
Nsg19
g20
sbsg19
Nsb.