ccopy_reg
_reconstructor
p1
(cmojom.parse.ast
Mojom
p2
c__builtin__
object
p3
NtRp4
(dp5
S'import_list'
p6
g1
(cmojom.parse.ast
ImportList
p7
g3
NtRp8
(dp9
S'items'
p10
(lp11
g1
(cmojom.parse.ast
Import
p12
g3
NtRp13
(dp14
S'attribute_list'
p15
NsS'lineno'
p16
I7
sS'import_filename'
p17
S'mojo/public/mojom/base/time.mojom'
p18
sS'filename'
p19
S'../../services/media_session/public/mojom/media_controller.mojom'
p20
sbag1
(g12
g3
NtRp21
(dp22
g15
Nsg16
I8
sg17
S'mojo/public/mojom/base/unguessable_token.mojom'
p23
sg19
g20
sbag1
(g12
g3
NtRp24
(dp25
g15
Nsg16
I9
sg17
S'services/media_session/public/mojom/media_session.mojom'
p26
sg19
g20
sbasg16
I7
sg19
g20
sbsS'definition_list'
p27
(lp28
g1
(cmojom.parse.ast
Interface
p29
g3
NtRp30
(dp31
S'body'
p32
g1
(cmojom.parse.ast
InterfaceBody
p33
g3
NtRp34
(dp35
g10
(lp36
g1
(cmojom.parse.ast
Method
p37
g3
NtRp38
(dp39
S'ordinal'
p40
NsS'mojom_name'
p41
S'CreateMediaControllerForSession'
p42
sS'parameter_list'
p43
g1
(cmojom.parse.ast
ParameterList
p44
g3
NtRp45
(dp46
g10
(lp47
g1
(cmojom.parse.ast
Parameter
p48
g3
NtRp49
(dp50
g40
Nsg41
S'request'
p51
sg15
Nsg19
g20
sS'typename'
p52
S'MediaController&'
p53
sg16
I15
sbag1
(g48
g3
NtRp54
(dp55
g40
Nsg41
S'request_id'
p56
sg15
Nsg19
g20
sg52
S'mojo_base.mojom.UnguessableToken'
p57
sg16
I16
sbasg16
I15
sg19
g20
sbsg15
Nsg19
Nsg16
NsS'response_parameter_list'
p58
Nsbag1
(g37
g3
NtRp59
(dp60
g40
Nsg41
S'CreateActiveMediaController'
p61
sg43
g1
(g44
g3
NtRp62
(dp63
g10
(lp64
g1
(g48
g3
NtRp65
(dp66
g40
Nsg41
S'request'
p67
sg15
Nsg19
g20
sg52
S'MediaController&'
p68
sg16
I21
sbasg16
I21
sg19
g20
sbsg15
Nsg19
Nsg16
Nsg58
Nsbag1
(g37
g3
NtRp69
(dp70
g40
Nsg41
S'SuspendAllSessions'
p71
sg43
g1
(g44
g3
NtRp72
(dp73
g10
(lp74
sg16
Nsg19
Nsbsg15
Nsg19
Nsg16
Nsg58
Nsbasg16
Nsg19
Nsbsg15
Nsg16
Nsg41
S'MediaControllerManager'
p75
sg19
Nsbag1
(g29
g3
NtRp76
(dp77
g32
g1
(g33
g3
NtRp78
(dp79
g10
(lp80
g1
(g37
g3
NtRp81
(dp82
g40
Nsg41
S'Suspend'
p83
sg43
g1
(g44
g3
NtRp84
(dp85
g10
(lp86
sg16
Nsg19
Nsbsg15
Nsg19
Nsg16
Nsg58
Nsbag1
(g37
g3
NtRp87
(dp88
g40
Nsg41
S'Resume'
p89
sg43
g1
(g44
g3
NtRp90
(dp91
g10
(lp92
sg16
Nsg19
Nsbsg15
Nsg19
Nsg16
Nsg58
Nsbag1
(g37
g3
NtRp93
(dp94
g40
Nsg41
S'Stop'
p95
sg43
g1
(g44
g3
NtRp96
(dp97
g10
(lp98
sg16
Nsg19
Nsbsg15
Nsg19
Nsg16
Nsg58
Nsbag1
(g37
g3
NtRp99
(dp100
g40
Nsg41
S'ToggleSuspendResume'
p101
sg43
g1
(g44
g3
NtRp102
(dp103
g10
(lp104
sg16
Nsg19
Nsbsg15
Nsg19
Nsg16
Nsg58
Nsbag1
(g37
g3
NtRp105
(dp106
g40
Nsg41
S'AddObserver'
p107
sg43
g1
(g44
g3
NtRp108
(dp109
g10
(lp110
g1
(g48
g3
NtRp111
(dp112
g40
Nsg41
S'observer'
p113
sg15
Nsg19
g20
sg52
S'MediaControllerObserver'
p114
sg16
I46
sbasg16
I46
sg19
g20
sbsg15
Nsg19
Nsg16
Nsg58
Nsbag1
(g37
g3
NtRp115
(dp116
g40
Nsg41
S'PreviousTrack'
p117
sg43
g1
(g44
g3
NtRp118
(dp119
g10
(lp120
sg16
Nsg19
Nsbsg15
Nsg19
Nsg16
Nsg58
Nsbag1
(g37
g3
NtRp121
(dp122
g40
Nsg41
S'NextTrack'
p123
sg43
g1
(g44
g3
NtRp124
(dp125
g10
(lp126
sg16
Nsg19
Nsbsg15
Nsg19
Nsg16
Nsg58
Nsbag1
(g37
g3
NtRp127
(dp128
g40
Nsg41
S'Seek'
p129
sg43
g1
(g44
g3
NtRp130
(dp131
g10
(lp132
g1
(g48
g3
NtRp133
(dp134
g40
Nsg41
S'seek_time'
p135
sg15
Nsg19
g20
sg52
S'mojo_base.mojom.TimeDelta'
p136
sg16
I61
sbasg16
I61
sg19
g20
sbsg15
Nsg19
Nsg16
Nsg58
Nsbag1
(g37
g3
NtRp137
(dp138
g40
Nsg41
S'ObserveImages'
p139
sg43
g1
(g44
g3
NtRp140
(dp141
g10
(lp142
g1
(g48
g3
NtRp143
(dp144
g40
Nsg41
S'type'
p145
sg15
Nsg19
g20
sg52
S'MediaSessionImageType'
p146
sg16
I67
sbag1
(g48
g3
NtRp147
(dp148
g40
Nsg41
S'minimum_size_px'
p149
sg15
Nsg19
g20
sg52
S'int32'
p150
sg16
I67
sbag1
(g48
g3
NtRp151
(dp152
g40
Nsg41
S'desired_size_px'
p153
sg15
Nsg19
g20
sg52
S'int32'
p154
sg16
I67
sbag1
(g48
g3
NtRp155
(dp156
g40
Nsg41
S'observer'
p157
sg15
Nsg19
g20
sg52
S'MediaControllerImageObserver'
p158
sg16
I68
sbasg16
I67
sg19
g20
sbsg15
Nsg19
Nsg16
Nsg58
Nsbasg16
Nsg19
Nsbsg15
Nsg16
Nsg41
S'MediaController'
p159
sg19
Nsbag1
(g29
g3
NtRp160
(dp161
g32
g1
(g33
g3
NtRp162
(dp163
g10
(lp164
g1
(g37
g3
NtRp165
(dp166
g40
Nsg41
S'MediaSessionInfoChanged'
p167
sg43
g1
(g44
g3
NtRp168
(dp169
g10
(lp170
g1
(g48
g3
NtRp171
(dp172
g40
Nsg41
S'info'
p173
sg15
Nsg19
g20
sg52
S'MediaSessionInfo?'
p174
sg16
I78
sbasg16
I78
sg19
g20
sbsg15
Nsg19
Nsg16
Nsg58
Nsbag1
(g37
g3
NtRp175
(dp176
g40
Nsg41
S'MediaSessionMetadataChanged'
p177
sg43
g1
(g44
g3
NtRp178
(dp179
g10
(lp180
g1
(g48
g3
NtRp181
(dp182
g40
Nsg41
S'metadata'
p183
sg15
Nsg19
g20
sg52
S'MediaMetadata?'
p184
sg16
I83
sbasg16
I83
sg19
g20
sbsg15
Nsg19
Nsg16
Nsg58
Nsbag1
(g37
g3
NtRp185
(dp186
g40
Nsg41
S'MediaSessionActionsChanged'
p187
sg43
g1
(g44
g3
NtRp188
(dp189
g10
(lp190
g1
(g48
g3
NtRp191
(dp192
g40
Nsg41
S'action'
p193
sg15
Nsg19
g20
sg52
S'MediaSessionAction[]'
p194
sg16
I87
sbasg16
I87
sg19
g20
sbsg15
Nsg19
Nsg16
Nsg58
Nsbag1
(g37
g3
NtRp195
(dp196
g40
Nsg41
S'MediaSessionChanged'
p197
sg43
g1
(g44
g3
NtRp198
(dp199
g10
(lp200
g1
(g48
g3
NtRp201
(dp202
g40
Nsg41
S'request_id'
p203
sg15
Nsg19
g20
sg52
S'mojo_base.mojom.UnguessableToken?'
p204
sg16
I91
sbasg16
I91
sg19
g20
sbsg15
Nsg19
Nsg16
Nsg58
Nsbasg16
Nsg19
Nsbsg15
Nsg16
Nsg41
S'MediaControllerObserver'
p205
sg19
Nsbag1
(g29
g3
NtRp206
(dp207
g32
g1
(g33
g3
NtRp208
(dp209
g10
(lp210
g1
(g37
g3
NtRp211
(dp212
g40
Nsg41
S'MediaControllerImageChanged'
p213
sg43
g1
(g44
g3
NtRp214
(dp215
g10
(lp216
g1
(g48
g3
NtRp217
(dp218
g40
Nsg41
S'type'
p219
sg15
Nsg19
g20
sg52
S'MediaSessionImageType'
p220
sg16
I101
sbag1
(g48
g3
NtRp221
(dp222
g40
Nsg41
S'bitmap'
p223
sg15
Nsg19
g20
sg52
S'MediaImageBitmap?'
p224
sg16
I101
sbasg16
I101
sg19
g20
sbsg15
Nsg19
Nsg16
Nsg58
Nsbasg16
Nsg19
Nsbsg15
Nsg16
Nsg41
S'MediaControllerImageObserver'
p225
sg19
Nsbasg16
NsS'module'
p226
g1
(cmojom.parse.ast
Module
p227
g3
NtRp228
(dp229
S'mojom_namespace'
p230
(S'IDENTIFIER'
p231
S'media_session.mojom'
tp232
sg16
I5
sg15
Nsg19
g20
sbsg19
Nsb.