ccopy_reg
_reconstructor
p1
(cmojom.parse.ast
Mojom
p2
c__builtin__
object
p3
NtRp4
(dp5
S'import_list'
p6
g1
(cmojom.parse.ast
ImportList
p7
g3
NtRp8
(dp9
S'items'
p10
(lp11
g1
(cmojom.parse.ast
Import
p12
g3
NtRp13
(dp14
S'attribute_list'
p15
NsS'lineno'
p16
I7
sS'import_filename'
p17
S'mojo/public/mojom/base/string16.mojom'
p18
sS'filename'
p19
S'../../services/media_session/public/mojom/media_session.mojom'
p20
sbag1
(g12
g3
NtRp21
(dp22
g15
Nsg16
I8
sg17
S'mojo/public/mojom/base/time.mojom'
p23
sg19
g20
sbag1
(g12
g3
NtRp24
(dp25
g15
Nsg16
I9
sg17
S'ui/gfx/geometry/mojo/geometry.mojom'
p26
sg19
g20
sbag1
(g12
g3
NtRp27
(dp28
g15
Nsg16
I10
sg17
S'url/mojom/url.mojom'
p29
sg19
g20
sbasg16
I7
sg19
g20
sbsS'definition_list'
p30
(lp31
g1
(cmojom.parse.ast
Enum
p32
g3
NtRp33
(dp34
g15
g1
(cmojom.parse.ast
AttributeList
p35
g3
NtRp36
(dp37
g10
(lp38
g1
(cmojom.parse.ast
Attribute
p39
g3
NtRp40
(dp41
S'value'
p42
I01
sg16
I14
sS'key'
p43
S'Extensible'
p44
sg19
g20
sbasg16
I14
sg19
g20
sbsS'enum_value_list'
p45
g1
(cmojom.parse.ast
EnumValueList
p46
g3
NtRp47
(dp48
g10
(lp49
g1
(cmojom.parse.ast
EnumValue
p50
g3
NtRp51
(dp52
g15
Nsg42
Nsg16
I16
sS'mojom_name'
p53
S'kPaused'
p54
sg19
g20
sbag1
(g50
g3
NtRp55
(dp56
g15
Nsg42
Nsg16
I17
sg53
S'kPlaying'
p57
sg19
g20
sbasg16
I16
sg19
g20
sbsg16
I15
sg53
S'MediaPlaybackState'
p58
sg19
g20
sbag1
(g32
g3
NtRp59
(dp60
g15
g1
(g35
g3
NtRp61
(dp62
g10
(lp63
g1
(g39
g3
NtRp64
(dp65
g42
I01
sg16
I20
sg43
S'Extensible'
p66
sg19
g20
sbasg16
I20
sg19
g20
sbsg45
g1
(g46
g3
NtRp67
(dp68
g10
(lp69
g1
(g50
g3
NtRp70
(dp71
g15
Nsg42
Nsg16
I22
sg53
S'kPlay'
p72
sg19
g20
sbag1
(g50
g3
NtRp73
(dp74
g15
Nsg42
Nsg16
I23
sg53
S'kPause'
p75
sg19
g20
sbag1
(g50
g3
NtRp76
(dp77
g15
Nsg42
Nsg16
I24
sg53
S'kPreviousTrack'
p78
sg19
g20
sbag1
(g50
g3
NtRp79
(dp80
g15
Nsg42
Nsg16
I25
sg53
S'kNextTrack'
p81
sg19
g20
sbag1
(g50
g3
NtRp82
(dp83
g15
Nsg42
Nsg16
I26
sg53
S'kSeekBackward'
p84
sg19
g20
sbag1
(g50
g3
NtRp85
(dp86
g15
Nsg42
Nsg16
I27
sg53
S'kSeekForward'
p87
sg19
g20
sbag1
(g50
g3
NtRp88
(dp89
g15
Nsg42
Nsg16
I28
sg53
S'kSkipAd'
p90
sg19
g20
sbag1
(g50
g3
NtRp91
(dp92
g15
Nsg42
Nsg16
I29
sg53
S'kStop'
p93
sg19
g20
sbasg16
I22
sg19
g20
sbsg16
I21
sg53
S'MediaSessionAction'
p94
sg19
g20
sbag1
(g32
g3
NtRp95
(dp96
g15
g1
(g35
g3
NtRp97
(dp98
g10
(lp99
g1
(g39
g3
NtRp100
(dp101
g42
I01
sg16
I32
sg43
S'Extensible'
p102
sg19
g20
sbasg16
I32
sg19
g20
sbsg45
g1
(g46
g3
NtRp103
(dp104
g10
(lp105
g1
(g50
g3
NtRp106
(dp107
g15
Nsg42
Nsg16
I35
sg53
S'kArtwork'
p108
sg19
g20
sbag1
(g50
g3
NtRp109
(dp110
g15
Nsg42
Nsg16
I38
sg53
S'kSourceIcon'
p111
sg19
g20
sbasg16
I35
sg19
g20
sbsg16
I33
sg53
S'MediaSessionImageType'
p112
sg19
g20
sbag1
(cmojom.parse.ast
Struct
p113
g3
NtRp114
(dp115
S'body'
p116
g1
(cmojom.parse.ast
StructBody
p117
g3
NtRp118
(dp119
g10
(lp120
g1
(cmojom.parse.ast
StructField
p121
g3
NtRp122
(dp123
S'ordinal'
p124
NsS'default_value'
p125
Nsg53
S'src'
p126
sg15
Nsg19
NsS'typename'
p127
S'url.mojom.Url'
p128
sg16
Nsbag1
(g121
g3
NtRp129
(dp130
g124
Nsg125
Nsg53
S'type'
p131
sg15
Nsg19
Nsg127
S'mojo_base.mojom.String16'
p132
sg16
Nsbag1
(g121
g3
NtRp133
(dp134
g124
Nsg125
Nsg53
S'sizes'
p135
sg15
Nsg19
Nsg127
S'gfx.mojom.Size[]'
p136
sg16
Nsbasg16
Nsg19
Nsbsg15
Nsg16
Nsg53
S'MediaImage'
p137
sg19
Nsbag1
(g113
g3
NtRp138
(dp139
g116
g1
(g117
g3
NtRp140
(dp141
g10
(lp142
g1
(g121
g3
NtRp143
(dp144
g124
Nsg125
Nsg53
S'title'
p145
sg15
Nsg19
Nsg127
S'mojo_base.mojom.String16'
p146
sg16
Nsbag1
(g121
g3
NtRp147
(dp148
g124
Nsg125
Nsg53
S'artist'
p149
sg15
Nsg19
Nsg127
S'mojo_base.mojom.String16'
p150
sg16
Nsbag1
(g121
g3
NtRp151
(dp152
g124
Nsg125
Nsg53
S'album'
p153
sg15
Nsg19
Nsg127
S'mojo_base.mojom.String16'
p154
sg16
Nsbag1
(g121
g3
NtRp155
(dp156
g124
Nsg125
Nsg53
S'source_title'
p157
sg15
Nsg19
Nsg127
S'mojo_base.mojom.String16'
p158
sg16
Nsbasg16
Nsg19
Nsbsg15
Nsg16
Nsg53
S'MediaMetadata'
p159
sg19
Nsbag1
(g113
g3
NtRp160
(dp161
g116
g1
(g117
g3
NtRp162
(dp163
g10
(lp164
g1
(g121
g3
NtRp165
(dp166
g124
Nsg125
Nsg53
S'width'
p167
sg15
Nsg19
Nsg127
S'int32'
p168
sg16
Nsbag1
(g121
g3
NtRp169
(dp170
g124
Nsg125
Nsg53
S'height'
p171
sg15
Nsg19
Nsg127
S'int32'
p172
sg16
Nsbag1
(g121
g3
NtRp173
(dp174
g124
Nsg125
Nsg53
S'pixel_data'
p175
sg15
Nsg19
Nsg127
S'uint8[]'
p176
sg16
Nsbasg16
Nsg19
Nsbsg15
Nsg16
Nsg53
S'MediaImageBitmap'
p177
sg19
Nsbag1
(g113
g3
NtRp178
(dp179
g116
g1
(g117
g3
NtRp180
(dp181
g10
(lp182
g1
(g32
g3
NtRp183
(dp184
g15
g1
(g35
g3
NtRp185
(dp186
g10
(lp187
g1
(g39
g3
NtRp188
(dp189
g42
I01
sg16
I73
sg43
S'Extensible'
p190
sg19
g20
sbasg16
I73
sg19
g20
sbsg45
g1
(g46
g3
NtRp191
(dp192
g10
(lp193
g1
(g50
g3
NtRp194
(dp195
g15
Nsg42
Nsg16
I76
sg53
S'kActive'
p196
sg19
g20
sbag1
(g50
g3
NtRp197
(dp198
g15
Nsg42
Nsg16
I79
sg53
S'kDucking'
p199
sg19
g20
sbag1
(g50
g3
NtRp200
(dp201
g15
Nsg42
Nsg16
I82
sg53
S'kSuspended'
p202
sg19
g20
sbag1
(g50
g3
NtRp203
(dp204
g15
Nsg42
Nsg16
I85
sg53
S'kInactive'
p205
sg19
g20
sbasg16
I76
sg19
g20
sbsg16
I74
sg53
S'SessionState'
p206
sg19
g20
sbag1
(g121
g3
NtRp207
(dp208
g124
Nsg125
Nsg53
S'state'
p209
sg15
Nsg19
Nsg127
S'SessionState'
p210
sg16
Nsbag1
(g121
g3
NtRp211
(dp212
g124
Nsg125
Nsg53
S'force_duck'
p213
sg15
Nsg19
Nsg127
S'bool'
p214
sg16
Nsbag1
(g121
g3
NtRp215
(dp216
g124
Nsg125
Nsg53
S'playback_state'
p217
sg15
g1
(g35
g3
NtRp218
(dp219
g10
(lp220
g1
(g39
g3
NtRp221
(dp222
g42
I1
sg16
I97
sg43
S'MinVersion'
p223
sg19
g20
sbasg16
I97
sg19
g20
sbsg19
Nsg127
S'MediaPlaybackState'
p224
sg16
Nsbag1
(g121
g3
NtRp225
(dp226
g124
Nsg125
Nsg53
S'is_controllable'
p227
sg15
g1
(g35
g3
NtRp228
(dp229
g10
(lp230
g1
(g39
g3
NtRp231
(dp232
g42
I2
sg16
I100
sg43
S'MinVersion'
p233
sg19
g20
sbasg16
I100
sg19
g20
sbsg19
Nsg127
S'bool'
p234
sg16
Nsbag1
(g121
g3
NtRp235
(dp236
g124
Nsg125
Nsg53
S'prefer_stop_for_gain_focus_loss'
p237
sg15
g1
(g35
g3
NtRp238
(dp239
g10
(lp240
g1
(g39
g3
NtRp241
(dp242
g42
I4
sg16
I104
sg43
S'MinVersion'
p243
sg19
g20
sbasg16
I104
sg19
g20
sbsg19
Nsg127
S'bool'
p244
sg16
Nsbasg16
I74
sg19
g20
sbsg15
Nsg16
Nsg53
S'MediaSessionInfo'
p245
sg19
Nsbag1
(g113
g3
NtRp246
(dp247
g116
g1
(g117
g3
NtRp248
(dp249
g10
(lp250
g1
(g121
g3
NtRp251
(dp252
g124
Nsg125
Nsg53
S'name'
p253
sg15
Nsg19
Nsg127
S'string'
p254
sg16
Nsbag1
(g121
g3
NtRp255
(dp256
g124
Nsg125
Nsg53
S'owner'
p257
sg15
Nsg19
Nsg127
S'string'
p258
sg16
Nsbag1
(g121
g3
NtRp259
(dp260
g124
Nsg125
Nsg53
S'state'
p261
sg15
Nsg19
Nsg127
S'string'
p262
sg16
Nsbasg16
Nsg19
Nsbsg15
Nsg16
Nsg53
S'MediaSessionDebugInfo'
p263
sg19
Nsbag1
(cmojom.parse.ast
Interface
p264
g3
NtRp265
(dp266
g116
g1
(cmojom.parse.ast
InterfaceBody
p267
g3
NtRp268
(dp269
g10
(lp270
g1
(cmojom.parse.ast
Method
p271
g3
NtRp272
(dp273
g124
g1
(cmojom.parse.ast
Ordinal
p274
g3
NtRp275
(dp276
g16
I124
sg42
I0
sg19
g20
sbsg53
S'MediaSessionInfoChanged'
p277
sS'parameter_list'
p278
g1
(cmojom.parse.ast
ParameterList
p279
g3
NtRp280
(dp281
g10
(lp282
g1
(cmojom.parse.ast
Parameter
p283
g3
NtRp284
(dp285
g124
Nsg53
S'info'
p286
sg15
Nsg19
g20
sg127
S'MediaSessionInfo'
p287
sg16
I124
sbasg16
I124
sg19
g20
sbsg15
Nsg19
Nsg16
NsS'response_parameter_list'
p288
Nsbag1
(g271
g3
NtRp289
(dp290
g124
g1
(g274
g3
NtRp291
(dp292
g16
I129
sg42
I1
sg19
g20
sbsg53
S'MediaSessionMetadataChanged'
p293
sg278
g1
(g279
g3
NtRp294
(dp295
g10
(lp296
g1
(g283
g3
NtRp297
(dp298
g124
Nsg53
S'metadata'
p299
sg15
Nsg19
g20
sg127
S'MediaMetadata?'
p300
sg16
I129
sbasg16
I129
sg19
g20
sbsg15
Nsg19
Nsg16
Nsg288
Nsbag1
(g271
g3
NtRp301
(dp302
g124
g1
(g274
g3
NtRp303
(dp304
g16
I133
sg42
I2
sg19
g20
sbsg53
S'MediaSessionActionsChanged'
p305
sg278
g1
(g279
g3
NtRp306
(dp307
g10
(lp308
g1
(g283
g3
NtRp309
(dp310
g124
Nsg53
S'action'
p311
sg15
Nsg19
g20
sg127
S'MediaSessionAction[]'
p312
sg16
I133
sbasg16
I133
sg19
g20
sbsg15
Nsg19
Nsg16
Nsg288
Nsbag1
(g271
g3
NtRp313
(dp314
g124
g1
(g274
g3
NtRp315
(dp316
g16
I136
sg42
I3
sg19
g20
sbsg53
S'MediaSessionImagesChanged'
p317
sg278
g1
(g279
g3
NtRp318
(dp319
g10
(lp320
g1
(g283
g3
NtRp321
(dp322
g124
Nsg53
S'images'
p323
sg15
Nsg19
g20
sg127
S'MediaImage[]{MediaSessionImageType}'
p324
sg16
I137
sbasg16
I137
sg19
g20
sbsg15
Nsg19
Nsg16
Nsg288
Nsbasg16
Nsg19
Nsbsg15
Nsg16
Nsg53
S'MediaSessionObserver'
p325
sg19
Nsbag1
(g264
g3
NtRp326
(dp327
g116
g1
(g267
g3
NtRp328
(dp329
g10
(lp330
g1
(g32
g3
NtRp331
(dp332
g15
g1
(g35
g3
NtRp333
(dp334
g10
(lp335
g1
(g39
g3
NtRp336
(dp337
g42
I01
sg16
I146
sg43
S'Extensible'
p338
sg19
g20
sbasg16
I146
sg19
g20
sbsg45
g1
(g46
g3
NtRp339
(dp340
g10
(lp341
g1
(g50
g3
NtRp342
(dp343
g15
Nsg42
Nsg16
I149
sg53
S'kSystem'
p344
sg19
g20
sbag1
(g50
g3
NtRp345
(dp346
g15
Nsg42
Nsg16
I151
sg53
S'kUI'
p347
sg19
g20
sbag1
(g50
g3
NtRp348
(dp349
g15
Nsg42
Nsg16
I153
sg53
S'kContent'
p350
sg19
g20
sbasg16
I149
sg19
g20
sbsg16
I147
sg53
S'SuspendType'
p351
sg19
g20
sbag1
(g271
g3
NtRp352
(dp353
g124
g1
(g274
g3
NtRp354
(dp355
g16
I157
sg42
I0
sg19
g20
sbsg53
S'GetMediaSessionInfo'
p356
sg278
g1
(g279
g3
NtRp357
(dp358
g10
(lp359
sg16
Nsg19
Nsbsg15
Nsg19
Nsg16
Nsg288
g1
(g279
g3
NtRp360
(dp361
g10
(lp362
g1
(g283
g3
NtRp363
(dp364
g124
Nsg53
S'info'
p365
sg15
Nsg19
g20
sg127
S'MediaSessionInfo'
p366
sg16
I157
sbasg16
I157
sg19
g20
sbsbag1
(g271
g3
NtRp367
(dp368
g124
g1
(g274
g3
NtRp369
(dp370
g16
I160
sg42
I1
sg19
g20
sbsg53
S'GetDebugInfo'
p371
sg278
g1
(g279
g3
NtRp372
(dp373
g10
(lp374
sg16
Nsg19
Nsbsg15
Nsg19
Nsg16
Nsg288
g1
(g279
g3
NtRp375
(dp376
g10
(lp377
g1
(g283
g3
NtRp378
(dp379
g124
Nsg53
S'info'
p380
sg15
Nsg19
g20
sg127
S'MediaSessionDebugInfo'
p381
sg16
I160
sbasg16
I160
sg19
g20
sbsbag1
(g271
g3
NtRp382
(dp383
g124
g1
(g274
g3
NtRp384
(dp385
g16
I164
sg42
I2
sg19
g20
sbsg53
S'StartDucking'
p386
sg278
g1
(g279
g3
NtRp387
(dp388
g10
(lp389
sg16
Nsg19
Nsbsg15
Nsg19
Nsg16
Nsg288
Nsbag1
(g271
g3
NtRp390
(dp391
g124
g1
(g274
g3
NtRp392
(dp393
g16
I168
sg42
I3
sg19
g20
sbsg53
S'StopDucking'
p394
sg278
g1
(g279
g3
NtRp395
(dp396
g10
(lp397
sg16
Nsg19
Nsbsg15
Nsg19
Nsg16
Nsg288
Nsbag1
(g271
g3
NtRp398
(dp399
g124
g1
(g274
g3
NtRp400
(dp401
g16
I172
sg42
I4
sg19
g20
sbsg53
S'Suspend'
p402
sg278
g1
(g279
g3
NtRp403
(dp404
g10
(lp405
g1
(g283
g3
NtRp406
(dp407
g124
Nsg53
S'suspend_type'
p408
sg15
Nsg19
g20
sg127
S'SuspendType'
p409
sg16
I172
sbasg16
I172
sg19
g20
sbsg15
Nsg19
Nsg16
Nsg288
Nsbag1
(g271
g3
NtRp410
(dp411
g124
g1
(g274
g3
NtRp412
(dp413
g16
I176
sg42
I5
sg19
g20
sbsg53
S'Resume'
p414
sg278
g1
(g279
g3
NtRp415
(dp416
g10
(lp417
g1
(g283
g3
NtRp418
(dp419
g124
Nsg53
S'suspend_type'
p420
sg15
Nsg19
g20
sg127
S'SuspendType'
p421
sg16
I176
sbasg16
I176
sg19
g20
sbsg15
Nsg19
Nsg16
Nsg288
Nsbag1
(g271
g3
NtRp422
(dp423
g124
g1
(g274
g3
NtRp424
(dp425
g16
I178
sg42
I6
sg19
g20
sbsg53
S'AddObserver'
p426
sg278
g1
(g279
g3
NtRp427
(dp428
g10
(lp429
g1
(g283
g3
NtRp430
(dp431
g124
Nsg53
S'observer'
p432
sg15
Nsg19
g20
sg127
S'MediaSessionObserver'
p433
sg16
I178
sbasg16
I178
sg19
g20
sbsg15
Nsg19
Nsg16
Nsg288
Nsbag1
(g271
g3
NtRp434
(dp435
g124
g1
(g274
g3
NtRp436
(dp437
g16
I182
sg42
I7
sg19
g20
sbsg53
S'PreviousTrack'
p438
sg278
g1
(g279
g3
NtRp439
(dp440
g10
(lp441
sg16
Nsg19
Nsbsg15
Nsg19
Nsg16
Nsg288
Nsbag1
(g271
g3
NtRp442
(dp443
g124
g1
(g274
g3
NtRp444
(dp445
g16
I186
sg42
I8
sg19
g20
sbsg53
S'NextTrack'
p446
sg278
g1
(g279
g3
NtRp447
(dp448
g10
(lp449
sg16
Nsg19
Nsbsg15
Nsg19
Nsg16
Nsg288
Nsbag1
(g271
g3
NtRp450
(dp451
g124
g1
(g274
g3
NtRp452
(dp453
g16
I193
sg42
I9
sg19
g20
sbsg53
S'Seek'
p454
sg278
g1
(g279
g3
NtRp455
(dp456
g10
(lp457
g1
(g283
g3
NtRp458
(dp459
g124
Nsg53
S'seek_time'
p460
sg15
Nsg19
g20
sg127
S'mojo_base.mojom.TimeDelta'
p461
sg16
I193
sbasg16
I193
sg19
g20
sbsg15
Nsg19
Nsg16
Nsg288
Nsbag1
(g271
g3
NtRp462
(dp463
g124
g1
(g274
g3
NtRp464
(dp465
g16
I197
sg42
I10
sg19
g20
sbsg53
S'Stop'
p466
sg278
g1
(g279
g3
NtRp467
(dp468
g10
(lp469
g1
(g283
g3
NtRp470
(dp471
g124
Nsg53
S'suspend_type'
p472
sg15
Nsg19
g20
sg127
S'SuspendType'
p473
sg16
I197
sbasg16
I197
sg19
g20
sbsg15
Nsg19
Nsg16
Nsg288
Nsbag1
(g271
g3
NtRp474
(dp475
g124
g1
(g274
g3
NtRp476
(dp477
g16
I200
sg42
I11
sg19
g20
sbsg53
S'SkipAd'
p478
sg278
g1
(g279
g3
NtRp479
(dp480
g10
(lp481
sg16
Nsg19
Nsbsg15
Nsg19
Nsg16
Nsg288
Nsbag1
(g271
g3
NtRp482
(dp483
g124
g1
(g274
g3
NtRp484
(dp485
g16
I206
sg42
I12
sg19
g20
sbsg53
S'GetMediaImageBitmap'
p486
sg278
g1
(g279
g3
NtRp487
(dp488
g10
(lp489
g1
(g283
g3
NtRp490
(dp491
g124
Nsg53
S'image'
p492
sg15
Nsg19
g20
sg127
S'MediaImage'
p493
sg16
I207
sbag1
(g283
g3
NtRp494
(dp495
g124
Nsg53
S'minimum_size_px'
p496
sg15
Nsg19
g20
sg127
S'int32'
p497
sg16
I207
sbag1
(g283
g3
NtRp498
(dp499
g124
Nsg53
S'desired_size_px'
p500
sg15
Nsg19
g20
sg127
S'int32'
p501
sg16
I207
sbasg16
I207
sg19
g20
sbsg15
Nsg19
Nsg16
Nsg288
g1
(g279
g3
NtRp502
(dp503
g10
(lp504
g1
(g283
g3
NtRp505
(dp506
g124
Nsg53
S'image'
p507
sg15
Nsg19
g20
sg127
S'MediaImageBitmap?'
p508
sg16
I208
sbasg16
I208
sg19
g20
sbsbasg16
I147
sg19
g20
sbsg15
Nsg16
Nsg53
S'MediaSession'
p509
sg19
Nsbasg16
NsS'module'
p510
g1
(cmojom.parse.ast
Module
p511
g3
NtRp512
(dp513
S'mojom_namespace'
p514
(S'IDENTIFIER'
p515
S'media_session.mojom'
tp516
sg16
I5
sg15
Nsg19
g20
sbsg19
Nsb.