ccopy_reg
_reconstructor
p1
(cmojom.parse.ast
Mojom
p2
c__builtin__
object
p3
NtRp4
(dp5
S'import_list'
p6
g1
(cmojom.parse.ast
ImportList
p7
g3
NtRp8
(dp9
S'items'
p10
(lp11
sS'lineno'
p12
NsS'filename'
p13
NsbsS'definition_list'
p14
(lp15
g1
(cmojom.parse.ast
Struct
p16
g3
NtRp17
(dp18
S'body'
p19
g1
(cmojom.parse.ast
StructBody
p20
g3
NtRp21
(dp22
g10
(lp23
g1
(cmojom.parse.ast
StructField
p24
g3
NtRp25
(dp26
S'ordinal'
p27
NsS'default_value'
p28
NsS'mojom_name'
p29
S'country'
p30
sS'attribute_list'
p31
Nsg13
NsS'typename'
p32
S'string'
p33
sg12
Nsbag1
(g24
g3
NtRp34
(dp35
g27
Nsg28
Nsg29
S'address_line'
p36
sg31
Nsg13
Nsg32
S'string[]'
p37
sg12
Nsbag1
(g24
g3
NtRp38
(dp39
g27
Nsg28
Nsg29
S'region'
p40
sg31
Nsg13
Nsg32
S'string'
p41
sg12
Nsbag1
(g24
g3
NtRp42
(dp43
g27
Nsg28
Nsg29
S'city'
p44
sg31
Nsg13
Nsg32
S'string'
p45
sg12
Nsbag1
(g24
g3
NtRp46
(dp47
g27
Nsg28
Nsg29
S'dependent_locality'
p48
sg31
Nsg13
Nsg32
S'string'
p49
sg12
Nsbag1
(g24
g3
NtRp50
(dp51
g27
Nsg28
Nsg29
S'postal_code'
p52
sg31
Nsg13
Nsg32
S'string'
p53
sg12
Nsbag1
(g24
g3
NtRp54
(dp55
g27
Nsg28
Nsg29
S'sorting_code'
p56
sg31
Nsg13
Nsg32
S'string'
p57
sg12
Nsbag1
(g24
g3
NtRp58
(dp59
g27
Nsg28
Nsg29
S'organization'
p60
sg31
Nsg13
Nsg32
S'string'
p61
sg12
Nsbag1
(g24
g3
NtRp62
(dp63
g27
Nsg28
Nsg29
S'recipient'
p64
sg31
Nsg13
Nsg32
S'string'
p65
sg12
Nsbag1
(g24
g3
NtRp66
(dp67
g27
Nsg28
Nsg29
S'phone'
p68
sg31
Nsg13
Nsg32
S'string'
p69
sg12
Nsbasg12
Nsg13
Nsbsg31
Nsg12
Nsg29
S'PaymentAddress'
p70
sg13
Nsbag1
(g16
g3
NtRp71
(dp72
g19
g1
(g20
g3
NtRp73
(dp74
g10
(lp75
g1
(g24
g3
NtRp76
(dp77
g27
Nsg28
Nsg29
S'currency'
p78
sg31
Nsg13
Nsg32
S'string'
p79
sg12
Nsbag1
(g24
g3
NtRp80
(dp81
g27
Nsg28
Nsg29
S'value'
p82
sg31
Nsg13
Nsg32
S'string'
p83
sg12
Nsbasg12
Nsg13
Nsbsg31
Nsg12
Nsg29
S'PaymentCurrencyAmount'
p84
sg13
Nsbag1
(g16
g3
NtRp85
(dp86
g19
g1
(g20
g3
NtRp87
(dp88
g10
(lp89
g1
(g24
g3
NtRp90
(dp91
g27
Nsg28
Nsg29
S'error'
p92
sg31
Nsg13
Nsg32
S'string'
p93
sg12
Nsbag1
(g24
g3
NtRp94
(dp95
g27
Nsg28
Nsg29
S'payer'
p96
sg31
Nsg13
Nsg32
S'PayerErrors'
p97
sg12
Nsbag1
(g24
g3
NtRp98
(dp99
g27
Nsg28
Nsg29
S'shipping_address'
p100
sg31
Nsg13
Nsg32
S'AddressErrors'
p101
sg12
Nsbasg12
Nsg13
Nsbsg31
Nsg12
Nsg29
S'PaymentValidationErrors'
p102
sg13
Nsbag1
(g16
g3
NtRp103
(dp104
g19
g1
(g20
g3
NtRp105
(dp106
g10
(lp107
g1
(g24
g3
NtRp108
(dp109
g27
Nsg28
Nsg29
S'email'
p110
sg31
Nsg13
Nsg32
S'string'
p111
sg12
Nsbag1
(g24
g3
NtRp112
(dp113
g27
Nsg28
Nsg29
S'name'
p114
sg31
Nsg13
Nsg32
S'string'
p115
sg12
Nsbag1
(g24
g3
NtRp116
(dp117
g27
Nsg28
Nsg29
S'phone'
p118
sg31
Nsg13
Nsg32
S'string'
p119
sg12
Nsbasg12
Nsg13
Nsbsg31
Nsg12
Nsg29
S'PayerErrors'
p120
sg13
Nsbag1
(g16
g3
NtRp121
(dp122
g19
g1
(g20
g3
NtRp123
(dp124
g10
(lp125
g1
(g24
g3
NtRp126
(dp127
g27
Nsg28
Nsg29
S'address_line'
p128
sg31
Nsg13
Nsg32
S'string'
p129
sg12
Nsbag1
(g24
g3
NtRp130
(dp131
g27
Nsg28
Nsg29
S'city'
p132
sg31
Nsg13
Nsg32
S'string'
p133
sg12
Nsbag1
(g24
g3
NtRp134
(dp135
g27
Nsg28
Nsg29
S'country'
p136
sg31
Nsg13
Nsg32
S'string'
p137
sg12
Nsbag1
(g24
g3
NtRp138
(dp139
g27
Nsg28
Nsg29
S'dependent_locality'
p140
sg31
Nsg13
Nsg32
S'string'
p141
sg12
Nsbag1
(g24
g3
NtRp142
(dp143
g27
Nsg28
Nsg29
S'organization'
p144
sg31
Nsg13
Nsg32
S'string'
p145
sg12
Nsbag1
(g24
g3
NtRp146
(dp147
g27
Nsg28
Nsg29
S'phone'
p148
sg31
Nsg13
Nsg32
S'string'
p149
sg12
Nsbag1
(g24
g3
NtRp150
(dp151
g27
Nsg28
Nsg29
S'postal_code'
p152
sg31
Nsg13
Nsg32
S'string'
p153
sg12
Nsbag1
(g24
g3
NtRp154
(dp155
g27
Nsg28
Nsg29
S'recipient'
p156
sg31
Nsg13
Nsg32
S'string'
p157
sg12
Nsbag1
(g24
g3
NtRp158
(dp159
g27
Nsg28
Nsg29
S'region'
p160
sg31
Nsg13
Nsg32
S'string'
p161
sg12
Nsbag1
(g24
g3
NtRp162
(dp163
g27
Nsg28
Nsg29
S'sorting_code'
p164
sg31
Nsg13
Nsg32
S'string'
p165
sg12
Nsbasg12
Nsg13
Nsbsg31
Nsg12
Nsg29
S'AddressErrors'
p166
sg13
Nsbasg12
NsS'module'
p167
g1
(cmojom.parse.ast
Module
p168
g3
NtRp169
(dp170
S'mojom_namespace'
p171
(S'IDENTIFIER'
p172
S'payments.mojom'
tp173
sg12
I6
sg31
g1
(cmojom.parse.ast
AttributeList
p174
g3
NtRp175
(dp176
g10
(lp177
g1
(cmojom.parse.ast
Attribute
p178
g3
NtRp179
(dp180
S'value'
p181
S'org.chromium.payments.mojom'
p182
sg12
I5
sS'key'
p183
S'JavaPackage'
p184
sg13
S'../../components/payments/mojom/payment_request_data.mojom'
p185
sbasg12
I5
sg13
g185
sbsg13
g185
sbsg13
Nsb.