ccopy_reg
_reconstructor
p1
(cmojom.parse.ast
Mojom
p2
c__builtin__
object
p3
NtRp4
(dp5
S'import_list'
p6
g1
(cmojom.parse.ast
ImportList
p7
g3
NtRp8
(dp9
S'items'
p10
(lp11
g1
(cmojom.parse.ast
Import
p12
g3
NtRp13
(dp14
S'attribute_list'
p15
NsS'lineno'
p16
I7
sS'import_filename'
p17
S'skia/public/interfaces/bitmap.mojom'
p18
sS'filename'
p19
S'../../ui/gfx/image/mojo/image.mojom'
p20
sbasg16
I7
sg19
g20
sbsS'definition_list'
p21
(lp22
g1
(cmojom.parse.ast
Struct
p23
g3
NtRp24
(dp25
S'body'
p26
g1
(cmojom.parse.ast
StructBody
p27
g3
NtRp28
(dp29
g10
(lp30
g1
(cmojom.parse.ast
StructField
p31
g3
NtRp32
(dp33
S'ordinal'
p34
NsS'default_value'
p35
NsS'mojom_name'
p36
S'bitmap'
p37
sg15
Nsg19
NsS'typename'
p38
S'skia.mojom.Bitmap'
p39
sg16
Nsbag1
(g31
g3
NtRp40
(dp41
g34
Nsg35
Nsg36
S'scale'
p42
sg15
Nsg19
Nsg38
S'float'
p43
sg16
Nsbasg16
Nsg19
Nsbsg15
Nsg16
Nsg36
S'ImageSkiaRep'
p44
sg19
Nsbag1
(g23
g3
NtRp45
(dp46
g26
g1
(g27
g3
NtRp47
(dp48
g10
(lp49
g1
(g31
g3
NtRp50
(dp51
g34
Nsg35
Nsg36
S'image_reps'
p52
sg15
Nsg19
Nsg38
S'ImageSkiaRep[]'
p53
sg16
Nsbasg16
Nsg19
Nsbsg15
Nsg16
Nsg36
S'ImageSkia'
p54
sg19
Nsbasg16
NsS'module'
p55
g1
(cmojom.parse.ast
Module
p56
g3
NtRp57
(dp58
S'mojom_namespace'
p59
(S'IDENTIFIER'
p60
S'gfx.mojom'
tp61
sg16
I5
sg15
Nsg19
g20
sbsg19
Nsb.