ccopy_reg
_reconstructor
p1
(cmojom.parse.ast
Mojom
p2
c__builtin__
object
p3
NtRp4
(dp5
S'import_list'
p6
g1
(cmojom.parse.ast
ImportList
p7
g3
NtRp8
(dp9
S'items'
p10
(lp11
g1
(cmojom.parse.ast
Import
p12
g3
NtRp13
(dp14
S'attribute_list'
p15
NsS'lineno'
p16
I7
sS'import_filename'
p17
S'mojo/public/mojom/base/file.mojom'
p18
sS'filename'
p19
S'../../components/services/font/public/interfaces/font_service.mojom'
p20
sbasg16
I7
sg19
g20
sbsS'definition_list'
p21
(lp22
g1
(cmojom.parse.ast
Enum
p23
g3
NtRp24
(dp25
g15
NsS'enum_value_list'
p26
g1
(cmojom.parse.ast
EnumValueList
p27
g3
NtRp28
(dp29
g10
(lp30
g1
(cmojom.parse.ast
EnumValue
p31
g3
NtRp32
(dp33
g15
NsS'value'
p34
S'0'
sg16
I10
sS'mojom_name'
p35
S'ROMAN'
p36
sg19
g20
sbag1
(g31
g3
NtRp37
(dp38
g15
Nsg34
S'1'
sg16
I11
sg35
S'ITALIC'
p39
sg19
g20
sbag1
(g31
g3
NtRp40
(dp41
g15
Nsg34
S'2'
sg16
I12
sg35
S'OBLIQUE'
p42
sg19
g20
sbasg16
I10
sg19
g20
sbsg16
I9
sg35
S'TypefaceSlant'
p43
sg19
g20
sbag1
(cmojom.parse.ast
Struct
p44
g3
NtRp45
(dp46
S'body'
p47
g1
(cmojom.parse.ast
StructBody
p48
g3
NtRp49
(dp50
g10
(lp51
g1
(cmojom.parse.ast
StructField
p52
g3
NtRp53
(dp54
S'ordinal'
p55
NsS'default_value'
p56
Nsg35
S'weight'
p57
sg15
Nsg19
NsS'typename'
p58
S'uint16'
p59
sg16
Nsbag1
(g52
g3
NtRp60
(dp61
g55
Nsg56
Nsg35
S'width'
p62
sg15
Nsg19
Nsg58
S'uint8'
p63
sg16
Nsbag1
(g52
g3
NtRp64
(dp65
g55
Nsg56
Nsg35
S'slant'
p66
sg15
Nsg19
Nsg58
S'TypefaceSlant'
p67
sg16
Nsbasg16
Nsg19
Nsbsg15
Nsg16
Nsg35
S'TypefaceStyle'
p68
sg19
Nsbag1
(g44
g3
NtRp69
(dp70
g47
g1
(g48
g3
NtRp71
(dp72
g10
(lp73
g1
(g52
g3
NtRp74
(dp75
g55
Nsg56
Nsg35
S'id'
p76
sg15
Nsg19
Nsg58
S'uint32'
p77
sg16
Nsbag1
(g52
g3
NtRp78
(dp79
g55
Nsg56
Nsg35
S'ttc_index'
p80
sg15
Nsg19
Nsg58
S'int32'
p81
sg16
Nsbag1
(g52
g3
NtRp82
(dp83
g55
Nsg56
Nsg35
S'str_representation'
p84
sg15
Nsg19
Nsg58
S'string'
p85
sg16
Nsbasg16
Nsg19
Nsbsg15
Nsg16
Nsg35
S'FontIdentity'
p86
sg19
Nsbag1
(g23
g3
NtRp87
(dp88
g15
Nsg26
g1
(g27
g3
NtRp89
(dp90
g10
(lp91
g1
(g31
g3
NtRp92
(dp93
g15
Nsg34
S'0'
sg16
I34
sg35
S'OFF'
p94
sg19
g20
sbag1
(g31
g3
NtRp95
(dp96
g15
Nsg34
S'1'
sg16
I35
sg35
S'ON'
p97
sg19
g20
sbag1
(g31
g3
NtRp98
(dp99
g15
Nsg34
S'2'
sg16
I36
sg35
S'NO_PREFERENCE'
p100
sg19
g20
sbasg16
I34
sg19
g20
sbsg16
I33
sg35
S'RenderStyleSwitch'
p101
sg19
g20
sbag1
(g44
g3
NtRp102
(dp103
g47
g1
(g48
g3
NtRp104
(dp105
g10
(lp106
g1
(g52
g3
NtRp107
(dp108
g55
Nsg56
Nsg35
S'use_bitmaps'
p109
sg15
Nsg19
Nsg58
S'RenderStyleSwitch'
p110
sg16
Nsbag1
(g52
g3
NtRp111
(dp112
g55
Nsg56
Nsg35
S'use_autohint'
p113
sg15
Nsg19
Nsg58
S'RenderStyleSwitch'
p114
sg16
Nsbag1
(g52
g3
NtRp115
(dp116
g55
Nsg56
Nsg35
S'use_hinting'
p117
sg15
Nsg19
Nsg58
S'RenderStyleSwitch'
p118
sg16
Nsbag1
(g52
g3
NtRp119
(dp120
g55
Nsg56
Nsg35
S'hint_style'
p121
sg15
Nsg19
Nsg58
S'uint8'
p122
sg16
Nsbag1
(g52
g3
NtRp123
(dp124
g55
Nsg56
Nsg35
S'use_antialias'
p125
sg15
Nsg19
Nsg58
S'RenderStyleSwitch'
p126
sg16
Nsbag1
(g52
g3
NtRp127
(dp128
g55
Nsg56
Nsg35
S'use_subpixel_rendering'
p129
sg15
Nsg19
Nsg58
S'RenderStyleSwitch'
p130
sg16
Nsbag1
(g52
g3
NtRp131
(dp132
g55
Nsg56
Nsg35
S'use_subpixel_positioning'
p133
sg15
Nsg19
Nsg58
S'RenderStyleSwitch'
p134
sg16
Nsbasg16
Nsg19
Nsbsg15
Nsg16
Nsg35
S'FontRenderStyle'
p135
sg19
Nsbag1
(cmojom.parse.ast
Interface
p136
g3
NtRp137
(dp138
g47
g1
(cmojom.parse.ast
InterfaceBody
p139
g3
NtRp140
(dp141
g10
(lp142
g1
(cmojom.parse.ast
Method
p143
g3
NtRp144
(dp145
g55
Nsg35
S'MatchFamilyName'
p146
sS'parameter_list'
p147
g1
(cmojom.parse.ast
ParameterList
p148
g3
NtRp149
(dp150
g10
(lp151
g1
(cmojom.parse.ast
Parameter
p152
g3
NtRp153
(dp154
g55
Nsg35
S'family_name'
p155
sg15
Nsg19
g20
sg58
S'string'
p156
sg16
I62
sbag1
(g152
g3
NtRp157
(dp158
g55
Nsg35
S'style'
p159
sg15
Nsg19
g20
sg58
S'TypefaceStyle'
p160
sg16
I62
sbasg16
I62
sg19
g20
sbsg15
Nsg19
Nsg16
NsS'response_parameter_list'
p161
g1
(g148
g3
NtRp162
(dp163
g10
(lp164
g1
(g152
g3
NtRp165
(dp166
g55
Nsg35
S'identity'
p167
sg15
Nsg19
g20
sg58
S'FontIdentity?'
p168
sg16
I63
sbag1
(g152
g3
NtRp169
(dp170
g55
Nsg35
S'family_name'
p171
sg15
Nsg19
g20
sg58
S'string'
p172
sg16
I63
sbag1
(g152
g3
NtRp173
(dp174
g55
Nsg35
S'style'
p175
sg15
Nsg19
g20
sg58
S'TypefaceStyle'
p176
sg16
I63
sbasg16
I63
sg19
g20
sbsbag1
(g143
g3
NtRp177
(dp178
g55
Nsg35
S'OpenStream'
p179
sg147
g1
(g148
g3
NtRp180
(dp181
g10
(lp182
g1
(g152
g3
NtRp183
(dp184
g55
Nsg35
S'id_number'
p185
sg15
Nsg19
g20
sg58
S'uint32'
p186
sg16
I66
sbasg16
I66
sg19
g20
sbsg15
Nsg19
Nsg16
Nsg161
g1
(g148
g3
NtRp187
(dp188
g10
(lp189
g1
(g152
g3
NtRp190
(dp191
g55
Nsg35
S'font_handle'
p192
sg15
Nsg19
g20
sg58
S'mojo_base.mojom.File?'
p193
sg16
I66
sbasg16
I66
sg19
g20
sbsbag1
(g143
g3
NtRp194
(dp195
g55
Nsg35
S'FallbackFontForCharacter'
p196
sg147
g1
(g148
g3
NtRp197
(dp198
g10
(lp199
g1
(g152
g3
NtRp200
(dp201
g55
Nsg35
S'character'
p202
sg15
Nsg19
g20
sg58
S'uint32'
p203
sg16
I70
sbag1
(g152
g3
NtRp204
(dp205
g55
Nsg35
S'locale'
p206
sg15
Nsg19
g20
sg58
S'string'
p207
sg16
I70
sbasg16
I70
sg19
g20
sbsg15
Nsg19
Nsg16
Nsg161
g1
(g148
g3
NtRp208
(dp209
g10
(lp210
g1
(g152
g3
NtRp211
(dp212
g55
Nsg35
S'identity'
p213
sg15
Nsg19
g20
sg58
S'FontIdentity?'
p214
sg16
I71
sbag1
(g152
g3
NtRp215
(dp216
g55
Nsg35
S'family_name'
p217
sg15
Nsg19
g20
sg58
S'string'
p218
sg16
I72
sbag1
(g152
g3
NtRp219
(dp220
g55
Nsg35
S'is_bold'
p221
sg15
Nsg19
g20
sg58
S'bool'
p222
sg16
I73
sbag1
(g152
g3
NtRp223
(dp224
g55
Nsg35
S'is_italic'
p225
sg15
Nsg19
g20
sg58
S'bool'
p226
sg16
I74
sbasg16
I71
sg19
g20
sbsbag1
(g143
g3
NtRp227
(dp228
g55
Nsg35
S'FontRenderStyleForStrike'
p229
sg147
g1
(g148
g3
NtRp230
(dp231
g10
(lp232
g1
(g152
g3
NtRp233
(dp234
g55
Nsg35
S'family'
p235
sg15
Nsg19
g20
sg58
S'string'
p236
sg16
I79
sbag1
(g152
g3
NtRp237
(dp238
g55
Nsg35
S'size'
p239
sg15
Nsg19
g20
sg58
S'uint32'
p240
sg16
I80
sbag1
(g152
g3
NtRp241
(dp242
g55
Nsg35
S'is_italic'
p243
sg15
Nsg19
g20
sg58
S'bool'
p244
sg16
I81
sbag1
(g152
g3
NtRp245
(dp246
g55
Nsg35
S'is_bold'
p247
sg15
Nsg19
g20
sg58
S'bool'
p248
sg16
I82
sbag1
(g152
g3
NtRp249
(dp250
g55
Nsg35
S'device_scale_factor'
p251
sg15
Nsg19
g20
sg58
S'float'
p252
sg16
I83
sbasg16
I79
sg19
g20
sbsg15
Nsg19
Nsg16
Nsg161
g1
(g148
g3
NtRp253
(dp254
g10
(lp255
g1
(g152
g3
NtRp256
(dp257
g55
Nsg35
S'font_render_style'
p258
sg15
Nsg19
g20
sg58
S'FontRenderStyle?'
p259
sg16
I84
sbasg16
I84
sg19
g20
sbsbag1
(g143
g3
NtRp260
(dp261
g55
Nsg35
S'MatchFontByPostscriptNameOrFullFontName'
p262
sg147
g1
(g148
g3
NtRp263
(dp264
g10
(lp265
g1
(g152
g3
NtRp266
(dp267
g55
Nsg35
S'postscript_name_or_full_font_name'
p268
sg15
Nsg19
g20
sg58
S'string'
p269
sg16
I90
sbasg16
I90
sg19
g20
sbsg15
Nsg19
Nsg16
Nsg161
g1
(g148
g3
NtRp270
(dp271
g10
(lp272
g1
(g152
g3
NtRp273
(dp274
g55
Nsg35
S'identity'
p275
sg15
Nsg19
g20
sg58
S'FontIdentity?'
p276
sg16
I91
sbasg16
I91
sg19
g20
sbsbag1
(g143
g3
NtRp277
(dp278
g55
Nsg35
S'MatchFontWithFallback'
p279
sg147
g1
(g148
g3
NtRp280
(dp281
g10
(lp282
g1
(g152
g3
NtRp283
(dp284
g55
Nsg35
S'family'
p285
sg15
Nsg19
g20
sg58
S'string'
p286
sg16
I94
sbag1
(g152
g3
NtRp287
(dp288
g55
Nsg35
S'is_bold'
p289
sg15
Nsg19
g20
sg58
S'bool'
p290
sg16
I94
sbag1
(g152
g3
NtRp291
(dp292
g55
Nsg35
S'is_italic'
p293
sg15
Nsg19
g20
sg58
S'bool'
p294
sg16
I94
sbag1
(g152
g3
NtRp295
(dp296
g55
Nsg35
S'charset'
p297
sg15
Nsg19
g20
sg58
S'uint32'
p298
sg16
I95
sbag1
(g152
g3
NtRp299
(dp300
g55
Nsg35
S'fallback_family_type'
p301
sg15
Nsg19
g20
sg58
S'uint32'
p302
sg16
I95
sbasg16
I94
sg19
g20
sbsg15
Nsg19
Nsg16
Nsg161
g1
(g148
g3
NtRp303
(dp304
g10
(lp305
g1
(g152
g3
NtRp306
(dp307
g55
Nsg35
S'font_file_handle'
p308
sg15
Nsg19
g20
sg58
S'mojo_base.mojom.File?'
p309
sg16
I96
sbasg16
I96
sg19
g20
sbsbasg16
Nsg19
Nsbsg15
Nsg16
Nsg35
S'FontService'
p310
sg19
Nsbasg16
NsS'module'
p311
g1
(cmojom.parse.ast
Module
p312
g3
NtRp313
(dp314
S'mojom_namespace'
p315
(S'IDENTIFIER'
p316
S'font_service.mojom'
tp317
sg16
I5
sg15
Nsg19
g20
sbsg19
Nsb.