ccopy_reg
_reconstructor
p1
(cmojom.parse.ast
Mojom
p2
c__builtin__
object
p3
NtRp4
(dp5
S'import_list'
p6
g1
(cmojom.parse.ast
ImportList
p7
g3
NtRp8
(dp9
S'items'
p10
(lp11
g1
(cmojom.parse.ast
Import
p12
g3
NtRp13
(dp14
S'attribute_list'
p15
NsS'lineno'
p16
I8
sS'import_filename'
p17
S'mojo/public/mojom/base/big_buffer.mojom'
p18
sS'filename'
p19
S'../../skia/public/interfaces/bitmap.mojom'
p20
sbag1
(g12
g3
NtRp21
(dp22
g15
Nsg16
I9
sg17
S'skia/public/interfaces/image_info.mojom'
p23
sg19
g20
sbasg16
I8
sg19
g20
sbsS'definition_list'
p24
(lp25
g1
(cmojom.parse.ast
Struct
p26
g3
NtRp27
(dp28
S'body'
p29
g1
(cmojom.parse.ast
StructBody
p30
g3
NtRp31
(dp32
g10
(lp33
g1
(cmojom.parse.ast
StructField
p34
g3
NtRp35
(dp36
S'ordinal'
p37
NsS'default_value'
p38
NsS'mojom_name'
p39
S'image_info'
p40
sg15
Nsg19
NsS'typename'
p41
S'ImageInfo'
p42
sg16
Nsbag1
(g34
g3
NtRp43
(dp44
g37
Nsg38
Nsg39
S'row_bytes'
p45
sg15
Nsg19
Nsg41
S'uint64'
p46
sg16
Nsbag1
(g34
g3
NtRp47
(dp48
g37
Nsg38
Nsg39
S'pixel_data'
p49
sg15
Nsg19
Nsg41
S'mojo_base.mojom.BigBuffer'
p50
sg16
Nsbasg16
Nsg19
Nsbsg15
Nsg16
Nsg39
S'Bitmap'
p51
sg19
Nsbag1
(g26
g3
NtRp52
(dp53
g29
g1
(g30
g3
NtRp54
(dp55
g10
(lp56
g1
(g34
g3
NtRp57
(dp58
g37
Nsg38
Nsg39
S'image_info'
p59
sg15
Nsg19
Nsg41
S'ImageInfo'
p60
sg16
Nsbag1
(g34
g3
NtRp61
(dp62
g37
Nsg38
Nsg39
S'row_bytes'
p63
sg15
Nsg19
Nsg41
S'uint64'
p64
sg16
Nsbag1
(g34
g3
NtRp65
(dp66
g37
Nsg38
Nsg39
S'pixel_data'
p67
sg15
Nsg19
Nsg41
S'uint8[]'
p68
sg16
Nsbasg16
Nsg19
Nsbsg15
Nsg16
Nsg39
S'InlineBitmap'
p69
sg19
Nsbasg16
NsS'module'
p70
g1
(cmojom.parse.ast
Module
p71
g3
NtRp72
(dp73
S'mojom_namespace'
p74
(S'IDENTIFIER'
p75
S'skia.mojom'
tp76
sg16
I6
sg15
Nsg19
g20
sbsg19
Nsb.