ccopy_reg
_reconstructor
p1
(cmojom.parse.ast
Mojom
p2
c__builtin__
object
p3
NtRp4
(dp5
S'import_list'
p6
g1
(cmojom.parse.ast
ImportList
p7
g3
NtRp8
(dp9
S'items'
p10
(lp11
g1
(cmojom.parse.ast
Import
p12
g3
NtRp13
(dp14
S'attribute_list'
p15
NsS'lineno'
p16
I7
sS'import_filename'
p17
S'mojo/public/mojom/base/time.mojom'
p18
sS'filename'
p19
S'../../services/viz/public/interfaces/compositing/begin_frame_args.mojom'
p20
sbasg16
I7
sg19
g20
sbsS'definition_list'
p21
(lp22
g1
(cmojom.parse.ast
Enum
p23
g3
NtRp24
(dp25
g15
NsS'enum_value_list'
p26
g1
(cmojom.parse.ast
EnumValueList
p27
g3
NtRp28
(dp29
g10
(lp30
g1
(cmojom.parse.ast
EnumValue
p31
g3
NtRp32
(dp33
g15
NsS'value'
p34
Nsg16
I10
sS'mojom_name'
p35
S'INVALID'
p36
sg19
g20
sbag1
(g31
g3
NtRp37
(dp38
g15
Nsg34
Nsg16
I11
sg35
S'NORMAL'
p39
sg19
g20
sbag1
(g31
g3
NtRp40
(dp41
g15
Nsg34
Nsg16
I12
sg35
S'MISSED'
p42
sg19
g20
sbasg16
I10
sg19
g20
sbsg16
I9
sg35
S'BeginFrameArgsType'
p43
sg19
g20
sbag1
(cmojom.parse.ast
Struct
p44
g3
NtRp45
(dp46
S'body'
p47
g1
(cmojom.parse.ast
StructBody
p48
g3
NtRp49
(dp50
g10
(lp51
g1
(cmojom.parse.ast
StructField
p52
g3
NtRp53
(dp54
S'ordinal'
p55
NsS'default_value'
p56
Nsg35
S'frame_time'
p57
sg15
Nsg19
NsS'typename'
p58
S'mojo_base.mojom.TimeTicks'
p59
sg16
Nsbag1
(g52
g3
NtRp60
(dp61
g55
Nsg56
Nsg35
S'deadline'
p62
sg15
Nsg19
Nsg58
S'mojo_base.mojom.TimeTicks'
p63
sg16
Nsbag1
(g52
g3
NtRp64
(dp65
g55
Nsg56
Nsg35
S'interval'
p66
sg15
Nsg19
Nsg58
S'mojo_base.mojom.TimeDelta'
p67
sg16
Nsbag1
(g52
g3
NtRp68
(dp69
g55
Nsg56
Nsg35
S'source_id'
p70
sg15
Nsg19
Nsg58
S'uint64'
p71
sg16
Nsbag1
(g52
g3
NtRp72
(dp73
g55
Nsg56
Nsg35
S'sequence_number'
p74
sg15
Nsg19
Nsg58
S'uint64'
p75
sg16
Nsbag1
(g52
g3
NtRp76
(dp77
g55
Nsg56
Nsg35
S'trace_id'
p78
sg15
Nsg19
Nsg58
S'int64'
p79
sg16
Nsbag1
(g52
g3
NtRp80
(dp81
g55
Nsg56
Nsg35
S'type'
p82
sg15
Nsg19
Nsg58
S'BeginFrameArgsType'
p83
sg16
Nsbag1
(g52
g3
NtRp84
(dp85
g55
Nsg56
Nsg35
S'on_critical_path'
p86
sg15
Nsg19
Nsg58
S'bool'
p87
sg16
Nsbag1
(g52
g3
NtRp88
(dp89
g55
Nsg56
Nsg35
S'animate_only'
p90
sg15
Nsg19
Nsg58
S'bool'
p91
sg16
Nsbasg16
Nsg19
Nsbsg15
Nsg16
Nsg35
S'BeginFrameArgs'
p92
sg19
Nsbag1
(g44
g3
NtRp93
(dp94
g47
g1
(g48
g3
NtRp95
(dp96
g10
(lp97
g1
(g52
g3
NtRp98
(dp99
g55
Nsg56
Nsg35
S'source_id'
p100
sg15
Nsg19
Nsg58
S'uint64'
p101
sg16
Nsbag1
(g52
g3
NtRp102
(dp103
g55
Nsg56
Nsg35
S'sequence_number'
p104
sg15
Nsg19
Nsg58
S'uint64'
p105
sg16
Nsbag1
(g52
g3
NtRp106
(dp107
g55
Nsg56
Nsg35
S'trace_id'
p108
sg15
Nsg19
Nsg58
S'int64'
p109
sg16
Nsbag1
(g52
g3
NtRp110
(dp111
g55
Nsg56
Nsg35
S'has_damage'
p112
sg15
Nsg19
Nsg58
S'bool'
p113
sg16
Nsbasg16
Nsg19
Nsbsg15
Nsg16
Nsg35
S'BeginFrameAck'
p114
sg19
Nsbasg16
NsS'module'
p115
g1
(cmojom.parse.ast
Module
p116
g3
NtRp117
(dp118
S'mojom_namespace'
p119
(S'IDENTIFIER'
p120
S'viz.mojom'
tp121
sg16
I5
sg15
Nsg19
g20
sbsg19
Nsb.