ccopy_reg
_reconstructor
p1
(cmojom.parse.ast
Mojom
p2
c__builtin__
object
p3
NtRp4
(dp5
S'import_list'
p6
g1
(cmojom.parse.ast
ImportList
p7
g3
NtRp8
(dp9
S'items'
p10
(lp11
g1
(cmojom.parse.ast
Import
p12
g3
NtRp13
(dp14
S'attribute_list'
p15
NsS'lineno'
p16
I7
sS'import_filename'
p17
S'mojo/public/mojom/base/time.mojom'
p18
sS'filename'
p19
S'../../services/viz/public/interfaces/compositing/compositor_frame_metadata.mojom'
p20
sbag1
(g12
g3
NtRp21
(dp22
g15
Nsg16
I8
sg17
S'services/viz/public/interfaces/compositing/begin_frame_args.mojom'
p23
sg19
g20
sbag1
(g12
g3
NtRp24
(dp25
g15
Nsg16
I9
sg17
S'services/viz/public/interfaces/compositing/frame_deadline.mojom'
p26
sg19
g20
sbag1
(g12
g3
NtRp27
(dp28
g15
Nsg16
I10
sg17
S'services/viz/public/interfaces/compositing/selection.mojom'
p29
sg19
g20
sbag1
(g12
g3
NtRp30
(dp31
g15
Nsg16
I11
sg17
S'services/viz/public/interfaces/compositing/surface_id.mojom'
p32
sg19
g20
sbag1
(g12
g3
NtRp33
(dp34
g15
Nsg16
I12
sg17
S'services/viz/public/interfaces/compositing/surface_range.mojom'
p35
sg19
g20
sbag1
(g12
g3
NtRp36
(dp37
g15
Nsg16
I13
sg17
S'ui/latency/mojo/latency_info.mojom'
p38
sg19
g20
sbag1
(g12
g3
NtRp39
(dp40
g15
Nsg16
I14
sg17
S'ui/gfx/geometry/mojo/geometry.mojom'
p41
sg19
g20
sbasg16
I7
sg19
g20
sbsS'definition_list'
p42
(lp43
g1
(cmojom.parse.ast
Struct
p44
g3
NtRp45
(dp46
S'body'
p47
g1
(cmojom.parse.ast
StructBody
p48
g3
NtRp49
(dp50
g10
(lp51
g1
(cmojom.parse.ast
StructField
p52
g3
NtRp53
(dp54
S'ordinal'
p55
NsS'default_value'
p56
NsS'mojom_name'
p57
S'device_scale_factor'
p58
sg15
Nsg19
NsS'typename'
p59
S'float'
p60
sg16
Nsbag1
(g52
g3
NtRp61
(dp62
g55
Nsg56
Nsg57
S'root_scroll_offset'
p63
sg15
Nsg19
Nsg59
S'gfx.mojom.Vector2dF'
p64
sg16
Nsbag1
(g52
g3
NtRp65
(dp66
g55
Nsg56
Nsg57
S'page_scale_factor'
p67
sg15
Nsg19
Nsg59
S'float'
p68
sg16
Nsbag1
(g52
g3
NtRp69
(dp70
g55
Nsg56
Nsg57
S'scrollable_viewport_size'
p71
sg15
Nsg19
Nsg59
S'gfx.mojom.SizeF'
p72
sg16
Nsbag1
(g52
g3
NtRp73
(dp74
g55
Nsg56
Nsg57
S'may_contain_video'
p75
sg15
Nsg19
Nsg59
S'bool'
p76
sg16
Nsbag1
(g52
g3
NtRp77
(dp78
g55
Nsg56
Nsg57
S'is_resourceless_software_draw_with_scroll_or_animation'
p79
sg15
Nsg19
Nsg59
S'bool'
p80
sg16
Nsbag1
(g52
g3
NtRp81
(dp82
g55
Nsg56
Nsg57
S'root_background_color'
p83
sg15
Nsg19
Nsg59
S'uint32'
p84
sg16
Nsbag1
(g52
g3
NtRp85
(dp86
g55
Nsg56
Nsg57
S'latency_info'
p87
sg15
Nsg19
Nsg59
S'ui.mojom.LatencyInfo[]'
p88
sg16
Nsbag1
(g52
g3
NtRp89
(dp90
g55
Nsg56
Nsg57
S'referenced_surfaces'
p91
sg15
Nsg19
Nsg59
S'SurfaceRange[]'
p92
sg16
Nsbag1
(g52
g3
NtRp93
(dp94
g55
Nsg56
Nsg57
S'deadline'
p95
sg15
Nsg19
Nsg59
S'FrameDeadline'
p96
sg16
Nsbag1
(g52
g3
NtRp97
(dp98
g55
Nsg56
Nsg57
S'activation_dependencies'
p99
sg15
Nsg19
Nsg59
S'SurfaceId[]'
p100
sg16
Nsbag1
(g52
g3
NtRp101
(dp102
g55
Nsg56
Nsg57
S'content_source_id'
p103
sg15
Nsg19
Nsg59
S'uint32'
p104
sg16
Nsbag1
(g52
g3
NtRp105
(dp106
g55
Nsg56
Nsg57
S'begin_frame_ack'
p107
sg15
Nsg19
Nsg59
S'BeginFrameAck'
p108
sg16
Nsbag1
(g52
g3
NtRp109
(dp110
g55
Nsg56
Nsg57
S'frame_token'
p111
sg15
Nsg19
Nsg59
S'uint32'
p112
sg16
Nsbag1
(g52
g3
NtRp113
(dp114
g55
Nsg56
Nsg57
S'send_frame_token_to_embedder'
p115
sg15
Nsg19
Nsg59
S'bool'
p116
sg16
Nsbag1
(g52
g3
NtRp117
(dp118
g55
Nsg56
Nsg57
S'min_page_scale_factor'
p119
sg15
Nsg19
Nsg59
S'float'
p120
sg16
Nsbag1
(g52
g3
NtRp121
(dp122
g55
Nsg56
Nsg57
S'top_controls_height'
p123
sg15
Nsg19
Nsg59
S'float'
p124
sg16
Nsbag1
(g52
g3
NtRp125
(dp126
g55
Nsg56
Nsg57
S'top_controls_shown_ratio'
p127
sg15
Nsg19
Nsg59
S'float'
p128
sg16
Nsbag1
(g52
g3
NtRp129
(dp130
g55
Nsg56
Nsg57
S'local_surface_id_allocation_time'
p131
sg15
Nsg19
Nsg59
S'mojo_base.mojom.TimeTicks'
p132
sg16
Nsbag1
(g52
g3
NtRp133
(dp134
g55
Nsg56
Nsg57
S'preferred_frame_interval'
p135
sg15
Nsg19
Nsg59
S'mojo_base.mojom.TimeDelta?'
p136
sg16
Nsbasg16
Nsg19
Nsbsg15
Nsg16
Nsg57
S'CompositorFrameMetadata'
p137
sg19
Nsbasg16
NsS'module'
p138
g1
(cmojom.parse.ast
Module
p139
g3
NtRp140
(dp141
S'mojom_namespace'
p142
(S'IDENTIFIER'
p143
S'viz.mojom'
tp144
sg16
I5
sg15
Nsg19
g20
sbsg19
Nsb.