ccopy_reg
_reconstructor
p1
(cmojom.parse.ast
Mojom
p2
c__builtin__
object
p3
NtRp4
(dp5
S'import_list'
p6
g1
(cmojom.parse.ast
ImportList
p7
g3
NtRp8
(dp9
S'items'
p10
(lp11
g1
(cmojom.parse.ast
Import
p12
g3
NtRp13
(dp14
S'attribute_list'
p15
NsS'lineno'
p16
I7
sS'import_filename'
p17
S'gpu/ipc/common/mailbox.mojom'
p18
sS'filename'
p19
S'../../services/viz/public/interfaces/compositing/copy_output_result.mojom'
p20
sbag1
(g12
g3
NtRp21
(dp22
g15
Nsg16
I8
sg17
S'gpu/ipc/common/sync_token.mojom'
p23
sg19
g20
sbag1
(g12
g3
NtRp24
(dp25
g15
Nsg16
I9
sg17
S'services/viz/public/interfaces/compositing/texture_releaser.mojom'
p26
sg19
g20
sbag1
(g12
g3
NtRp27
(dp28
g15
Nsg16
I10
sg17
S'skia/public/interfaces/bitmap.mojom'
p29
sg19
g20
sbag1
(g12
g3
NtRp30
(dp31
g15
Nsg16
I11
sg17
S'ui/gfx/geometry/mojo/geometry.mojom'
p32
sg19
g20
sbag1
(g12
g3
NtRp33
(dp34
g15
Nsg16
I12
sg17
S'ui/gfx/mojo/color_space.mojom'
p35
sg19
g20
sbasg16
I7
sg19
g20
sbsS'definition_list'
p36
(lp37
g1
(cmojom.parse.ast
Enum
p38
g3
NtRp39
(dp40
g15
NsS'enum_value_list'
p41
g1
(cmojom.parse.ast
EnumValueList
p42
g3
NtRp43
(dp44
g10
(lp45
g1
(cmojom.parse.ast
EnumValue
p46
g3
NtRp47
(dp48
g15
NsS'value'
p49
Nsg16
I16
sS'mojom_name'
p50
S'RGBA_BITMAP'
p51
sg19
g20
sbag1
(g46
g3
NtRp52
(dp53
g15
Nsg49
Nsg16
I17
sg50
S'RGBA_TEXTURE'
p54
sg19
g20
sbasg16
I16
sg19
g20
sbsg16
I15
sg50
S'CopyOutputResultFormat'
p55
sg19
g20
sbag1
(cmojom.parse.ast
Struct
p56
g3
NtRp57
(dp58
S'body'
p59
g1
(cmojom.parse.ast
StructBody
p60
g3
NtRp61
(dp62
g10
(lp63
g1
(cmojom.parse.ast
StructField
p64
g3
NtRp65
(dp66
S'ordinal'
p67
NsS'default_value'
p68
Nsg50
S'format'
p69
sg15
Nsg19
NsS'typename'
p70
S'CopyOutputResultFormat'
p71
sg16
Nsbag1
(g64
g3
NtRp72
(dp73
g67
Nsg68
Nsg50
S'rect'
p74
sg15
Nsg19
Nsg70
S'gfx.mojom.Rect'
p75
sg16
Nsbag1
(g64
g3
NtRp76
(dp77
g67
Nsg68
Nsg50
S'bitmap'
p78
sg15
Nsg19
Nsg70
S'skia.mojom.Bitmap?'
p79
sg16
Nsbag1
(g64
g3
NtRp80
(dp81
g67
Nsg68
Nsg50
S'mailbox'
p82
sg15
Nsg19
Nsg70
S'gpu.mojom.Mailbox?'
p83
sg16
Nsbag1
(g64
g3
NtRp84
(dp85
g67
Nsg68
Nsg50
S'sync_token'
p86
sg15
Nsg19
Nsg70
S'gpu.mojom.SyncToken?'
p87
sg16
Nsbag1
(g64
g3
NtRp88
(dp89
g67
Nsg68
Nsg50
S'color_space'
p90
sg15
Nsg19
Nsg70
S'gfx.mojom.ColorSpace?'
p91
sg16
Nsbag1
(g64
g3
NtRp92
(dp93
g67
Nsg68
Nsg50
S'releaser'
p94
sg15
Nsg19
Nsg70
S'TextureReleaser?'
p95
sg16
Nsbasg16
Nsg19
Nsbsg15
Nsg16
Nsg50
S'CopyOutputResult'
p96
sg19
Nsbasg16
NsS'module'
p97
g1
(cmojom.parse.ast
Module
p98
g3
NtRp99
(dp100
S'mojom_namespace'
p101
(S'IDENTIFIER'
p102
S'viz.mojom'
tp103
sg16
I5
sg15
Nsg19
g20
sbsg19
Nsb.