ccopy_reg
_reconstructor
p1
(cmojom.parse.ast
Mojom
p2
c__builtin__
object
p3
NtRp4
(dp5
S'import_list'
p6
g1
(cmojom.parse.ast
ImportList
p7
g3
NtRp8
(dp9
S'items'
p10
(lp11
g1
(cmojom.parse.ast
Import
p12
g3
NtRp13
(dp14
S'attribute_list'
p15
NsS'lineno'
p16
I7
sS'import_filename'
p17
S'mojo/public/mojom/base/unguessable_token.mojom'
p18
sS'filename'
p19
S'../../services/viz/public/interfaces/compositing/quads.mojom'
p20
sbag1
(g12
g3
NtRp21
(dp22
g15
Nsg16
I8
sg17
S'services/viz/public/interfaces/compositing/surface_range.mojom'
p23
sg19
g20
sbag1
(g12
g3
NtRp24
(dp25
g15
Nsg16
I9
sg17
S'services/viz/public/interfaces/compositing/shared_quad_state.mojom'
p26
sg19
g20
sbag1
(g12
g3
NtRp27
(dp28
g15
Nsg16
I10
sg17
S'ui/gfx/geometry/mojo/geometry.mojom'
p29
sg19
g20
sbag1
(g12
g3
NtRp30
(dp31
g15
Nsg16
I11
sg17
S'ui/gfx/mojo/color_space.mojom'
p32
sg19
g20
sbag1
(g12
g3
NtRp33
(dp34
g15
Nsg16
I12
sg17
S'ui/gfx/mojo/transform.mojom'
p35
sg19
g20
sbasg16
I7
sg19
g20
sbsS'definition_list'
p36
(lp37
g1
(cmojom.parse.ast
Enum
p38
g3
NtRp39
(dp40
g15
NsS'enum_value_list'
p41
g1
(cmojom.parse.ast
EnumValueList
p42
g3
NtRp43
(dp44
g10
(lp45
g1
(cmojom.parse.ast
EnumValue
p46
g3
NtRp47
(dp48
g15
NsS'value'
p49
Nsg16
I15
sS'mojom_name'
p50
S'kClear'
p51
sg19
g20
sbag1
(g46
g3
NtRp52
(dp53
g15
Nsg49
Nsg16
I16
sg50
S'kSoftwareProtected'
p54
sg19
g20
sbag1
(g46
g3
NtRp55
(dp56
g15
Nsg49
Nsg16
I17
sg50
S'kHardwareProtected'
p57
sg19
g20
sbasg16
I15
sg19
g20
sbsg16
I14
sg50
S'ProtectedVideoState'
p58
sg19
g20
sbag1
(cmojom.parse.ast
Struct
p59
g3
NtRp60
(dp61
S'body'
p62
g1
(cmojom.parse.ast
StructBody
p63
g3
NtRp64
(dp65
g10
(lp66
g1
(cmojom.parse.ast
StructField
p67
g3
NtRp68
(dp69
S'ordinal'
p70
NsS'default_value'
p71
Nsg50
S'color'
p72
sg15
Nsg19
NsS'typename'
p73
S'uint32'
p74
sg16
Nsbag1
(g67
g3
NtRp75
(dp76
g70
Nsg71
Nsg50
S'width'
p77
sg15
Nsg19
Nsg73
S'int32'
p78
sg16
Nsbasg16
Nsg19
Nsbsg15
Nsg16
Nsg50
S'DebugBorderQuadState'
p79
sg19
Nsbag1
(g59
g3
NtRp80
(dp81
g62
g1
(g63
g3
NtRp82
(dp83
g10
(lp84
g1
(g67
g3
NtRp85
(dp86
g70
Nsg71
Nsg50
S'render_pass_id'
p87
sg15
Nsg19
Nsg73
S'uint64'
p88
sg16
Nsbag1
(g67
g3
NtRp89
(dp90
g70
Nsg71
Nsg50
S'mask_resource_id'
p91
sg15
Nsg19
Nsg73
S'uint32'
p92
sg16
Nsbag1
(g67
g3
NtRp93
(dp94
g70
Nsg71
Nsg50
S'mask_uv_rect'
p95
sg15
Nsg19
Nsg73
S'gfx.mojom.RectF'
p96
sg16
Nsbag1
(g67
g3
NtRp97
(dp98
g70
Nsg71
Nsg50
S'mask_texture_size'
p99
sg15
Nsg19
Nsg73
S'gfx.mojom.Size'
p100
sg16
Nsbag1
(g67
g3
NtRp101
(dp102
g70
Nsg71
Nsg50
S'filters_scale'
p103
sg15
Nsg19
Nsg73
S'gfx.mojom.Vector2dF'
p104
sg16
Nsbag1
(g67
g3
NtRp105
(dp106
g70
Nsg71
Nsg50
S'filters_origin'
p107
sg15
Nsg19
Nsg73
S'gfx.mojom.PointF'
p108
sg16
Nsbag1
(g67
g3
NtRp109
(dp110
g70
Nsg71
Nsg50
S'tex_coord_rect'
p111
sg15
Nsg19
Nsg73
S'gfx.mojom.RectF'
p112
sg16
Nsbag1
(g67
g3
NtRp113
(dp114
g70
Nsg71
Nsg50
S'force_anti_aliasing_off'
p115
sg15
Nsg19
Nsg73
S'bool'
p116
sg16
Nsbag1
(g67
g3
NtRp117
(dp118
g70
Nsg71
Nsg50
S'backdrop_filter_quality'
p119
sg15
Nsg19
Nsg73
S'float'
p120
sg16
Nsbasg16
Nsg19
Nsbsg15
Nsg16
Nsg50
S'RenderPassQuadState'
p121
sg19
Nsbag1
(g59
g3
NtRp122
(dp123
g62
g1
(g63
g3
NtRp124
(dp125
g10
(lp126
g1
(g67
g3
NtRp127
(dp128
g70
Nsg71
Nsg50
S'color'
p129
sg15
Nsg19
Nsg73
S'uint32'
p130
sg16
Nsbag1
(g67
g3
NtRp131
(dp132
g70
Nsg71
Nsg50
S'force_anti_aliasing_off'
p133
sg15
Nsg19
Nsg73
S'bool'
p134
sg16
Nsbasg16
Nsg19
Nsbsg15
Nsg16
Nsg50
S'SolidColorQuadState'
p135
sg19
Nsbag1
(g59
g3
NtRp136
(dp137
g62
g1
(g63
g3
NtRp138
(dp139
g10
(lp140
g1
(g67
g3
NtRp141
(dp142
g70
Nsg71
Nsg50
S'resource_id'
p143
sg15
Nsg19
Nsg73
S'uint32'
p144
sg16
Nsbag1
(g67
g3
NtRp145
(dp146
g70
Nsg71
Nsg50
S'resource_size_in_pixels'
p147
sg15
Nsg19
Nsg73
S'gfx.mojom.Size'
p148
sg16
Nsbag1
(g67
g3
NtRp149
(dp150
g70
Nsg71
Nsg50
S'uv_top_left'
p151
sg15
Nsg19
Nsg73
S'gfx.mojom.PointF'
p152
sg16
Nsbag1
(g67
g3
NtRp153
(dp154
g70
Nsg71
Nsg50
S'uv_bottom_right'
p155
sg15
Nsg19
Nsg73
S'gfx.mojom.PointF'
p156
sg16
Nsbasg16
Nsg19
Nsbsg15
Nsg16
Nsg50
S'StreamVideoQuadState'
p157
sg19
Nsbag1
(g59
g3
NtRp158
(dp159
g62
g1
(g63
g3
NtRp160
(dp161
g10
(lp162
g1
(g67
g3
NtRp163
(dp164
g70
Nsg71
Nsg50
S'surface_range'
p165
sg15
Nsg19
Nsg73
S'SurfaceRange'
p166
sg16
Nsbag1
(g67
g3
NtRp167
(dp168
g70
Nsg71
Nsg50
S'default_background_color'
p169
sg15
Nsg19
Nsg73
S'uint32'
p170
sg16
Nsbag1
(g67
g3
NtRp171
(dp172
g70
Nsg71
Nsg50
S'stretch_content_to_fill_bounds'
p173
sg15
Nsg19
Nsg73
S'bool'
p174
sg16
Nsbasg16
Nsg19
Nsbsg15
Nsg16
Nsg50
S'SurfaceQuadState'
p175
sg19
Nsbag1
(g59
g3
NtRp176
(dp177
g62
g1
(g63
g3
NtRp178
(dp179
g10
(lp180
g1
(g67
g3
NtRp181
(dp182
g70
Nsg71
Nsg50
S'resource_id'
p183
sg15
Nsg19
Nsg73
S'uint32'
p184
sg16
Nsbag1
(g67
g3
NtRp185
(dp186
g70
Nsg71
Nsg50
S'resource_size_in_pixels'
p187
sg15
Nsg19
Nsg73
S'gfx.mojom.Size'
p188
sg16
Nsbag1
(g67
g3
NtRp189
(dp190
g70
Nsg71
Nsg50
S'premultiplied_alpha'
p191
sg15
Nsg19
Nsg73
S'bool'
p192
sg16
Nsbag1
(g67
g3
NtRp193
(dp194
g70
Nsg71
Nsg50
S'uv_top_left'
p195
sg15
Nsg19
Nsg73
S'gfx.mojom.PointF'
p196
sg16
Nsbag1
(g67
g3
NtRp197
(dp198
g70
Nsg71
Nsg50
S'uv_bottom_right'
p199
sg15
Nsg19
Nsg73
S'gfx.mojom.PointF'
p200
sg16
Nsbag1
(g67
g3
NtRp201
(dp202
g70
Nsg71
Nsg50
S'background_color'
p203
sg15
Nsg19
Nsg73
S'uint32'
p204
sg16
Nsbag1
(g67
g3
NtRp205
(dp206
g70
Nsg71
Nsg50
S'vertex_opacity'
p207
sg15
Nsg19
Nsg73
S'float[4]'
p208
sg16
Nsbag1
(g67
g3
NtRp209
(dp210
g70
Nsg71
Nsg50
S'y_flipped'
p211
sg15
Nsg19
Nsg73
S'bool'
p212
sg16
Nsbag1
(g67
g3
NtRp213
(dp214
g70
Nsg71
Nsg50
S'nearest_neighbor'
p215
sg15
Nsg19
Nsg73
S'bool'
p216
sg16
Nsbag1
(g67
g3
NtRp217
(dp218
g70
Nsg71
Nsg50
S'secure_output_only'
p219
sg15
Nsg19
Nsg73
S'bool'
p220
sg16
Nsbag1
(g67
g3
NtRp221
(dp222
g70
Nsg71
Nsg50
S'protected_video_type'
p223
sg15
Nsg19
Nsg73
S'ProtectedVideoState'
p224
sg16
Nsbasg16
Nsg19
Nsbsg15
Nsg16
Nsg50
S'TextureQuadState'
p225
sg19
Nsbag1
(g59
g3
NtRp226
(dp227
g62
g1
(g63
g3
NtRp228
(dp229
g10
(lp230
g1
(g67
g3
NtRp231
(dp232
g70
Nsg71
Nsg50
S'tex_coord_rect'
p233
sg15
Nsg19
Nsg73
S'gfx.mojom.RectF'
p234
sg16
Nsbag1
(g67
g3
NtRp235
(dp236
g70
Nsg71
Nsg50
S'texture_size'
p237
sg15
Nsg19
Nsg73
S'gfx.mojom.Size'
p238
sg16
Nsbag1
(g67
g3
NtRp239
(dp240
g70
Nsg71
Nsg50
S'is_premultiplied'
p241
sg15
Nsg19
Nsg73
S'bool'
p242
sg16
Nsbag1
(g67
g3
NtRp243
(dp244
g70
Nsg71
Nsg50
S'resource_id'
p245
sg15
Nsg19
Nsg73
S'uint32'
p246
sg16
Nsbag1
(g67
g3
NtRp247
(dp248
g70
Nsg71
Nsg50
S'nearest_neighbor'
p249
sg15
Nsg19
Nsg73
S'bool'
p250
sg16
Nsbag1
(g67
g3
NtRp251
(dp252
g70
Nsg71
Nsg50
S'force_anti_aliasing_off'
p253
sg15
Nsg19
Nsg73
S'bool'
p254
sg16
Nsbasg16
Nsg19
Nsbsg15
Nsg16
Nsg50
S'TileQuadState'
p255
sg19
Nsbag1
(g59
g3
NtRp256
(dp257
g62
g1
(g63
g3
NtRp258
(dp259
g10
(lp260
g1
(g67
g3
NtRp261
(dp262
g70
Nsg71
Nsg50
S'ya_tex_coord_rect'
p263
sg15
Nsg19
Nsg73
S'gfx.mojom.RectF'
p264
sg16
Nsbag1
(g67
g3
NtRp265
(dp266
g70
Nsg71
Nsg50
S'uv_tex_coord_rect'
p267
sg15
Nsg19
Nsg73
S'gfx.mojom.RectF'
p268
sg16
Nsbag1
(g67
g3
NtRp269
(dp270
g70
Nsg71
Nsg50
S'ya_tex_size'
p271
sg15
Nsg19
Nsg73
S'gfx.mojom.Size'
p272
sg16
Nsbag1
(g67
g3
NtRp273
(dp274
g70
Nsg71
Nsg50
S'uv_tex_size'
p275
sg15
Nsg19
Nsg73
S'gfx.mojom.Size'
p276
sg16
Nsbag1
(g67
g3
NtRp277
(dp278
g70
Nsg71
Nsg50
S'y_plane_resource_id'
p279
sg15
Nsg19
Nsg73
S'uint32'
p280
sg16
Nsbag1
(g67
g3
NtRp281
(dp282
g70
Nsg71
Nsg50
S'u_plane_resource_id'
p283
sg15
Nsg19
Nsg73
S'uint32'
p284
sg16
Nsbag1
(g67
g3
NtRp285
(dp286
g70
Nsg71
Nsg50
S'v_plane_resource_id'
p287
sg15
Nsg19
Nsg73
S'uint32'
p288
sg16
Nsbag1
(g67
g3
NtRp289
(dp290
g70
Nsg71
Nsg50
S'a_plane_resource_id'
p291
sg15
Nsg19
Nsg73
S'uint32'
p292
sg16
Nsbag1
(g67
g3
NtRp293
(dp294
g70
Nsg71
Nsg50
S'resource_offset'
p295
sg15
Nsg19
Nsg73
S'float'
p296
sg16
Nsbag1
(g67
g3
NtRp297
(dp298
g70
Nsg71
Nsg50
S'resource_multiplier'
p299
sg15
Nsg19
Nsg73
S'float'
p300
sg16
Nsbag1
(g67
g3
NtRp301
(dp302
g70
Nsg71
Nsg50
S'bits_per_channel'
p303
sg15
Nsg19
Nsg73
S'uint32'
p304
sg16
Nsbag1
(g67
g3
NtRp305
(dp306
g70
Nsg71
Nsg50
S'video_color_space'
p307
sg15
Nsg19
Nsg73
S'gfx.mojom.ColorSpace'
p308
sg16
Nsbag1
(g67
g3
NtRp309
(dp310
g70
Nsg71
Nsg50
S'protected_video_type'
p311
sg15
Nsg19
Nsg73
S'ProtectedVideoState'
p312
sg16
Nsbasg16
Nsg19
Nsbsg15
Nsg16
Nsg50
S'YUVVideoQuadState'
p313
sg19
Nsbag1
(g59
g3
NtRp314
(dp315
g62
g1
(g63
g3
NtRp316
(dp317
g10
(lp318
g1
(g67
g3
NtRp319
(dp320
g70
Nsg71
Nsg50
S'overlay_plane_id'
p321
sg15
Nsg19
Nsg73
S'mojo_base.mojom.UnguessableToken'
p322
sg16
Nsbasg16
Nsg19
Nsbsg15
Nsg16
Nsg50
S'VideoHoleQuadState'
p323
sg19
Nsbag1
(cmojom.parse.ast
Union
p324
g3
NtRp325
(dp326
g62
g1
(cmojom.parse.ast
UnionBody
p327
g3
NtRp328
(dp329
g10
(lp330
g1
(cmojom.parse.ast
UnionField
p331
g3
NtRp332
(dp333
g70
Nsg50
S'debug_border_quad_state'
p334
sg15
Nsg19
Nsg73
S'DebugBorderQuadState'
p335
sg16
Nsbag1
(g331
g3
NtRp336
(dp337
g70
Nsg50
S'render_pass_quad_state'
p338
sg15
Nsg19
Nsg73
S'RenderPassQuadState'
p339
sg16
Nsbag1
(g331
g3
NtRp340
(dp341
g70
Nsg50
S'solid_color_quad_state'
p342
sg15
Nsg19
Nsg73
S'SolidColorQuadState'
p343
sg16
Nsbag1
(g331
g3
NtRp344
(dp345
g70
Nsg50
S'stream_video_quad_state'
p346
sg15
Nsg19
Nsg73
S'StreamVideoQuadState'
p347
sg16
Nsbag1
(g331
g3
NtRp348
(dp349
g70
Nsg50
S'surface_quad_state'
p350
sg15
Nsg19
Nsg73
S'SurfaceQuadState'
p351
sg16
Nsbag1
(g331
g3
NtRp352
(dp353
g70
Nsg50
S'texture_quad_state'
p354
sg15
Nsg19
Nsg73
S'TextureQuadState'
p355
sg16
Nsbag1
(g331
g3
NtRp356
(dp357
g70
Nsg50
S'tile_quad_state'
p358
sg15
Nsg19
Nsg73
S'TileQuadState'
p359
sg16
Nsbag1
(g331
g3
NtRp360
(dp361
g70
Nsg50
S'yuv_video_quad_state'
p362
sg15
Nsg19
Nsg73
S'YUVVideoQuadState'
p363
sg16
Nsbag1
(g331
g3
NtRp364
(dp365
g70
Nsg50
S'video_hole_quad_state'
p366
sg15
Nsg19
Nsg73
S'VideoHoleQuadState'
p367
sg16
Nsbasg16
Nsg19
Nsbsg15
Nsg16
Nsg50
S'DrawQuadState'
p368
sg19
Nsbag1
(g59
g3
NtRp369
(dp370
g62
g1
(g63
g3
NtRp371
(dp372
g10
(lp373
g1
(g67
g3
NtRp374
(dp375
g70
Nsg71
Nsg50
S'rect'
p376
sg15
Nsg19
Nsg73
S'gfx.mojom.Rect'
p377
sg16
Nsbag1
(g67
g3
NtRp378
(dp379
g70
Nsg71
Nsg50
S'visible_rect'
p380
sg15
Nsg19
Nsg73
S'gfx.mojom.Rect'
p381
sg16
Nsbag1
(g67
g3
NtRp382
(dp383
g70
Nsg71
Nsg50
S'needs_blending'
p384
sg15
Nsg19
Nsg73
S'bool'
p385
sg16
Nsbag1
(g67
g3
NtRp386
(dp387
g70
Nsg71
Nsg50
S'sqs'
p388
sg15
Nsg19
Nsg73
S'SharedQuadState?'
p389
sg16
Nsbag1
(g67
g3
NtRp390
(dp391
g70
Nsg71
Nsg50
S'draw_quad_state'
p392
sg15
Nsg19
Nsg73
S'DrawQuadState'
p393
sg16
Nsbasg16
Nsg19
Nsbsg15
Nsg16
Nsg50
S'DrawQuad'
p394
sg19
Nsbasg16
NsS'module'
p395
g1
(cmojom.parse.ast
Module
p396
g3
NtRp397
(dp398
S'mojom_namespace'
p399
(S'IDENTIFIER'
p400
S'viz.mojom'
tp401
sg16
I5
sg15
Nsg19
g20
sbsg19
Nsb.