ccopy_reg
_reconstructor
p1
(cmojom.parse.ast
Mojom
p2
c__builtin__
object
p3
NtRp4
(dp5
S'import_list'
p6
g1
(cmojom.parse.ast
ImportList
p7
g3
NtRp8
(dp9
S'items'
p10
(lp11
g1
(cmojom.parse.ast
Import
p12
g3
NtRp13
(dp14
S'attribute_list'
p15
NsS'lineno'
p16
I7
sS'import_filename'
p17
S'mojo/public/mojom/base/string16.mojom'
p18
sS'filename'
p19
S'../../device/usb/public/mojom/device_enumeration_options.mojom'
p20
sbasg16
I7
sg19
g20
sbsS'definition_list'
p21
(lp22
g1
(cmojom.parse.ast
Struct
p23
g3
NtRp24
(dp25
S'body'
p26
g1
(cmojom.parse.ast
StructBody
p27
g3
NtRp28
(dp29
g10
(lp30
g1
(cmojom.parse.ast
StructField
p31
g3
NtRp32
(dp33
S'ordinal'
p34
NsS'default_value'
p35
NsS'mojom_name'
p36
S'has_vendor_id'
p37
sg15
Nsg19
NsS'typename'
p38
S'bool'
p39
sg16
Nsbag1
(g31
g3
NtRp40
(dp41
g34
Nsg35
Nsg36
S'vendor_id'
p42
sg15
Nsg19
Nsg38
S'uint16'
p43
sg16
Nsbag1
(g31
g3
NtRp44
(dp45
g34
Nsg35
Nsg36
S'has_product_id'
p46
sg15
Nsg19
Nsg38
S'bool'
p47
sg16
Nsbag1
(g31
g3
NtRp48
(dp49
g34
Nsg35
Nsg36
S'product_id'
p50
sg15
Nsg19
Nsg38
S'uint16'
p51
sg16
Nsbag1
(g31
g3
NtRp52
(dp53
g34
Nsg35
Nsg36
S'has_class_code'
p54
sg15
Nsg19
Nsg38
S'bool'
p55
sg16
Nsbag1
(g31
g3
NtRp56
(dp57
g34
Nsg35
Nsg36
S'class_code'
p58
sg15
Nsg19
Nsg38
S'uint8'
p59
sg16
Nsbag1
(g31
g3
NtRp60
(dp61
g34
Nsg35
Nsg36
S'has_subclass_code'
p62
sg15
Nsg19
Nsg38
S'bool'
p63
sg16
Nsbag1
(g31
g3
NtRp64
(dp65
g34
Nsg35
Nsg36
S'subclass_code'
p66
sg15
Nsg19
Nsg38
S'uint8'
p67
sg16
Nsbag1
(g31
g3
NtRp68
(dp69
g34
Nsg35
Nsg36
S'has_protocol_code'
p70
sg15
Nsg19
Nsg38
S'bool'
p71
sg16
Nsbag1
(g31
g3
NtRp72
(dp73
g34
Nsg35
Nsg36
S'protocol_code'
p74
sg15
Nsg19
Nsg38
S'uint8'
p75
sg16
Nsbag1
(g31
g3
NtRp76
(dp77
g34
Nsg35
Nsg36
S'serial_number'
p78
sg15
Nsg19
Nsg38
S'mojo_base.mojom.String16?'
p79
sg16
Nsbasg16
Nsg19
Nsbsg15
Nsg16
Nsg36
S'UsbDeviceFilter'
p80
sg19
Nsbag1
(g23
g3
NtRp81
(dp82
g26
g1
(g27
g3
NtRp83
(dp84
g10
(lp85
g1
(g31
g3
NtRp86
(dp87
g34
Nsg35
Nsg36
S'filters'
p88
sg15
Nsg19
Nsg38
S'UsbDeviceFilter[]'
p89
sg16
Nsbasg16
Nsg19
Nsbsg15
Nsg16
Nsg36
S'UsbEnumerationOptions'
p90
sg19
Nsbasg16
NsS'module'
p91
g1
(cmojom.parse.ast
Module
p92
g3
NtRp93
(dp94
S'mojom_namespace'
p95
(S'IDENTIFIER'
p96
S'device.mojom'
tp97
sg16
I5
sg15
Nsg19
g20
sbsg19
Nsb.