ccopy_reg
_reconstructor
p1
(cmojom.parse.ast
Mojom
p2
c__builtin__
object
p3
NtRp4
(dp5
S'import_list'
p6
g1
(cmojom.parse.ast
ImportList
p7
g3
NtRp8
(dp9
S'items'
p10
(lp11
g1
(cmojom.parse.ast
Import
p12
g3
NtRp13
(dp14
S'attribute_list'
p15
NsS'lineno'
p16
I7
sS'import_filename'
p17
S'ui/gfx/geometry/mojo/geometry.mojom'
p18
sS'filename'
p19
S'../../ui/gfx/mojo/ca_layer_params.mojom'
p20
sbasg16
I7
sg19
g20
sbsS'definition_list'
p21
(lp22
g1
(cmojom.parse.ast
Union
p23
g3
NtRp24
(dp25
S'body'
p26
g1
(cmojom.parse.ast
UnionBody
p27
g3
NtRp28
(dp29
g10
(lp30
g1
(cmojom.parse.ast
UnionField
p31
g3
NtRp32
(dp33
S'ordinal'
p34
NsS'mojom_name'
p35
S'ca_context_id'
p36
sg15
Nsg19
NsS'typename'
p37
S'uint32'
p38
sg16
Nsbag1
(g31
g3
NtRp39
(dp40
g34
Nsg35
S'io_surface_mach_port'
p41
sg15
Nsg19
Nsg37
S'handle'
p42
sg16
Nsbasg16
Nsg19
Nsbsg15
Nsg16
Nsg35
S'CALayerContent'
p43
sg19
Nsbag1
(cmojom.parse.ast
Struct
p44
g3
NtRp45
(dp46
g26
g1
(cmojom.parse.ast
StructBody
p47
g3
NtRp48
(dp49
g10
(lp50
g1
(cmojom.parse.ast
StructField
p51
g3
NtRp52
(dp53
g34
NsS'default_value'
p54
Nsg35
S'is_empty'
p55
sg15
Nsg19
Nsg37
S'bool'
p56
sg16
Nsbag1
(g51
g3
NtRp57
(dp58
g34
Nsg54
Nsg35
S'content'
p59
sg15
Nsg19
Nsg37
S'CALayerContent'
p60
sg16
Nsbag1
(g51
g3
NtRp61
(dp62
g34
Nsg54
Nsg35
S'pixel_size'
p63
sg15
Nsg19
Nsg37
S'gfx.mojom.Size'
p64
sg16
Nsbag1
(g51
g3
NtRp65
(dp66
g34
Nsg54
Nsg35
S'scale_factor'
p67
sg15
Nsg19
Nsg37
S'float'
p68
sg16
Nsbasg16
Nsg19
Nsbsg15
Nsg16
Nsg35
S'CALayerParams'
p69
sg19
Nsbasg16
NsS'module'
p70
g1
(cmojom.parse.ast
Module
p71
g3
NtRp72
(dp73
S'mojom_namespace'
p74
(S'IDENTIFIER'
p75
S'gfx.mojom'
tp76
sg16
I5
sg15
Nsg19
g20
sbsg19
Nsb.