ccopy_reg
_reconstructor
p1
(cmojom.parse.ast
Mojom
p2
c__builtin__
object
p3
NtRp4
(dp5
S'import_list'
p6
g1
(cmojom.parse.ast
ImportList
p7
g3
NtRp8
(dp9
S'items'
p10
(lp11
g1
(cmojom.parse.ast
Import
p12
g3
NtRp13
(dp14
S'attribute_list'
p15
NsS'lineno'
p16
I7
sS'import_filename'
p17
S'ui/gfx/geometry/mojo/geometry.mojom'
p18
sS'filename'
p19
S'../../ui/gfx/mojo/selection_bound.mojom'
p20
sbasg16
I7
sg19
g20
sbsS'definition_list'
p21
(lp22
g1
(cmojom.parse.ast
Enum
p23
g3
NtRp24
(dp25
g15
NsS'enum_value_list'
p26
g1
(cmojom.parse.ast
EnumValueList
p27
g3
NtRp28
(dp29
g10
(lp30
g1
(cmojom.parse.ast
EnumValue
p31
g3
NtRp32
(dp33
g15
NsS'value'
p34
Nsg16
I10
sS'mojom_name'
p35
S'LEFT'
p36
sg19
g20
sbag1
(g31
g3
NtRp37
(dp38
g15
Nsg34
Nsg16
I11
sg35
S'RIGHT'
p39
sg19
g20
sbag1
(g31
g3
NtRp40
(dp41
g15
Nsg34
Nsg16
I12
sg35
S'CENTER'
p42
sg19
g20
sbag1
(g31
g3
NtRp43
(dp44
g15
Nsg34
Nsg16
I13
sg35
S'EMPTY'
p45
sg19
g20
sbag1
(g31
g3
NtRp46
(dp47
g15
Nsg34
(S'IDENTIFIER'
p48
S'EMPTY'
tp49
sg16
I14
sg35
S'LAST'
p50
sg19
g20
sbasg16
I10
sg19
g20
sbsg16
I9
sg35
S'SelectionBoundType'
p51
sg19
g20
sbag1
(cmojom.parse.ast
Struct
p52
g3
NtRp53
(dp54
S'body'
p55
g1
(cmojom.parse.ast
StructBody
p56
g3
NtRp57
(dp58
g10
(lp59
g1
(cmojom.parse.ast
StructField
p60
g3
NtRp61
(dp62
S'ordinal'
p63
NsS'default_value'
p64
Nsg35
S'type'
p65
sg15
Nsg19
NsS'typename'
p66
S'SelectionBoundType'
p67
sg16
Nsbag1
(g60
g3
NtRp68
(dp69
g63
Nsg64
Nsg35
S'edge_top'
p70
sg15
Nsg19
Nsg66
S'gfx.mojom.PointF'
p71
sg16
Nsbag1
(g60
g3
NtRp72
(dp73
g63
Nsg64
Nsg35
S'edge_bottom'
p74
sg15
Nsg19
Nsg66
S'gfx.mojom.PointF'
p75
sg16
Nsbag1
(g60
g3
NtRp76
(dp77
g63
Nsg64
Nsg35
S'visible'
p78
sg15
Nsg19
Nsg66
S'bool'
p79
sg16
Nsbasg16
Nsg19
Nsbsg15
Nsg16
Nsg35
S'SelectionBound'
p80
sg19
Nsbasg16
NsS'module'
p81
g1
(cmojom.parse.ast
Module
p82
g3
NtRp83
(dp84
S'mojom_namespace'
p85
(g48
S'gfx.mojom'
tp86
sg16
I5
sg15
Nsg19
g20
sbsg19
Nsb.