ccopy_reg
_reconstructor
p1
(cmojom.parse.ast
Mojom
p2
c__builtin__
object
p3
NtRp4
(dp5
S'import_list'
p6
g1
(cmojom.parse.ast
ImportList
p7
g3
NtRp8
(dp9
S'items'
p10
(lp11
g1
(cmojom.parse.ast
Import
p12
g3
NtRp13
(dp14
S'attribute_list'
p15
NsS'lineno'
p16
I7
sS'import_filename'
p17
S'skia/public/interfaces/bitmap.mojom'
p18
sS'filename'
p19
S'../../content/common/image_downloader/image_downloader.mojom'
p20
sbag1
(g12
g3
NtRp21
(dp22
g15
Nsg16
I8
sg17
S'ui/gfx/geometry/mojo/geometry.mojom'
p23
sg19
g20
sbag1
(g12
g3
NtRp24
(dp25
g15
Nsg16
I9
sg17
S'url/mojom/url.mojom'
p26
sg19
g20
sbasg16
I7
sg19
g20
sbsS'definition_list'
p27
(lp28
g1
(cmojom.parse.ast
Interface
p29
g3
NtRp30
(dp31
S'body'
p32
g1
(cmojom.parse.ast
InterfaceBody
p33
g3
NtRp34
(dp35
g10
(lp36
g1
(cmojom.parse.ast
Method
p37
g3
NtRp38
(dp39
S'ordinal'
p40
NsS'mojom_name'
p41
S'DownloadImage'
p42
sS'parameter_list'
p43
g1
(cmojom.parse.ast
ParameterList
p44
g3
NtRp45
(dp46
g10
(lp47
g1
(cmojom.parse.ast
Parameter
p48
g3
NtRp49
(dp50
g40
Nsg41
S'url'
p51
sg15
Nsg19
g20
sS'typename'
p52
S'url.mojom.Url'
p53
sg16
I16
sbag1
(g48
g3
NtRp54
(dp55
g40
Nsg41
S'is_favicon'
p56
sg15
Nsg19
g20
sg52
S'bool'
p57
sg16
I17
sbag1
(g48
g3
NtRp58
(dp59
g40
Nsg41
S'max_bitmap_size'
p60
sg15
Nsg19
g20
sg52
S'uint32'
p61
sg16
I18
sbag1
(g48
g3
NtRp62
(dp63
g40
Nsg41
S'bypass_cache'
p64
sg15
Nsg19
g20
sg52
S'bool'
p65
sg16
I19
sbasg16
I16
sg19
g20
sbsg15
Nsg19
Nsg16
NsS'response_parameter_list'
p66
g1
(g44
g3
NtRp67
(dp68
g10
(lp69
g1
(g48
g3
NtRp70
(dp71
g40
Nsg41
S'http_status_code'
p72
sg15
Nsg19
g20
sg52
S'int32'
p73
sg16
I20
sbag1
(g48
g3
NtRp74
(dp75
g40
Nsg41
S'images'
p76
sg15
Nsg19
g20
sg52
S'skia.mojom.Bitmap[]'
p77
sg16
I21
sbag1
(g48
g3
NtRp78
(dp79
g40
Nsg41
S'original_image_sizes'
p80
sg15
Nsg19
g20
sg52
S'gfx.mojom.Size[]'
p81
sg16
I22
sbasg16
I20
sg19
g20
sbsbasg16
Nsg19
Nsbsg15
Nsg16
Nsg41
S'ImageDownloader'
p82
sg19
Nsbasg16
NsS'module'
p83
g1
(cmojom.parse.ast
Module
p84
g3
NtRp85
(dp86
S'mojom_namespace'
p87
(S'IDENTIFIER'
p88
S'content.mojom'
tp89
sg16
I5
sg15
Nsg19
g20
sbsg19
Nsb.