ccopy_reg
_reconstructor
p1
(cmojom.parse.ast
Mojom
p2
c__builtin__
object
p3
NtRp4
(dp5
S'import_list'
p6
g1
(cmojom.parse.ast
ImportList
p7
g3
NtRp8
(dp9
S'items'
p10
(lp11
g1
(cmojom.parse.ast
Import
p12
g3
NtRp13
(dp14
S'attribute_list'
p15
NsS'lineno'
p16
I9
sS'import_filename'
p17
S'skia/public/interfaces/bitmap.mojom'
p18
sS'filename'
p19
S'../../services/shape_detection/public/mojom/barcodedetection.mojom'
p20
sbag1
(g12
g3
NtRp21
(dp22
g15
Nsg16
I10
sg17
S'ui/gfx/geometry/mojo/geometry.mojom'
p23
sg19
g20
sbasg16
I9
sg19
g20
sbsS'definition_list'
p24
(lp25
g1
(cmojom.parse.ast
Enum
p26
g3
NtRp27
(dp28
g15
NsS'enum_value_list'
p29
g1
(cmojom.parse.ast
EnumValueList
p30
g3
NtRp31
(dp32
g10
(lp33
g1
(cmojom.parse.ast
EnumValue
p34
g3
NtRp35
(dp36
g15
NsS'value'
p37
Nsg16
I14
sS'mojom_name'
p38
S'AZTEC'
p39
sg19
g20
sbag1
(g34
g3
NtRp40
(dp41
g15
Nsg37
Nsg16
I15
sg38
S'CODE_128'
p42
sg19
g20
sbag1
(g34
g3
NtRp43
(dp44
g15
Nsg37
Nsg16
I16
sg38
S'CODE_39'
p45
sg19
g20
sbag1
(g34
g3
NtRp46
(dp47
g15
Nsg37
Nsg16
I17
sg38
S'CODE_93'
p48
sg19
g20
sbag1
(g34
g3
NtRp49
(dp50
g15
Nsg37
Nsg16
I18
sg38
S'CODABAR'
p51
sg19
g20
sbag1
(g34
g3
NtRp52
(dp53
g15
Nsg37
Nsg16
I19
sg38
S'DATA_MATRIX'
p54
sg19
g20
sbag1
(g34
g3
NtRp55
(dp56
g15
Nsg37
Nsg16
I20
sg38
S'EAN_13'
p57
sg19
g20
sbag1
(g34
g3
NtRp58
(dp59
g15
Nsg37
Nsg16
I21
sg38
S'EAN_8'
p60
sg19
g20
sbag1
(g34
g3
NtRp61
(dp62
g15
Nsg37
Nsg16
I22
sg38
S'ITF'
p63
sg19
g20
sbag1
(g34
g3
NtRp64
(dp65
g15
Nsg37
Nsg16
I23
sg38
S'PDF417'
p66
sg19
g20
sbag1
(g34
g3
NtRp67
(dp68
g15
Nsg37
Nsg16
I24
sg38
S'QR_CODE'
p69
sg19
g20
sbag1
(g34
g3
NtRp70
(dp71
g15
Nsg37
Nsg16
I25
sg38
S'UNKNOWN'
p72
sg19
g20
sbag1
(g34
g3
NtRp73
(dp74
g15
Nsg37
Nsg16
I26
sg38
S'UPC_A'
p75
sg19
g20
sbag1
(g34
g3
NtRp76
(dp77
g15
Nsg37
Nsg16
I27
sg38
S'UPC_E'
p78
sg19
g20
sbasg16
I14
sg19
g20
sbsg16
I13
sg38
S'BarcodeFormat'
p79
sg19
g20
sbag1
(cmojom.parse.ast
Struct
p80
g3
NtRp81
(dp82
S'body'
p83
g1
(cmojom.parse.ast
StructBody
p84
g3
NtRp85
(dp86
g10
(lp87
g1
(cmojom.parse.ast
StructField
p88
g3
NtRp89
(dp90
S'ordinal'
p91
NsS'default_value'
p92
Nsg38
S'raw_value'
p93
sg15
Nsg19
NsS'typename'
p94
S'string'
p95
sg16
Nsbag1
(g88
g3
NtRp96
(dp97
g91
Nsg92
Nsg38
S'bounding_box'
p98
sg15
Nsg19
Nsg94
S'gfx.mojom.RectF'
p99
sg16
Nsbag1
(g88
g3
NtRp100
(dp101
g91
Nsg92
Nsg38
S'format'
p102
sg15
Nsg19
Nsg94
S'BarcodeFormat'
p103
sg16
Nsbag1
(g88
g3
NtRp104
(dp105
g91
Nsg92
Nsg38
S'corner_points'
p106
sg15
Nsg19
Nsg94
S'gfx.mojom.PointF[]'
p107
sg16
Nsbasg16
Nsg19
Nsbsg15
Nsg16
Nsg38
S'BarcodeDetectionResult'
p108
sg19
Nsbag1
(cmojom.parse.ast
Interface
p109
g3
NtRp110
(dp111
g83
g1
(cmojom.parse.ast
InterfaceBody
p112
g3
NtRp113
(dp114
g10
(lp115
g1
(cmojom.parse.ast
Method
p116
g3
NtRp117
(dp118
g91
Nsg38
S'Detect'
p119
sS'parameter_list'
p120
g1
(cmojom.parse.ast
ParameterList
p121
g3
NtRp122
(dp123
g10
(lp124
g1
(cmojom.parse.ast
Parameter
p125
g3
NtRp126
(dp127
g91
Nsg38
S'bitmap_data'
p128
sg15
Nsg19
g20
sg94
S'skia.mojom.Bitmap'
p129
sg16
I41
sbasg16
I41
sg19
g20
sbsg15
Nsg19
Nsg16
NsS'response_parameter_list'
p130
g1
(g121
g3
NtRp131
(dp132
g10
(lp133
g1
(g125
g3
NtRp134
(dp135
g91
Nsg38
S'results'
p136
sg15
Nsg19
g20
sg94
S'BarcodeDetectionResult[]'
p137
sg16
I42
sbasg16
I42
sg19
g20
sbsbasg16
Nsg19
Nsbsg15
Nsg16
Nsg38
S'BarcodeDetection'
p138
sg19
Nsbasg16
NsS'module'
p139
g1
(cmojom.parse.ast
Module
p140
g3
NtRp141
(dp142
S'mojom_namespace'
p143
(S'IDENTIFIER'
p144
S'shape_detection.mojom'
tp145
sg16
I7
sg15
Nsg19
g20
sbsg19
Nsb.