ccopy_reg
_reconstructor
p1
(cmojom.parse.ast
Mojom
p2
c__builtin__
object
p3
NtRp4
(dp5
S'import_list'
p6
g1
(cmojom.parse.ast
ImportList
p7
g3
NtRp8
(dp9
S'items'
p10
(lp11
g1
(cmojom.parse.ast
Import
p12
g3
NtRp13
(dp14
S'attribute_list'
p15
NsS'lineno'
p16
I9
sS'import_filename'
p17
S'services/shape_detection/public/mojom/barcodedetection.mojom'
p18
sS'filename'
p19
S'../../services/shape_detection/public/mojom/barcodedetection_provider.mojom'
p20
sbasg16
I9
sg19
g20
sbsS'definition_list'
p21
(lp22
g1
(cmojom.parse.ast
Struct
p23
g3
NtRp24
(dp25
S'body'
p26
g1
(cmojom.parse.ast
StructBody
p27
g3
NtRp28
(dp29
g10
(lp30
g1
(cmojom.parse.ast
StructField
p31
g3
NtRp32
(dp33
S'ordinal'
p34
NsS'default_value'
p35
NsS'mojom_name'
p36
S'formats'
p37
sg15
Nsg19
NsS'typename'
p38
S'BarcodeFormat[]'
p39
sg16
Nsbasg16
Nsg19
Nsbsg15
Nsg16
Nsg36
S'BarcodeDetectorOptions'
p40
sg19
Nsbag1
(cmojom.parse.ast
Interface
p41
g3
NtRp42
(dp43
g26
g1
(cmojom.parse.ast
InterfaceBody
p44
g3
NtRp45
(dp46
g10
(lp47
g1
(cmojom.parse.ast
Method
p48
g3
NtRp49
(dp50
g34
Nsg36
S'CreateBarcodeDetection'
p51
sS'parameter_list'
p52
g1
(cmojom.parse.ast
ParameterList
p53
g3
NtRp54
(dp55
g10
(lp56
g1
(cmojom.parse.ast
Parameter
p57
g3
NtRp58
(dp59
g34
Nsg36
S'request'
p60
sg15
Nsg19
g20
sg38
S'BarcodeDetection&'
p61
sg16
I17
sbag1
(g57
g3
NtRp62
(dp63
g34
Nsg36
S'options'
p64
sg15
Nsg19
g20
sg38
S'BarcodeDetectorOptions'
p65
sg16
I18
sbasg16
I17
sg19
g20
sbsg15
Nsg19
Nsg16
NsS'response_parameter_list'
p66
Nsbag1
(g48
g3
NtRp67
(dp68
g34
Nsg36
S'EnumerateSupportedFormats'
p69
sg52
g1
(g53
g3
NtRp70
(dp71
g10
(lp72
sg16
Nsg19
Nsbsg15
Nsg19
Nsg16
Nsg66
g1
(g53
g3
NtRp73
(dp74
g10
(lp75
g1
(g57
g3
NtRp76
(dp77
g34
Nsg36
S'supported_formats'
p78
sg15
Nsg19
g20
sg38
S'BarcodeFormat[]'
p79
sg16
I20
sbasg16
I20
sg19
g20
sbsbasg16
Nsg19
Nsbsg15
Nsg16
Nsg36
S'BarcodeDetectionProvider'
p80
sg19
Nsbasg16
NsS'module'
p81
g1
(cmojom.parse.ast
Module
p82
g3
NtRp83
(dp84
S'mojom_namespace'
p85
(S'IDENTIFIER'
p86
S'shape_detection.mojom'
tp87
sg16
I7
sg15
Nsg19
g20
sbsg19
Nsb.