ccopy_reg
_reconstructor
p1
(cmojom.parse.ast
Mojom
p2
c__builtin__
object
p3
NtRp4
(dp5
S'import_list'
p6
g1
(cmojom.parse.ast
ImportList
p7
g3
NtRp8
(dp9
S'items'
p10
(lp11
g1
(cmojom.parse.ast
Import
p12
g3
NtRp13
(dp14
S'attribute_list'
p15
NsS'lineno'
p16
I9
sS'import_filename'
p17
S'skia/public/interfaces/bitmap.mojom'
p18
sS'filename'
p19
S'../../services/shape_detection/public/mojom/facedetection.mojom'
p20
sbag1
(g12
g3
NtRp21
(dp22
g15
Nsg16
I10
sg17
S'ui/gfx/geometry/mojo/geometry.mojom'
p23
sg19
g20
sbasg16
I9
sg19
g20
sbsS'definition_list'
p24
(lp25
g1
(cmojom.parse.ast
Enum
p26
g3
NtRp27
(dp28
g15
NsS'enum_value_list'
p29
g1
(cmojom.parse.ast
EnumValueList
p30
g3
NtRp31
(dp32
g10
(lp33
g1
(cmojom.parse.ast
EnumValue
p34
g3
NtRp35
(dp36
g15
NsS'value'
p37
Nsg16
I13
sS'mojom_name'
p38
S'MOUTH'
p39
sg19
g20
sbag1
(g34
g3
NtRp40
(dp41
g15
Nsg37
Nsg16
I13
sg38
S'EYE'
p42
sg19
g20
sbag1
(g34
g3
NtRp43
(dp44
g15
Nsg37
Nsg16
I13
sg38
S'NOSE'
p45
sg19
g20
sbasg16
I13
sg19
g20
sbsg16
I13
sg38
S'LandmarkType'
p46
sg19
g20
sbag1
(cmojom.parse.ast
Struct
p47
g3
NtRp48
(dp49
S'body'
p50
g1
(cmojom.parse.ast
StructBody
p51
g3
NtRp52
(dp53
g10
(lp54
g1
(cmojom.parse.ast
StructField
p55
g3
NtRp56
(dp57
S'ordinal'
p58
NsS'default_value'
p59
Nsg38
S'locations'
p60
sg15
Nsg19
NsS'typename'
p61
S'gfx.mojom.PointF[]'
p62
sg16
Nsbag1
(g55
g3
NtRp63
(dp64
g58
Nsg59
Nsg38
S'type'
p65
sg15
Nsg19
Nsg61
S'LandmarkType'
p66
sg16
Nsbasg16
Nsg19
Nsbsg15
Nsg16
Nsg38
S'Landmark'
p67
sg19
Nsbag1
(g47
g3
NtRp68
(dp69
g50
g1
(g51
g3
NtRp70
(dp71
g10
(lp72
g1
(g55
g3
NtRp73
(dp74
g58
Nsg59
Nsg38
S'bounding_box'
p75
sg15
Nsg19
Nsg61
S'gfx.mojom.RectF'
p76
sg16
Nsbag1
(g55
g3
NtRp77
(dp78
g58
Nsg59
Nsg38
S'landmarks'
p79
sg15
Nsg19
Nsg61
S'Landmark[]'
p80
sg16
Nsbasg16
Nsg19
Nsbsg15
Nsg16
Nsg38
S'FaceDetectionResult'
p81
sg19
Nsbag1
(g47
g3
NtRp82
(dp83
g50
g1
(g51
g3
NtRp84
(dp85
g10
(lp86
g1
(g55
g3
NtRp87
(dp88
g58
Nsg59
Nsg38
S'max_detected_faces'
p89
sg15
Nsg19
Nsg61
S'uint32'
p90
sg16
Nsbag1
(g55
g3
NtRp91
(dp92
g58
Nsg59
Nsg38
S'fast_mode'
p93
sg15
Nsg19
Nsg61
S'bool'
p94
sg16
Nsbasg16
Nsg19
Nsbsg15
Nsg16
Nsg38
S'FaceDetectorOptions'
p95
sg19
Nsbag1
(cmojom.parse.ast
Interface
p96
g3
NtRp97
(dp98
g50
g1
(cmojom.parse.ast
InterfaceBody
p99
g3
NtRp100
(dp101
g10
(lp102
g1
(cmojom.parse.ast
Method
p103
g3
NtRp104
(dp105
g58
Nsg38
S'Detect'
p106
sS'parameter_list'
p107
g1
(cmojom.parse.ast
ParameterList
p108
g3
NtRp109
(dp110
g10
(lp111
g1
(cmojom.parse.ast
Parameter
p112
g3
NtRp113
(dp114
g58
Nsg38
S'bitmap_data'
p115
sg15
Nsg19
g20
sg61
S'skia.mojom.Bitmap'
p116
sg16
I36
sbasg16
I36
sg19
g20
sbsg15
Nsg19
Nsg16
NsS'response_parameter_list'
p117
g1
(g108
g3
NtRp118
(dp119
g10
(lp120
g1
(g112
g3
NtRp121
(dp122
g58
Nsg38
S'results'
p123
sg15
Nsg19
g20
sg61
S'FaceDetectionResult[]'
p124
sg16
I37
sbasg16
I37
sg19
g20
sbsbasg16
Nsg19
Nsbsg15
Nsg16
Nsg38
S'FaceDetection'
p125
sg19
Nsbasg16
NsS'module'
p126
g1
(cmojom.parse.ast
Module
p127
g3
NtRp128
(dp129
S'mojom_namespace'
p130
(S'IDENTIFIER'
p131
S'shape_detection.mojom'
tp132
sg16
I7
sg15
Nsg19
g20
sbsg19
Nsb.