ccopy_reg
_reconstructor
p1
(cmojom.parse.ast
Mojom
p2
c__builtin__
object
p3
NtRp4
(dp5
S'import_list'
p6
g1
(cmojom.parse.ast
ImportList
p7
g3
NtRp8
(dp9
S'items'
p10
(lp11
g1
(cmojom.parse.ast
Import
p12
g3
NtRp13
(dp14
S'attribute_list'
p15
NsS'lineno'
p16
I9
sS'import_filename'
p17
S'skia/public/interfaces/bitmap.mojom'
p18
sS'filename'
p19
S'../../services/shape_detection/public/mojom/textdetection.mojom'
p20
sbag1
(g12
g3
NtRp21
(dp22
g15
Nsg16
I10
sg17
S'ui/gfx/geometry/mojo/geometry.mojom'
p23
sg19
g20
sbasg16
I9
sg19
g20
sbsS'definition_list'
p24
(lp25
g1
(cmojom.parse.ast
Struct
p26
g3
NtRp27
(dp28
S'body'
p29
g1
(cmojom.parse.ast
StructBody
p30
g3
NtRp31
(dp32
g10
(lp33
g1
(cmojom.parse.ast
StructField
p34
g3
NtRp35
(dp36
S'ordinal'
p37
NsS'default_value'
p38
NsS'mojom_name'
p39
S'raw_value'
p40
sg15
Nsg19
NsS'typename'
p41
S'string'
p42
sg16
Nsbag1
(g34
g3
NtRp43
(dp44
g37
Nsg38
Nsg39
S'bounding_box'
p45
sg15
Nsg19
Nsg41
S'gfx.mojom.RectF'
p46
sg16
Nsbag1
(g34
g3
NtRp47
(dp48
g37
Nsg38
Nsg39
S'corner_points'
p49
sg15
Nsg19
Nsg41
S'gfx.mojom.PointF[]'
p50
sg16
Nsbasg16
Nsg19
Nsbsg15
Nsg16
Nsg39
S'TextDetectionResult'
p51
sg19
Nsbag1
(cmojom.parse.ast
Interface
p52
g3
NtRp53
(dp54
g29
g1
(cmojom.parse.ast
InterfaceBody
p55
g3
NtRp56
(dp57
g10
(lp58
g1
(cmojom.parse.ast
Method
p59
g3
NtRp60
(dp61
g37
Nsg39
S'Detect'
p62
sS'parameter_list'
p63
g1
(cmojom.parse.ast
ParameterList
p64
g3
NtRp65
(dp66
g10
(lp67
g1
(cmojom.parse.ast
Parameter
p68
g3
NtRp69
(dp70
g37
Nsg39
S'bitmap_data'
p71
sg15
Nsg19
g20
sg41
S'skia.mojom.Bitmap'
p72
sg16
I20
sbasg16
I20
sg19
g20
sbsg15
Nsg19
Nsg16
NsS'response_parameter_list'
p73
g1
(g64
g3
NtRp74
(dp75
g10
(lp76
g1
(g68
g3
NtRp77
(dp78
g37
Nsg39
S'results'
p79
sg15
Nsg19
g20
sg41
S'TextDetectionResult[]'
p80
sg16
I21
sbasg16
I21
sg19
g20
sbsbasg16
Nsg19
Nsbsg15
Nsg16
Nsg39
S'TextDetection'
p81
sg19
Nsbasg16
NsS'module'
p82
g1
(cmojom.parse.ast
Module
p83
g3
NtRp84
(dp85
S'mojom_namespace'
p86
(S'IDENTIFIER'
p87
S'shape_detection.mojom'
tp88
sg16
I7
sg15
Nsg19
g20
sbsg19
Nsb.