ccopy_reg
_reconstructor
p1
(cmojom.parse.ast
Mojom
p2
c__builtin__
object
p3
NtRp4
(dp5
S'import_list'
p6
g1
(cmojom.parse.ast
ImportList
p7
g3
NtRp8
(dp9
S'items'
p10
(lp11
sS'lineno'
p12
NsS'filename'
p13
NsbsS'definition_list'
p14
(lp15
g1
(cmojom.parse.ast
Const
p16
g3
NtRp17
(dp18
S'mojom_name'
p19
S'kStopTracingRetryTimeMilliseconds'
p20
sS'attribute_list'
p21
NsS'value'
p22
S'100'
p23
sg13
NsS'typename'
p24
S'uint32'
p25
sg12
Nsbag1
(g16
g3
NtRp26
(dp27
g19
S'kServiceName'
p28
sg21
Nsg22
S'"tracing"'
p29
sg13
Nsg24
S'string'
p30
sg12
Nsbag1
(g16
g3
NtRp31
(dp32
g19
S'kChromeTraceEventLabel'
p33
sg21
Nsg22
S'"traceEvents"'
p34
sg13
Nsg24
S'string'
p35
sg12
Nsbag1
(g16
g3
NtRp36
(dp37
g19
S'kSystemTraceEventLabel'
p38
sg21
Nsg22
S'"systemTraceEvents"'
p39
sg13
Nsg24
S'string'
p40
sg12
Nsbasg12
NsS'module'
p41
g1
(cmojom.parse.ast
Module
p42
g3
NtRp43
(dp44
S'mojom_namespace'
p45
(S'IDENTIFIER'
p46
S'tracing.mojom'
tp47
sg12
I5
sg21
Nsg13
S'../../services/tracing/public/mojom/constants.mojom'
p48
sbsg13
Nsb.