ccopy_reg
_reconstructor
p1
(cmojom.parse.ast
Mojom
p2
c__builtin__
object
p3
NtRp4
(dp5
S'import_list'
p6
g1
(cmojom.parse.ast
ImportList
p7
g3
NtRp8
(dp9
S'items'
p10
(lp11
g1
(cmojom.parse.ast
Import
p12
g3
NtRp13
(dp14
S'attribute_list'
p15
g1
(cmojom.parse.ast
AttributeList
p16
g3
NtRp17
(dp18
g10
(lp19
g1
(cmojom.parse.ast
Attribute
p20
g3
NtRp21
(dp22
S'value'
p23
S'is_perfetto_supported_os'
p24
sS'lineno'
p25
I7
sS'key'
p26
S'EnableIf'
p27
sS'filename'
p28
S'../../services/tracing/public/mojom/traced_process.mojom'
p29
sbasg25
I7
sg28
g29
sbsg25
I8
sS'import_filename'
p30
S'services/tracing/public/mojom/perfetto_service.mojom'
p31
sg28
g29
sbag1
(g12
g3
NtRp32
(dp33
g15
g1
(g16
g3
NtRp34
(dp35
g10
(lp36
g1
(g20
g3
NtRp37
(dp38
g23
S'is_perfetto_supported_os'
p39
sg25
I9
sg26
S'EnableIf'
p40
sg28
g29
sbasg25
I9
sg28
g29
sbsg25
I10
sg30
S'services/tracing/public/mojom/tracing.mojom'
p41
sg28
g29
sbasg25
I8
sg28
g29
sbsS'definition_list'
p42
(lp43
g1
(cmojom.parse.ast
Struct
p44
g3
NtRp45
(dp46
S'body'
p47
g1
(cmojom.parse.ast
StructBody
p48
g3
NtRp49
(dp50
g10
(lp51
g1
(cmojom.parse.ast
StructField
p52
g3
NtRp53
(dp54
S'ordinal'
p55
NsS'default_value'
p56
NsS'mojom_name'
p57
S'perfetto_service'
p58
sg15
g1
(g16
g3
NtRp59
(dp60
g10
(lp61
g1
(g20
g3
NtRp62
(dp63
g23
S'is_perfetto_supported_os'
p64
sg25
I13
sg26
S'EnableIf'
p65
sg28
g29
sbasg25
I13
sg28
g29
sbsg28
NsS'typename'
p66
S'PerfettoService'
p67
sg25
Nsbag1
(g52
g3
NtRp68
(dp69
g55
Nsg56
Nsg57
S'agent_registry'
p70
sg15
g1
(g16
g3
NtRp71
(dp72
g10
(lp73
g1
(g20
g3
NtRp74
(dp75
g23
S'is_perfetto_supported_os'
p76
sg25
I15
sg26
S'EnableIf'
p77
sg28
g29
sbasg25
I15
sg28
g29
sbsg28
Nsg66
S'AgentRegistry'
p78
sg25
Nsbasg25
Nsg28
Nsbsg15
Nsg25
Nsg57
S'ConnectToTracingRequest'
p79
sg28
Nsbag1
(cmojom.parse.ast
Interface
p80
g3
NtRp81
(dp82
g47
g1
(cmojom.parse.ast
InterfaceBody
p83
g3
NtRp84
(dp85
g10
(lp86
g1
(cmojom.parse.ast
Method
p87
g3
NtRp88
(dp89
g55
Nsg57
S'ConnectToTracingService'
p90
sS'parameter_list'
p91
g1
(cmojom.parse.ast
ParameterList
p92
g3
NtRp93
(dp94
g10
(lp95
g1
(cmojom.parse.ast
Parameter
p96
g3
NtRp97
(dp98
g55
Nsg57
S'request'
p99
sg15
Nsg28
g29
sg66
S'ConnectToTracingRequest'
p100
sg25
I23
sbasg25
I23
sg28
g29
sbsg15
Nsg28
Nsg25
NsS'response_parameter_list'
p101
Nsbasg25
Nsg28
Nsbsg15
Nsg25
Nsg57
S'TracedProcess'
p102
sg28
Nsbasg25
NsS'module'
p103
g1
(cmojom.parse.ast
Module
p104
g3
NtRp105
(dp106
S'mojom_namespace'
p107
(S'IDENTIFIER'
p108
S'tracing.mojom'
tp109
sg25
I5
sg15
Nsg28
g29
sbsg28
Nsb.