ccopy_reg
_reconstructor
p1
(cmojom.parse.ast
Mojom
p2
c__builtin__
object
p3
NtRp4
(dp5
S'import_list'
p6
g1
(cmojom.parse.ast
ImportList
p7
g3
NtRp8
(dp9
S'items'
p10
(lp11
sS'lineno'
p12
NsS'filename'
p13
NsbsS'definition_list'
p14
(lp15
g1
(cmojom.parse.ast
Interface
p16
g3
NtRp17
(dp18
S'body'
p19
g1
(cmojom.parse.ast
InterfaceBody
p20
g3
NtRp21
(dp22
g10
(lp23
g1
(cmojom.parse.ast
Method
p24
g3
NtRp25
(dp26
S'ordinal'
p27
NsS'mojom_name'
p28
S'AcquireSingleSampleMetric'
p29
sS'parameter_list'
p30
g1
(cmojom.parse.ast
ParameterList
p31
g3
NtRp32
(dp33
g10
(lp34
g1
(cmojom.parse.ast
Parameter
p35
g3
NtRp36
(dp37
g27
Nsg28
S'histogram_name'
p38
sS'attribute_list'
p39
Nsg13
S'../../components/metrics/public/interfaces/single_sample_metrics.mojom'
p40
sS'typename'
p41
S'string'
p42
sg12
I17
sbag1
(g35
g3
NtRp43
(dp44
g27
Nsg28
S'min'
p45
sg39
Nsg13
g40
sg41
S'int32'
p46
sg12
I17
sbag1
(g35
g3
NtRp47
(dp48
g27
Nsg28
S'max'
p49
sg39
Nsg13
g40
sg41
S'int32'
p50
sg12
I17
sbag1
(g35
g3
NtRp51
(dp52
g27
Nsg28
S'bucket_count'
p53
sg39
Nsg13
g40
sg41
S'uint32'
p54
sg12
I18
sbag1
(g35
g3
NtRp55
(dp56
g27
Nsg28
S'flags'
p57
sg39
Nsg13
g40
sg41
S'int32'
p58
sg12
I18
sbag1
(g35
g3
NtRp59
(dp60
g27
Nsg28
S'request'
p61
sg39
Nsg13
g40
sg41
S'SingleSampleMetric&'
p62
sg12
I19
sbasg12
I17
sg13
g40
sbsg39
Nsg13
Nsg12
NsS'response_parameter_list'
p63
Nsbasg12
Nsg13
Nsbsg39
Nsg12
Nsg28
S'SingleSampleMetricsProvider'
p64
sg13
Nsbag1
(g16
g3
NtRp65
(dp66
g19
g1
(g20
g3
NtRp67
(dp68
g10
(lp69
g1
(g24
g3
NtRp70
(dp71
g27
Nsg28
S'SetSample'
p72
sg30
g1
(g31
g3
NtRp73
(dp74
g10
(lp75
g1
(g35
g3
NtRp76
(dp77
g27
Nsg28
S'sample'
p78
sg39
Nsg13
g40
sg41
S'int32'
p79
sg12
I23
sbasg12
I23
sg13
g40
sbsg39
Nsg13
Nsg12
Nsg63
Nsbasg12
Nsg13
Nsbsg39
Nsg12
Nsg28
S'SingleSampleMetric'
p80
sg13
Nsbasg12
NsS'module'
p81
g1
(cmojom.parse.ast
Module
p82
g3
NtRp83
(dp84
S'mojom_namespace'
p85
(S'IDENTIFIER'
p86
S'metrics.mojom'
tp87
sg12
I5
sg39
Nsg13
g40
sbsg13
Nsb.