ccopy_reg
_reconstructor
p1
(cmojom.parse.ast
Mojom
p2
c__builtin__
object
p3
NtRp4
(dp5
S'import_list'
p6
g1
(cmojom.parse.ast
ImportList
p7
g3
NtRp8
(dp9
S'items'
p10
(lp11
g1
(cmojom.parse.ast
Import
p12
g3
NtRp13
(dp14
S'attribute_list'
p15
NsS'lineno'
p16
I7
sS'import_filename'
p17
S'mojo/public/mojom/base/process_id.mojom'
p18
sS'filename'
p19
S'../../services/service_manager/public/mojom/service.mojom'
p20
sbag1
(g12
g3
NtRp21
(dp22
g15
Nsg16
I8
sg17
S'services/service_manager/public/mojom/connector.mojom'
p23
sg19
g20
sbag1
(g12
g3
NtRp24
(dp25
g15
Nsg16
I9
sg17
S'services/service_manager/public/mojom/interface_provider.mojom'
p26
sg19
g20
sbag1
(g12
g3
NtRp27
(dp28
g15
Nsg16
I10
sg17
S'services/service_manager/public/mojom/interface_provider_spec.mojom'
p29
sg19
g20
sbag1
(g12
g3
NtRp30
(dp31
g15
Nsg16
I11
sg17
S'services/service_manager/public/mojom/service_control.mojom'
p32
sg19
g20
sbasg16
I7
sg19
g20
sbsS'definition_list'
p33
(lp34
g1
(cmojom.parse.ast
Struct
p35
g3
NtRp36
(dp37
S'body'
p38
g1
(cmojom.parse.ast
StructBody
p39
g3
NtRp40
(dp41
g10
(lp42
g1
(cmojom.parse.ast
StructField
p43
g3
NtRp44
(dp45
S'ordinal'
p46
NsS'default_value'
p47
NsS'mojom_name'
p48
S'identity'
p49
sg15
Nsg19
NsS'typename'
p50
S'Identity'
p51
sg16
Nsbag1
(g43
g3
NtRp52
(dp53
g46
Nsg47
Nsg48
S'required_capabilities'
p54
sg15
Nsg19
Nsg50
S'CapabilitySet'
p55
sg16
Nsbasg16
Nsg19
Nsbsg15
Nsg16
Nsg48
S'BindSourceInfo'
p56
sg19
Nsbag1
(cmojom.parse.ast
Interface
p57
g3
NtRp58
(dp59
g38
g1
(cmojom.parse.ast
InterfaceBody
p60
g3
NtRp61
(dp62
g10
(lp63
g1
(cmojom.parse.ast
Method
p64
g3
NtRp65
(dp66
g46
Nsg48
S'OnStart'
p67
sS'parameter_list'
p68
g1
(cmojom.parse.ast
ParameterList
p69
g3
NtRp70
(dp71
g10
(lp72
g1
(cmojom.parse.ast
Parameter
p73
g3
NtRp74
(dp75
g46
Nsg48
S'identity'
p76
sg15
Nsg19
g20
sg50
S'Identity'
p77
sg16
I51
sbasg16
I51
sg19
g20
sbsg15
Nsg19
Nsg16
NsS'response_parameter_list'
p78
g1
(g69
g3
NtRp79
(dp80
g10
(lp81
g1
(g73
g3
NtRp82
(dp83
g46
Nsg48
S'connector_request'
p84
sg15
Nsg19
g20
sg50
S'Connector&?'
p85
sg16
I51
sbag1
(g73
g3
NtRp86
(dp87
g46
Nsg48
S'control_request'
p88
sg15
Nsg19
g20
sg50
S'asso<ServiceControl&>?'
p89
sg16
I52
sbasg16
I51
sg19
g20
sbsbag1
(g64
g3
NtRp90
(dp91
g46
Nsg48
S'OnBindInterface'
p92
sg68
g1
(g69
g3
NtRp93
(dp94
g10
(lp95
g1
(g73
g3
NtRp96
(dp97
g46
Nsg48
S'source'
p98
sg15
Nsg19
g20
sg50
S'BindSourceInfo'
p99
sg16
I73
sbag1
(g73
g3
NtRp100
(dp101
g46
Nsg48
S'interface_name'
p102
sg15
Nsg19
g20
sg50
S'string'
p103
sg16
I74
sbag1
(g73
g3
NtRp104
(dp105
g46
Nsg48
S'interface_pipe'
p106
sg15
Nsg19
g20
sg50
S'handle<message_pipe>'
p107
sg16
I75
sbasg16
I73
sg19
g20
sbsg15
Nsg19
Nsg16
Nsg78
g1
(g69
g3
NtRp108
(dp109
g10
(lp110
sg16
Nsg19
Nsbsbag1
(g64
g3
NtRp111
(dp112
g46
Nsg48
S'CreatePackagedServiceInstance'
p113
sg68
g1
(g69
g3
NtRp114
(dp115
g10
(lp116
g1
(g73
g3
NtRp117
(dp118
g46
Nsg48
S'identity'
p119
sg15
Nsg19
g20
sg50
S'Identity'
p120
sg16
I85
sbag1
(g73
g3
NtRp121
(dp122
g46
Nsg48
S'receiver'
p123
sg15
Nsg19
g20
sg50
S'rcv<Service>'
p124
sg16
I86
sbag1
(g73
g3
NtRp125
(dp126
g46
Nsg48
S'metadata'
p127
sg15
Nsg19
g20
sg50
S'rmt<ProcessMetadata>'
p128
sg16
I87
sbasg16
I85
sg19
g20
sbsg15
Nsg19
Nsg16
Nsg78
Nsbasg16
Nsg19
Nsbsg15
Nsg16
Nsg48
S'Service'
p129
sg19
Nsbasg16
NsS'module'
p130
g1
(cmojom.parse.ast
Module
p131
g3
NtRp132
(dp133
S'mojom_namespace'
p134
(S'IDENTIFIER'
p135
S'service_manager.mojom'
tp136
sg16
I5
sg15
Nsg19
g20
sbsg19
Nsb.