ccopy_reg
_reconstructor
p1
(cmojom.parse.ast
Mojom
p2
c__builtin__
object
p3
NtRp4
(dp5
S'import_list'
p6
g1
(cmojom.parse.ast
ImportList
p7
g3
NtRp8
(dp9
S'items'
p10
(lp11
g1
(cmojom.parse.ast
Import
p12
g3
NtRp13
(dp14
S'attribute_list'
p15
NsS'lineno'
p16
I7
sS'import_filename'
p17
S'services/service_manager/public/mojom/connector.mojom'
p18
sS'filename'
p19
S'../../services/service_manager/public/mojom/service_manager.mojom'
p20
sbasg16
I7
sg19
g20
sbsS'definition_list'
p21
(lp22
g1
(cmojom.parse.ast
Enum
p23
g3
NtRp24
(dp25
g15
NsS'enum_value_list'
p26
g1
(cmojom.parse.ast
EnumValueList
p27
g3
NtRp28
(dp29
g10
(lp30
g1
(cmojom.parse.ast
EnumValue
p31
g3
NtRp32
(dp33
g15
NsS'value'
p34
Nsg16
I15
sS'mojom_name'
p35
S'kCreated'
p36
sg19
g20
sbag1
(g31
g3
NtRp37
(dp38
g15
Nsg34
Nsg16
I25
sg35
S'kStarted'
p39
sg19
g20
sbag1
(g31
g3
NtRp40
(dp41
g15
Nsg34
Nsg16
I33
sg35
S'kUnreachable'
p42
sg19
g20
sbasg16
I15
sg19
g20
sbsg16
I9
sg35
S'InstanceState'
p43
sg19
g20
sbag1
(cmojom.parse.ast
Struct
p44
g3
NtRp45
(dp46
S'body'
p47
g1
(cmojom.parse.ast
StructBody
p48
g3
NtRp49
(dp50
g10
(lp51
g1
(cmojom.parse.ast
StructField
p52
g3
NtRp53
(dp54
S'ordinal'
p55
NsS'default_value'
p56
Nsg35
S'identity'
p57
sg15
Nsg19
NsS'typename'
p58
S'Identity'
p59
sg16
Nsbag1
(g52
g3
NtRp60
(dp61
g55
Nsg56
Nsg35
S'pid'
p62
sg15
Nsg19
Nsg58
S'uint32'
p63
sg16
Nsbag1
(g52
g3
NtRp64
(dp65
g55
Nsg56
Nsg35
S'state'
p66
sg15
Nsg19
Nsg58
S'InstanceState'
p67
sg16
Nsbasg16
Nsg19
Nsbsg15
Nsg16
Nsg35
S'RunningServiceInfo'
p68
sg19
Nsbag1
(cmojom.parse.ast
Interface
p69
g3
NtRp70
(dp71
g47
g1
(cmojom.parse.ast
InterfaceBody
p72
g3
NtRp73
(dp74
g10
(lp75
g1
(cmojom.parse.ast
Method
p76
g3
NtRp77
(dp78
g55
Nsg35
S'OnInit'
p79
sS'parameter_list'
p80
g1
(cmojom.parse.ast
ParameterList
p81
g3
NtRp82
(dp83
g10
(lp84
g1
(cmojom.parse.ast
Parameter
p85
g3
NtRp86
(dp87
g55
Nsg35
S'running_services'
p88
sg15
Nsg19
g20
sg58
S'RunningServiceInfo[]'
p89
sg16
I48
sbasg16
I48
sg19
g20
sbsg15
Nsg19
Nsg16
NsS'response_parameter_list'
p90
Nsbag1
(g76
g3
NtRp91
(dp92
g55
Nsg35
S'OnServiceCreated'
p93
sg80
g1
(g81
g3
NtRp94
(dp95
g10
(lp96
g1
(g85
g3
NtRp97
(dp98
g55
Nsg35
S'service'
p99
sg15
Nsg19
g20
sg58
S'RunningServiceInfo'
p100
sg16
I57
sbasg16
I57
sg19
g20
sbsg15
Nsg19
Nsg16
Nsg90
Nsbag1
(g76
g3
NtRp101
(dp102
g55
Nsg35
S'OnServiceStarted'
p103
sg80
g1
(g81
g3
NtRp104
(dp105
g10
(lp106
g1
(g85
g3
NtRp107
(dp108
g55
Nsg35
S'identity'
p109
sg15
Nsg19
g20
sg58
S'Identity'
p110
sg16
I67
sbag1
(g85
g3
NtRp111
(dp112
g55
Nsg35
S'pid_deprecated'
p113
sg15
Nsg19
g20
sg58
S'uint32'
p114
sg16
I67
sbasg16
I67
sg19
g20
sbsg15
Nsg19
Nsg16
Nsg90
Nsbag1
(g76
g3
NtRp115
(dp116
g55
Nsg35
S'OnServicePIDReceived'
p117
sg80
g1
(g81
g3
NtRp118
(dp119
g10
(lp120
g1
(g85
g3
NtRp121
(dp122
g55
Nsg35
S'identity'
p123
sg15
Nsg19
g20
sg58
S'Identity'
p124
sg16
I71
sbag1
(g85
g3
NtRp125
(dp126
g55
Nsg35
S'pid'
p127
sg15
Nsg19
g20
sg58
S'uint32'
p128
sg16
I71
sbasg16
I71
sg19
g20
sbsg15
Nsg19
Nsg16
Nsg90
Nsbag1
(g76
g3
NtRp129
(dp130
g55
Nsg35
S'OnServiceFailedToStart'
p131
sg80
g1
(g81
g3
NtRp132
(dp133
g10
(lp134
g1
(g85
g3
NtRp135
(dp136
g55
Nsg35
S'identity'
p137
sg15
Nsg19
g20
sg58
S'Identity'
p138
sg16
I75
sbasg16
I75
sg19
g20
sbsg15
Nsg19
Nsg16
Nsg90
Nsbag1
(g76
g3
NtRp139
(dp140
g55
Nsg35
S'OnServiceStopped'
p141
sg80
g1
(g81
g3
NtRp142
(dp143
g10
(lp144
g1
(g85
g3
NtRp145
(dp146
g55
Nsg35
S'identity'
p147
sg15
Nsg19
g20
sg58
S'Identity'
p148
sg16
I79
sbasg16
I79
sg19
g20
sbsg15
Nsg19
Nsg16
Nsg90
Nsbasg16
Nsg19
Nsbsg15
Nsg16
Nsg35
S'ServiceManagerListener'
p149
sg19
Nsbag1
(g69
g3
NtRp150
(dp151
g47
g1
(g72
g3
NtRp152
(dp153
g10
(lp154
g1
(g76
g3
NtRp155
(dp156
g55
Nsg35
S'AddListener'
p157
sg80
g1
(g81
g3
NtRp158
(dp159
g10
(lp160
g1
(g85
g3
NtRp161
(dp162
g55
Nsg35
S'listener'
p163
sg15
Nsg19
g20
sg58
S'ServiceManagerListener'
p164
sg16
I84
sbasg16
I84
sg19
g20
sbsg15
Nsg19
Nsg16
Nsg90
Nsbasg16
Nsg19
Nsbsg15
Nsg16
Nsg35
S'ServiceManager'
p165
sg19
Nsbasg16
NsS'module'
p166
g1
(cmojom.parse.ast
Module
p167
g3
NtRp168
(dp169
S'mojom_namespace'
p170
(S'IDENTIFIER'
p171
S'service_manager.mojom'
tp172
sg16
I5
sg15
Nsg19
g20
sbsg19
Nsb.