ccopy_reg
_reconstructor
p1
(cmojom.parse.ast
Mojom
p2
c__builtin__
object
p3
NtRp4
(dp5
S'import_list'
p6
g1
(cmojom.parse.ast
ImportList
p7
g3
NtRp8
(dp9
S'items'
p10
(lp11
g1
(cmojom.parse.ast
Import
p12
g3
NtRp13
(dp14
S'attribute_list'
p15
NsS'lineno'
p16
I7
sS'import_filename'
p17
S'mojo/public/mojom/base/shared_memory.mojom'
p18
sS'filename'
p19
S'../../ui/gfx/mojo/buffer_types.mojom'
p20
sbag1
(g12
g3
NtRp21
(dp22
g15
Nsg16
I8
sg17
S'mojo/public/mojom/base/unguessable_token.mojom'
p23
sg19
g20
sbasg16
I7
sg19
g20
sbsS'definition_list'
p24
(lp25
g1
(cmojom.parse.ast
Enum
p26
g3
NtRp27
(dp28
g15
NsS'enum_value_list'
p29
g1
(cmojom.parse.ast
EnumValueList
p30
g3
NtRp31
(dp32
g10
(lp33
g1
(cmojom.parse.ast
EnumValue
p34
g3
NtRp35
(dp36
g15
NsS'value'
p37
Nsg16
I12
sS'mojom_name'
p38
S'R_8'
p39
sg19
g20
sbag1
(g34
g3
NtRp40
(dp41
g15
Nsg37
Nsg16
I13
sg38
S'R_16'
p42
sg19
g20
sbag1
(g34
g3
NtRp43
(dp44
g15
Nsg37
Nsg16
I14
sg38
S'RG_88'
p45
sg19
g20
sbag1
(g34
g3
NtRp46
(dp47
g15
Nsg37
Nsg16
I15
sg38
S'BGR_565'
p48
sg19
g20
sbag1
(g34
g3
NtRp49
(dp50
g15
Nsg37
Nsg16
I16
sg38
S'RGBA_4444'
p51
sg19
g20
sbag1
(g34
g3
NtRp52
(dp53
g15
Nsg37
Nsg16
I17
sg38
S'RGBX_8888'
p54
sg19
g20
sbag1
(g34
g3
NtRp55
(dp56
g15
Nsg37
Nsg16
I18
sg38
S'RGBA_8888'
p57
sg19
g20
sbag1
(g34
g3
NtRp58
(dp59
g15
Nsg37
Nsg16
I19
sg38
S'BGRX_8888'
p60
sg19
g20
sbag1
(g34
g3
NtRp61
(dp62
g15
Nsg37
Nsg16
I20
sg38
S'BGRX_1010102'
p63
sg19
g20
sbag1
(g34
g3
NtRp64
(dp65
g15
Nsg37
Nsg16
I21
sg38
S'RGBX_1010102'
p66
sg19
g20
sbag1
(g34
g3
NtRp67
(dp68
g15
Nsg37
Nsg16
I22
sg38
S'BGRA_8888'
p69
sg19
g20
sbag1
(g34
g3
NtRp70
(dp71
g15
Nsg37
Nsg16
I23
sg38
S'RGBA_F16'
p72
sg19
g20
sbag1
(g34
g3
NtRp73
(dp74
g15
Nsg37
Nsg16
I24
sg38
S'YVU_420'
p75
sg19
g20
sbag1
(g34
g3
NtRp76
(dp77
g15
Nsg37
Nsg16
I25
sg38
S'YUV_420_BIPLANAR'
p78
sg19
g20
sbag1
(g34
g3
NtRp79
(dp80
g15
Nsg37
Nsg16
I26
sg38
S'UYVY_422'
p81
sg19
g20
sbasg16
I12
sg19
g20
sbsg16
I11
sg38
S'BufferFormat'
p82
sg19
g20
sbag1
(g26
g3
NtRp83
(dp84
g15
Nsg29
g1
(g30
g3
NtRp85
(dp86
g10
(lp87
g1
(g34
g3
NtRp88
(dp89
g15
Nsg37
Nsg16
I31
sg38
S'GPU_READ'
p90
sg19
g20
sbag1
(g34
g3
NtRp91
(dp92
g15
Nsg37
Nsg16
I32
sg38
S'SCANOUT'
p93
sg19
g20
sbag1
(g34
g3
NtRp94
(dp95
g15
Nsg37
Nsg16
I33
sg38
S'SCANOUT_CAMERA_READ_WRITE'
p96
sg19
g20
sbag1
(g34
g3
NtRp97
(dp98
g15
Nsg37
Nsg16
I34
sg38
S'CAMERA_AND_CPU_READ_WRITE'
p99
sg19
g20
sbag1
(g34
g3
NtRp100
(dp101
g15
Nsg37
Nsg16
I35
sg38
S'SCANOUT_CPU_READ_WRITE'
p102
sg19
g20
sbag1
(g34
g3
NtRp103
(dp104
g15
Nsg37
Nsg16
I36
sg38
S'SCANOUT_VDA_WRITE'
p105
sg19
g20
sbag1
(g34
g3
NtRp106
(dp107
g15
Nsg37
Nsg16
I37
sg38
S'GPU_READ_CPU_READ_WRITE'
p108
sg19
g20
sbasg16
I31
sg19
g20
sbsg16
I30
sg38
S'BufferUsage'
p109
sg19
g20
sbag1
(cmojom.parse.ast
Struct
p110
g3
NtRp111
(dp112
S'body'
p113
g1
(cmojom.parse.ast
StructBody
p114
g3
NtRp115
(dp116
g10
(lp117
g1
(cmojom.parse.ast
StructField
p118
g3
NtRp119
(dp120
S'ordinal'
p121
NsS'default_value'
p122
Nsg38
S'usage'
p123
sg15
Nsg19
NsS'typename'
p124
S'BufferUsage'
p125
sg16
Nsbag1
(g118
g3
NtRp126
(dp127
g121
Nsg122
Nsg38
S'format'
p128
sg15
Nsg19
Nsg124
S'BufferFormat'
p129
sg16
Nsbasg16
Nsg19
Nsbsg15
Nsg16
Nsg38
S'BufferUsageAndFormat'
p130
sg19
Nsbag1
(g110
g3
NtRp131
(dp132
g113
g1
(g114
g3
NtRp133
(dp134
g10
(lp135
g1
(g118
g3
NtRp136
(dp137
g121
Nsg122
Nsg38
S'id'
p138
sg15
Nsg19
Nsg124
S'int32'
p139
sg16
Nsbasg16
Nsg19
Nsbsg15
Nsg16
Nsg38
S'GpuMemoryBufferId'
p140
sg19
Nsbag1
(g110
g3
NtRp141
(dp142
g113
g1
(g114
g3
NtRp143
(dp144
g10
(lp145
g1
(g118
g3
NtRp146
(dp147
g121
Nsg122
Nsg38
S'stride'
p148
sg15
Nsg19
Nsg124
S'uint32'
p149
sg16
Nsbag1
(g118
g3
NtRp150
(dp151
g121
Nsg122
Nsg38
S'offset'
p152
sg15
Nsg19
Nsg124
S'int32'
p153
sg16
Nsbag1
(g118
g3
NtRp154
(dp155
g121
Nsg122
Nsg38
S'size'
p156
sg15
Nsg19
Nsg124
S'uint64'
p157
sg16
Nsbag1
(g118
g3
NtRp158
(dp159
g121
Nsg122
Nsg38
S'buffer_handle'
p160
sg15
Nsg19
Nsg124
S'handle'
p161
sg16
Nsbasg16
Nsg19
Nsbsg15
g1
(cmojom.parse.ast
AttributeList
p162
g3
NtRp163
(dp164
g10
(lp165
g1
(cmojom.parse.ast
Attribute
p166
g3
NtRp167
(dp168
g37
S'supports_native_pixmap'
p169
sg16
I51
sS'key'
p170
S'EnableIf'
p171
sg19
g20
sbasg16
I51
sg19
g20
sbsg16
Nsg38
S'NativePixmapPlane'
p172
sg19
Nsbag1
(g110
g3
NtRp173
(dp174
g113
g1
(g114
g3
NtRp175
(dp176
g10
(lp177
g1
(g118
g3
NtRp178
(dp179
g121
Nsg122
Nsg38
S'planes'
p180
sg15
Nsg19
Nsg124
S'NativePixmapPlane[]'
p181
sg16
Nsbag1
(g118
g3
NtRp182
(dp183
g121
Nsg122
Nsg38
S'modifier'
p184
sg15
Nsg19
Nsg124
S'uint64'
p185
sg16
Nsbasg16
Nsg19
Nsbsg15
g1
(g162
g3
NtRp186
(dp187
g10
(lp188
g1
(g166
g3
NtRp189
(dp190
g37
S'supports_native_pixmap'
p191
sg16
I62
sg170
S'EnableIf'
p192
sg19
g20
sbasg16
I62
sg19
g20
sbsg16
Nsg38
S'NativePixmapHandle'
p193
sg19
Nsbag1
(cmojom.parse.ast
Union
p194
g3
NtRp195
(dp196
g113
g1
(cmojom.parse.ast
UnionBody
p197
g3
NtRp198
(dp199
g10
(lp200
g1
(cmojom.parse.ast
UnionField
p201
g3
NtRp202
(dp203
g121
Nsg38
S'shared_memory_handle'
p204
sg15
Nsg19
Nsg124
S'mojo_base.mojom.UnsafeSharedMemoryRegion'
p205
sg16
Nsbag1
(g201
g3
NtRp206
(dp207
g121
Nsg38
S'native_pixmap_handle'
p208
sg15
g1
(g162
g3
NtRp209
(dp210
g10
(lp211
g1
(g166
g3
NtRp212
(dp213
g37
S'supports_native_pixmap'
p214
sg16
I90
sg170
S'EnableIf'
p215
sg19
g20
sbasg16
I90
sg19
g20
sbsg19
Nsg124
S'NativePixmapHandle'
p216
sg16
Nsbasg16
Nsg19
Nsbsg15
Nsg16
Nsg38
S'GpuMemoryBufferPlatformHandle'
p217
sg19
Nsbag1
(g110
g3
NtRp218
(dp219
g113
g1
(g114
g3
NtRp220
(dp221
g10
(lp222
g1
(g118
g3
NtRp223
(dp224
g121
Nsg122
Nsg38
S'id'
p225
sg15
Nsg19
Nsg124
S'GpuMemoryBufferId'
p226
sg16
Nsbag1
(g118
g3
NtRp227
(dp228
g121
Nsg122
Nsg38
S'offset'
p229
sg15
Nsg19
Nsg124
S'uint32'
p230
sg16
Nsbag1
(g118
g3
NtRp231
(dp232
g121
Nsg122
Nsg38
S'stride'
p233
sg15
Nsg19
Nsg124
S'uint32'
p234
sg16
Nsbag1
(g118
g3
NtRp235
(dp236
g121
Nsg122
Nsg38
S'platform_handle'
p237
sg15
Nsg19
Nsg124
S'GpuMemoryBufferPlatformHandle?'
p238
sg16
Nsbasg16
Nsg19
Nsbsg15
Nsg16
Nsg38
S'GpuMemoryBufferHandle'
p239
sg19
Nsbasg16
NsS'module'
p240
g1
(cmojom.parse.ast
Module
p241
g3
NtRp242
(dp243
S'mojom_namespace'
p244
(S'IDENTIFIER'
p245
S'gfx.mojom'
tp246
sg16
I5
sg15
Nsg19
g20
sbsg19
Nsb.