ccopy_reg
_reconstructor
p1
(cmojom.parse.ast
Mojom
p2
c__builtin__
object
p3
NtRp4
(dp5
S'import_list'
p6
g1
(cmojom.parse.ast
ImportList
p7
g3
NtRp8
(dp9
S'items'
p10
(lp11
sS'lineno'
p12
NsS'filename'
p13
NsbsS'definition_list'
p14
(lp15
g1
(cmojom.parse.ast
Enum
p16
g3
NtRp17
(dp18
S'attribute_list'
p19
NsS'enum_value_list'
p20
g1
(cmojom.parse.ast
EnumValueList
p21
g3
NtRp22
(dp23
g10
(lp24
g1
(cmojom.parse.ast
EnumValue
p25
g3
NtRp26
(dp27
g19
NsS'value'
p28
Nsg12
I11
sS'mojom_name'
p29
S'INVALID'
p30
sg13
S'../../ui/gfx/mojo/color_space.mojom'
p31
sbag1
(g25
g3
NtRp32
(dp33
g19
Nsg28
Nsg12
I12
sg29
S'BT709'
p34
sg13
g31
sbag1
(g25
g3
NtRp35
(dp36
g19
Nsg28
Nsg12
I13
sg29
S'BT470M'
p37
sg13
g31
sbag1
(g25
g3
NtRp38
(dp39
g19
Nsg28
Nsg12
I14
sg29
S'BT470BG'
p40
sg13
g31
sbag1
(g25
g3
NtRp41
(dp42
g19
Nsg28
Nsg12
I15
sg29
S'SMPTE170M'
p43
sg13
g31
sbag1
(g25
g3
NtRp44
(dp45
g19
Nsg28
Nsg12
I16
sg29
S'SMPTE240M'
p46
sg13
g31
sbag1
(g25
g3
NtRp47
(dp48
g19
Nsg28
Nsg12
I17
sg29
S'FILM'
p49
sg13
g31
sbag1
(g25
g3
NtRp50
(dp51
g19
Nsg28
Nsg12
I18
sg29
S'BT2020'
p52
sg13
g31
sbag1
(g25
g3
NtRp53
(dp54
g19
Nsg28
Nsg12
I19
sg29
S'SMPTEST428_1'
p55
sg13
g31
sbag1
(g25
g3
NtRp56
(dp57
g19
Nsg28
Nsg12
I20
sg29
S'SMPTEST431_2'
p58
sg13
g31
sbag1
(g25
g3
NtRp59
(dp60
g19
Nsg28
Nsg12
I21
sg29
S'SMPTEST432_1'
p61
sg13
g31
sbag1
(g25
g3
NtRp62
(dp63
g19
Nsg28
Nsg12
I22
sg29
S'XYZ_D50'
p64
sg13
g31
sbag1
(g25
g3
NtRp65
(dp66
g19
Nsg28
Nsg12
I23
sg29
S'ADOBE_RGB'
p67
sg13
g31
sbag1
(g25
g3
NtRp68
(dp69
g19
Nsg28
Nsg12
I24
sg29
S'APPLE_GENERIC_RGB'
p70
sg13
g31
sbag1
(g25
g3
NtRp71
(dp72
g19
Nsg28
Nsg12
I25
sg29
S'WIDE_GAMUT_COLOR_SPIN'
p73
sg13
g31
sbag1
(g25
g3
NtRp74
(dp75
g19
Nsg28
Nsg12
I26
sg29
S'CUSTOM'
p76
sg13
g31
sbasg12
I11
sg13
g31
sbsg12
I10
sg29
S'ColorSpacePrimaryID'
p77
sg13
g31
sbag1
(g16
g3
NtRp78
(dp79
g19
Nsg20
g1
(g21
g3
NtRp80
(dp81
g10
(lp82
g1
(g25
g3
NtRp83
(dp84
g19
Nsg28
Nsg12
I30
sg29
S'INVALID'
p85
sg13
g31
sbag1
(g25
g3
NtRp86
(dp87
g19
Nsg28
Nsg12
I31
sg29
S'BT709'
p88
sg13
g31
sbag1
(g25
g3
NtRp89
(dp90
g19
Nsg28
Nsg12
I32
sg29
S'BT709_APPLE'
p91
sg13
g31
sbag1
(g25
g3
NtRp92
(dp93
g19
Nsg28
Nsg12
I33
sg29
S'GAMMA18'
p94
sg13
g31
sbag1
(g25
g3
NtRp95
(dp96
g19
Nsg28
Nsg12
I34
sg29
S'GAMMA22'
p97
sg13
g31
sbag1
(g25
g3
NtRp98
(dp99
g19
Nsg28
Nsg12
I35
sg29
S'GAMMA24'
p100
sg13
g31
sbag1
(g25
g3
NtRp101
(dp102
g19
Nsg28
Nsg12
I36
sg29
S'GAMMA28'
p103
sg13
g31
sbag1
(g25
g3
NtRp104
(dp105
g19
Nsg28
Nsg12
I37
sg29
S'SMPTE170M'
p106
sg13
g31
sbag1
(g25
g3
NtRp107
(dp108
g19
Nsg28
Nsg12
I38
sg29
S'SMPTE240M'
p109
sg13
g31
sbag1
(g25
g3
NtRp110
(dp111
g19
Nsg28
Nsg12
I39
sg29
S'LINEAR'
p112
sg13
g31
sbag1
(g25
g3
NtRp113
(dp114
g19
Nsg28
Nsg12
I40
sg29
S'LOG'
p115
sg13
g31
sbag1
(g25
g3
NtRp116
(dp117
g19
Nsg28
Nsg12
I41
sg29
S'LOG_SQRT'
p118
sg13
g31
sbag1
(g25
g3
NtRp119
(dp120
g19
Nsg28
Nsg12
I42
sg29
S'IEC61966_2_4'
p121
sg13
g31
sbag1
(g25
g3
NtRp122
(dp123
g19
Nsg28
Nsg12
I43
sg29
S'BT1361_ECG'
p124
sg13
g31
sbag1
(g25
g3
NtRp125
(dp126
g19
Nsg28
Nsg12
I44
sg29
S'IEC61966_2_1'
p127
sg13
g31
sbag1
(g25
g3
NtRp128
(dp129
g19
Nsg28
Nsg12
I45
sg29
S'BT2020_10'
p130
sg13
g31
sbag1
(g25
g3
NtRp131
(dp132
g19
Nsg28
Nsg12
I46
sg29
S'BT2020_12'
p133
sg13
g31
sbag1
(g25
g3
NtRp134
(dp135
g19
Nsg28
Nsg12
I47
sg29
S'SMPTEST2084'
p136
sg13
g31
sbag1
(g25
g3
NtRp137
(dp138
g19
Nsg28
Nsg12
I48
sg29
S'SMPTEST428_1'
p139
sg13
g31
sbag1
(g25
g3
NtRp140
(dp141
g19
Nsg28
Nsg12
I49
sg29
S'ARIB_STD_B67'
p142
sg13
g31
sbag1
(g25
g3
NtRp143
(dp144
g19
Nsg28
Nsg12
I50
sg29
S'SMPTEST2084_NON_HDR'
p145
sg13
g31
sbag1
(g25
g3
NtRp146
(dp147
g19
Nsg28
Nsg12
I51
sg29
S'IEC61966_2_1_HDR'
p148
sg13
g31
sbag1
(g25
g3
NtRp149
(dp150
g19
Nsg28
Nsg12
I52
sg29
S'LINEAR_HDR'
p151
sg13
g31
sbag1
(g25
g3
NtRp152
(dp153
g19
Nsg28
Nsg12
I53
sg29
S'CUSTOM'
p154
sg13
g31
sbasg12
I30
sg13
g31
sbsg12
I29
sg29
S'ColorSpaceTransferID'
p155
sg13
g31
sbag1
(g16
g3
NtRp156
(dp157
g19
Nsg20
g1
(g21
g3
NtRp158
(dp159
g10
(lp160
g1
(g25
g3
NtRp161
(dp162
g19
Nsg28
Nsg12
I57
sg29
S'INVALID'
p163
sg13
g31
sbag1
(g25
g3
NtRp164
(dp165
g19
Nsg28
Nsg12
I58
sg29
S'RGB'
p166
sg13
g31
sbag1
(g25
g3
NtRp167
(dp168
g19
Nsg28
Nsg12
I59
sg29
S'BT709'
p169
sg13
g31
sbag1
(g25
g3
NtRp170
(dp171
g19
Nsg28
Nsg12
I60
sg29
S'FCC'
p172
sg13
g31
sbag1
(g25
g3
NtRp173
(dp174
g19
Nsg28
Nsg12
I61
sg29
S'BT470BG'
p175
sg13
g31
sbag1
(g25
g3
NtRp176
(dp177
g19
Nsg28
Nsg12
I62
sg29
S'SMPTE170M'
p178
sg13
g31
sbag1
(g25
g3
NtRp179
(dp180
g19
Nsg28
Nsg12
I63
sg29
S'SMPTE240M'
p181
sg13
g31
sbag1
(g25
g3
NtRp182
(dp183
g19
Nsg28
Nsg12
I64
sg29
S'YCOCG'
p184
sg13
g31
sbag1
(g25
g3
NtRp185
(dp186
g19
Nsg28
Nsg12
I65
sg29
S'BT2020_NCL'
p187
sg13
g31
sbag1
(g25
g3
NtRp188
(dp189
g19
Nsg28
Nsg12
I66
sg29
S'BT2020_CL'
p190
sg13
g31
sbag1
(g25
g3
NtRp191
(dp192
g19
Nsg28
Nsg12
I67
sg29
S'YDZDX'
p193
sg13
g31
sbag1
(g25
g3
NtRp194
(dp195
g19
Nsg28
Nsg12
I68
sg29
S'GBR'
p196
sg13
g31
sbasg12
I57
sg13
g31
sbsg12
I56
sg29
S'ColorSpaceMatrixID'
p197
sg13
g31
sbag1
(g16
g3
NtRp198
(dp199
g19
Nsg20
g1
(g21
g3
NtRp200
(dp201
g10
(lp202
g1
(g25
g3
NtRp203
(dp204
g19
Nsg28
Nsg12
I72
sg29
S'INVALID'
p205
sg13
g31
sbag1
(g25
g3
NtRp206
(dp207
g19
Nsg28
Nsg12
I73
sg29
S'LIMITED'
p208
sg13
g31
sbag1
(g25
g3
NtRp209
(dp210
g19
Nsg28
Nsg12
I74
sg29
S'FULL'
p211
sg13
g31
sbag1
(g25
g3
NtRp212
(dp213
g19
Nsg28
Nsg12
I75
sg29
S'DERIVED'
p214
sg13
g31
sbasg12
I72
sg13
g31
sbsg12
I71
sg29
S'ColorSpaceRangeID'
p215
sg13
g31
sbag1
(cmojom.parse.ast
Struct
p216
g3
NtRp217
(dp218
S'body'
p219
g1
(cmojom.parse.ast
StructBody
p220
g3
NtRp221
(dp222
g10
(lp223
g1
(cmojom.parse.ast
StructField
p224
g3
NtRp225
(dp226
S'ordinal'
p227
NsS'default_value'
p228
Nsg29
S'primaries'
p229
sg19
Nsg13
NsS'typename'
p230
S'ColorSpacePrimaryID'
p231
sg12
Nsbag1
(g224
g3
NtRp232
(dp233
g227
Nsg228
Nsg29
S'transfer'
p234
sg19
Nsg13
Nsg230
S'ColorSpaceTransferID'
p235
sg12
Nsbag1
(g224
g3
NtRp236
(dp237
g227
Nsg228
Nsg29
S'matrix'
p238
sg19
Nsg13
Nsg230
S'ColorSpaceMatrixID'
p239
sg12
Nsbag1
(g224
g3
NtRp240
(dp241
g227
Nsg228
Nsg29
S'range'
p242
sg19
Nsg13
Nsg230
S'ColorSpaceRangeID'
p243
sg12
Nsbag1
(g224
g3
NtRp244
(dp245
g227
Nsg228
Nsg29
S'custom_primary_matrix'
p246
sg19
Nsg13
Nsg230
S'float[9]'
p247
sg12
Nsbag1
(g224
g3
NtRp248
(dp249
g227
Nsg228
Nsg29
S'custom_transfer_params'
p250
sg19
Nsg13
Nsg230
S'float[7]'
p251
sg12
Nsbasg12
Nsg13
Nsbsg19
Nsg12
Nsg29
S'ColorSpace'
p252
sg13
Nsbasg12
NsS'module'
p253
g1
(cmojom.parse.ast
Module
p254
g3
NtRp255
(dp256
S'mojom_namespace'
p257
(S'IDENTIFIER'
p258
S'gfx.mojom'
tp259
sg12
I5
sg19
Nsg13
g31
sbsg13
Nsb.