ccopy_reg
_reconstructor
p1
(cmojom.parse.ast
Mojom
p2
c__builtin__
object
p3
NtRp4
(dp5
S'import_list'
p6
g1
(cmojom.parse.ast
ImportList
p7
g3
NtRp8
(dp9
S'items'
p10
(lp11
sS'lineno'
p12
NsS'filename'
p13
NsbsS'definition_list'
p14
(lp15
g1
(cmojom.parse.ast
Enum
p16
g3
NtRp17
(dp18
S'attribute_list'
p19
NsS'enum_value_list'
p20
g1
(cmojom.parse.ast
EnumValueList
p21
g3
NtRp22
(dp23
g10
(lp24
g1
(cmojom.parse.ast
EnumValue
p25
g3
NtRp26
(dp27
g19
NsS'value'
p28
Nsg12
I9
sS'mojom_name'
p29
S'kEmpty'
p30
sg13
S'../../ui/gfx/mojo/gpu_fence_handle.mojom'
p31
sbag1
(g25
g3
NtRp32
(dp33
g19
Nsg28
Nsg12
I10
sg29
S'kAndroidNativeFenceSync'
p34
sg13
g31
sbasg12
I9
sg13
g31
sbsg12
I8
sg29
S'GpuFenceHandleType'
p35
sg13
g31
sbag1
(cmojom.parse.ast
Struct
p36
g3
NtRp37
(dp38
S'body'
p39
g1
(cmojom.parse.ast
StructBody
p40
g3
NtRp41
(dp42
g10
(lp43
g1
(cmojom.parse.ast
StructField
p44
g3
NtRp45
(dp46
S'ordinal'
p47
NsS'default_value'
p48
Nsg29
S'type'
p49
sg19
Nsg13
NsS'typename'
p50
S'GpuFenceHandleType'
p51
sg12
Nsbag1
(g44
g3
NtRp52
(dp53
g47
Nsg48
Nsg29
S'native_fd'
p54
sg19
Nsg13
Nsg50
S'handle?'
p55
sg12
Nsbasg12
Nsg13
Nsbsg19
Nsg12
Nsg29
S'GpuFenceHandle'
p56
sg13
Nsbasg12
NsS'module'
p57
g1
(cmojom.parse.ast
Module
p58
g3
NtRp59
(dp60
S'mojom_namespace'
p61
(S'IDENTIFIER'
p62
S'gfx.mojom'
tp63
sg12
I5
sg19
Nsg13
g31
sbsg13
Nsb.