ccopy_reg
_reconstructor
p1
(cmojom.parse.ast
Mojom
p2
c__builtin__
object
p3
NtRp4
(dp5
S'import_list'
p6
g1
(cmojom.parse.ast
ImportList
p7
g3
NtRp8
(dp9
S'items'
p10
(lp11
g1
(cmojom.parse.ast
Import
p12
g3
NtRp13
(dp14
S'attribute_list'
p15
NsS'lineno'
p16
I7
sS'import_filename'
p17
S'ui/gfx/geometry/mojo/geometry.mojom'
p18
sS'filename'
p19
S'../../ui/gfx/mojo/rrect_f.mojom'
p20
sbasg16
I7
sg19
g20
sbsS'definition_list'
p21
(lp22
g1
(cmojom.parse.ast
Enum
p23
g3
NtRp24
(dp25
g15
NsS'enum_value_list'
p26
g1
(cmojom.parse.ast
EnumValueList
p27
g3
NtRp28
(dp29
g10
(lp30
g1
(cmojom.parse.ast
EnumValue
p31
g3
NtRp32
(dp33
g15
NsS'value'
p34
Nsg16
I10
sS'mojom_name'
p35
S'kEmpty'
p36
sg19
g20
sbag1
(g31
g3
NtRp37
(dp38
g15
Nsg34
Nsg16
I11
sg35
S'kRect'
p39
sg19
g20
sbag1
(g31
g3
NtRp40
(dp41
g15
Nsg34
Nsg16
I12
sg35
S'kSingle'
p42
sg19
g20
sbag1
(g31
g3
NtRp43
(dp44
g15
Nsg34
Nsg16
I13
sg35
S'kSimple'
p45
sg19
g20
sbag1
(g31
g3
NtRp46
(dp47
g15
Nsg34
Nsg16
I14
sg35
S'kOval'
p48
sg19
g20
sbag1
(g31
g3
NtRp49
(dp50
g15
Nsg34
Nsg16
I15
sg35
S'kComplex'
p51
sg19
g20
sbasg16
I10
sg19
g20
sbsg16
I9
sg35
S'RRectFType'
p52
sg19
g20
sbag1
(cmojom.parse.ast
Struct
p53
g3
NtRp54
(dp55
S'body'
p56
g1
(cmojom.parse.ast
StructBody
p57
g3
NtRp58
(dp59
g10
(lp60
g1
(cmojom.parse.ast
StructField
p61
g3
NtRp62
(dp63
S'ordinal'
p64
NsS'default_value'
p65
Nsg35
S'type'
p66
sg15
Nsg19
NsS'typename'
p67
S'RRectFType'
p68
sg16
Nsbag1
(g61
g3
NtRp69
(dp70
g64
Nsg65
Nsg35
S'rect'
p71
sg15
Nsg19
Nsg67
S'gfx.mojom.RectF'
p72
sg16
Nsbag1
(g61
g3
NtRp73
(dp74
g64
Nsg65
Nsg35
S'upper_left'
p75
sg15
Nsg19
Nsg67
S'gfx.mojom.Vector2dF'
p76
sg16
Nsbag1
(g61
g3
NtRp77
(dp78
g64
Nsg65
Nsg35
S'upper_right'
p79
sg15
Nsg19
Nsg67
S'gfx.mojom.Vector2dF'
p80
sg16
Nsbag1
(g61
g3
NtRp81
(dp82
g64
Nsg65
Nsg35
S'lower_right'
p83
sg15
Nsg19
Nsg67
S'gfx.mojom.Vector2dF'
p84
sg16
Nsbag1
(g61
g3
NtRp85
(dp86
g64
Nsg65
Nsg35
S'lower_left'
p87
sg15
Nsg19
Nsg67
S'gfx.mojom.Vector2dF'
p88
sg16
Nsbasg16
Nsg19
Nsbsg15
Nsg16
Nsg35
S'RRectF'
p89
sg19
Nsbasg16
NsS'module'
p90
g1
(cmojom.parse.ast
Module
p91
g3
NtRp92
(dp93
S'mojom_namespace'
p94
(S'IDENTIFIER'
p95
S'gfx.mojom'
tp96
sg16
I5
sg15
Nsg19
g20
sbsg19
Nsb.