ccopy_reg
_reconstructor
p1
(cmojom.parse.ast
Mojom
p2
c__builtin__
object
p3
NtRp4
(dp5
S'import_list'
p6
g1
(cmojom.parse.ast
ImportList
p7
g3
NtRp8
(dp9
S'items'
p10
(lp11
g1
(cmojom.parse.ast
Import
p12
g3
NtRp13
(dp14
S'attribute_list'
p15
NsS'lineno'
p16
I7
sS'import_filename'
p17
S'services/network/public/mojom/network_param.mojom'
p18
sS'filename'
p19
S'../../services/content/public/mojom/navigable_contents.mojom'
p20
sbag1
(g12
g3
NtRp21
(dp22
g15
Nsg16
I8
sg17
S'ui/accessibility/mojom/ax_tree_id.mojom'
p23
sg19
g20
sbag1
(g12
g3
NtRp24
(dp25
g15
Nsg16
I9
sg17
S'ui/base/mojo/window_open_disposition.mojom'
p26
sg19
g20
sbag1
(g12
g3
NtRp27
(dp28
g15
Nsg16
I10
sg17
S'ui/gfx/geometry/mojo/geometry.mojom'
p29
sg19
g20
sbag1
(g12
g3
NtRp30
(dp31
g15
Nsg16
I11
sg17
S'url/mojom/url.mojom'
p32
sg19
g20
sbasg16
I7
sg19
g20
sbsS'definition_list'
p33
(lp34
g1
(cmojom.parse.ast
Struct
p35
g3
NtRp36
(dp37
S'body'
p38
g1
(cmojom.parse.ast
StructBody
p39
g3
NtRp40
(dp41
g10
(lp42
g1
(cmojom.parse.ast
StructField
p43
g3
NtRp44
(dp45
S'ordinal'
p46
NsS'default_value'
p47
S'false'
p48
sS'mojom_name'
p49
S'should_clear_session_history'
p50
sg15
Nsg19
NsS'typename'
p51
S'bool'
p52
sg16
Nsbasg16
Nsg19
Nsbsg15
Nsg16
Nsg49
S'NavigateParams'
p53
sg19
Nsbag1
(cmojom.parse.ast
Interface
p54
g3
NtRp55
(dp56
g38
g1
(cmojom.parse.ast
InterfaceBody
p57
g3
NtRp58
(dp59
g10
(lp60
g1
(cmojom.parse.ast
Method
p61
g3
NtRp62
(dp63
g46
Nsg49
S'Navigate'
p64
sS'parameter_list'
p65
g1
(cmojom.parse.ast
ParameterList
p66
g3
NtRp67
(dp68
g10
(lp69
g1
(cmojom.parse.ast
Parameter
p70
g3
NtRp71
(dp72
g46
Nsg49
S'url'
p73
sg15
Nsg19
g20
sg51
S'url.mojom.Url'
p74
sg16
I27
sbag1
(g70
g3
NtRp75
(dp76
g46
Nsg49
S'params'
p77
sg15
Nsg19
g20
sg51
S'NavigateParams'
p78
sg16
I27
sbasg16
I27
sg19
g20
sbsg15
Nsg19
Nsg16
NsS'response_parameter_list'
p79
Nsbag1
(g61
g3
NtRp80
(dp81
g46
Nsg49
S'GoBack'
p82
sg65
g1
(g66
g3
NtRp83
(dp84
g10
(lp85
sg16
Nsg19
Nsbsg15
Nsg19
Nsg16
Nsg79
g1
(g66
g3
NtRp86
(dp87
g10
(lp88
g1
(g70
g3
NtRp89
(dp90
g46
Nsg49
S'success'
p91
sg15
Nsg19
g20
sg51
S'bool'
p92
sg16
I32
sbasg16
I32
sg19
g20
sbsbag1
(g61
g3
NtRp93
(dp94
g46
Nsg49
S'Focus'
p95
sg65
g1
(g66
g3
NtRp96
(dp97
g10
(lp98
sg16
Nsg19
Nsbsg15
Nsg19
Nsg16
Nsg79
Nsbag1
(g61
g3
NtRp99
(dp100
g46
Nsg49
S'FocusThroughTabTraversal'
p101
sg65
g1
(g66
g3
NtRp102
(dp103
g10
(lp104
g1
(g70
g3
NtRp105
(dp106
g46
Nsg49
S'reverse'
p107
sg15
Nsg19
g20
sg51
S'bool'
p108
sg16
I40
sbasg16
I40
sg19
g20
sbsg15
Nsg19
Nsg16
Nsg79
Nsbasg16
Nsg19
Nsbsg15
Nsg16
Nsg49
S'NavigableContents'
p109
sg19
Nsbag1
(g54
g3
NtRp110
(dp111
g38
g1
(g57
g3
NtRp112
(dp113
g10
(lp114
g1
(g61
g3
NtRp115
(dp116
g46
Nsg49
S'ClearViewFocus'
p117
sg65
g1
(g66
g3
NtRp118
(dp119
g10
(lp120
sg16
Nsg19
Nsbsg15
Nsg19
Nsg16
Nsg79
Nsbag1
(g61
g3
NtRp121
(dp122
g46
Nsg49
S'DidFinishNavigation'
p123
sg65
g1
(g66
g3
NtRp124
(dp125
g10
(lp126
g1
(g70
g3
NtRp127
(dp128
g46
Nsg49
S'url'
p129
sg15
Nsg19
g20
sg51
S'url.mojom.Url'
p130
sg16
I50
sbag1
(g70
g3
NtRp131
(dp132
g46
Nsg49
S'is_main_frame'
p133
sg15
Nsg19
g20
sg51
S'bool'
p134
sg16
I51
sbag1
(g70
g3
NtRp135
(dp136
g46
Nsg49
S'is_error_page'
p137
sg15
Nsg19
g20
sg51
S'bool'
p138
sg16
I52
sbag1
(g70
g3
NtRp139
(dp140
g46
Nsg49
S'response_headers'
p141
sg15
Nsg19
g20
sg51
S'network.mojom.HttpResponseHeaders?'
p142
sg16
I53
sbasg16
I50
sg19
g20
sbsg15
Nsg19
Nsg16
Nsg79
Nsbag1
(g61
g3
NtRp143
(dp144
g46
Nsg49
S'DidStopLoading'
p145
sg65
g1
(g66
g3
NtRp146
(dp147
g10
(lp148
sg16
Nsg19
Nsbsg15
Nsg19
Nsg16
Nsg79
Nsbag1
(g61
g3
NtRp149
(dp150
g46
Nsg49
S'DidAutoResizeView'
p151
sg65
g1
(g66
g3
NtRp152
(dp153
g10
(lp154
g1
(g70
g3
NtRp155
(dp156
g46
Nsg49
S'new_size'
p157
sg15
Nsg19
g20
sg51
S'gfx.mojom.Size'
p158
sg16
I64
sbasg16
I64
sg19
g20
sbsg15
Nsg19
Nsg16
Nsg79
Nsbag1
(g61
g3
NtRp159
(dp160
g46
Nsg49
S'DidSuppressNavigation'
p161
sg65
g1
(g66
g3
NtRp162
(dp163
g10
(lp164
g1
(g70
g3
NtRp165
(dp166
g46
Nsg49
S'url'
p167
sg15
Nsg19
g20
sg51
S'url.mojom.Url'
p168
sg16
I71
sbag1
(g70
g3
NtRp169
(dp170
g46
Nsg49
S'disposition'
p171
sg15
Nsg19
g20
sg51
S'ui.mojom.WindowOpenDisposition'
p172
sg16
I72
sbag1
(g70
g3
NtRp173
(dp174
g46
Nsg49
S'from_user_gesture'
p175
sg15
Nsg19
g20
sg51
S'bool'
p176
sg16
I73
sbasg16
I71
sg19
g20
sbsg15
Nsg19
Nsg16
Nsg79
Nsbag1
(g61
g3
NtRp177
(dp178
g46
Nsg49
S'UpdateContentAXTree'
p179
sg65
g1
(g66
g3
NtRp180
(dp181
g10
(lp182
g1
(g70
g3
NtRp183
(dp184
g46
Nsg49
S'id'
p185
sg15
Nsg19
g20
sg51
S'ax.mojom.AXTreeID'
p186
sg16
I77
sbasg16
I77
sg19
g20
sbsg15
Nsg19
Nsg16
Nsg79
Nsbasg16
Nsg19
Nsbsg15
Nsg16
Nsg49
S'NavigableContentsClient'
p187
sg19
Nsbasg16
NsS'module'
p188
g1
(cmojom.parse.ast
Module
p189
g3
NtRp190
(dp191
S'mojom_namespace'
p192
(S'IDENTIFIER'
p193
S'content.mojom'
tp194
sg16
I5
sg15
Nsg19
g20
sbsg19
Nsb.