ccopy_reg
_reconstructor
p1
(cmojom.parse.ast
Mojom
p2
c__builtin__
object
p3
NtRp4
(dp5
S'import_list'
p6
g1
(cmojom.parse.ast
ImportList
p7
g3
NtRp8
(dp9
S'items'
p10
(lp11
g1
(cmojom.parse.ast
Import
p12
g3
NtRp13
(dp14
S'attribute_list'
p15
NsS'lineno'
p16
I7
sS'import_filename'
p17
S'services/content/public/mojom/navigable_contents.mojom'
p18
sS'filename'
p19
S'../../services/content/public/mojom/navigable_contents_factory.mojom'
p20
sbag1
(g12
g3
NtRp21
(dp22
g15
Nsg16
I8
sg17
S'ui/gfx/geometry/mojo/geometry.mojom'
p23
sg19
g20
sbasg16
I7
sg19
g20
sbsS'definition_list'
p24
(lp25
g1
(cmojom.parse.ast
Struct
p26
g3
NtRp27
(dp28
S'body'
p29
g1
(cmojom.parse.ast
StructBody
p30
g3
NtRp31
(dp32
g10
(lp33
g1
(cmojom.parse.ast
StructField
p34
g3
NtRp35
(dp36
S'ordinal'
p37
NsS'default_value'
p38
S'false'
p39
sS'mojom_name'
p40
S'enable_view_auto_resize'
p41
sg15
Nsg19
NsS'typename'
p42
S'bool'
p43
sg16
Nsbag1
(g34
g3
NtRp44
(dp45
g37
Nsg38
Nsg40
S'auto_resize_min_size'
p46
sg15
Nsg19
Nsg42
S'gfx.mojom.Size?'
p47
sg16
Nsbag1
(g34
g3
NtRp48
(dp49
g37
Nsg38
Nsg40
S'auto_resize_max_size'
p50
sg15
Nsg19
Nsg42
S'gfx.mojom.Size?'
p51
sg16
Nsbag1
(g34
g3
NtRp52
(dp53
g37
Nsg38
S'false'
p54
sg40
S'suppress_navigations'
p55
sg15
Nsg19
Nsg42
S'bool'
p56
sg16
Nsbag1
(g34
g3
NtRp57
(dp58
g37
Nsg38
S'false'
p59
sg40
S'override_background_color'
p60
sg15
Nsg19
Nsg42
S'bool'
p61
sg16
Nsbag1
(g34
g3
NtRp62
(dp63
g37
Nsg38
S'0xFFFFFFFF'
p64
sg40
S'background_color'
p65
sg15
Nsg19
Nsg42
S'uint32'
p66
sg16
Nsbasg16
Nsg19
Nsbsg15
Nsg16
Nsg40
S'NavigableContentsParams'
p67
sg19
Nsbag1
(cmojom.parse.ast
Interface
p68
g3
NtRp69
(dp70
g29
g1
(cmojom.parse.ast
InterfaceBody
p71
g3
NtRp72
(dp73
g10
(lp74
g1
(cmojom.parse.ast
Method
p75
g3
NtRp76
(dp77
g37
Nsg40
S'CreateContents'
p78
sS'parameter_list'
p79
g1
(cmojom.parse.ast
ParameterList
p80
g3
NtRp81
(dp82
g10
(lp83
g1
(cmojom.parse.ast
Parameter
p84
g3
NtRp85
(dp86
g37
Nsg40
S'params'
p87
sg15
Nsg19
g20
sg42
S'NavigableContentsParams'
p88
sg16
I49
sbag1
(g84
g3
NtRp89
(dp90
g37
Nsg40
S'receiver'
p91
sg15
Nsg19
g20
sg42
S'rcv<NavigableContents>'
p92
sg16
I50
sbag1
(g84
g3
NtRp93
(dp94
g37
Nsg40
S'client'
p95
sg15
Nsg19
g20
sg42
S'rmt<NavigableContentsClient>'
p96
sg16
I51
sbasg16
I49
sg19
g20
sbsg15
Nsg19
Nsg16
NsS'response_parameter_list'
p97
Nsbasg16
Nsg19
Nsbsg15
Nsg16
Nsg40
S'NavigableContentsFactory'
p98
sg19
Nsbasg16
NsS'module'
p99
g1
(cmojom.parse.ast
Module
p100
g3
NtRp101
(dp102
S'mojom_namespace'
p103
(S'IDENTIFIER'
p104
S'content.mojom'
tp105
sg16
I5
sg15
Nsg19
g20
sbsg19
Nsb.