ccopy_reg
_reconstructor
p1
(cmojom.parse.ast
Mojom
p2
c__builtin__
object
p3
NtRp4
(dp5
S'import_list'
p6
g1
(cmojom.parse.ast
ImportList
p7
g3
NtRp8
(dp9
S'items'
p10
(lp11
g1
(cmojom.parse.ast
Import
p12
g3
NtRp13
(dp14
S'attribute_list'
p15
NsS'lineno'
p16
I7
sS'import_filename'
p17
S'mojo/public/mojom/base/big_string.mojom'
p18
sS'filename'
p19
S'../../ui/base/mojo/clipboard.mojom'
p20
sbag1
(g12
g3
NtRp21
(dp22
g15
Nsg16
I8
sg17
S'mojo/public/mojom/base/string16.mojom'
p23
sg19
g20
sbag1
(g12
g3
NtRp24
(dp25
g15
Nsg16
I9
sg17
S'mojo/public/mojom/base/time.mojom'
p26
sg19
g20
sbag1
(g12
g3
NtRp27
(dp28
g15
Nsg16
I10
sg17
S'skia/public/interfaces/bitmap.mojom'
p29
sg19
g20
sbasg16
I7
sg19
g20
sbsS'definition_list'
p30
(lp31
g1
(cmojom.parse.ast
Enum
p32
g3
NtRp33
(dp34
g15
NsS'enum_value_list'
p35
g1
(cmojom.parse.ast
EnumValueList
p36
g3
NtRp37
(dp38
g10
(lp39
g1
(cmojom.parse.ast
EnumValue
p40
g3
NtRp41
(dp42
g15
NsS'value'
p43
Nsg16
I13
sS'mojom_name'
p44
S'COPY_PASTE'
p45
sg19
g20
sbag1
(g40
g3
NtRp46
(dp47
g15
Nsg43
Nsg16
I14
sg44
S'SELECTION'
p48
sg19
g20
sbag1
(g40
g3
NtRp49
(dp50
g15
Nsg43
Nsg16
I15
sg44
S'DRAG'
p51
sg19
g20
sbasg16
I13
sg19
g20
sbsg16
I12
sg44
S'ClipboardType'
p52
sg19
g20
sbag1
(cmojom.parse.ast
Interface
p53
g3
NtRp54
(dp55
S'body'
p56
g1
(cmojom.parse.ast
InterfaceBody
p57
g3
NtRp58
(dp59
g10
(lp60
g1
(cmojom.parse.ast
Method
p61
g3
NtRp62
(dp63
S'ordinal'
p64
Nsg44
S'GetSequenceNumber'
p65
sS'parameter_list'
p66
g1
(cmojom.parse.ast
ParameterList
p67
g3
NtRp68
(dp69
g10
(lp70
g1
(cmojom.parse.ast
Parameter
p71
g3
NtRp72
(dp73
g64
Nsg44
S'type'
p74
sg15
Nsg19
g20
sS'typename'
p75
S'ClipboardType'
p76
sg16
I21
sbasg16
I21
sg19
g20
sbsg15
g1
(cmojom.parse.ast
AttributeList
p77
g3
NtRp78
(dp79
g10
(lp80
g1
(cmojom.parse.ast
Attribute
p81
g3
NtRp82
(dp83
g43
I01
sg16
I20
sS'key'
p84
S'Sync'
p85
sg19
g20
sbasg16
I20
sg19
g20
sbsg19
Nsg16
NsS'response_parameter_list'
p86
g1
(g67
g3
NtRp87
(dp88
g10
(lp89
g1
(g71
g3
NtRp90
(dp91
g64
Nsg44
S'result'
p92
sg15
Nsg19
g20
sg75
S'uint64'
p93
sg16
I21
sbasg16
I21
sg19
g20
sbsbag1
(g61
g3
NtRp94
(dp95
g64
Nsg44
S'IsFormatAvailable'
p96
sg66
g1
(g67
g3
NtRp97
(dp98
g10
(lp99
g1
(g71
g3
NtRp100
(dp101
g64
Nsg44
S'format'
p102
sg15
Nsg19
g20
sg75
S'string'
p103
sg16
I24
sbag1
(g71
g3
NtRp104
(dp105
g64
Nsg44
S'type'
p106
sg15
Nsg19
g20
sg75
S'ClipboardType'
p107
sg16
I24
sbasg16
I24
sg19
g20
sbsg15
g1
(g77
g3
NtRp108
(dp109
g10
(lp110
g1
(g81
g3
NtRp111
(dp112
g43
I01
sg16
I23
sg84
S'Sync'
p113
sg19
g20
sbasg16
I23
sg19
g20
sbsg19
Nsg16
Nsg86
g1
(g67
g3
NtRp114
(dp115
g10
(lp116
g1
(g71
g3
NtRp117
(dp118
g64
Nsg44
S'result'
p119
sg15
Nsg19
g20
sg75
S'bool'
p120
sg16
I24
sbasg16
I24
sg19
g20
sbsbag1
(g61
g3
NtRp121
(dp122
g64
Nsg44
S'Clear'
p123
sg66
g1
(g67
g3
NtRp124
(dp125
g10
(lp126
g1
(g71
g3
NtRp127
(dp128
g64
Nsg44
S'type'
p129
sg15
Nsg19
g20
sg75
S'ClipboardType'
p130
sg16
I26
sbasg16
I26
sg19
g20
sbsg15
Nsg19
Nsg16
Nsg86
Nsbag1
(g61
g3
NtRp131
(dp132
g64
Nsg44
S'ReadAvailableTypes'
p133
sg66
g1
(g67
g3
NtRp134
(dp135
g10
(lp136
g1
(g71
g3
NtRp137
(dp138
g64
Nsg44
S'type'
p139
sg15
Nsg19
g20
sg75
S'ClipboardType'
p140
sg16
I29
sbasg16
I29
sg19
g20
sbsg15
g1
(g77
g3
NtRp141
(dp142
g10
(lp143
g1
(g81
g3
NtRp144
(dp145
g43
I01
sg16
I28
sg84
S'Sync'
p146
sg19
g20
sbasg16
I28
sg19
g20
sbsg19
Nsg16
Nsg86
g1
(g67
g3
NtRp147
(dp148
g10
(lp149
g1
(g71
g3
NtRp150
(dp151
g64
Nsg44
S'types'
p152
sg15
Nsg19
g20
sg75
S'mojo_base.mojom.String16[]'
p153
sg16
I30
sbag1
(g71
g3
NtRp154
(dp155
g64
Nsg44
S'contains_filenames'
p156
sg15
Nsg19
g20
sg75
S'bool'
p157
sg16
I30
sbasg16
I30
sg19
g20
sbsbag1
(g61
g3
NtRp158
(dp159
g64
Nsg44
S'ReadText'
p160
sg66
g1
(g67
g3
NtRp161
(dp162
g10
(lp163
g1
(g71
g3
NtRp164
(dp165
g64
Nsg44
S'type'
p166
sg15
Nsg19
g20
sg75
S'ClipboardType'
p167
sg16
I33
sbasg16
I33
sg19
g20
sbsg15
g1
(g77
g3
NtRp168
(dp169
g10
(lp170
g1
(g81
g3
NtRp171
(dp172
g43
I01
sg16
I32
sg84
S'Sync'
p173
sg19
g20
sbasg16
I32
sg19
g20
sbsg19
Nsg16
Nsg86
g1
(g67
g3
NtRp174
(dp175
g10
(lp176
g1
(g71
g3
NtRp177
(dp178
g64
Nsg44
S'result'
p179
sg15
Nsg19
g20
sg75
S'mojo_base.mojom.BigString16'
p180
sg16
I33
sbasg16
I33
sg19
g20
sbsbag1
(g61
g3
NtRp181
(dp182
g64
Nsg44
S'ReadAsciiText'
p183
sg66
g1
(g67
g3
NtRp184
(dp185
g10
(lp186
g1
(g71
g3
NtRp187
(dp188
g64
Nsg44
S'type'
p189
sg15
Nsg19
g20
sg75
S'ClipboardType'
p190
sg16
I36
sbasg16
I36
sg19
g20
sbsg15
g1
(g77
g3
NtRp191
(dp192
g10
(lp193
g1
(g81
g3
NtRp194
(dp195
g43
I01
sg16
I35
sg84
S'Sync'
p196
sg19
g20
sbasg16
I35
sg19
g20
sbsg19
Nsg16
Nsg86
g1
(g67
g3
NtRp197
(dp198
g10
(lp199
g1
(g71
g3
NtRp200
(dp201
g64
Nsg44
S'result'
p202
sg15
Nsg19
g20
sg75
S'mojo_base.mojom.BigString'
p203
sg16
I36
sbasg16
I36
sg19
g20
sbsbag1
(g61
g3
NtRp204
(dp205
g64
Nsg44
S'ReadHTML'
p206
sg66
g1
(g67
g3
NtRp207
(dp208
g10
(lp209
g1
(g71
g3
NtRp210
(dp211
g64
Nsg44
S'type'
p212
sg15
Nsg19
g20
sg75
S'ClipboardType'
p213
sg16
I39
sbasg16
I39
sg19
g20
sbsg15
g1
(g77
g3
NtRp214
(dp215
g10
(lp216
g1
(g81
g3
NtRp217
(dp218
g43
I01
sg16
I38
sg84
S'Sync'
p219
sg19
g20
sbasg16
I38
sg19
g20
sbsg19
Nsg16
Nsg86
g1
(g67
g3
NtRp220
(dp221
g10
(lp222
g1
(g71
g3
NtRp223
(dp224
g64
Nsg44
S'markup'
p225
sg15
Nsg19
g20
sg75
S'mojo_base.mojom.BigString16'
p226
sg16
I39
sbag1
(g71
g3
NtRp227
(dp228
g64
Nsg44
S'src_url'
p229
sg15
Nsg19
g20
sg75
S'string'
p230
sg16
I40
sbag1
(g71
g3
NtRp231
(dp232
g64
Nsg44
S'fragment_start'
p233
sg15
Nsg19
g20
sg75
S'uint32'
p234
sg16
I41
sbag1
(g71
g3
NtRp235
(dp236
g64
Nsg44
S'fragment_end'
p237
sg15
Nsg19
g20
sg75
S'uint32'
p238
sg16
I42
sbasg16
I39
sg19
g20
sbsbag1
(g61
g3
NtRp239
(dp240
g64
Nsg44
S'ReadRTF'
p241
sg66
g1
(g67
g3
NtRp242
(dp243
g10
(lp244
g1
(g71
g3
NtRp245
(dp246
g64
Nsg44
S'type'
p247
sg15
Nsg19
g20
sg75
S'ClipboardType'
p248
sg16
I45
sbasg16
I45
sg19
g20
sbsg15
g1
(g77
g3
NtRp249
(dp250
g10
(lp251
g1
(g81
g3
NtRp252
(dp253
g43
I01
sg16
I44
sg84
S'Sync'
p254
sg19
g20
sbasg16
I44
sg19
g20
sbsg19
Nsg16
Nsg86
g1
(g67
g3
NtRp255
(dp256
g10
(lp257
g1
(g71
g3
NtRp258
(dp259
g64
Nsg44
S'result'
p260
sg15
Nsg19
g20
sg75
S'string'
p261
sg16
I45
sbasg16
I45
sg19
g20
sbsbag1
(g61
g3
NtRp262
(dp263
g64
Nsg44
S'ReadImage'
p264
sg66
g1
(g67
g3
NtRp265
(dp266
g10
(lp267
g1
(g71
g3
NtRp268
(dp269
g64
Nsg44
S'type'
p270
sg15
Nsg19
g20
sg75
S'ClipboardType'
p271
sg16
I48
sbasg16
I48
sg19
g20
sbsg15
g1
(g77
g3
NtRp272
(dp273
g10
(lp274
g1
(g81
g3
NtRp275
(dp276
g43
I01
sg16
I47
sg84
S'Sync'
p277
sg19
g20
sbasg16
I47
sg19
g20
sbsg19
Nsg16
Nsg86
g1
(g67
g3
NtRp278
(dp279
g10
(lp280
g1
(g71
g3
NtRp281
(dp282
g64
Nsg44
S'image'
p283
sg15
Nsg19
g20
sg75
S'skia.mojom.Bitmap?'
p284
sg16
I48
sbasg16
I48
sg19
g20
sbsbag1
(g61
g3
NtRp285
(dp286
g64
Nsg44
S'ReadCustomData'
p287
sg66
g1
(g67
g3
NtRp288
(dp289
g10
(lp290
g1
(g71
g3
NtRp291
(dp292
g64
Nsg44
S'clipboard_type'
p293
sg15
Nsg19
g20
sg75
S'ClipboardType'
p294
sg16
I51
sbag1
(g71
g3
NtRp295
(dp296
g64
Nsg44
S'type'
p297
sg15
Nsg19
g20
sg75
S'mojo_base.mojom.String16'
p298
sg16
I51
sbasg16
I51
sg19
g20
sbsg15
g1
(g77
g3
NtRp299
(dp300
g10
(lp301
g1
(g81
g3
NtRp302
(dp303
g43
I01
sg16
I50
sg84
S'Sync'
p304
sg19
g20
sbasg16
I50
sg19
g20
sbsg19
Nsg16
Nsg86
g1
(g67
g3
NtRp305
(dp306
g10
(lp307
g1
(g71
g3
NtRp308
(dp309
g64
Nsg44
S'result'
p310
sg15
Nsg19
g20
sg75
S'mojo_base.mojom.BigString16'
p311
sg16
I52
sbasg16
I52
sg19
g20
sbsbag1
(g61
g3
NtRp312
(dp313
g64
Nsg44
S'ReadBookmark'
p314
sg66
g1
(g67
g3
NtRp315
(dp316
g10
(lp317
sg16
Nsg19
Nsbsg15
g1
(g77
g3
NtRp318
(dp319
g10
(lp320
g1
(g81
g3
NtRp321
(dp322
g43
I01
sg16
I54
sg84
S'Sync'
p323
sg19
g20
sbasg16
I54
sg19
g20
sbsg19
Nsg16
Nsg86
g1
(g67
g3
NtRp324
(dp325
g10
(lp326
g1
(g71
g3
NtRp327
(dp328
g64
Nsg44
S'title'
p329
sg15
Nsg19
g20
sg75
S'mojo_base.mojom.String16'
p330
sg16
I55
sbag1
(g71
g3
NtRp331
(dp332
g64
Nsg44
S'url'
p333
sg15
Nsg19
g20
sg75
S'string'
p334
sg16
I55
sbasg16
I55
sg19
g20
sbsbag1
(g61
g3
NtRp335
(dp336
g64
Nsg44
S'ReadData'
p337
sg66
g1
(g67
g3
NtRp338
(dp339
g10
(lp340
g1
(g71
g3
NtRp341
(dp342
g64
Nsg44
S'format'
p343
sg15
Nsg19
g20
sg75
S'string'
p344
sg16
I58
sbasg16
I58
sg19
g20
sbsg15
g1
(g77
g3
NtRp345
(dp346
g10
(lp347
g1
(g81
g3
NtRp348
(dp349
g43
I01
sg16
I57
sg84
S'Sync'
p350
sg19
g20
sbasg16
I57
sg19
g20
sbsg19
Nsg16
Nsg86
g1
(g67
g3
NtRp351
(dp352
g10
(lp353
g1
(g71
g3
NtRp354
(dp355
g64
Nsg44
S'result'
p356
sg15
Nsg19
g20
sg75
S'string'
p357
sg16
I58
sbasg16
I58
sg19
g20
sbsbag1
(g61
g3
NtRp358
(dp359
g64
Nsg44
S'GetLastModifiedTime'
p360
sg66
g1
(g67
g3
NtRp361
(dp362
g10
(lp363
sg16
Nsg19
Nsbsg15
g1
(g77
g3
NtRp364
(dp365
g10
(lp366
g1
(g81
g3
NtRp367
(dp368
g43
I01
sg16
I60
sg84
S'Sync'
p369
sg19
g20
sbasg16
I60
sg19
g20
sbsg19
Nsg16
Nsg86
g1
(g67
g3
NtRp370
(dp371
g10
(lp372
g1
(g71
g3
NtRp373
(dp374
g64
Nsg44
S'time'
p375
sg15
Nsg19
g20
sg75
S'mojo_base.mojom.Time'
p376
sg16
I61
sbasg16
I61
sg19
g20
sbsbag1
(g61
g3
NtRp377
(dp378
g64
Nsg44
S'ClearLastModifiedTime'
p379
sg66
g1
(g67
g3
NtRp380
(dp381
g10
(lp382
sg16
Nsg19
Nsbsg15
Nsg19
Nsg16
Nsg86
Nsbag1
(g61
g3
NtRp383
(dp384
g64
Nsg44
S'WriteText'
p385
sg66
g1
(g67
g3
NtRp386
(dp387
g10
(lp388
g1
(g71
g3
NtRp389
(dp390
g64
Nsg44
S'text'
p391
sg15
Nsg19
g20
sg75
S'mojo_base.mojom.BigString16'
p392
sg16
I68
sbasg16
I68
sg19
g20
sbsg15
Nsg19
Nsg16
Nsg86
Nsbag1
(g61
g3
NtRp393
(dp394
g64
Nsg44
S'WriteHTML'
p395
sg66
g1
(g67
g3
NtRp396
(dp397
g10
(lp398
g1
(g71
g3
NtRp399
(dp400
g64
Nsg44
S'markup'
p401
sg15
Nsg19
g20
sg75
S'mojo_base.mojom.BigString16'
p402
sg16
I70
sbag1
(g71
g3
NtRp403
(dp404
g64
Nsg44
S'url'
p405
sg15
Nsg19
g20
sg75
S'string'
p406
sg16
I70
sbasg16
I70
sg19
g20
sbsg15
Nsg19
Nsg16
Nsg86
Nsbag1
(g61
g3
NtRp407
(dp408
g64
Nsg44
S'WriteRTF'
p409
sg66
g1
(g67
g3
NtRp410
(dp411
g10
(lp412
g1
(g71
g3
NtRp413
(dp414
g64
Nsg44
S'rtf'
p415
sg15
Nsg19
g20
sg75
S'string'
p416
sg16
I72
sbasg16
I72
sg19
g20
sbsg15
Nsg19
Nsg16
Nsg86
Nsbag1
(g61
g3
NtRp417
(dp418
g64
Nsg44
S'WriteBookmark'
p419
sg66
g1
(g67
g3
NtRp420
(dp421
g10
(lp422
g1
(g71
g3
NtRp423
(dp424
g64
Nsg44
S'url'
p425
sg15
Nsg19
g20
sg75
S'string'
p426
sg16
I74
sbag1
(g71
g3
NtRp427
(dp428
g64
Nsg44
S'title'
p429
sg15
Nsg19
g20
sg75
S'mojo_base.mojom.String16'
p430
sg16
I74
sbasg16
I74
sg19
g20
sbsg15
Nsg19
Nsg16
Nsg86
Nsbag1
(g61
g3
NtRp431
(dp432
g64
Nsg44
S'WriteWebSmartPaste'
p433
sg66
g1
(g67
g3
NtRp434
(dp435
g10
(lp436
sg16
Nsg19
Nsbsg15
Nsg19
Nsg16
Nsg86
Nsbag1
(g61
g3
NtRp437
(dp438
g64
Nsg44
S'WriteBitmap'
p439
sg66
g1
(g67
g3
NtRp440
(dp441
g10
(lp442
g1
(g71
g3
NtRp443
(dp444
g64
Nsg44
S'bitmap'
p445
sg15
Nsg19
g20
sg75
S'skia.mojom.Bitmap'
p446
sg16
I78
sbasg16
I78
sg19
g20
sbsg15
Nsg19
Nsg16
Nsg86
Nsbag1
(g61
g3
NtRp447
(dp448
g64
Nsg44
S'WriteData'
p449
sg66
g1
(g67
g3
NtRp450
(dp451
g10
(lp452
g1
(g71
g3
NtRp453
(dp454
g64
Nsg44
S'type'
p455
sg15
Nsg19
g20
sg75
S'string'
p456
sg16
I80
sbag1
(g71
g3
NtRp457
(dp458
g64
Nsg44
S'data'
p459
sg15
Nsg19
g20
sg75
S'mojo_base.mojom.BigString'
p460
sg16
I80
sbasg16
I80
sg19
g20
sbsg15
Nsg19
Nsg16
Nsg86
Nsbag1
(g61
g3
NtRp461
(dp462
g64
Nsg44
S'CommitWrite'
p463
sg66
g1
(g67
g3
NtRp464
(dp465
g10
(lp466
g1
(g71
g3
NtRp467
(dp468
g64
Nsg44
S'type'
p469
sg15
Nsg19
g20
sg75
S'ClipboardType'
p470
sg16
I82
sbasg16
I82
sg19
g20
sbsg15
Nsg19
Nsg16
Nsg86
Nsbasg16
Nsg19
Nsbsg15
Nsg16
Nsg44
S'ClipboardHost'
p471
sg19
Nsbasg16
NsS'module'
p472
g1
(cmojom.parse.ast
Module
p473
g3
NtRp474
(dp475
S'mojom_namespace'
p476
(S'IDENTIFIER'
p477
S'ui.mojom'
tp478
sg16
I5
sg15
Nsg19
g20
sbsg19
Nsb.