ccopy_reg
_reconstructor
p1
(cmojom.parse.ast
Mojom
p2
c__builtin__
object
p3
NtRp4
(dp5
S'import_list'
p6
g1
(cmojom.parse.ast
ImportList
p7
g3
NtRp8
(dp9
S'items'
p10
(lp11
g1
(cmojom.parse.ast
Import
p12
g3
NtRp13
(dp14
S'attribute_list'
p15
NsS'lineno'
p16
I7
sS'import_filename'
p17
S'mojo/public/mojom/base/time.mojom'
p18
sS'filename'
p19
S'../../ui/base/mojo/cursor.mojom'
p20
sbag1
(g12
g3
NtRp21
(dp22
g15
Nsg16
I8
sg17
S'skia/public/interfaces/bitmap.mojom'
p23
sg19
g20
sbag1
(g12
g3
NtRp24
(dp25
g15
Nsg16
I9
sg17
S'ui/gfx/geometry/mojo/geometry.mojom'
p26
sg19
g20
sbasg16
I7
sg19
g20
sbsS'definition_list'
p27
(lp28
g1
(cmojom.parse.ast
Enum
p29
g3
NtRp30
(dp31
g15
NsS'enum_value_list'
p32
g1
(cmojom.parse.ast
EnumValueList
p33
g3
NtRp34
(dp35
g10
(lp36
g1
(cmojom.parse.ast
EnumValue
p37
g3
NtRp38
(dp39
g15
NsS'value'
p40
S'0'
sg16
I16
sS'mojom_name'
p41
S'kNull'
p42
sg19
g20
sbag1
(g37
g3
NtRp43
(dp44
g15
Nsg40
Nsg16
I17
sg41
S'kPointer'
p45
sg19
g20
sbag1
(g37
g3
NtRp46
(dp47
g15
Nsg40
Nsg16
I18
sg41
S'kCross'
p48
sg19
g20
sbag1
(g37
g3
NtRp49
(dp50
g15
Nsg40
Nsg16
I19
sg41
S'kHand'
p51
sg19
g20
sbag1
(g37
g3
NtRp52
(dp53
g15
Nsg40
Nsg16
I20
sg41
S'kIBeam'
p54
sg19
g20
sbag1
(g37
g3
NtRp55
(dp56
g15
Nsg40
Nsg16
I21
sg41
S'kWait'
p57
sg19
g20
sbag1
(g37
g3
NtRp58
(dp59
g15
Nsg40
Nsg16
I22
sg41
S'kHelp'
p60
sg19
g20
sbag1
(g37
g3
NtRp61
(dp62
g15
Nsg40
Nsg16
I23
sg41
S'kEastResize'
p63
sg19
g20
sbag1
(g37
g3
NtRp64
(dp65
g15
Nsg40
Nsg16
I24
sg41
S'kNorthResize'
p66
sg19
g20
sbag1
(g37
g3
NtRp67
(dp68
g15
Nsg40
Nsg16
I25
sg41
S'kNorthEastResize'
p69
sg19
g20
sbag1
(g37
g3
NtRp70
(dp71
g15
Nsg40
Nsg16
I26
sg41
S'kNorthWestResize'
p72
sg19
g20
sbag1
(g37
g3
NtRp73
(dp74
g15
Nsg40
Nsg16
I27
sg41
S'kSouthResize'
p75
sg19
g20
sbag1
(g37
g3
NtRp76
(dp77
g15
Nsg40
Nsg16
I28
sg41
S'kSouthEastResize'
p78
sg19
g20
sbag1
(g37
g3
NtRp79
(dp80
g15
Nsg40
Nsg16
I29
sg41
S'kSouthWestResize'
p81
sg19
g20
sbag1
(g37
g3
NtRp82
(dp83
g15
Nsg40
Nsg16
I30
sg41
S'kWestResize'
p84
sg19
g20
sbag1
(g37
g3
NtRp85
(dp86
g15
Nsg40
Nsg16
I31
sg41
S'kNorthSouthResize'
p87
sg19
g20
sbag1
(g37
g3
NtRp88
(dp89
g15
Nsg40
Nsg16
I32
sg41
S'kEastWestResize'
p90
sg19
g20
sbag1
(g37
g3
NtRp91
(dp92
g15
Nsg40
Nsg16
I33
sg41
S'kNorthEastSouthWestResize'
p93
sg19
g20
sbag1
(g37
g3
NtRp94
(dp95
g15
Nsg40
Nsg16
I34
sg41
S'kNorthWestSouthEastResize'
p96
sg19
g20
sbag1
(g37
g3
NtRp97
(dp98
g15
Nsg40
Nsg16
I35
sg41
S'kColumnResize'
p99
sg19
g20
sbag1
(g37
g3
NtRp100
(dp101
g15
Nsg40
Nsg16
I36
sg41
S'kRowResize'
p102
sg19
g20
sbag1
(g37
g3
NtRp103
(dp104
g15
Nsg40
Nsg16
I37
sg41
S'kMiddlePanning'
p105
sg19
g20
sbag1
(g37
g3
NtRp106
(dp107
g15
Nsg40
Nsg16
I38
sg41
S'kEastPanning'
p108
sg19
g20
sbag1
(g37
g3
NtRp109
(dp110
g15
Nsg40
Nsg16
I39
sg41
S'kNorthPanning'
p111
sg19
g20
sbag1
(g37
g3
NtRp112
(dp113
g15
Nsg40
Nsg16
I40
sg41
S'kNorthEastPanning'
p114
sg19
g20
sbag1
(g37
g3
NtRp115
(dp116
g15
Nsg40
Nsg16
I41
sg41
S'kNorthWestPanning'
p117
sg19
g20
sbag1
(g37
g3
NtRp118
(dp119
g15
Nsg40
Nsg16
I42
sg41
S'kSouthPanning'
p120
sg19
g20
sbag1
(g37
g3
NtRp121
(dp122
g15
Nsg40
Nsg16
I43
sg41
S'kSouthEastPanning'
p123
sg19
g20
sbag1
(g37
g3
NtRp124
(dp125
g15
Nsg40
Nsg16
I44
sg41
S'kSouthWestPanning'
p126
sg19
g20
sbag1
(g37
g3
NtRp127
(dp128
g15
Nsg40
Nsg16
I45
sg41
S'kWestPanning'
p129
sg19
g20
sbag1
(g37
g3
NtRp130
(dp131
g15
Nsg40
Nsg16
I46
sg41
S'kMove'
p132
sg19
g20
sbag1
(g37
g3
NtRp133
(dp134
g15
Nsg40
Nsg16
I47
sg41
S'kVerticalText'
p135
sg19
g20
sbag1
(g37
g3
NtRp136
(dp137
g15
Nsg40
Nsg16
I48
sg41
S'kCell'
p138
sg19
g20
sbag1
(g37
g3
NtRp139
(dp140
g15
Nsg40
Nsg16
I49
sg41
S'kContextMenu'
p141
sg19
g20
sbag1
(g37
g3
NtRp142
(dp143
g15
Nsg40
Nsg16
I50
sg41
S'kAlias'
p144
sg19
g20
sbag1
(g37
g3
NtRp145
(dp146
g15
Nsg40
Nsg16
I51
sg41
S'kProgress'
p147
sg19
g20
sbag1
(g37
g3
NtRp148
(dp149
g15
Nsg40
Nsg16
I52
sg41
S'kNoDrop'
p150
sg19
g20
sbag1
(g37
g3
NtRp151
(dp152
g15
Nsg40
Nsg16
I53
sg41
S'kCopy'
p153
sg19
g20
sbag1
(g37
g3
NtRp154
(dp155
g15
Nsg40
Nsg16
I54
sg41
S'kNone'
p156
sg19
g20
sbag1
(g37
g3
NtRp157
(dp158
g15
Nsg40
Nsg16
I55
sg41
S'kNotAllowed'
p159
sg19
g20
sbag1
(g37
g3
NtRp160
(dp161
g15
Nsg40
Nsg16
I56
sg41
S'kZoomIn'
p162
sg19
g20
sbag1
(g37
g3
NtRp163
(dp164
g15
Nsg40
Nsg16
I57
sg41
S'kZoomOut'
p165
sg19
g20
sbag1
(g37
g3
NtRp166
(dp167
g15
Nsg40
Nsg16
I58
sg41
S'kGrab'
p168
sg19
g20
sbag1
(g37
g3
NtRp169
(dp170
g15
Nsg40
Nsg16
I59
sg41
S'kGrabbing'
p171
sg19
g20
sbag1
(g37
g3
NtRp172
(dp173
g15
Nsg40
Nsg16
I60
sg41
S'kCustom'
p174
sg19
g20
sbasg16
I16
sg19
g20
sbsg16
I13
sg41
S'CursorType'
p175
sg19
g20
sbag1
(g29
g3
NtRp176
(dp177
g15
Nsg32
g1
(g33
g3
NtRp178
(dp179
g10
(lp180
g1
(g37
g3
NtRp181
(dp182
g15
Nsg40
Nsg16
I66
sg41
S'kNormal'
p183
sg19
g20
sbag1
(g37
g3
NtRp184
(dp185
g15
Nsg40
Nsg16
I67
sg41
S'kLarge'
p186
sg19
g20
sbasg16
I66
sg19
g20
sbsg16
I65
sg41
S'CursorSize'
p187
sg19
g20
sbag1
(cmojom.parse.ast
Struct
p188
g3
NtRp189
(dp190
S'body'
p191
g1
(cmojom.parse.ast
StructBody
p192
g3
NtRp193
(dp194
g10
(lp195
g1
(cmojom.parse.ast
StructField
p196
g3
NtRp197
(dp198
S'ordinal'
p199
NsS'default_value'
p200
Nsg41
S'native_type'
p201
sg15
Nsg19
NsS'typename'
p202
S'CursorType'
p203
sg16
Nsbag1
(g196
g3
NtRp204
(dp205
g199
Nsg200
Nsg41
S'hotspot'
p206
sg15
Nsg19
Nsg202
S'gfx.mojom.Point'
p207
sg16
Nsbag1
(g196
g3
NtRp208
(dp209
g199
Nsg200
Nsg41
S'bitmap'
p210
sg15
Nsg19
Nsg202
S'skia.mojom.Bitmap?'
p211
sg16
Nsbag1
(g196
g3
NtRp212
(dp213
g199
Nsg200
Nsg41
S'device_scale_factor'
p214
sg15
Nsg19
Nsg202
S'float'
p215
sg16
Nsbasg16
Nsg19
Nsbsg15
Nsg16
Nsg41
S'Cursor'
p216
sg19
Nsbasg16
NsS'module'
p217
g1
(cmojom.parse.ast
Module
p218
g3
NtRp219
(dp220
S'mojom_namespace'
p221
(S'IDENTIFIER'
p222
S'ui.mojom'
tp223
sg16
I5
sg15
Nsg19
g20
sbsg19
Nsb.