ccopy_reg
_reconstructor
p1
(cmojom.parse.ast
Mojom
p2
c__builtin__
object
p3
NtRp4
(dp5
S'import_list'
p6
g1
(cmojom.parse.ast
ImportList
p7
g3
NtRp8
(dp9
S'items'
p10
(lp11
sS'lineno'
p12
NsS'filename'
p13
NsbsS'definition_list'
p14
(lp15
g1
(cmojom.parse.ast
Enum
p16
g3
NtRp17
(dp18
S'attribute_list'
p19
NsS'enum_value_list'
p20
g1
(cmojom.parse.ast
EnumValueList
p21
g3
NtRp22
(dp23
g10
(lp24
g1
(cmojom.parse.ast
EnumValue
p25
g3
NtRp26
(dp27
g19
NsS'value'
p28
Nsg12
I9
sS'mojom_name'
p29
S'kDefault'
p30
sg13
S'../../ui/base/mojo/ui_base_types.mojom'
p31
sbag1
(g25
g3
NtRp32
(dp33
g19
Nsg28
Nsg12
I10
sg29
S'kNormal'
p34
sg13
g31
sbag1
(g25
g3
NtRp35
(dp36
g19
Nsg28
Nsg12
I11
sg29
S'kMinimized'
p37
sg13
g31
sbag1
(g25
g3
NtRp38
(dp39
g19
Nsg28
Nsg12
I12
sg29
S'kMaximized'
p40
sg13
g31
sbag1
(g25
g3
NtRp41
(dp42
g19
Nsg28
Nsg12
I13
sg29
S'kInactive'
p43
sg13
g31
sbag1
(g25
g3
NtRp44
(dp45
g19
Nsg28
Nsg12
I14
sg29
S'kFullscreen'
p46
sg13
g31
sbasg12
I9
sg13
g31
sbsg12
I8
sg29
S'WindowShowState'
p47
sg13
g31
sbag1
(g16
g3
NtRp48
(dp49
g19
Nsg20
g1
(g21
g3
NtRp50
(dp51
g10
(lp52
g1
(g25
g3
NtRp53
(dp54
g19
Nsg28
Nsg12
I19
sg29
S'NONE'
p55
sg13
g31
sbag1
(g25
g3
NtRp56
(dp57
g19
Nsg28
Nsg12
I20
sg29
S'OK'
p58
sg13
g31
sbag1
(g25
g3
NtRp59
(dp60
g19
Nsg28
Nsg12
I21
sg29
S'CANCEL'
p61
sg13
g31
sbasg12
I19
sg13
g31
sbsg12
I18
sg29
S'DialogButton'
p62
sg13
g31
sbag1
(g16
g3
NtRp63
(dp64
g19
Nsg20
g1
(g21
g3
NtRp65
(dp66
g10
(lp67
g1
(g25
g3
NtRp68
(dp69
g19
Nsg28
Nsg12
I28
sg29
S'NONE'
p70
sg13
g31
sbag1
(g25
g3
NtRp71
(dp72
g19
Nsg28
Nsg12
I31
sg29
S'WINDOW'
p73
sg13
g31
sbag1
(g25
g3
NtRp74
(dp75
g19
Nsg28
Nsg12
I34
sg29
S'CHILD'
p76
sg13
g31
sbag1
(g25
g3
NtRp77
(dp78
g19
Nsg28
Nsg12
I37
sg29
S'SYSTEM'
p79
sg13
g31
sbasg12
I28
sg13
g31
sbsg12
I26
sg29
S'ModalType'
p80
sg13
g31
sbag1
(g16
g3
NtRp81
(dp82
g19
Nsg20
g1
(g21
g3
NtRp83
(dp84
g10
(lp85
g1
(g25
g3
NtRp86
(dp87
g19
Nsg28
S'0'
sg12
I43
sg29
S'kNowhere'
p88
sg13
g31
sbag1
(g25
g3
NtRp89
(dp90
g19
Nsg28
Nsg12
I44
sg29
S'kBorder'
p91
sg13
g31
sbag1
(g25
g3
NtRp92
(dp93
g19
Nsg28
Nsg12
I45
sg29
S'kBottom'
p94
sg13
g31
sbag1
(g25
g3
NtRp95
(dp96
g19
Nsg28
Nsg12
I46
sg29
S'kBottomLeft'
p97
sg13
g31
sbag1
(g25
g3
NtRp98
(dp99
g19
Nsg28
Nsg12
I47
sg29
S'kBottomRight'
p100
sg13
g31
sbag1
(g25
g3
NtRp101
(dp102
g19
Nsg28
Nsg12
I48
sg29
S'kCaption'
p103
sg13
g31
sbag1
(g25
g3
NtRp104
(dp105
g19
Nsg28
Nsg12
I49
sg29
S'kClient'
p106
sg13
g31
sbag1
(g25
g3
NtRp107
(dp108
g19
Nsg28
Nsg12
I50
sg29
S'kClose'
p109
sg13
g31
sbag1
(g25
g3
NtRp110
(dp111
g19
Nsg28
Nsg12
I51
sg29
S'kError'
p112
sg13
g31
sbag1
(g25
g3
NtRp113
(dp114
g19
Nsg28
Nsg12
I52
sg29
S'kGrowbox'
p115
sg13
g31
sbag1
(g25
g3
NtRp116
(dp117
g19
Nsg28
Nsg12
I53
sg29
S'kHelp'
p118
sg13
g31
sbag1
(g25
g3
NtRp119
(dp120
g19
Nsg28
Nsg12
I54
sg29
S'kHScroll'
p121
sg13
g31
sbag1
(g25
g3
NtRp122
(dp123
g19
Nsg28
Nsg12
I55
sg29
S'kLeft'
p124
sg13
g31
sbag1
(g25
g3
NtRp125
(dp126
g19
Nsg28
Nsg12
I56
sg29
S'kMenu'
p127
sg13
g31
sbag1
(g25
g3
NtRp128
(dp129
g19
Nsg28
Nsg12
I57
sg29
S'kMaxButton'
p130
sg13
g31
sbag1
(g25
g3
NtRp131
(dp132
g19
Nsg28
Nsg12
I58
sg29
S'kMinButton'
p133
sg13
g31
sbag1
(g25
g3
NtRp134
(dp135
g19
Nsg28
Nsg12
I59
sg29
S'kReduce'
p136
sg13
g31
sbag1
(g25
g3
NtRp137
(dp138
g19
Nsg28
Nsg12
I60
sg29
S'kRight'
p139
sg13
g31
sbag1
(g25
g3
NtRp140
(dp141
g19
Nsg28
Nsg12
I61
sg29
S'kSize'
p142
sg13
g31
sbag1
(g25
g3
NtRp143
(dp144
g19
Nsg28
Nsg12
I62
sg29
S'kSysMenu'
p145
sg13
g31
sbag1
(g25
g3
NtRp146
(dp147
g19
Nsg28
Nsg12
I63
sg29
S'kTop'
p148
sg13
g31
sbag1
(g25
g3
NtRp149
(dp150
g19
Nsg28
Nsg12
I64
sg29
S'kTopLeft'
p151
sg13
g31
sbag1
(g25
g3
NtRp152
(dp153
g19
Nsg28
Nsg12
I65
sg29
S'kTopRight'
p154
sg13
g31
sbag1
(g25
g3
NtRp155
(dp156
g19
Nsg28
Nsg12
I66
sg29
S'kTransparent'
p157
sg13
g31
sbag1
(g25
g3
NtRp158
(dp159
g19
Nsg28
Nsg12
I67
sg29
S'kVScroll'
p160
sg13
g31
sbag1
(g25
g3
NtRp161
(dp162
g19
Nsg28
Nsg12
I68
sg29
S'kZoom'
p163
sg13
g31
sbasg12
I43
sg13
g31
sbsg12
I42
sg29
S'HitTest'
p164
sg13
g31
sbasg12
NsS'module'
p165
g1
(cmojom.parse.ast
Module
p166
g3
NtRp167
(dp168
S'mojom_namespace'
p169
(S'IDENTIFIER'
p170
S'ui.mojom'
tp171
sg12
I5
sg19
Nsg13
g31
sbsg13
Nsb.