ccopy_reg
_reconstructor
p1
(cmojom.parse.ast
Mojom
p2
c__builtin__
object
p3
NtRp4
(dp5
S'import_list'
p6
g1
(cmojom.parse.ast
ImportList
p7
g3
NtRp8
(dp9
S'items'
p10
(lp11
g1
(cmojom.parse.ast
Import
p12
g3
NtRp13
(dp14
S'attribute_list'
p15
NsS'lineno'
p16
I7
sS'import_filename'
p17
S'ui/base/ime/mojo/ime_types.mojom'
p18
sS'filename'
p19
S'../../ui/base/ime/mojo/ime.mojom'
p20
sbag1
(g12
g3
NtRp21
(dp22
g15
Nsg16
I8
sg17
S'ui/events/mojo/event.mojom'
p23
sg19
g20
sbag1
(g12
g3
NtRp24
(dp25
g15
Nsg16
I9
sg17
S'ui/gfx/geometry/mojo/geometry.mojom'
p26
sg19
g20
sbasg16
I7
sg19
g20
sbsS'definition_list'
p27
(lp28
g1
(cmojom.parse.ast
Struct
p29
g3
NtRp30
(dp31
S'body'
p32
g1
(cmojom.parse.ast
StructBody
p33
g3
NtRp34
(dp35
g10
(lp36
g1
(cmojom.parse.ast
StructField
p37
g3
NtRp38
(dp39
S'ordinal'
p40
NsS'default_value'
p41
NsS'mojom_name'
p42
S'type'
p43
sg15
Nsg19
NsS'typename'
p44
S'ui.mojom.TextInputType'
p45
sg16
Nsbag1
(g37
g3
NtRp46
(dp47
g40
Nsg41
Nsg42
S'mode'
p48
sg15
Nsg19
Nsg44
S'ui.mojom.TextInputMode'
p49
sg16
Nsbag1
(g37
g3
NtRp50
(dp51
g40
Nsg41
Nsg42
S'flags'
p52
sg15
Nsg19
Nsg44
S'int32'
p53
sg16
Nsbag1
(g37
g3
NtRp54
(dp55
g40
Nsg41
Nsg42
S'focus_reason'
p56
sg15
Nsg19
Nsg44
S'ui.mojom.FocusReason'
p57
sg16
Nsbag1
(g37
g3
NtRp58
(dp59
g40
Nsg41
Nsg42
S'should_do_learning'
p60
sg15
Nsg19
Nsg44
S'bool'
p61
sg16
Nsbasg16
Nsg19
Nsbsg15
Nsg16
Nsg42
S'EditorInfo'
p62
sg19
Nsbag1
(cmojom.parse.ast
Interface
p63
g3
NtRp64
(dp65
g32
g1
(cmojom.parse.ast
InterfaceBody
p66
g3
NtRp67
(dp68
g10
(lp69
g1
(cmojom.parse.ast
Method
p70
g3
NtRp71
(dp72
g40
Nsg42
S'StartInput'
p73
sS'parameter_list'
p74
g1
(cmojom.parse.ast
ParameterList
p75
g3
NtRp76
(dp77
g10
(lp78
g1
(cmojom.parse.ast
Parameter
p79
g3
NtRp80
(dp81
g40
Nsg42
S'info'
p82
sg15
Nsg19
g20
sg44
S'EditorInfo'
p83
sg16
I27
sbasg16
I27
sg19
g20
sbsg15
Nsg19
Nsg16
NsS'response_parameter_list'
p84
Nsbag1
(g70
g3
NtRp85
(dp86
g40
Nsg42
S'FinishInput'
p87
sg74
g1
(g75
g3
NtRp88
(dp89
g10
(lp90
sg16
Nsg19
Nsbsg15
Nsg19
Nsg16
Nsg84
Nsbag1
(g70
g3
NtRp91
(dp92
g40
Nsg42
S'CancelInput'
p93
sg74
g1
(g75
g3
NtRp94
(dp95
g10
(lp96
sg16
Nsg19
Nsbsg15
Nsg19
Nsg16
Nsg84
Nsbag1
(g70
g3
NtRp97
(dp98
g40
Nsg42
S'ProcessKeyEvent'
p99
sg74
g1
(g75
g3
NtRp100
(dp101
g10
(lp102
g1
(g79
g3
NtRp103
(dp104
g40
Nsg42
S'key_event'
p105
sg15
Nsg19
g20
sg44
S'ui.mojom.Event'
p106
sg16
I41
sbasg16
I41
sg19
g20
sbsg15
Nsg19
Nsg16
Nsg84
g1
(g75
g3
NtRp107
(dp108
g10
(lp109
g1
(g79
g3
NtRp110
(dp111
g40
Nsg42
S'handled'
p112
sg15
Nsg19
g20
sg44
S'bool'
p113
sg16
I41
sbasg16
I41
sg19
g20
sbsbag1
(g70
g3
NtRp114
(dp115
g40
Nsg42
S'UpdateSurroundingInfo'
p116
sg74
g1
(g75
g3
NtRp117
(dp118
g10
(lp119
g1
(g79
g3
NtRp120
(dp121
g40
Nsg42
S'text'
p122
sg15
Nsg19
g20
sg44
S'string'
p123
sg16
I49
sbag1
(g79
g3
NtRp124
(dp125
g40
Nsg42
S'cursor'
p126
sg15
Nsg19
g20
sg44
S'int32'
p127
sg16
I49
sbag1
(g79
g3
NtRp128
(dp129
g40
Nsg42
S'anchor'
p130
sg15
Nsg19
g20
sg44
S'int32'
p131
sg16
I49
sbag1
(g79
g3
NtRp132
(dp133
g40
Nsg42
S'offset'
p134
sg15
Nsg19
g20
sg44
S'int32'
p135
sg16
I49
sbasg16
I49
sg19
g20
sbsg15
Nsg19
Nsg16
Nsg84
Nsbag1
(g70
g3
NtRp136
(dp137
g40
Nsg42
S'UpdateCompositionBounds'
p138
sg74
g1
(g75
g3
NtRp139
(dp140
g10
(lp141
g1
(g79
g3
NtRp142
(dp143
g40
Nsg42
S'bounds'
p144
sg15
Nsg19
g20
sg44
S'gfx.mojom.Rect[]'
p145
sg16
I54
sbasg16
I54
sg19
g20
sbsg15
Nsg19
Nsg16
Nsg84
Nsbasg16
Nsg19
Nsbsg15
Nsg16
Nsg42
S'ImeEngine'
p146
sg19
Nsbag1
(g63
g3
NtRp147
(dp148
g32
g1
(g66
g3
NtRp149
(dp150
g10
(lp151
g1
(g70
g3
NtRp152
(dp153
g40
Nsg42
S'CommitText'
p154
sg74
g1
(g75
g3
NtRp155
(dp156
g10
(lp157
g1
(g79
g3
NtRp158
(dp159
g40
Nsg42
S'text'
p160
sg15
Nsg19
g20
sg44
S'string'
p161
sg16
I64
sbasg16
I64
sg19
g20
sbsg15
Nsg19
Nsg16
Nsg84
Nsbag1
(g70
g3
NtRp162
(dp163
g40
Nsg42
S'UpdateCompositionText'
p164
sg74
g1
(g75
g3
NtRp165
(dp166
g10
(lp167
g1
(g79
g3
NtRp168
(dp169
g40
Nsg42
S'composition_text'
p170
sg15
Nsg19
g20
sg44
S'ui.mojom.CompositionText'
p171
sg16
I68
sbag1
(g79
g3
NtRp172
(dp173
g40
Nsg42
S'cursor_pos'
p174
sg15
Nsg19
g20
sg44
S'uint32'
p175
sg16
I69
sbag1
(g79
g3
NtRp176
(dp177
g40
Nsg42
S'visible'
p178
sg15
Nsg19
g20
sg44
S'bool'
p179
sg16
I70
sbasg16
I68
sg19
g20
sbsg15
Nsg19
Nsg16
Nsg84
Nsbag1
(g70
g3
NtRp180
(dp181
g40
Nsg42
S'DeleteSurroundingText'
p182
sg74
g1
(g75
g3
NtRp183
(dp184
g10
(lp185
g1
(g79
g3
NtRp186
(dp187
g40
Nsg42
S'offset'
p188
sg15
Nsg19
g20
sg44
S'int32'
p189
sg16
I73
sbag1
(g79
g3
NtRp190
(dp191
g40
Nsg42
S'length'
p192
sg15
Nsg19
g20
sg44
S'uint32'
p193
sg16
I73
sbasg16
I73
sg19
g20
sbsg15
Nsg19
Nsg16
Nsg84
Nsbag1
(g70
g3
NtRp194
(dp195
g40
Nsg42
S'SendKeyEvent'
p196
sg74
g1
(g75
g3
NtRp197
(dp198
g10
(lp199
g1
(g79
g3
NtRp200
(dp201
g40
Nsg42
S'key_event'
p202
sg15
Nsg19
g20
sg44
S'ui.mojom.Event'
p203
sg16
I77
sbasg16
I77
sg19
g20
sbsg15
Nsg19
Nsg16
Nsg84
Nsbag1
(g70
g3
NtRp204
(dp205
g40
Nsg42
S'Reconnect'
p206
sg74
g1
(g75
g3
NtRp207
(dp208
g10
(lp209
sg16
Nsg19
Nsbsg15
Nsg19
Nsg16
Nsg84
Nsbasg16
Nsg19
Nsbsg15
Nsg16
Nsg42
S'ImeEngineClient'
p210
sg19
Nsbag1
(g63
g3
NtRp211
(dp212
g32
g1
(g66
g3
NtRp213
(dp214
g10
(lp215
g1
(g70
g3
NtRp216
(dp217
g40
Nsg42
S'CreateEngine'
p218
sg74
g1
(g75
g3
NtRp219
(dp220
g10
(lp221
g1
(g79
g3
NtRp222
(dp223
g40
Nsg42
S'engine_request'
p224
sg15
Nsg19
g20
sg44
S'ImeEngine&'
p225
sg16
I89
sbag1
(g79
g3
NtRp226
(dp227
g40
Nsg42
S'client'
p228
sg15
Nsg19
g20
sg44
S'ImeEngineClient'
p229
sg16
I89
sbasg16
I89
sg19
g20
sbsg15
Nsg19
Nsg16
Nsg84
Nsbasg16
Nsg19
Nsbsg15
Nsg16
Nsg42
S'ImeEngineFactory'
p230
sg19
Nsbasg16
NsS'module'
p231
g1
(cmojom.parse.ast
Module
p232
g3
NtRp233
(dp234
S'mojom_namespace'
p235
(S'IDENTIFIER'
p236
S'ime.mojom'
tp237
sg16
I5
sg15
Nsg19
g20
sbsg19
Nsb.