ccopy_reg
_reconstructor
p1
(cmojom.parse.ast
Mojom
p2
c__builtin__
object
p3
NtRp4
(dp5
S'import_list'
p6
g1
(cmojom.parse.ast
ImportList
p7
g3
NtRp8
(dp9
S'items'
p10
(lp11
g1
(cmojom.parse.ast
Import
p12
g3
NtRp13
(dp14
S'attribute_list'
p15
NsS'lineno'
p16
I7
sS'import_filename'
p17
S'mojo/public/mojom/base/string16.mojom'
p18
sS'filename'
p19
S'../../ui/base/ime/mojo/ime_types.mojom'
p20
sbag1
(g12
g3
NtRp21
(dp22
g15
Nsg16
I8
sg17
S'ui/gfx/range/mojo/range.mojom'
p23
sg19
g20
sbasg16
I7
sg19
g20
sbsS'definition_list'
p24
(lp25
g1
(cmojom.parse.ast
Enum
p26
g3
NtRp27
(dp28
g15
NsS'enum_value_list'
p29
g1
(cmojom.parse.ast
EnumValueList
p30
g3
NtRp31
(dp32
g10
(lp33
g1
(cmojom.parse.ast
EnumValue
p34
g3
NtRp35
(dp36
g15
NsS'value'
p37
Nsg16
I12
sS'mojom_name'
p38
S'NONE'
p39
sg19
g20
sbag1
(g34
g3
NtRp40
(dp41
g15
Nsg37
Nsg16
I13
sg38
S'TEXT'
p42
sg19
g20
sbag1
(g34
g3
NtRp43
(dp44
g15
Nsg37
Nsg16
I14
sg38
S'PASSWORD'
p45
sg19
g20
sbag1
(g34
g3
NtRp46
(dp47
g15
Nsg37
Nsg16
I15
sg38
S'SEARCH'
p48
sg19
g20
sbag1
(g34
g3
NtRp49
(dp50
g15
Nsg37
Nsg16
I16
sg38
S'EMAIL'
p51
sg19
g20
sbag1
(g34
g3
NtRp52
(dp53
g15
Nsg37
Nsg16
I17
sg38
S'NUMBER'
p54
sg19
g20
sbag1
(g34
g3
NtRp55
(dp56
g15
Nsg37
Nsg16
I18
sg38
S'TELEPHONE'
p57
sg19
g20
sbag1
(g34
g3
NtRp58
(dp59
g15
Nsg37
Nsg16
I19
sg38
S'URL'
p60
sg19
g20
sbag1
(g34
g3
NtRp61
(dp62
g15
Nsg37
Nsg16
I20
sg38
S'DATE'
p63
sg19
g20
sbag1
(g34
g3
NtRp64
(dp65
g15
Nsg37
Nsg16
I21
sg38
S'DATE_TIME'
p66
sg19
g20
sbag1
(g34
g3
NtRp67
(dp68
g15
Nsg37
Nsg16
I22
sg38
S'DATE_TIME_LOCAL'
p69
sg19
g20
sbag1
(g34
g3
NtRp70
(dp71
g15
Nsg37
Nsg16
I23
sg38
S'MONTH'
p72
sg19
g20
sbag1
(g34
g3
NtRp73
(dp74
g15
Nsg37
Nsg16
I24
sg38
S'TIME'
p75
sg19
g20
sbag1
(g34
g3
NtRp76
(dp77
g15
Nsg37
Nsg16
I25
sg38
S'WEEK'
p78
sg19
g20
sbag1
(g34
g3
NtRp79
(dp80
g15
Nsg37
Nsg16
I26
sg38
S'TEXT_AREA'
p81
sg19
g20
sbag1
(g34
g3
NtRp82
(dp83
g15
Nsg37
Nsg16
I27
sg38
S'CONTENT_EDITABLE'
p84
sg19
g20
sbag1
(g34
g3
NtRp85
(dp86
g15
Nsg37
Nsg16
I28
sg38
S'DATE_TIME_FIELD'
p87
sg19
g20
sbag1
(g34
g3
NtRp88
(dp89
g15
Nsg37
(S'IDENTIFIER'
p90
S'DATE_TIME_FIELD'
tp91
sg16
I29
sg38
S'MAX'
p92
sg19
g20
sbasg16
I12
sg19
g20
sbsg16
I11
sg38
S'TextInputType'
p93
sg19
g20
sbag1
(g26
g3
NtRp94
(dp95
g15
Nsg29
g1
(g30
g3
NtRp96
(dp97
g10
(lp98
g1
(g34
g3
NtRp99
(dp100
g15
Nsg37
Nsg16
I34
sg38
S'kDefault'
p101
sg19
g20
sbag1
(g34
g3
NtRp102
(dp103
g15
Nsg37
Nsg16
I35
sg38
S'kNone'
p104
sg19
g20
sbag1
(g34
g3
NtRp105
(dp106
g15
Nsg37
Nsg16
I36
sg38
S'kText'
p107
sg19
g20
sbag1
(g34
g3
NtRp108
(dp109
g15
Nsg37
Nsg16
I37
sg38
S'kTel'
p110
sg19
g20
sbag1
(g34
g3
NtRp111
(dp112
g15
Nsg37
Nsg16
I38
sg38
S'kUrl'
p113
sg19
g20
sbag1
(g34
g3
NtRp114
(dp115
g15
Nsg37
Nsg16
I39
sg38
S'kEmail'
p116
sg19
g20
sbag1
(g34
g3
NtRp117
(dp118
g15
Nsg37
Nsg16
I40
sg38
S'kNumeric'
p119
sg19
g20
sbag1
(g34
g3
NtRp120
(dp121
g15
Nsg37
Nsg16
I41
sg38
S'kDecimal'
p122
sg19
g20
sbag1
(g34
g3
NtRp123
(dp124
g15
Nsg37
Nsg16
I42
sg38
S'kSearch'
p125
sg19
g20
sbasg16
I34
sg19
g20
sbsg16
I33
sg38
S'TextInputMode'
p126
sg19
g20
sbag1
(g26
g3
NtRp127
(dp128
g15
Nsg29
g1
(g30
g3
NtRp129
(dp130
g10
(lp131
g1
(g34
g3
NtRp132
(dp133
g15
Nsg37
Nsg16
I47
sg38
S'NONE'
p134
sg19
g20
sbag1
(g34
g3
NtRp135
(dp136
g15
Nsg37
S'0x001'
p137
sg16
I48
sg38
S'AUTOCOMPLETE_ON'
p138
sg19
g20
sbag1
(g34
g3
NtRp139
(dp140
g15
Nsg37
S'0x002'
p141
sg16
I49
sg38
S'AUTOCOMPLETE_OFF'
p142
sg19
g20
sbag1
(g34
g3
NtRp143
(dp144
g15
Nsg37
S'0x004'
p145
sg16
I50
sg38
S'AUTOCORRECT_ON'
p146
sg19
g20
sbag1
(g34
g3
NtRp147
(dp148
g15
Nsg37
S'0x008'
p149
sg16
I51
sg38
S'AUTOCORRECT_OFF'
p150
sg19
g20
sbag1
(g34
g3
NtRp151
(dp152
g15
Nsg37
S'0x010'
p153
sg16
I52
sg38
S'SPELLCHECK_ON'
p154
sg19
g20
sbag1
(g34
g3
NtRp155
(dp156
g15
Nsg37
S'0x020'
p157
sg16
I53
sg38
S'SPELLCHECK_OFF'
p158
sg19
g20
sbag1
(g34
g3
NtRp159
(dp160
g15
Nsg37
S'0x040'
p161
sg16
I54
sg38
S'AUTOCAPITALIZE_NONE'
p162
sg19
g20
sbag1
(g34
g3
NtRp163
(dp164
g15
Nsg37
S'0x080'
p165
sg16
I55
sg38
S'AUTOCAPITALIZE_CHARACTERS'
p166
sg19
g20
sbag1
(g34
g3
NtRp167
(dp168
g15
Nsg37
S'0x100'
p169
sg16
I56
sg38
S'AUTOCAPITALIZE_WORDS'
p170
sg19
g20
sbag1
(g34
g3
NtRp171
(dp172
g15
Nsg37
S'0x200'
p173
sg16
I57
sg38
S'AUTOCAPITALIZE_SENTENCES'
p174
sg19
g20
sbag1
(g34
g3
NtRp175
(dp176
g15
Nsg37
S'0x3FF'
p177
sg16
I58
sg38
S'ALL'
p178
sg19
g20
sbasg16
I47
sg19
g20
sbsg16
I46
sg38
S'TextInputFlag'
p179
sg19
g20
sbag1
(g26
g3
NtRp180
(dp181
g15
Nsg29
g1
(g30
g3
NtRp182
(dp183
g10
(lp184
g1
(g34
g3
NtRp185
(dp186
g15
Nsg37
Nsg16
I63
sg38
S'kComposition'
p187
sg19
g20
sbag1
(g34
g3
NtRp188
(dp189
g15
Nsg37
Nsg16
I64
sg38
S'kSuggestion'
p190
sg19
g20
sbag1
(g34
g3
NtRp191
(dp192
g15
Nsg37
Nsg16
I65
sg38
S'kMisspellingSuggestion'
p193
sg19
g20
sbasg16
I63
sg19
g20
sbsg16
I62
sg38
S'ImeTextSpanType'
p194
sg19
g20
sbag1
(g26
g3
NtRp195
(dp196
g15
Nsg29
g1
(g30
g3
NtRp197
(dp198
g10
(lp199
g1
(g34
g3
NtRp200
(dp201
g15
Nsg37
Nsg16
I75
sg38
S'kNone'
p202
sg19
g20
sbag1
(g34
g3
NtRp203
(dp204
g15
Nsg37
Nsg16
I76
sg38
S'kThin'
p205
sg19
g20
sbag1
(g34
g3
NtRp206
(dp207
g15
Nsg37
Nsg16
I77
sg38
S'kThick'
p208
sg19
g20
sbasg16
I75
sg19
g20
sbsg16
I74
sg38
S'ImeTextSpanThickness'
p209
sg19
g20
sbag1
(cmojom.parse.ast
Struct
p210
g3
NtRp211
(dp212
S'body'
p213
g1
(cmojom.parse.ast
StructBody
p214
g3
NtRp215
(dp216
g10
(lp217
g1
(cmojom.parse.ast
StructField
p218
g3
NtRp219
(dp220
S'ordinal'
p221
NsS'default_value'
p222
Nsg38
S'type'
p223
sg15
Nsg19
NsS'typename'
p224
S'ImeTextSpanType'
p225
sg16
Nsbag1
(g218
g3
NtRp226
(dp227
g221
Nsg222
Nsg38
S'start_offset'
p228
sg15
Nsg19
Nsg224
S'uint32'
p229
sg16
Nsbag1
(g218
g3
NtRp230
(dp231
g221
Nsg222
Nsg38
S'end_offset'
p232
sg15
Nsg19
Nsg224
S'uint32'
p233
sg16
Nsbag1
(g218
g3
NtRp234
(dp235
g221
Nsg222
Nsg38
S'underline_color'
p236
sg15
Nsg19
Nsg224
S'uint32'
p237
sg16
Nsbag1
(g218
g3
NtRp238
(dp239
g221
Nsg222
Nsg38
S'thickness'
p240
sg15
Nsg19
Nsg224
S'ImeTextSpanThickness'
p241
sg16
Nsbag1
(g218
g3
NtRp242
(dp243
g221
Nsg222
Nsg38
S'background_color'
p244
sg15
Nsg19
Nsg224
S'uint32'
p245
sg16
Nsbag1
(g218
g3
NtRp246
(dp247
g221
Nsg222
Nsg38
S'suggestion_highlight_color'
p248
sg15
Nsg19
Nsg224
S'uint32'
p249
sg16
Nsbag1
(g218
g3
NtRp250
(dp251
g221
Nsg222
Nsg38
S'remove_on_finish_composing'
p252
sg15
Nsg19
Nsg224
S'bool'
p253
sg16
Nsbag1
(g218
g3
NtRp254
(dp255
g221
Nsg222
Nsg38
S'suggestions'
p256
sg15
Nsg19
Nsg224
S'string[]'
p257
sg16
Nsbasg16
Nsg19
Nsbsg15
Nsg16
Nsg38
S'ImeTextSpan'
p258
sg19
Nsbag1
(g210
g3
NtRp259
(dp260
g213
g1
(g214
g3
NtRp261
(dp262
g10
(lp263
g1
(g218
g3
NtRp264
(dp265
g221
Nsg222
Nsg38
S'text'
p266
sg15
Nsg19
Nsg224
S'mojo_base.mojom.String16'
p267
sg16
Nsbag1
(g218
g3
NtRp268
(dp269
g221
Nsg222
Nsg38
S'ime_text_spans'
p270
sg15
Nsg19
Nsg224
S'ImeTextSpan[]'
p271
sg16
Nsbag1
(g218
g3
NtRp272
(dp273
g221
Nsg222
Nsg38
S'selection'
p274
sg15
Nsg19
Nsg224
S'gfx.mojom.Range'
p275
sg16
Nsbasg16
Nsg19
Nsbsg15
Nsg16
Nsg38
S'CompositionText'
p276
sg19
Nsbag1
(g26
g3
NtRp277
(dp278
g15
Nsg29
g1
(g30
g3
NtRp279
(dp280
g10
(lp281
g1
(g34
g3
NtRp282
(dp283
g15
Nsg37
Nsg16
I105
sg38
S'kNone'
p284
sg19
g20
sbag1
(g34
g3
NtRp285
(dp286
g15
Nsg37
Nsg16
I106
sg38
S'kMouse'
p287
sg19
g20
sbag1
(g34
g3
NtRp288
(dp289
g15
Nsg37
Nsg16
I107
sg38
S'kTouch'
p290
sg19
g20
sbag1
(g34
g3
NtRp291
(dp292
g15
Nsg37
Nsg16
I108
sg38
S'kPen'
p293
sg19
g20
sbag1
(g34
g3
NtRp294
(dp295
g15
Nsg37
Nsg16
I109
sg38
S'kOther'
p296
sg19
g20
sbasg16
I105
sg19
g20
sbsg16
I104
sg38
S'FocusReason'
p297
sg19
g20
sbasg16
NsS'module'
p298
g1
(cmojom.parse.ast
Module
p299
g3
NtRp300
(dp301
S'mojom_namespace'
p302
(g90
S'ui.mojom'
tp303
sg16
I5
sg15
Nsg19
g20
sbsg19
Nsb.