ccopy_reg
_reconstructor
p1
(cmojom.parse.ast
Mojom
p2
c__builtin__
object
p3
NtRp4
(dp5
S'import_list'
p6
g1
(cmojom.parse.ast
ImportList
p7
g3
NtRp8
(dp9
S'items'
p10
(lp11
g1
(cmojom.parse.ast
Import
p12
g3
NtRp13
(dp14
S'attribute_list'
p15
NsS'lineno'
p16
I7
sS'import_filename'
p17
S'mojo/public/mojom/base/time.mojom'
p18
sS'filename'
p19
S'../../ui/latency/mojo/latency_info.mojom'
p20
sbasg16
I7
sg19
g20
sbsS'definition_list'
p21
(lp22
g1
(cmojom.parse.ast
Enum
p23
g3
NtRp24
(dp25
g15
NsS'enum_value_list'
p26
g1
(cmojom.parse.ast
EnumValueList
p27
g3
NtRp28
(dp29
g10
(lp30
g1
(cmojom.parse.ast
EnumValue
p31
g3
NtRp32
(dp33
g15
NsS'value'
p34
Nsg16
I13
sS'mojom_name'
p35
S'INPUT_EVENT_LATENCY_BEGIN_RWH_COMPONENT'
p36
sg19
g20
sbag1
(g31
g3
NtRp37
(dp38
g15
Nsg34
Nsg16
I17
sg35
S'LATENCY_BEGIN_SCROLL_LISTENER_UPDATE_MAIN_COMPONENT'
p39
sg19
g20
sbag1
(g31
g3
NtRp40
(dp41
g15
Nsg34
Nsg16
I19
sg35
S'LATENCY_BEGIN_FRAME_RENDERER_MAIN_COMPONENT'
p42
sg19
g20
sbag1
(g31
g3
NtRp43
(dp44
g15
Nsg34
Nsg16
I20
sg35
S'LATENCY_BEGIN_FRAME_RENDERER_INVALIDATE_COMPONENT'
p45
sg19
g20
sbag1
(g31
g3
NtRp46
(dp47
g15
Nsg34
Nsg16
I21
sg35
S'LATENCY_BEGIN_FRAME_RENDERER_COMPOSITOR_COMPONENT'
p48
sg19
g20
sbag1
(g31
g3
NtRp49
(dp50
g15
Nsg34
Nsg16
I22
sg35
S'LATENCY_BEGIN_FRAME_UI_MAIN_COMPONENT'
p51
sg19
g20
sbag1
(g31
g3
NtRp52
(dp53
g15
Nsg34
Nsg16
I23
sg35
S'LATENCY_BEGIN_FRAME_UI_COMPOSITOR_COMPONENT'
p54
sg19
g20
sbag1
(g31
g3
NtRp55
(dp56
g15
Nsg34
Nsg16
I24
sg35
S'LATENCY_BEGIN_FRAME_DISPLAY_COMPOSITOR_COMPONENT'
p57
sg19
g20
sbag1
(g31
g3
NtRp58
(dp59
g15
Nsg34
Nsg16
I27
sg35
S'INPUT_EVENT_LATENCY_SCROLL_UPDATE_ORIGINAL_COMPONENT'
p60
sg19
g20
sbag1
(g31
g3
NtRp61
(dp62
g15
Nsg34
Nsg16
I30
sg35
S'INPUT_EVENT_LATENCY_FIRST_SCROLL_UPDATE_ORIGINAL_COMPONENT'
p63
sg19
g20
sbag1
(g31
g3
NtRp64
(dp65
g15
Nsg34
Nsg16
I32
sg35
S'INPUT_EVENT_LATENCY_ORIGINAL_COMPONENT'
p66
sg19
g20
sbag1
(g31
g3
NtRp67
(dp68
g15
Nsg34
Nsg16
I34
sg35
S'INPUT_EVENT_LATENCY_UI_COMPONENT'
p69
sg19
g20
sbag1
(g31
g3
NtRp70
(dp71
g15
Nsg34
Nsg16
I36
sg35
S'INPUT_EVENT_LATENCY_RENDERER_MAIN_COMPONENT'
p72
sg19
g20
sbag1
(g31
g3
NtRp73
(dp74
g15
Nsg34
Nsg16
I39
sg35
S'INPUT_EVENT_LATENCY_RENDERING_SCHEDULED_MAIN_COMPONENT'
p75
sg19
g20
sbag1
(g31
g3
NtRp76
(dp77
g15
Nsg34
Nsg16
I42
sg35
S'INPUT_EVENT_LATENCY_RENDERING_SCHEDULED_IMPL_COMPONENT'
p78
sg19
g20
sbag1
(g31
g3
NtRp79
(dp80
g15
Nsg34
Nsg16
I44
sg35
S'INPUT_EVENT_LATENCY_FORWARD_SCROLL_UPDATE_TO_MAIN_COMPONENT'
p81
sg19
g20
sbag1
(g31
g3
NtRp82
(dp83
g15
Nsg34
Nsg16
I46
sg35
S'INPUT_EVENT_LATENCY_SCROLL_UPDATE_LAST_EVENT_COMPONENT'
p84
sg19
g20
sbag1
(g31
g3
NtRp85
(dp86
g15
Nsg34
Nsg16
I48
sg35
S'INPUT_EVENT_LATENCY_ACK_RWH_COMPONENT'
p87
sg19
g20
sbag1
(g31
g3
NtRp88
(dp89
g15
Nsg34
Nsg16
I50
sg35
S'INPUT_EVENT_LATENCY_RENDERER_SWAP_COMPONENT'
p90
sg19
g20
sbag1
(g31
g3
NtRp91
(dp92
g15
Nsg34
Nsg16
I53
sg35
S'DISPLAY_COMPOSITOR_RECEIVED_FRAME_COMPONENT'
p93
sg19
g20
sbag1
(g31
g3
NtRp94
(dp95
g15
Nsg34
Nsg16
I56
sg35
S'INPUT_EVENT_GPU_SWAP_BUFFER_COMPONENT'
p96
sg19
g20
sbag1
(g31
g3
NtRp97
(dp98
g15
Nsg34
Nsg16
I59
sg35
S'INPUT_EVENT_LATENCY_FRAME_SWAP_COMPONENT'
p99
sg19
g20
sbasg16
I13
sg19
g20
sbsg16
I9
sg35
S'LatencyComponentType'
p100
sg19
g20
sbag1
(g23
g3
NtRp101
(dp102
g15
Nsg26
g1
(g27
g3
NtRp103
(dp104
g10
(lp105
g1
(g31
g3
NtRp106
(dp107
g15
Nsg34
Nsg16
I63
sg35
S'UNKNOWN'
p108
sg19
g20
sbag1
(g31
g3
NtRp109
(dp110
g15
Nsg34
Nsg16
I64
sg35
S'WHEEL'
p111
sg19
g20
sbag1
(g31
g3
NtRp112
(dp113
g15
Nsg34
Nsg16
I65
sg35
S'MOUSE'
p114
sg19
g20
sbag1
(g31
g3
NtRp115
(dp116
g15
Nsg34
Nsg16
I66
sg35
S'TOUCH'
p117
sg19
g20
sbag1
(g31
g3
NtRp118
(dp119
g15
Nsg34
Nsg16
I67
sg35
S'INERTIAL'
p120
sg19
g20
sbag1
(g31
g3
NtRp121
(dp122
g15
Nsg34
Nsg16
I68
sg35
S'KEY_PRESS'
p123
sg19
g20
sbag1
(g31
g3
NtRp124
(dp125
g15
Nsg34
Nsg16
I69
sg35
S'TOUCHPAD'
p126
sg19
g20
sbag1
(g31
g3
NtRp127
(dp128
g15
Nsg34
Nsg16
I70
sg35
S'FRAME'
p129
sg19
g20
sbag1
(g31
g3
NtRp130
(dp131
g15
Nsg34
Nsg16
I71
sg35
S'SCROLLBAR'
p132
sg19
g20
sbag1
(g31
g3
NtRp133
(dp134
g15
Nsg34
Nsg16
I72
sg35
S'OTHER'
p135
sg19
g20
sbasg16
I63
sg19
g20
sbsg16
I62
sg35
S'SourceEventType'
p136
sg19
g20
sbag1
(cmojom.parse.ast
Struct
p137
g3
NtRp138
(dp139
S'body'
p140
g1
(cmojom.parse.ast
StructBody
p141
g3
NtRp142
(dp143
g10
(lp144
g1
(cmojom.parse.ast
StructField
p145
g3
NtRp146
(dp147
S'ordinal'
p148
NsS'default_value'
p149
Nsg35
S'trace_name'
p150
sg15
Nsg19
NsS'typename'
p151
S'string'
p152
sg16
Nsbag1
(g145
g3
NtRp153
(dp154
g148
Nsg149
Nsg35
S'latency_components'
p155
sg15
Nsg19
Nsg151
S'mojo_base.mojom.TimeTicks{LatencyComponentType}'
p156
sg16
Nsbag1
(g145
g3
NtRp157
(dp158
g148
Nsg149
Nsg35
S'trace_id'
p159
sg15
Nsg19
Nsg151
S'int64'
p160
sg16
Nsbag1
(g145
g3
NtRp161
(dp162
g148
Nsg149
Nsg35
S'ukm_source_id'
p163
sg15
Nsg19
Nsg151
S'int64'
p164
sg16
Nsbag1
(g145
g3
NtRp165
(dp166
g148
Nsg149
Nsg35
S'coalesced'
p167
sg15
Nsg19
Nsg151
S'bool'
p168
sg16
Nsbag1
(g145
g3
NtRp169
(dp170
g148
Nsg149
Nsg35
S'began'
p171
sg15
Nsg19
Nsg151
S'bool'
p172
sg16
Nsbag1
(g145
g3
NtRp173
(dp174
g148
Nsg149
Nsg35
S'terminated'
p175
sg15
Nsg19
Nsg151
S'bool'
p176
sg16
Nsbag1
(g145
g3
NtRp177
(dp178
g148
Nsg149
Nsg35
S'source_event_type'
p179
sg15
Nsg19
Nsg151
S'SourceEventType'
p180
sg16
Nsbag1
(g145
g3
NtRp181
(dp182
g148
Nsg149
Nsg35
S'scroll_update_delta'
p183
sg15
Nsg19
Nsg151
S'float'
p184
sg16
Nsbag1
(g145
g3
NtRp185
(dp186
g148
Nsg149
Nsg35
S'predicted_scroll_update_delta'
p187
sg15
Nsg19
Nsg151
S'float'
p188
sg16
Nsbasg16
Nsg19
Nsbsg15
Nsg16
Nsg35
S'LatencyInfo'
p189
sg19
Nsbasg16
NsS'module'
p190
g1
(cmojom.parse.ast
Module
p191
g3
NtRp192
(dp193
S'mojom_namespace'
p194
(S'IDENTIFIER'
p195
S'ui.mojom'
tp196
sg16
I5
sg15
Nsg19
g20
sbsg19
Nsb.