ccopy_reg
_reconstructor
p1
(cmojom.parse.ast
Mojom
p2
c__builtin__
object
p3
NtRp4
(dp5
S'import_list'
p6
g1
(cmojom.parse.ast
ImportList
p7
g3
NtRp8
(dp9
S'items'
p10
(lp11
g1
(cmojom.parse.ast
Import
p12
g3
NtRp13
(dp14
S'attribute_list'
p15
NsS'lineno'
p16
I7
sS'import_filename'
p17
S'components/discardable_memory/public/interfaces/discardable_shared_memory_manager.mojom'
p18
sS'filename'
p19
S'../../services/viz/privileged/interfaces/viz_main.mojom'
p20
sbag1
(g12
g3
NtRp21
(dp22
g15
Nsg16
I8
sg17
S'services/network/public/mojom/tcp_socket.mojom'
p23
sg19
g20
sbag1
(g12
g3
NtRp24
(dp25
g15
Nsg16
I9
sg17
S'services/viz/public/interfaces/compositing/compositing_mode_watcher.mojom'
p26
sg19
g20
sbag1
(g12
g3
NtRp27
(dp28
g15
Nsg16
I10
sg17
S'services/viz/privileged/interfaces/compositing/frame_sink_manager.mojom'
p29
sg19
g20
sbag1
(g12
g3
NtRp30
(dp31
g15
Nsg16
I11
sg17
S'services/viz/privileged/interfaces/gl/gpu_host.mojom'
p32
sg19
g20
sbag1
(g12
g3
NtRp33
(dp34
g15
Nsg16
I12
sg17
S'services/viz/privileged/interfaces/gl/gpu_service.mojom'
p35
sg19
g20
sbag1
(g12
g3
NtRp36
(dp37
g15
Nsg16
I13
sg17
S'ui/gfx/mojo/font_render_params.mojom'
p38
sg19
g20
sbasg16
I7
sg19
g20
sbsS'definition_list'
p39
(lp40
g1
(cmojom.parse.ast
Struct
p41
g3
NtRp42
(dp43
S'body'
p44
g1
(cmojom.parse.ast
StructBody
p45
g3
NtRp46
(dp47
g10
(lp48
g1
(cmojom.parse.ast
StructField
p49
g3
NtRp50
(dp51
S'ordinal'
p52
NsS'default_value'
p53
NsS'mojom_name'
p54
S'restart_id'
p55
sg15
Nsg19
NsS'typename'
p56
S'uint32'
p57
sg16
Nsbag1
(g49
g3
NtRp58
(dp59
g52
Nsg53
S'true'
p60
sg54
S'use_activation_deadline'
p61
sg15
Nsg19
Nsg56
S'bool'
p62
sg16
Nsbag1
(g49
g3
NtRp63
(dp64
g52
Nsg53
S'4'
sg54
S'activation_deadline_in_frames'
p65
sg15
Nsg19
Nsg56
S'uint32'
p66
sg16
Nsbag1
(g49
g3
NtRp67
(dp68
g52
Nsg53
Nsg54
S'frame_sink_manager'
p69
sg15
Nsg19
Nsg56
S'FrameSinkManager&'
p70
sg16
Nsbag1
(g49
g3
NtRp71
(dp72
g52
Nsg53
Nsg54
S'frame_sink_manager_client'
p73
sg15
Nsg19
Nsg56
S'FrameSinkManagerClient'
p74
sg16
Nsbasg16
Nsg19
Nsbsg15
Nsg16
Nsg54
S'FrameSinkManagerParams'
p75
sg19
Nsbag1
(g41
g3
NtRp76
(dp77
g44
g1
(g45
g3
NtRp78
(dp79
g10
(lp80
g1
(g49
g3
NtRp81
(dp82
g52
Nsg53
Nsg54
S'server_socket'
p83
sg15
Nsg19
Nsg56
S'network.mojom.TCPServerSocket'
p84
sg16
Nsbag1
(g49
g3
NtRp85
(dp86
g52
Nsg53
Nsg54
S'server_port'
p87
sg15
Nsg19
Nsg56
S'uint16'
p88
sg16
Nsbasg16
Nsg19
Nsbsg15
Nsg16
Nsg54
S'VizDevToolsParams'
p89
sg19
Nsbag1
(cmojom.parse.ast
Interface
p90
g3
NtRp91
(dp92
g44
g1
(cmojom.parse.ast
InterfaceBody
p93
g3
NtRp94
(dp95
g10
(lp96
g1
(cmojom.parse.ast
Method
p97
g3
NtRp98
(dp99
g52
Nsg54
S'CreateFrameSinkManager'
p100
sS'parameter_list'
p101
g1
(cmojom.parse.ast
ParameterList
p102
g3
NtRp103
(dp104
g10
(lp105
g1
(cmojom.parse.ast
Parameter
p106
g3
NtRp107
(dp108
g52
Nsg54
S'params'
p109
sg15
Nsg19
g20
sg56
S'FrameSinkManagerParams'
p110
sg16
I43
sbasg16
I43
sg19
g20
sbsg15
Nsg19
Nsg16
NsS'response_parameter_list'
p111
Nsbag1
(g97
g3
NtRp112
(dp113
g52
Nsg54
S'CreateGpuService'
p114
sg101
g1
(g102
g3
NtRp115
(dp116
g10
(lp117
g1
(g106
g3
NtRp118
(dp119
g52
Nsg54
S'gpu_service'
p120
sg15
Nsg19
g20
sg56
S'GpuService&'
p121
sg16
I45
sbag1
(g106
g3
NtRp122
(dp123
g52
Nsg54
S'gpu_host'
p124
sg15
Nsg19
g20
sg56
S'GpuHost'
p125
sg16
I46
sbag1
(g106
g3
NtRp126
(dp127
g52
Nsg54
S'discardable_memory_manager'
p128
sg15
Nsg19
g20
sg56
S'discardable_memory.mojom.DiscardableSharedMemoryManager'
p129
sg16
I47
sbag1
(g106
g3
NtRp130
(dp131
g52
Nsg54
S'activity_flags'
p132
sg15
Nsg19
g20
sg56
S'handle<shared_buffer>?'
p133
sg16
I48
sbag1
(g106
g3
NtRp134
(dp135
g52
Nsg54
S'subpixel_rendering'
p136
sg15
Nsg19
g20
sg56
S'gfx.mojom.SubpixelRendering'
p137
sg16
I49
sbasg16
I45
sg19
g20
sbsg15
Nsg19
Nsg16
Nsg111
Nsbag1
(g97
g3
NtRp138
(dp139
g52
Nsg54
S'CreateVizDevTools'
p140
sg101
g1
(g102
g3
NtRp141
(dp142
g10
(lp143
g1
(g106
g3
NtRp144
(dp145
g52
Nsg54
S'params'
p146
sg15
Nsg19
g20
sg56
S'VizDevToolsParams'
p147
sg16
I54
sbasg16
I54
sg19
g20
sbsg15
Nsg19
Nsg16
Nsg111
Nsbasg16
Nsg19
Nsbsg15
Nsg16
Nsg54
S'VizMain'
p148
sg19
Nsbasg16
NsS'module'
p149
g1
(cmojom.parse.ast
Module
p150
g3
NtRp151
(dp152
S'mojom_namespace'
p153
(S'IDENTIFIER'
p154
S'viz.mojom'
tp155
sg16
I5
sg15
Nsg19
g20
sbsg19
Nsb.