ccopy_reg
_reconstructor
p1
(cmojom.parse.ast
Mojom
p2
c__builtin__
object
p3
NtRp4
(dp5
S'import_list'
p6
g1
(cmojom.parse.ast
ImportList
p7
g3
NtRp8
(dp9
S'items'
p10
(lp11
g1
(cmojom.parse.ast
Import
p12
g3
NtRp13
(dp14
S'attribute_list'
p15
NsS'lineno'
p16
I7
sS'import_filename'
p17
S'ui/gfx/geometry/mojo/geometry.mojom'
p18
sS'filename'
p19
S'../../ui/display/mojo/display.mojom'
p20
sbasg16
I7
sg19
g20
sbsS'definition_list'
p21
(lp22
g1
(cmojom.parse.ast
Enum
p23
g3
NtRp24
(dp25
g15
NsS'enum_value_list'
p26
g1
(cmojom.parse.ast
EnumValueList
p27
g3
NtRp28
(dp29
g10
(lp30
g1
(cmojom.parse.ast
EnumValue
p31
g3
NtRp32
(dp33
g15
NsS'value'
p34
Nsg16
I11
sS'mojom_name'
p35
S'VALUE_0'
p36
sg19
g20
sbag1
(g31
g3
NtRp37
(dp38
g15
Nsg34
Nsg16
I12
sg35
S'VALUE_90'
p39
sg19
g20
sbag1
(g31
g3
NtRp40
(dp41
g15
Nsg34
Nsg16
I13
sg35
S'VALUE_180'
p42
sg19
g20
sbag1
(g31
g3
NtRp43
(dp44
g15
Nsg34
Nsg16
I14
sg35
S'VALUE_270'
p45
sg19
g20
sbasg16
I11
sg19
g20
sbsg16
I10
sg35
S'Rotation'
p46
sg19
g20
sbag1
(g23
g3
NtRp47
(dp48
g15
Nsg26
g1
(g27
g3
NtRp49
(dp50
g10
(lp51
g1
(g31
g3
NtRp52
(dp53
g15
Nsg34
Nsg16
I19
sg35
S'UNKNOWN'
p54
sg19
g20
sbag1
(g31
g3
NtRp55
(dp56
g15
Nsg34
Nsg16
I20
sg35
S'AVAILABLE'
p57
sg19
g20
sbag1
(g31
g3
NtRp58
(dp59
g15
Nsg34
Nsg16
I21
sg35
S'UNAVAILABLE'
p60
sg19
g20
sbasg16
I19
sg19
g20
sbsg16
I18
sg35
S'TouchSupport'
p61
sg19
g20
sbag1
(g23
g3
NtRp62
(dp63
g15
Nsg26
g1
(g27
g3
NtRp64
(dp65
g10
(lp66
g1
(g31
g3
NtRp67
(dp68
g15
Nsg34
Nsg16
I26
sg35
S'UNKNOWN'
p69
sg19
g20
sbag1
(g31
g3
NtRp70
(dp71
g15
Nsg34
Nsg16
I27
sg35
S'AVAILABLE'
p72
sg19
g20
sbag1
(g31
g3
NtRp73
(dp74
g15
Nsg34
Nsg16
I28
sg35
S'UNAVAILABLE'
p75
sg19
g20
sbasg16
I26
sg19
g20
sbsg16
I25
sg35
S'AccelerometerSupport'
p76
sg19
g20
sbag1
(cmojom.parse.ast
Struct
p77
g3
NtRp78
(dp79
S'body'
p80
g1
(cmojom.parse.ast
StructBody
p81
g3
NtRp82
(dp83
g10
(lp84
g1
(cmojom.parse.ast
StructField
p85
g3
NtRp86
(dp87
S'ordinal'
p88
NsS'default_value'
p89
Nsg35
S'id'
p90
sg15
Nsg19
NsS'typename'
p91
S'int64'
p92
sg16
Nsbag1
(g85
g3
NtRp93
(dp94
g88
Nsg89
Nsg35
S'bounds'
p95
sg15
Nsg19
Nsg91
S'gfx.mojom.Rect'
p96
sg16
Nsbag1
(g85
g3
NtRp97
(dp98
g88
Nsg89
Nsg35
S'size_in_pixels'
p99
sg15
Nsg19
Nsg91
S'gfx.mojom.Size'
p100
sg16
Nsbag1
(g85
g3
NtRp101
(dp102
g88
Nsg89
Nsg35
S'work_area'
p103
sg15
Nsg19
Nsg91
S'gfx.mojom.Rect'
p104
sg16
Nsbag1
(g85
g3
NtRp105
(dp106
g88
Nsg89
Nsg35
S'device_scale_factor'
p107
sg15
Nsg19
Nsg91
S'float'
p108
sg16
Nsbag1
(g85
g3
NtRp109
(dp110
g88
Nsg89
Nsg35
S'rotation'
p111
sg15
Nsg19
Nsg91
S'Rotation'
p112
sg16
Nsbag1
(g85
g3
NtRp113
(dp114
g88
Nsg89
Nsg35
S'touch_support'
p115
sg15
Nsg19
Nsg91
S'TouchSupport'
p116
sg16
Nsbag1
(g85
g3
NtRp117
(dp118
g88
Nsg89
Nsg35
S'accelerometer_support'
p119
sg15
Nsg19
Nsg91
S'AccelerometerSupport'
p120
sg16
Nsbag1
(g85
g3
NtRp121
(dp122
g88
Nsg89
Nsg35
S'maximum_cursor_size'
p123
sg15
Nsg19
Nsg91
S'gfx.mojom.Size'
p124
sg16
Nsbag1
(g85
g3
NtRp125
(dp126
g88
Nsg89
Nsg35
S'color_depth'
p127
sg15
Nsg19
Nsg91
S'int32'
p128
sg16
Nsbag1
(g85
g3
NtRp129
(dp130
g88
Nsg89
Nsg35
S'depth_per_component'
p131
sg15
Nsg19
Nsg91
S'int32'
p132
sg16
Nsbag1
(g85
g3
NtRp133
(dp134
g88
Nsg89
Nsg35
S'is_monochrome'
p135
sg15
Nsg19
Nsg91
S'bool'
p136
sg16
Nsbasg16
Nsg19
Nsbsg15
Nsg16
Nsg35
S'Display'
p137
sg19
Nsbasg16
NsS'module'
p138
g1
(cmojom.parse.ast
Module
p139
g3
NtRp140
(dp141
S'mojom_namespace'
p142
(S'IDENTIFIER'
p143
S'display.mojom'
tp144
sg16
I5
sg15
Nsg19
g20
sbsg19
Nsb.