ccopy_reg
_reconstructor
p1
(cmojom.parse.ast
Mojom
p2
c__builtin__
object
p3
NtRp4
(dp5
S'import_list'
p6
g1
(cmojom.parse.ast
ImportList
p7
g3
NtRp8
(dp9
S'items'
p10
(lp11
g1
(cmojom.parse.ast
Import
p12
g3
NtRp13
(dp14
S'attribute_list'
p15
NsS'lineno'
p16
I7
sS'import_filename'
p17
S'mojo/public/mojom/base/file_path.mojom'
p18
sS'filename'
p19
S'../../ui/display/mojo/display_snapshot.mojom'
p20
sbag1
(g12
g3
NtRp21
(dp22
g15
Nsg16
I8
sg17
S'ui/display/mojo/display_constants.mojom'
p23
sg19
g20
sbag1
(g12
g3
NtRp24
(dp25
g15
Nsg16
I9
sg17
S'ui/display/mojo/display_mode.mojom'
p26
sg19
g20
sbag1
(g12
g3
NtRp27
(dp28
g15
Nsg16
I10
sg17
S'ui/gfx/geometry/mojo/geometry.mojom'
p29
sg19
g20
sbag1
(g12
g3
NtRp30
(dp31
g15
Nsg16
I11
sg17
S'ui/gfx/mojo/color_space.mojom'
p32
sg19
g20
sbasg16
I7
sg19
g20
sbsS'definition_list'
p33
(lp34
g1
(cmojom.parse.ast
Struct
p35
g3
NtRp36
(dp37
S'body'
p38
g1
(cmojom.parse.ast
StructBody
p39
g3
NtRp40
(dp41
g10
(lp42
g1
(cmojom.parse.ast
StructField
p43
g3
NtRp44
(dp45
S'ordinal'
p46
NsS'default_value'
p47
NsS'mojom_name'
p48
S'display_id'
p49
sg15
Nsg19
NsS'typename'
p50
S'int64'
p51
sg16
Nsbag1
(g43
g3
NtRp52
(dp53
g46
Nsg47
Nsg48
S'origin'
p54
sg15
Nsg19
Nsg50
S'gfx.mojom.Point'
p55
sg16
Nsbag1
(g43
g3
NtRp56
(dp57
g46
Nsg47
Nsg48
S'physical_size'
p58
sg15
Nsg19
Nsg50
S'gfx.mojom.Size'
p59
sg16
Nsbag1
(g43
g3
NtRp60
(dp61
g46
Nsg47
Nsg48
S'type'
p62
sg15
Nsg19
Nsg50
S'display.mojom.DisplayConnectionType'
p63
sg16
Nsbag1
(g43
g3
NtRp64
(dp65
g46
Nsg47
Nsg48
S'is_aspect_preserving_scaling'
p66
sg15
Nsg19
Nsg50
S'bool'
p67
sg16
Nsbag1
(g43
g3
NtRp68
(dp69
g46
Nsg47
Nsg48
S'has_overscan'
p70
sg15
Nsg19
Nsg50
S'bool'
p71
sg16
Nsbag1
(g43
g3
NtRp72
(dp73
g46
Nsg47
Nsg48
S'has_color_correction_matrix'
p74
sg15
Nsg19
Nsg50
S'bool'
p75
sg16
Nsbag1
(g43
g3
NtRp76
(dp77
g46
Nsg47
Nsg48
S'color_correction_in_linear_space'
p78
sg15
Nsg19
Nsg50
S'bool'
p79
sg16
Nsbag1
(g43
g3
NtRp80
(dp81
g46
Nsg47
Nsg48
S'color_space'
p82
sg15
Nsg19
Nsg50
S'gfx.mojom.ColorSpace'
p83
sg16
Nsbag1
(g43
g3
NtRp84
(dp85
g46
Nsg47
Nsg48
S'display_name'
p86
sg15
Nsg19
Nsg50
S'string'
p87
sg16
Nsbag1
(g43
g3
NtRp88
(dp89
g46
Nsg47
Nsg48
S'sys_path'
p90
sg15
Nsg19
Nsg50
S'mojo_base.mojom.FilePath'
p91
sg16
Nsbag1
(g43
g3
NtRp92
(dp93
g46
Nsg47
Nsg48
S'modes'
p94
sg15
Nsg19
Nsg50
S'display.mojom.DisplayMode[]'
p95
sg16
Nsbag1
(g43
g3
NtRp96
(dp97
g46
Nsg47
Nsg48
S'edid'
p98
sg15
Nsg19
Nsg50
S'uint8[]'
p99
sg16
Nsbag1
(g43
g3
NtRp100
(dp101
g46
Nsg47
Nsg48
S'current_mode_index'
p102
sg15
Nsg19
Nsg50
S'uint64'
p103
sg16
Nsbag1
(g43
g3
NtRp104
(dp105
g46
Nsg47
Nsg48
S'has_current_mode'
p106
sg15
Nsg19
Nsg50
S'bool'
p107
sg16
Nsbag1
(g43
g3
NtRp108
(dp109
g46
Nsg47
Nsg48
S'native_mode_index'
p110
sg15
Nsg19
Nsg50
S'uint64'
p111
sg16
Nsbag1
(g43
g3
NtRp112
(dp113
g46
Nsg47
Nsg48
S'has_native_mode'
p114
sg15
Nsg19
Nsg50
S'bool'
p115
sg16
Nsbag1
(g43
g3
NtRp116
(dp117
g46
Nsg47
Nsg48
S'product_code'
p118
sg15
Nsg19
Nsg50
S'int64'
p119
sg16
Nsbag1
(g43
g3
NtRp120
(dp121
g46
Nsg47
Nsg48
S'year_of_manufacture'
p122
sg15
Nsg19
Nsg50
S'int32'
p123
sg16
Nsbag1
(g43
g3
NtRp124
(dp125
g46
Nsg47
Nsg48
S'maximum_cursor_size'
p126
sg15
Nsg19
Nsg50
S'gfx.mojom.Size'
p127
sg16
Nsbasg16
Nsg19
Nsbsg15
Nsg16
Nsg48
S'DisplaySnapshot'
p128
sg19
Nsbasg16
NsS'module'
p129
g1
(cmojom.parse.ast
Module
p130
g3
NtRp131
(dp132
S'mojom_namespace'
p133
(S'IDENTIFIER'
p134
S'display.mojom'
tp135
sg16
I5
sg15
Nsg19
g20
sbsg19
Nsb.