ccopy_reg
_reconstructor
p1
(cmojom.parse.ast
Mojom
p2
c__builtin__
object
p3
NtRp4
(dp5
S'import_list'
p6
g1
(cmojom.parse.ast
ImportList
p7
g3
NtRp8
(dp9
S'items'
p10
(lp11
sS'lineno'
p12
NsS'filename'
p13
NsbsS'definition_list'
p14
(lp15
g1
(cmojom.parse.ast
Enum
p16
g3
NtRp17
(dp18
S'attribute_list'
p19
NsS'enum_value_list'
p20
g1
(cmojom.parse.ast
EnumValueList
p21
g3
NtRp22
(dp23
g10
(lp24
g1
(cmojom.parse.ast
EnumValue
p25
g3
NtRp26
(dp27
g19
NsS'value'
p28
Nsg12
I9
sS'mojom_name'
p29
S'TOP'
p30
sg13
S'../../ui/display/mojo/display_layout.mojom'
p31
sbag1
(g25
g3
NtRp32
(dp33
g19
Nsg28
Nsg12
I10
sg29
S'RIGHT'
p34
sg13
g31
sbag1
(g25
g3
NtRp35
(dp36
g19
Nsg28
Nsg12
I11
sg29
S'BOTTOM'
p37
sg13
g31
sbag1
(g25
g3
NtRp38
(dp39
g19
Nsg28
Nsg12
I12
sg29
S'LEFT'
p40
sg13
g31
sbasg12
I9
sg13
g31
sbsg12
I8
sg29
S'Position'
p41
sg13
g31
sbag1
(g16
g3
NtRp42
(dp43
g19
Nsg20
g1
(g21
g3
NtRp44
(dp45
g10
(lp46
g1
(g25
g3
NtRp47
(dp48
g19
Nsg28
Nsg12
I17
sg29
S'TOP_LEFT'
p49
sg13
g31
sbag1
(g25
g3
NtRp50
(dp51
g19
Nsg28
Nsg12
I18
sg29
S'BOTTOM_RIGHT'
p52
sg13
g31
sbasg12
I17
sg13
g31
sbsg12
I16
sg29
S'OffsetReference'
p53
sg13
g31
sbag1
(cmojom.parse.ast
Struct
p54
g3
NtRp55
(dp56
S'body'
p57
g1
(cmojom.parse.ast
StructBody
p58
g3
NtRp59
(dp60
g10
(lp61
g1
(cmojom.parse.ast
StructField
p62
g3
NtRp63
(dp64
S'ordinal'
p65
NsS'default_value'
p66
Nsg29
S'display_id'
p67
sg19
Nsg13
NsS'typename'
p68
S'int64'
p69
sg12
Nsbag1
(g62
g3
NtRp70
(dp71
g65
Nsg66
Nsg29
S'parent_display_id'
p72
sg19
Nsg13
Nsg68
S'int64'
p73
sg12
Nsbag1
(g62
g3
NtRp74
(dp75
g65
Nsg66
Nsg29
S'position'
p76
sg19
Nsg13
Nsg68
S'Position'
p77
sg12
Nsbag1
(g62
g3
NtRp78
(dp79
g65
Nsg66
Nsg29
S'offset'
p80
sg19
Nsg13
Nsg68
S'int32'
p81
sg12
Nsbag1
(g62
g3
NtRp82
(dp83
g65
Nsg66
Nsg29
S'offset_reference'
p84
sg19
Nsg13
Nsg68
S'OffsetReference'
p85
sg12
Nsbasg12
Nsg13
Nsbsg19
Nsg12
Nsg29
S'DisplayPlacement'
p86
sg13
Nsbag1
(g54
g3
NtRp87
(dp88
g57
g1
(g58
g3
NtRp89
(dp90
g10
(lp91
g1
(g62
g3
NtRp92
(dp93
g65
Nsg66
Nsg29
S'default_unified'
p94
sg19
Nsg13
Nsg68
S'bool'
p95
sg12
Nsbag1
(g62
g3
NtRp96
(dp97
g65
Nsg66
Nsg29
S'primary_display_id'
p98
sg19
Nsg13
Nsg68
S'int64'
p99
sg12
Nsbag1
(g62
g3
NtRp100
(dp101
g65
Nsg66
Nsg29
S'placement_list'
p102
sg19
Nsg13
Nsg68
S'DisplayPlacement[]'
p103
sg12
Nsbasg12
Nsg13
Nsbsg19
Nsg12
Nsg29
S'DisplayLayout'
p104
sg13
Nsbasg12
NsS'module'
p105
g1
(cmojom.parse.ast
Module
p106
g3
NtRp107
(dp108
S'mojom_namespace'
p109
(S'IDENTIFIER'
p110
S'display.mojom'
tp111
sg12
I5
sg19
Nsg13
g31
sbsg13
Nsb.