ccopy_reg
_reconstructor
p1
(cmojom.parse.ast
Mojom
p2
c__builtin__
object
p3
NtRp4
(dp5
S'import_list'
p6
g1
(cmojom.parse.ast
ImportList
p7
g3
NtRp8
(dp9
S'items'
p10
(lp11
sS'lineno'
p12
NsS'filename'
p13
NsbsS'definition_list'
p14
(lp15
g1
(cmojom.parse.ast
Struct
p16
g3
NtRp17
(dp18
S'body'
p19
g1
(cmojom.parse.ast
StructBody
p20
g3
NtRp21
(dp22
g10
(lp23
g1
(cmojom.parse.ast
StructField
p24
g3
NtRp25
(dp26
S'ordinal'
p27
NsS'default_value'
p28
NsS'mojom_name'
p29
S'r'
sS'attribute_list'
p30
Nsg13
NsS'typename'
p31
S'uint16'
p32
sg12
Nsbag1
(g24
g3
NtRp33
(dp34
g27
Nsg28
Nsg29
S'g'
sg30
Nsg13
Nsg31
S'uint16'
p35
sg12
Nsbag1
(g24
g3
NtRp36
(dp37
g27
Nsg28
Nsg29
S'b'
sg30
Nsg13
Nsg31
S'uint16'
p38
sg12
Nsbasg12
Nsg13
Nsbsg30
Nsg12
Nsg29
S'GammaRampRGBEntry'
p39
sg13
Nsbasg12
NsS'module'
p40
g1
(cmojom.parse.ast
Module
p41
g3
NtRp42
(dp43
S'mojom_namespace'
p44
(S'IDENTIFIER'
p45
S'display.mojom'
tp46
sg12
I5
sg30
Nsg13
S'../../ui/display/mojo/gamma_ramp_rgb_entry.mojom'
p47
sbsg13
Nsb.