ccopy_reg
_reconstructor
p1
(cmojom.parse.ast
Mojom
p2
c__builtin__
object
p3
NtRp4
(dp5
S'import_list'
p6
g1
(cmojom.parse.ast
ImportList
p7
g3
NtRp8
(dp9
S'items'
p10
(lp11
g1
(cmojom.parse.ast
Import
p12
g3
NtRp13
(dp14
S'attribute_list'
p15
NsS'lineno'
p16
I7
sS'import_filename'
p17
S'services/viz/public/interfaces/compositing/compositor_frame_metadata.mojom'
p18
sS'filename'
p19
S'../../services/viz/public/interfaces/compositing/compositor_frame.mojom'
p20
sbag1
(g12
g3
NtRp21
(dp22
g15
Nsg16
I8
sg17
S'services/viz/public/interfaces/compositing/render_pass.mojom'
p23
sg19
g20
sbag1
(g12
g3
NtRp24
(dp25
g15
Nsg16
I9
sg17
S'services/viz/public/interfaces/compositing/transferable_resource.mojom'
p26
sg19
g20
sbasg16
I7
sg19
g20
sbsS'definition_list'
p27
(lp28
g1
(cmojom.parse.ast
Struct
p29
g3
NtRp30
(dp31
S'body'
p32
g1
(cmojom.parse.ast
StructBody
p33
g3
NtRp34
(dp35
g10
(lp36
g1
(cmojom.parse.ast
StructField
p37
g3
NtRp38
(dp39
S'ordinal'
p40
NsS'default_value'
p41
NsS'mojom_name'
p42
S'metadata'
p43
sg15
Nsg19
NsS'typename'
p44
S'CompositorFrameMetadata'
p45
sg16
Nsbag1
(g37
g3
NtRp46
(dp47
g40
Nsg41
Nsg42
S'resources'
p48
sg15
Nsg19
Nsg44
S'TransferableResource[]'
p49
sg16
Nsbag1
(g37
g3
NtRp50
(dp51
g40
Nsg41
Nsg42
S'passes'
p52
sg15
Nsg19
Nsg44
S'RenderPass[]'
p53
sg16
Nsbasg16
Nsg19
Nsbsg15
Nsg16
Nsg42
S'CompositorFrame'
p54
sg19
Nsbasg16
NsS'module'
p55
g1
(cmojom.parse.ast
Module
p56
g3
NtRp57
(dp58
S'mojom_namespace'
p59
(S'IDENTIFIER'
p60
S'viz.mojom'
tp61
sg16
I5
sg15
Nsg19
g20
sbsg19
Nsb.