ccopy_reg
_reconstructor
p1
(cmojom.parse.ast
Mojom
p2
c__builtin__
object
p3
NtRp4
(dp5
S'import_list'
p6
g1
(cmojom.parse.ast
ImportList
p7
g3
NtRp8
(dp9
S'items'
p10
(lp11
g1
(cmojom.parse.ast
Import
p12
g3
NtRp13
(dp14
S'attribute_list'
p15
NsS'lineno'
p16
I7
sS'import_filename'
p17
S'mojo/public/mojom/base/time.mojom'
p18
sS'filename'
p19
S'../../services/viz/public/interfaces/compositing/compositor_frame_sink.mojom'
p20
sbag1
(g12
g3
NtRp21
(dp22
g15
Nsg16
I8
sg17
S'services/viz/public/interfaces/compositing/begin_frame_args.mojom'
p23
sg19
g20
sbag1
(g12
g3
NtRp24
(dp25
g15
Nsg16
I9
sg17
S'services/viz/public/interfaces/compositing/compositor_frame.mojom'
p26
sg19
g20
sbag1
(g12
g3
NtRp27
(dp28
g15
Nsg16
I10
sg17
S'services/viz/public/interfaces/compositing/local_surface_id.mojom'
p29
sg19
g20
sbag1
(g12
g3
NtRp30
(dp31
g15
Nsg16
I11
sg17
S'services/viz/public/interfaces/compositing/returned_resource.mojom'
p32
sg19
g20
sbag1
(g12
g3
NtRp33
(dp34
g15
Nsg16
I12
sg17
S'services/viz/public/interfaces/hit_test/hit_test_region_list.mojom'
p35
sg19
g20
sbag1
(g12
g3
NtRp36
(dp37
g15
Nsg16
I13
sg17
S'ui/gfx/geometry/mojo/geometry.mojom'
p38
sg19
g20
sbag1
(g12
g3
NtRp39
(dp40
g15
Nsg16
I14
sg17
S'ui/gfx/mojo/presentation_feedback.mojom'
p41
sg19
g20
sbag1
(g12
g3
NtRp42
(dp43
g15
Nsg16
I15
sg17
S'gpu/ipc/common/mailbox.mojom'
p44
sg19
g20
sbasg16
I7
sg19
g20
sbsS'definition_list'
p45
(lp46
g1
(cmojom.parse.ast
Interface
p47
g3
NtRp48
(dp49
S'body'
p50
g1
(cmojom.parse.ast
InterfaceBody
p51
g3
NtRp52
(dp53
g10
(lp54
g1
(cmojom.parse.ast
Method
p55
g3
NtRp56
(dp57
S'ordinal'
p58
NsS'mojom_name'
p59
S'SetNeedsBeginFrame'
p60
sS'parameter_list'
p61
g1
(cmojom.parse.ast
ParameterList
p62
g3
NtRp63
(dp64
g10
(lp65
g1
(cmojom.parse.ast
Parameter
p66
g3
NtRp67
(dp68
g58
Nsg59
S'needs_begin_frame'
p69
sg15
Nsg19
g20
sS'typename'
p70
S'bool'
p71
sg16
I26
sbasg16
I26
sg19
g20
sbsg15
Nsg19
Nsg16
NsS'response_parameter_list'
p72
Nsbag1
(g55
g3
NtRp73
(dp74
g58
Nsg59
S'SetWantsAnimateOnlyBeginFrames'
p75
sg61
g1
(g62
g3
NtRp76
(dp77
g10
(lp78
sg16
Nsg19
Nsbsg15
Nsg19
Nsg16
Nsg72
Nsbag1
(g55
g3
NtRp79
(dp80
g58
Nsg59
S'SubmitCompositorFrame'
p81
sg61
g1
(g62
g3
NtRp82
(dp83
g10
(lp84
g1
(g66
g3
NtRp85
(dp86
g58
Nsg59
S'local_surface_id'
p87
sg15
Nsg19
g20
sg70
S'LocalSurfaceId'
p88
sg16
I48
sbag1
(g66
g3
NtRp89
(dp90
g58
Nsg59
S'frame'
p91
sg15
Nsg19
g20
sg70
S'CompositorFrame'
p92
sg16
I49
sbag1
(g66
g3
NtRp93
(dp94
g58
Nsg59
S'hit_test_region_list'
p95
sg15
Nsg19
g20
sg70
S'HitTestRegionList?'
p96
sg16
I50
sbag1
(g66
g3
NtRp97
(dp98
g58
Nsg59
S'submit_time'
p99
sg15
Nsg19
g20
sg70
S'uint64'
p100
sg16
I51
sbasg16
I48
sg19
g20
sbsg15
Nsg19
Nsg16
Nsg72
Nsbag1
(g55
g3
NtRp101
(dp102
g58
Nsg59
S'SubmitCompositorFrameSync'
p103
sg61
g1
(g62
g3
NtRp104
(dp105
g10
(lp106
g1
(g66
g3
NtRp107
(dp108
g58
Nsg59
S'local_surface_id'
p109
sg15
Nsg19
g20
sg70
S'LocalSurfaceId'
p110
sg16
I56
sbag1
(g66
g3
NtRp111
(dp112
g58
Nsg59
S'frame'
p113
sg15
Nsg19
g20
sg70
S'CompositorFrame'
p114
sg16
I57
sbag1
(g66
g3
NtRp115
(dp116
g58
Nsg59
S'hit_test_region_list'
p117
sg15
Nsg19
g20
sg70
S'HitTestRegionList?'
p118
sg16
I58
sbag1
(g66
g3
NtRp119
(dp120
g58
Nsg59
S'submit_time'
p121
sg15
Nsg19
g20
sg70
S'uint64'
p122
sg16
I59
sbasg16
I56
sg19
g20
sbsg15
g1
(cmojom.parse.ast
AttributeList
p123
g3
NtRp124
(dp125
g10
(lp126
g1
(cmojom.parse.ast
Attribute
p127
g3
NtRp128
(dp129
S'value'
p130
I01
sg16
I56
sS'key'
p131
S'Sync'
p132
sg19
g20
sbasg16
I56
sg19
g20
sbsg19
Nsg16
Nsg72
g1
(g62
g3
NtRp133
(dp134
g10
(lp135
g1
(g66
g3
NtRp136
(dp137
g58
Nsg59
S'resources'
p138
sg15
Nsg19
g20
sg70
S'ReturnedResource[]'
p139
sg16
I60
sbasg16
I60
sg19
g20
sbsbag1
(g55
g3
NtRp140
(dp141
g58
Nsg59
S'DidNotProduceFrame'
p142
sg61
g1
(g62
g3
NtRp143
(dp144
g10
(lp145
g1
(g66
g3
NtRp146
(dp147
g58
Nsg59
S'ack'
p148
sg15
Nsg19
g20
sg70
S'BeginFrameAck'
p149
sg16
I64
sbasg16
I64
sg19
g20
sbsg15
Nsg19
Nsg16
Nsg72
Nsbag1
(g55
g3
NtRp150
(dp151
g58
Nsg59
S'DidAllocateSharedBitmap'
p152
sg61
g1
(g62
g3
NtRp153
(dp154
g10
(lp155
g1
(g66
g3
NtRp156
(dp157
g58
Nsg59
S'buffer'
p158
sg15
Nsg19
g20
sg70
S'handle<shared_buffer>'
p159
sg16
I70
sbag1
(g66
g3
NtRp160
(dp161
g58
Nsg59
S'id'
p162
sg15
Nsg19
g20
sg70
S'gpu.mojom.Mailbox'
p163
sg16
I70
sbasg16
I70
sg19
g20
sbsg15
Nsg19
Nsg16
Nsg72
Nsbag1
(g55
g3
NtRp164
(dp165
g58
Nsg59
S'DidDeleteSharedBitmap'
p166
sg61
g1
(g62
g3
NtRp167
(dp168
g10
(lp169
g1
(g66
g3
NtRp170
(dp171
g58
Nsg59
S'id'
p172
sg15
Nsg19
g20
sg70
S'gpu.mojom.Mailbox'
p173
sg16
I76
sbasg16
I76
sg19
g20
sbsg15
Nsg19
Nsg16
Nsg72
Nsbasg16
Nsg19
Nsbsg15
Nsg16
Nsg59
S'CompositorFrameSink'
p174
sg19
Nsbag1
(g47
g3
NtRp175
(dp176
g50
g1
(g51
g3
NtRp177
(dp178
g10
(lp179
g1
(g55
g3
NtRp180
(dp181
g58
Nsg59
S'DidReceiveCompositorFrameAck'
p182
sg61
g1
(g62
g3
NtRp183
(dp184
g10
(lp185
g1
(g66
g3
NtRp186
(dp187
g58
Nsg59
S'resources'
p188
sg15
Nsg19
g20
sg70
S'ReturnedResource[]'
p189
sg16
I87
sbasg16
I87
sg19
g20
sbsg15
Nsg19
Nsg16
Nsg72
Nsbag1
(g55
g3
NtRp190
(dp191
g58
Nsg59
S'OnBeginFrame'
p192
sg61
g1
(g62
g3
NtRp193
(dp194
g10
(lp195
g1
(g66
g3
NtRp196
(dp197
g58
Nsg59
S'args'
p198
sg15
Nsg19
g20
sg70
S'BeginFrameArgs'
p199
sg16
I90
sbag1
(g66
g3
NtRp200
(dp201
g58
Nsg59
S'presentations'
p202
sg15
Nsg19
g20
sg70
S'gfx.mojom.PresentationFeedback{uint32}'
p203
sg16
I91
sbasg16
I90
sg19
g20
sbsg15
Nsg19
Nsg16
Nsg72
Nsbag1
(g55
g3
NtRp204
(dp205
g58
Nsg59
S'OnBeginFramePausedChanged'
p206
sg61
g1
(g62
g3
NtRp207
(dp208
g10
(lp209
g1
(g66
g3
NtRp210
(dp211
g58
Nsg59
S'paused'
p212
sg15
Nsg19
g20
sg70
S'bool'
p213
sg16
I94
sbasg16
I94
sg19
g20
sbsg15
Nsg19
Nsg16
Nsg72
Nsbag1
(g55
g3
NtRp214
(dp215
g58
Nsg59
S'ReclaimResources'
p216
sg61
g1
(g62
g3
NtRp217
(dp218
g10
(lp219
g1
(g66
g3
NtRp220
(dp221
g58
Nsg59
S'resources'
p222
sg15
Nsg19
g20
sg70
S'ReturnedResource[]'
p223
sg16
I97
sbasg16
I97
sg19
g20
sbsg15
Nsg19
Nsg16
Nsg72
Nsbasg16
Nsg19
Nsbsg15
Nsg16
Nsg59
S'CompositorFrameSinkClient'
p224
sg19
Nsbasg16
NsS'module'
p225
g1
(cmojom.parse.ast
Module
p226
g3
NtRp227
(dp228
S'mojom_namespace'
p229
(S'IDENTIFIER'
p230
S'viz.mojom'
tp231
sg16
I5
sg15
Nsg19
g20
sbsg19
Nsb.