ccopy_reg
_reconstructor
p1
(cmojom.parse.ast
Mojom
p2
c__builtin__
object
p3
NtRp4
(dp5
S'import_list'
p6
g1
(cmojom.parse.ast
ImportList
p7
g3
NtRp8
(dp9
S'items'
p10
(lp11
g1
(cmojom.parse.ast
Import
p12
g3
NtRp13
(dp14
S'attribute_list'
p15
NsS'lineno'
p16
I7
sS'import_filename'
p17
S'gpu/ipc/common/mailbox.mojom'
p18
sS'filename'
p19
S'../../services/viz/public/interfaces/compositing/copy_output_request.mojom'
p20
sbag1
(g12
g3
NtRp21
(dp22
g15
Nsg16
I8
sg17
S'gpu/ipc/common/sync_token.mojom'
p23
sg19
g20
sbag1
(g12
g3
NtRp24
(dp25
g15
Nsg16
I9
sg17
S'services/viz/public/interfaces/compositing/copy_output_result.mojom'
p26
sg19
g20
sbag1
(g12
g3
NtRp27
(dp28
g15
Nsg16
I10
sg17
S'mojo/public/mojom/base/unguessable_token.mojom'
p29
sg19
g20
sbag1
(g12
g3
NtRp30
(dp31
g15
Nsg16
I11
sg17
S'ui/gfx/geometry/mojo/geometry.mojom'
p32
sg19
g20
sbasg16
I7
sg19
g20
sbsS'definition_list'
p33
(lp34
g1
(cmojom.parse.ast
Struct
p35
g3
NtRp36
(dp37
S'body'
p38
g1
(cmojom.parse.ast
StructBody
p39
g3
NtRp40
(dp41
g10
(lp42
g1
(cmojom.parse.ast
StructField
p43
g3
NtRp44
(dp45
S'ordinal'
p46
NsS'default_value'
p47
NsS'mojom_name'
p48
S'result_format'
p49
sg15
Nsg19
NsS'typename'
p50
S'CopyOutputResultFormat'
p51
sg16
Nsbag1
(g43
g3
NtRp52
(dp53
g46
Nsg47
Nsg48
S'scale_from'
p54
sg15
Nsg19
Nsg50
S'gfx.mojom.Vector2d'
p55
sg16
Nsbag1
(g43
g3
NtRp56
(dp57
g46
Nsg47
Nsg48
S'scale_to'
p58
sg15
Nsg19
Nsg50
S'gfx.mojom.Vector2d'
p59
sg16
Nsbag1
(g43
g3
NtRp60
(dp61
g46
Nsg47
Nsg48
S'source'
p62
sg15
Nsg19
Nsg50
S'mojo_base.mojom.UnguessableToken?'
p63
sg16
Nsbag1
(g43
g3
NtRp64
(dp65
g46
Nsg47
Nsg48
S'area'
p66
sg15
Nsg19
Nsg50
S'gfx.mojom.Rect?'
p67
sg16
Nsbag1
(g43
g3
NtRp68
(dp69
g46
Nsg47
Nsg48
S'result_selection'
p70
sg15
Nsg19
Nsg50
S'gfx.mojom.Rect?'
p71
sg16
Nsbag1
(g43
g3
NtRp72
(dp73
g46
Nsg47
Nsg48
S'result_sender'
p74
sg15
Nsg19
Nsg50
S'CopyOutputResultSender'
p75
sg16
Nsbasg16
Nsg19
Nsbsg15
Nsg16
Nsg48
S'CopyOutputRequest'
p76
sg19
Nsbag1
(cmojom.parse.ast
Interface
p77
g3
NtRp78
(dp79
g38
g1
(cmojom.parse.ast
InterfaceBody
p80
g3
NtRp81
(dp82
g10
(lp83
g1
(cmojom.parse.ast
Method
p84
g3
NtRp85
(dp86
g46
Nsg48
S'SendResult'
p87
sS'parameter_list'
p88
g1
(cmojom.parse.ast
ParameterList
p89
g3
NtRp90
(dp91
g10
(lp92
g1
(cmojom.parse.ast
Parameter
p93
g3
NtRp94
(dp95
g46
Nsg48
S'result'
p96
sg15
Nsg19
g20
sg50
S'CopyOutputResult'
p97
sg16
I31
sbasg16
I31
sg19
g20
sbsg15
Nsg19
Nsg16
NsS'response_parameter_list'
p98
Nsbasg16
Nsg19
Nsbsg15
Nsg16
Nsg48
S'CopyOutputResultSender'
p99
sg19
Nsbasg16
NsS'module'
p100
g1
(cmojom.parse.ast
Module
p101
g3
NtRp102
(dp103
S'mojom_namespace'
p104
(S'IDENTIFIER'
p105
S'viz.mojom'
tp106
sg16
I5
sg15
Nsg19
g20
sbsg19
Nsb.