ccopy_reg
_reconstructor
p1
(cmojom.parse.ast
Mojom
p2
c__builtin__
object
p3
NtRp4
(dp5
S'import_list'
p6
g1
(cmojom.parse.ast
ImportList
p7
g3
NtRp8
(dp9
S'items'
p10
(lp11
g1
(cmojom.parse.ast
Import
p12
g3
NtRp13
(dp14
S'attribute_list'
p15
NsS'lineno'
p16
I7
sS'import_filename'
p17
S'services/viz/public/interfaces/compositing/paint_filter.mojom'
p18
sS'filename'
p19
S'../../services/viz/public/interfaces/compositing/filter_operation.mojom'
p20
sbag1
(g12
g3
NtRp21
(dp22
g15
Nsg16
I8
sg17
S'skia/public/interfaces/blur_image_filter_tile_mode.mojom'
p23
sg19
g20
sbag1
(g12
g3
NtRp24
(dp25
g15
Nsg16
I9
sg17
S'ui/gfx/geometry/mojo/geometry.mojom'
p26
sg19
g20
sbasg16
I7
sg19
g20
sbsS'definition_list'
p27
(lp28
g1
(cmojom.parse.ast
Enum
p29
g3
NtRp30
(dp31
g15
NsS'enum_value_list'
p32
g1
(cmojom.parse.ast
EnumValueList
p33
g3
NtRp34
(dp35
g10
(lp36
g1
(cmojom.parse.ast
EnumValue
p37
g3
NtRp38
(dp39
g15
NsS'value'
p40
Nsg16
I12
sS'mojom_name'
p41
S'GRAYSCALE'
p42
sg19
g20
sbag1
(g37
g3
NtRp43
(dp44
g15
Nsg40
Nsg16
I13
sg41
S'SEPIA'
p45
sg19
g20
sbag1
(g37
g3
NtRp46
(dp47
g15
Nsg40
Nsg16
I14
sg41
S'SATURATE'
p48
sg19
g20
sbag1
(g37
g3
NtRp49
(dp50
g15
Nsg40
Nsg16
I15
sg41
S'HUE_ROTATE'
p51
sg19
g20
sbag1
(g37
g3
NtRp52
(dp53
g15
Nsg40
Nsg16
I16
sg41
S'INVERT'
p54
sg19
g20
sbag1
(g37
g3
NtRp55
(dp56
g15
Nsg40
Nsg16
I17
sg41
S'BRIGHTNESS'
p57
sg19
g20
sbag1
(g37
g3
NtRp58
(dp59
g15
Nsg40
Nsg16
I18
sg41
S'CONTRAST'
p60
sg19
g20
sbag1
(g37
g3
NtRp61
(dp62
g15
Nsg40
Nsg16
I19
sg41
S'OPACITY'
p63
sg19
g20
sbag1
(g37
g3
NtRp64
(dp65
g15
Nsg40
Nsg16
I20
sg41
S'BLUR'
p66
sg19
g20
sbag1
(g37
g3
NtRp67
(dp68
g15
Nsg40
Nsg16
I21
sg41
S'DROP_SHADOW'
p69
sg19
g20
sbag1
(g37
g3
NtRp70
(dp71
g15
Nsg40
Nsg16
I22
sg41
S'COLOR_MATRIX'
p72
sg19
g20
sbag1
(g37
g3
NtRp73
(dp74
g15
Nsg40
Nsg16
I23
sg41
S'ZOOM'
p75
sg19
g20
sbag1
(g37
g3
NtRp76
(dp77
g15
Nsg40
Nsg16
I24
sg41
S'REFERENCE'
p78
sg19
g20
sbag1
(g37
g3
NtRp79
(dp80
g15
Nsg40
Nsg16
I25
sg41
S'SATURATING_BRIGHTNESS'
p81
sg19
g20
sbag1
(g37
g3
NtRp82
(dp83
g15
Nsg40
Nsg16
I26
sg41
S'ALPHA_THRESHOLD'
p84
sg19
g20
sbag1
(g37
g3
NtRp85
(dp86
g15
Nsg40
(S'IDENTIFIER'
p87
S'ALPHA_THRESHOLD'
tp88
sg16
I27
sg41
S'FILTER_TYPE_LAST'
p89
sg19
g20
sbasg16
I12
sg19
g20
sbsg16
I11
sg41
S'FilterType'
p90
sg19
g20
sbag1
(cmojom.parse.ast
Struct
p91
g3
NtRp92
(dp93
S'body'
p94
g1
(cmojom.parse.ast
StructBody
p95
g3
NtRp96
(dp97
g10
(lp98
g1
(cmojom.parse.ast
StructField
p99
g3
NtRp100
(dp101
S'ordinal'
p102
NsS'default_value'
p103
Nsg41
S'type'
p104
sg15
Nsg19
NsS'typename'
p105
S'FilterType'
p106
sg16
Nsbag1
(g99
g3
NtRp107
(dp108
g102
Nsg103
Nsg41
S'amount'
p109
sg15
Nsg19
Nsg105
S'float'
p110
sg16
Nsbag1
(g99
g3
NtRp111
(dp112
g102
Nsg103
Nsg41
S'outer_threshold'
p113
sg15
Nsg19
Nsg105
S'float'
p114
sg16
Nsbag1
(g99
g3
NtRp115
(dp116
g102
Nsg103
Nsg41
S'drop_shadow_offset'
p117
sg15
Nsg19
Nsg105
S'gfx.mojom.Point'
p118
sg16
Nsbag1
(g99
g3
NtRp119
(dp120
g102
Nsg103
Nsg41
S'drop_shadow_color'
p121
sg15
Nsg19
Nsg105
S'uint32'
p122
sg16
Nsbag1
(g99
g3
NtRp123
(dp124
g102
Nsg103
Nsg41
S'image_filter'
p125
sg15
Nsg19
Nsg105
S'PaintFilter'
p126
sg16
Nsbag1
(g99
g3
NtRp127
(dp128
g102
Nsg103
Nsg41
S'matrix'
p129
sg15
Nsg19
Nsg105
S'float[20]?'
p130
sg16
Nsbag1
(g99
g3
NtRp131
(dp132
g102
Nsg103
Nsg41
S'zoom_inset'
p133
sg15
Nsg19
Nsg105
S'int32'
p134
sg16
Nsbag1
(g99
g3
NtRp135
(dp136
g102
Nsg103
Nsg41
S'blur_tile_mode'
p137
sg15
Nsg19
Nsg105
S'skia.mojom.BlurTileMode'
p138
sg16
Nsbag1
(g99
g3
NtRp139
(dp140
g102
Nsg103
Nsg41
S'shape'
p141
sg15
Nsg19
Nsg105
S'gfx.mojom.Rect[]?'
p142
sg16
Nsbasg16
Nsg19
Nsbsg15
Nsg16
Nsg41
S'FilterOperation'
p143
sg19
Nsbasg16
NsS'module'
p144
g1
(cmojom.parse.ast
Module
p145
g3
NtRp146
(dp147
S'mojom_namespace'
p148
(g87
S'viz.mojom'
tp149
sg16
I5
sg15
Nsg19
g20
sbsg19
Nsb.