ccopy_reg
_reconstructor
p1
(cmojom.parse.ast
Mojom
p2
c__builtin__
object
p3
NtRp4
(dp5
S'import_list'
p6
g1
(cmojom.parse.ast
ImportList
p7
g3
NtRp8
(dp9
S'items'
p10
(lp11
g1
(cmojom.parse.ast
Import
p12
g3
NtRp13
(dp14
S'attribute_list'
p15
NsS'lineno'
p16
I7
sS'import_filename'
p17
S'services/viz/public/interfaces/compositing/copy_output_request.mojom'
p18
sS'filename'
p19
S'../../services/viz/public/interfaces/compositing/render_pass.mojom'
p20
sbag1
(g12
g3
NtRp21
(dp22
g15
Nsg16
I8
sg17
S'services/viz/public/interfaces/compositing/filter_operations.mojom'
p23
sg19
g20
sbag1
(g12
g3
NtRp24
(dp25
g15
Nsg16
I9
sg17
S'services/viz/public/interfaces/compositing/quads.mojom'
p26
sg19
g20
sbag1
(g12
g3
NtRp27
(dp28
g15
Nsg16
I10
sg17
S'ui/gfx/geometry/mojo/geometry.mojom'
p29
sg19
g20
sbag1
(g12
g3
NtRp30
(dp31
g15
Nsg16
I11
sg17
S'ui/gfx/mojo/color_space.mojom'
p32
sg19
g20
sbag1
(g12
g3
NtRp33
(dp34
g15
Nsg16
I12
sg17
S'ui/gfx/mojo/rrect_f.mojom'
p35
sg19
g20
sbag1
(g12
g3
NtRp36
(dp37
g15
Nsg16
I13
sg17
S'ui/gfx/mojo/transform.mojom'
p38
sg19
g20
sbasg16
I7
sg19
g20
sbsS'definition_list'
p39
(lp40
g1
(cmojom.parse.ast
Struct
p41
g3
NtRp42
(dp43
S'body'
p44
g1
(cmojom.parse.ast
StructBody
p45
g3
NtRp46
(dp47
g10
(lp48
g1
(cmojom.parse.ast
StructField
p49
g3
NtRp50
(dp51
S'ordinal'
p52
NsS'default_value'
p53
NsS'mojom_name'
p54
S'id'
p55
sg15
Nsg19
NsS'typename'
p56
S'uint64'
p57
sg16
Nsbag1
(g49
g3
NtRp58
(dp59
g52
Nsg53
Nsg54
S'output_rect'
p60
sg15
Nsg19
Nsg56
S'gfx.mojom.Rect'
p61
sg16
Nsbag1
(g49
g3
NtRp62
(dp63
g52
Nsg53
Nsg54
S'damage_rect'
p64
sg15
Nsg19
Nsg56
S'gfx.mojom.Rect'
p65
sg16
Nsbag1
(g49
g3
NtRp66
(dp67
g52
Nsg53
Nsg54
S'transform_to_root_target'
p68
sg15
Nsg19
Nsg56
S'gfx.mojom.Transform'
p69
sg16
Nsbag1
(g49
g3
NtRp70
(dp71
g52
Nsg53
Nsg54
S'filters'
p72
sg15
Nsg19
Nsg56
S'FilterOperations'
p73
sg16
Nsbag1
(g49
g3
NtRp74
(dp75
g52
Nsg53
Nsg54
S'backdrop_filters'
p76
sg15
Nsg19
Nsg56
S'FilterOperations'
p77
sg16
Nsbag1
(g49
g3
NtRp78
(dp79
g52
Nsg53
Nsg54
S'backdrop_filter_bounds'
p80
sg15
Nsg19
Nsg56
S'gfx.mojom.RRectF'
p81
sg16
Nsbag1
(g49
g3
NtRp82
(dp83
g52
Nsg53
Nsg54
S'color_space'
p84
sg15
Nsg19
Nsg56
S'gfx.mojom.ColorSpace'
p85
sg16
Nsbag1
(g49
g3
NtRp86
(dp87
g52
Nsg53
Nsg54
S'has_transparent_background'
p88
sg15
Nsg19
Nsg56
S'bool'
p89
sg16
Nsbag1
(g49
g3
NtRp90
(dp91
g52
Nsg53
S'false'
p92
sg54
S'cache_render_pass'
p93
sg15
Nsg19
Nsg56
S'bool'
p94
sg16
Nsbag1
(g49
g3
NtRp95
(dp96
g52
Nsg53
S'false'
p97
sg54
S'has_damage_from_contributing_content'
p98
sg15
Nsg19
Nsg56
S'bool'
p99
sg16
Nsbag1
(g49
g3
NtRp100
(dp101
g52
Nsg53
S'false'
p102
sg54
S'generate_mipmap'
p103
sg15
Nsg19
Nsg56
S'bool'
p104
sg16
Nsbag1
(g49
g3
NtRp105
(dp106
g52
Nsg53
Nsg54
S'copy_requests'
p107
sg15
Nsg19
Nsg56
S'CopyOutputRequest[]'
p108
sg16
Nsbag1
(g49
g3
NtRp109
(dp110
g52
Nsg53
Nsg54
S'quad_list'
p111
sg15
Nsg19
Nsg56
S'DrawQuad[]'
p112
sg16
Nsbasg16
Nsg19
Nsbsg15
Nsg16
Nsg54
S'RenderPass'
p113
sg19
Nsbasg16
NsS'module'
p114
g1
(cmojom.parse.ast
Module
p115
g3
NtRp116
(dp117
S'mojom_namespace'
p118
(S'IDENTIFIER'
p119
S'viz.mojom'
tp120
sg16
I5
sg15
Nsg19
g20
sbsg19
Nsb.