ccopy_reg
_reconstructor
p1
(cmojom.parse.ast
Mojom
p2
c__builtin__
object
p3
NtRp4
(dp5
S'import_list'
p6
g1
(cmojom.parse.ast
ImportList
p7
g3
NtRp8
(dp9
S'items'
p10
(lp11
g1
(cmojom.parse.ast
Import
p12
g3
NtRp13
(dp14
S'attribute_list'
p15
NsS'lineno'
p16
I7
sS'import_filename'
p17
S'ui/gfx/geometry/mojo/geometry.mojom'
p18
sS'filename'
p19
S'../../services/viz/public/interfaces/compositing/shared_quad_state.mojom'
p20
sbag1
(g12
g3
NtRp21
(dp22
g15
Nsg16
I8
sg17
S'ui/gfx/mojo/rrect_f.mojom'
p23
sg19
g20
sbag1
(g12
g3
NtRp24
(dp25
g15
Nsg16
I9
sg17
S'ui/gfx/mojo/transform.mojom'
p26
sg19
g20
sbasg16
I7
sg19
g20
sbsS'definition_list'
p27
(lp28
g1
(cmojom.parse.ast
Struct
p29
g3
NtRp30
(dp31
S'body'
p32
g1
(cmojom.parse.ast
StructBody
p33
g3
NtRp34
(dp35
g10
(lp36
g1
(cmojom.parse.ast
StructField
p37
g3
NtRp38
(dp39
S'ordinal'
p40
NsS'default_value'
p41
NsS'mojom_name'
p42
S'quad_to_target_transform'
p43
sg15
Nsg19
NsS'typename'
p44
S'gfx.mojom.Transform'
p45
sg16
Nsbag1
(g37
g3
NtRp46
(dp47
g40
Nsg41
Nsg42
S'quad_layer_rect'
p48
sg15
Nsg19
Nsg44
S'gfx.mojom.Rect'
p49
sg16
Nsbag1
(g37
g3
NtRp50
(dp51
g40
Nsg41
Nsg42
S'visible_quad_layer_rect'
p52
sg15
Nsg19
Nsg44
S'gfx.mojom.Rect'
p53
sg16
Nsbag1
(g37
g3
NtRp54
(dp55
g40
Nsg41
Nsg42
S'rounded_corner_bounds'
p56
sg15
Nsg19
Nsg44
S'gfx.mojom.RRectF'
p57
sg16
Nsbag1
(g37
g3
NtRp58
(dp59
g40
Nsg41
Nsg42
S'clip_rect'
p60
sg15
Nsg19
Nsg44
S'gfx.mojom.Rect'
p61
sg16
Nsbag1
(g37
g3
NtRp62
(dp63
g40
Nsg41
Nsg42
S'is_clipped'
p64
sg15
Nsg19
Nsg44
S'bool'
p65
sg16
Nsbag1
(g37
g3
NtRp66
(dp67
g40
Nsg41
Nsg42
S'are_contents_opaque'
p68
sg15
Nsg19
Nsg44
S'bool'
p69
sg16
Nsbag1
(g37
g3
NtRp70
(dp71
g40
Nsg41
Nsg42
S'opacity'
p72
sg15
Nsg19
Nsg44
S'float'
p73
sg16
Nsbag1
(g37
g3
NtRp74
(dp75
g40
Nsg41
Nsg42
S'blend_mode'
p76
sg15
Nsg19
Nsg44
S'uint32'
p77
sg16
Nsbag1
(g37
g3
NtRp78
(dp79
g40
Nsg41
Nsg42
S'sorting_context_id'
p80
sg15
Nsg19
Nsg44
S'int32'
p81
sg16
Nsbasg16
Nsg19
Nsbsg15
Nsg16
Nsg42
S'SharedQuadState'
p82
sg19
Nsbasg16
NsS'module'
p83
g1
(cmojom.parse.ast
Module
p84
g3
NtRp85
(dp86
S'mojom_namespace'
p87
(S'IDENTIFIER'
p88
S'viz.mojom'
tp89
sg16
I5
sg15
Nsg19
g20
sbsg19
Nsb.