ccopy_reg
_reconstructor
p1
(cmojom.parse.ast
Mojom
p2
c__builtin__
object
p3
NtRp4
(dp5
S'import_list'
p6
g1
(cmojom.parse.ast
ImportList
p7
g3
NtRp8
(dp9
S'items'
p10
(lp11
g1
(cmojom.parse.ast
Import
p12
g3
NtRp13
(dp14
S'attribute_list'
p15
NsS'lineno'
p16
I7
sS'import_filename'
p17
S'gpu/ipc/common/mailbox_holder.mojom'
p18
sS'filename'
p19
S'../../services/viz/public/interfaces/compositing/transferable_resource.mojom'
p20
sbag1
(g12
g3
NtRp21
(dp22
g15
Nsg16
I8
sg17
S'ui/gfx/geometry/mojo/geometry.mojom'
p23
sg19
g20
sbag1
(g12
g3
NtRp24
(dp25
g15
Nsg16
I9
sg17
S'ui/gfx/mojo/color_space.mojom'
p26
sg19
g20
sbag1
(g12
g3
NtRp27
(dp28
g15
Nsg16
I10
sg17
S'ui/gfx/mojo/buffer_types.mojom'
p29
sg19
g20
sbasg16
I7
sg19
g20
sbsS'definition_list'
p30
(lp31
g1
(cmojom.parse.ast
Enum
p32
g3
NtRp33
(dp34
g15
NsS'enum_value_list'
p35
g1
(cmojom.parse.ast
EnumValueList
p36
g3
NtRp37
(dp38
g10
(lp39
g1
(cmojom.parse.ast
EnumValue
p40
g3
NtRp41
(dp42
g15
NsS'value'
p43
Nsg16
I14
sS'mojom_name'
p44
S'RGBA_8888'
p45
sg19
g20
sbag1
(g40
g3
NtRp46
(dp47
g15
Nsg43
Nsg16
I15
sg44
S'RGBA_4444'
p48
sg19
g20
sbag1
(g40
g3
NtRp49
(dp50
g15
Nsg43
Nsg16
I16
sg44
S'BGRA_8888'
p51
sg19
g20
sbag1
(g40
g3
NtRp52
(dp53
g15
Nsg43
Nsg16
I17
sg44
S'ALPHA_8'
p54
sg19
g20
sbag1
(g40
g3
NtRp55
(dp56
g15
Nsg43
Nsg16
I18
sg44
S'LUMINANCE_8'
p57
sg19
g20
sbag1
(g40
g3
NtRp58
(dp59
g15
Nsg43
Nsg16
I19
sg44
S'RGB_565'
p60
sg19
g20
sbag1
(g40
g3
NtRp61
(dp62
g15
Nsg43
Nsg16
I20
sg44
S'BGR_565'
p63
sg19
g20
sbag1
(g40
g3
NtRp64
(dp65
g15
Nsg43
Nsg16
I21
sg44
S'ETC1'
p66
sg19
g20
sbag1
(g40
g3
NtRp67
(dp68
g15
Nsg43
Nsg16
I22
sg44
S'RED_8'
p69
sg19
g20
sbag1
(g40
g3
NtRp70
(dp71
g15
Nsg43
Nsg16
I23
sg44
S'RG_88'
p72
sg19
g20
sbag1
(g40
g3
NtRp73
(dp74
g15
Nsg43
Nsg16
I24
sg44
S'LUMINANCE_F16'
p75
sg19
g20
sbag1
(g40
g3
NtRp76
(dp77
g15
Nsg43
Nsg16
I25
sg44
S'RGBA_F16'
p78
sg19
g20
sbag1
(g40
g3
NtRp79
(dp80
g15
Nsg43
Nsg16
I26
sg44
S'R16_EXT'
p81
sg19
g20
sbag1
(g40
g3
NtRp82
(dp83
g15
Nsg43
Nsg16
I27
sg44
S'RGBX_8888'
p84
sg19
g20
sbag1
(g40
g3
NtRp85
(dp86
g15
Nsg43
Nsg16
I28
sg44
S'BGRX_8888'
p87
sg19
g20
sbag1
(g40
g3
NtRp88
(dp89
g15
Nsg43
Nsg16
I29
sg44
S'RGBX_1010102'
p90
sg19
g20
sbag1
(g40
g3
NtRp91
(dp92
g15
Nsg43
Nsg16
I30
sg44
S'BGRX_1010102'
p93
sg19
g20
sbag1
(g40
g3
NtRp94
(dp95
g15
Nsg43
Nsg16
I31
sg44
S'YVU_420'
p96
sg19
g20
sbag1
(g40
g3
NtRp97
(dp98
g15
Nsg43
Nsg16
I32
sg44
S'YUV_420_BIPLANAR'
p99
sg19
g20
sbag1
(g40
g3
NtRp100
(dp101
g15
Nsg43
Nsg16
I33
sg44
S'UYVY_422'
p102
sg19
g20
sbasg16
I14
sg19
g20
sbsg16
I13
sg44
S'ResourceFormat'
p103
sg19
g20
sbag1
(cmojom.parse.ast
Struct
p104
g3
NtRp105
(dp106
S'body'
p107
g1
(cmojom.parse.ast
StructBody
p108
g3
NtRp109
(dp110
g10
(lp111
g1
(cmojom.parse.ast
StructField
p112
g3
NtRp113
(dp114
S'ordinal'
p115
NsS'default_value'
p116
Nsg44
S'id'
p117
sg15
Nsg19
NsS'typename'
p118
S'uint32'
p119
sg16
Nsbag1
(g112
g3
NtRp120
(dp121
g115
Nsg116
Nsg44
S'format'
p122
sg15
Nsg19
Nsg118
S'ResourceFormat'
p123
sg16
Nsbag1
(g112
g3
NtRp124
(dp125
g115
Nsg116
Nsg44
S'filter'
p126
sg15
Nsg19
Nsg118
S'uint32'
p127
sg16
Nsbag1
(g112
g3
NtRp128
(dp129
g115
Nsg116
Nsg44
S'size'
p130
sg15
Nsg19
Nsg118
S'gfx.mojom.Size'
p131
sg16
Nsbag1
(g112
g3
NtRp132
(dp133
g115
Nsg116
Nsg44
S'mailbox_holder'
p134
sg15
Nsg19
Nsg118
S'gpu.mojom.MailboxHolder'
p135
sg16
Nsbag1
(g112
g3
NtRp136
(dp137
g115
Nsg116
Nsg44
S'read_lock_fences_enabled'
p138
sg15
Nsg19
Nsg118
S'bool'
p139
sg16
Nsbag1
(g112
g3
NtRp140
(dp141
g115
Nsg116
Nsg44
S'is_software'
p142
sg15
Nsg19
Nsg118
S'bool'
p143
sg16
Nsbag1
(g112
g3
NtRp144
(dp145
g115
Nsg116
Nsg44
S'is_overlay_candidate'
p146
sg15
Nsg19
Nsg118
S'bool'
p147
sg16
Nsbag1
(g112
g3
NtRp148
(dp149
g115
Nsg116
Nsg44
S'is_backed_by_surface_texture'
p150
sg15
Nsg19
Nsg118
S'bool'
p151
sg16
Nsbag1
(g112
g3
NtRp152
(dp153
g115
Nsg116
Nsg44
S'wants_promotion_hint'
p154
sg15
Nsg19
Nsg118
S'bool'
p155
sg16
Nsbag1
(g112
g3
NtRp156
(dp157
g115
Nsg116
Nsg44
S'color_space'
p158
sg15
Nsg19
Nsg118
S'gfx.mojom.ColorSpace'
p159
sg16
Nsbasg16
Nsg19
Nsbsg15
Nsg16
Nsg44
S'TransferableResource'
p160
sg19
Nsbasg16
NsS'module'
p161
g1
(cmojom.parse.ast
Module
p162
g3
NtRp163
(dp164
S'mojom_namespace'
p165
(S'IDENTIFIER'
p166
S'viz.mojom'
tp167
sg16
I5
sg15
Nsg19
g20
sbsg19
Nsb.