ccopy_reg
_reconstructor
p1
(cmojom.parse.ast
Mojom
p2
c__builtin__
object
p3
NtRp4
(dp5
S'import_list'
p6
g1
(cmojom.parse.ast
ImportList
p7
g3
NtRp8
(dp9
S'items'
p10
(lp11
sS'lineno'
p12
NsS'filename'
p13
NsbsS'definition_list'
p14
(lp15
g1
(cmojom.parse.ast
Enum
p16
g3
NtRp17
(dp18
S'attribute_list'
p19
NsS'enum_value_list'
p20
g1
(cmojom.parse.ast
EnumValueList
p21
g3
NtRp22
(dp23
g10
(lp24
g1
(cmojom.parse.ast
EnumValue
p25
g3
NtRp26
(dp27
g19
NsS'value'
p28
Nsg12
I10
sS'mojom_name'
p29
S'Enabled'
p30
sg13
S'../../gpu/ipc/common/gpu_feature_info.mojom'
p31
sbag1
(g25
g3
NtRp32
(dp33
g19
Nsg28
Nsg12
I11
sg29
S'Blacklisted'
p34
sg13
g31
sbag1
(g25
g3
NtRp35
(dp36
g19
Nsg28
Nsg12
I12
sg29
S'Disabled'
p37
sg13
g31
sbag1
(g25
g3
NtRp38
(dp39
g19
Nsg28
Nsg12
I13
sg29
S'Software'
p40
sg13
g31
sbag1
(g25
g3
NtRp41
(dp42
g19
Nsg28
Nsg12
I14
sg29
S'Undefined'
p43
sg13
g31
sbag1
(g25
g3
NtRp44
(dp45
g19
Nsg28
Nsg12
I15
sg29
S'Max'
p46
sg13
g31
sbasg12
I10
sg13
g31
sbsg12
I9
sg29
S'GpuFeatureStatus'
p47
sg13
g31
sbag1
(g16
g3
NtRp48
(dp49
g19
Nsg20
g1
(g21
g3
NtRp50
(dp51
g10
(lp52
g1
(g25
g3
NtRp53
(dp54
g19
Nsg28
Nsg12
I20
sg29
S'kUnspecified'
p55
sg13
g31
sbag1
(g25
g3
NtRp56
(dp57
g19
Nsg28
Nsg12
I21
sg29
S'kNone'
p58
sg13
g31
sbag1
(g25
g3
NtRp59
(dp60
g19
Nsg28
Nsg12
I22
sg29
S'kMSAAImplicitResolve'
p61
sg13
g31
sbag1
(g25
g3
NtRp62
(dp63
g19
Nsg28
Nsg12
I23
sg29
S'kMSAAExplicitResolve'
p64
sg13
g31
sbag1
(g25
g3
NtRp65
(dp66
g19
Nsg28
Nsg12
I24
sg29
S'kScreenSpaceAntialiasing'
p67
sg13
g31
sbasg12
I20
sg13
g31
sbsg12
I19
sg29
S'AntialiasingMode'
p68
sg13
g31
sbag1
(cmojom.parse.ast
Struct
p69
g3
NtRp70
(dp71
S'body'
p72
g1
(cmojom.parse.ast
StructBody
p73
g3
NtRp74
(dp75
g10
(lp76
g1
(cmojom.parse.ast
StructField
p77
g3
NtRp78
(dp79
S'ordinal'
p80
NsS'default_value'
p81
Nsg29
S'anti_aliasing_mode'
p82
sg19
Nsg13
NsS'typename'
p83
S'AntialiasingMode'
p84
sg12
Nsbag1
(g77
g3
NtRp85
(dp86
g80
Nsg81
Nsg29
S'msaa_sample_count'
p87
sg19
Nsg13
Nsg83
S'uint32'
p88
sg12
Nsbag1
(g77
g3
NtRp89
(dp90
g80
Nsg81
Nsg29
S'max_active_webgl_contexts'
p91
sg19
Nsg13
Nsg83
S'uint32'
p92
sg12
Nsbag1
(g77
g3
NtRp93
(dp94
g80
Nsg81
Nsg29
S'max_active_webgl_contexts_on_worker'
p95
sg19
Nsg13
Nsg83
S'uint32'
p96
sg12
Nsbasg12
Nsg13
Nsbsg19
Nsg12
Nsg29
S'WebglPreferences'
p97
sg13
Nsbag1
(g69
g3
NtRp98
(dp99
g72
g1
(g73
g3
NtRp100
(dp101
g10
(lp102
g1
(g77
g3
NtRp103
(dp104
g80
Nsg81
Nsg29
S'status_values'
p105
sg19
Nsg13
Nsg83
S'GpuFeatureStatus[]'
p106
sg12
Nsbag1
(g77
g3
NtRp107
(dp108
g80
Nsg81
Nsg29
S'enabled_gpu_driver_bug_workarounds'
p109
sg19
Nsg13
Nsg83
S'int32[]'
p110
sg12
Nsbag1
(g77
g3
NtRp111
(dp112
g80
Nsg81
Nsg29
S'disabled_extensions'
p113
sg19
Nsg13
Nsg83
S'string'
p114
sg12
Nsbag1
(g77
g3
NtRp115
(dp116
g80
Nsg81
Nsg29
S'disabled_webgl_extensions'
p117
sg19
Nsg13
Nsg83
S'string'
p118
sg12
Nsbag1
(g77
g3
NtRp119
(dp120
g80
Nsg81
Nsg29
S'webgl_preferences'
p121
sg19
Nsg13
Nsg83
S'WebglPreferences'
p122
sg12
Nsbag1
(g77
g3
NtRp123
(dp124
g80
Nsg81
Nsg29
S'applied_gpu_blacklist_entries'
p125
sg19
Nsg13
Nsg83
S'uint32[]'
p126
sg12
Nsbag1
(g77
g3
NtRp127
(dp128
g80
Nsg81
Nsg29
S'applied_gpu_driver_bug_list_entries'
p129
sg19
Nsg13
Nsg83
S'uint32[]'
p130
sg12
Nsbasg12
Nsg13
Nsbsg19
Nsg12
Nsg29
S'GpuFeatureInfo'
p131
sg13
Nsbasg12
NsS'module'
p132
g1
(cmojom.parse.ast
Module
p133
g3
NtRp134
(dp135
S'mojom_namespace'
p136
(S'IDENTIFIER'
p137
S'gpu.mojom'
tp138
sg12
I6
sg19
Nsg13
g31
sbsg13
Nsb.