ccopy_reg
_reconstructor
p1
(cmojom.parse.ast
Mojom
p2
c__builtin__
object
p3
NtRp4
(dp5
S'import_list'
p6
g1
(cmojom.parse.ast
ImportList
p7
g3
NtRp8
(dp9
S'items'
p10
(lp11
g1
(cmojom.parse.ast
Import
p12
g3
NtRp13
(dp14
S'attribute_list'
p15
NsS'lineno'
p16
I8
sS'import_filename'
p17
S'ui/gfx/mojo/buffer_types.mojom'
p18
sS'filename'
p19
S'../../gpu/ipc/common/gpu_preferences.mojom'
p20
sbasg16
I8
sg19
g20
sbsS'definition_list'
p21
(lp22
g1
(cmojom.parse.ast
Enum
p23
g3
NtRp24
(dp25
g15
NsS'enum_value_list'
p26
g1
(cmojom.parse.ast
EnumValueList
p27
g3
NtRp28
(dp29
g10
(lp30
g1
(cmojom.parse.ast
EnumValue
p31
g3
NtRp32
(dp33
g15
NsS'value'
p34
S'0'
sg16
I12
sS'mojom_name'
p35
S'VPX_VENDOR_NONE'
p36
sg19
g20
sbag1
(g31
g3
NtRp37
(dp38
g15
Nsg34
S'1'
sg16
I13
sg35
S'VPX_VENDOR_MICROSOFT'
p39
sg19
g20
sbag1
(g31
g3
NtRp40
(dp41
g15
Nsg34
S'2'
sg16
I14
sg35
S'VPX_VENDOR_AMD'
p42
sg19
g20
sbag1
(g31
g3
NtRp43
(dp44
g15
Nsg34
S'3'
sg16
I15
sg35
S'VPX_VENDOR_ALL'
p45
sg19
g20
sbasg16
I12
sg19
g20
sbsg16
I11
sg35
S'VpxDecodeVendors'
p46
sg19
g20
sbag1
(cmojom.parse.ast
Struct
p47
g3
NtRp48
(dp49
S'body'
p50
g1
(cmojom.parse.ast
StructBody
p51
g3
NtRp52
(dp53
g10
(lp54
g1
(cmojom.parse.ast
StructField
p55
g3
NtRp56
(dp57
S'ordinal'
p58
NsS'default_value'
p59
Nsg35
S'disable_accelerated_video_decode'
p60
sg15
Nsg19
NsS'typename'
p61
S'bool'
p62
sg16
Nsbag1
(g55
g3
NtRp63
(dp64
g58
Nsg59
Nsg35
S'disable_accelerated_video_encode'
p65
sg15
Nsg19
Nsg61
S'bool'
p66
sg16
Nsbag1
(g55
g3
NtRp67
(dp68
g58
Nsg59
Nsg35
S'gpu_startup_dialog'
p69
sg15
Nsg19
Nsg61
S'bool'
p70
sg16
Nsbag1
(g55
g3
NtRp71
(dp72
g58
Nsg59
Nsg35
S'disable_gpu_watchdog'
p73
sg15
Nsg19
Nsg61
S'bool'
p74
sg16
Nsbag1
(g55
g3
NtRp75
(dp76
g58
Nsg59
Nsg35
S'gpu_sandbox_start_early'
p77
sg15
Nsg19
Nsg61
S'bool'
p78
sg16
Nsbag1
(g55
g3
NtRp79
(dp80
g58
Nsg59
Nsg35
S'enable_accelerated_vpx_decode'
p81
sg15
Nsg19
Nsg61
S'VpxDecodeVendors'
p82
sg16
Nsbag1
(g55
g3
NtRp83
(dp84
g58
Nsg59
Nsg35
S'enable_low_latency_dxva'
p85
sg15
Nsg19
Nsg61
S'bool'
p86
sg16
Nsbag1
(g55
g3
NtRp87
(dp88
g58
Nsg59
Nsg35
S'enable_zero_copy_dxgi_video'
p89
sg15
Nsg19
Nsg61
S'bool'
p90
sg16
Nsbag1
(g55
g3
NtRp91
(dp92
g58
Nsg59
Nsg35
S'enable_nv12_dxgi_video'
p93
sg15
Nsg19
Nsg61
S'bool'
p94
sg16
Nsbag1
(g55
g3
NtRp95
(dp96
g58
Nsg59
Nsg35
S'enable_media_foundation_vea_on_windows7'
p97
sg15
Nsg19
Nsg61
S'bool'
p98
sg16
Nsbag1
(g55
g3
NtRp99
(dp100
g58
Nsg59
Nsg35
S'disable_software_rasterizer'
p101
sg15
Nsg19
Nsg61
S'bool'
p102
sg16
Nsbag1
(g55
g3
NtRp103
(dp104
g58
Nsg59
Nsg35
S'log_gpu_control_list_decisions'
p105
sg15
Nsg19
Nsg61
S'bool'
p106
sg16
Nsbag1
(g55
g3
NtRp107
(dp108
g58
Nsg59
Nsg35
S'compile_shader_always_succeeds'
p109
sg15
Nsg19
Nsg61
S'bool'
p110
sg16
Nsbag1
(g55
g3
NtRp111
(dp112
g58
Nsg59
Nsg35
S'disable_gl_error_limit'
p113
sg15
Nsg19
Nsg61
S'bool'
p114
sg16
Nsbag1
(g55
g3
NtRp115
(dp116
g58
Nsg59
Nsg35
S'disable_glsl_translator'
p117
sg15
Nsg19
Nsg61
S'bool'
p118
sg16
Nsbag1
(g55
g3
NtRp119
(dp120
g58
Nsg59
Nsg35
S'disable_shader_name_hashing'
p121
sg15
Nsg19
Nsg61
S'bool'
p122
sg16
Nsbag1
(g55
g3
NtRp123
(dp124
g58
Nsg59
Nsg35
S'enable_gpu_command_logging'
p125
sg15
Nsg19
Nsg61
S'bool'
p126
sg16
Nsbag1
(g55
g3
NtRp127
(dp128
g58
Nsg59
Nsg35
S'enable_gpu_debugging'
p129
sg15
Nsg19
Nsg61
S'bool'
p130
sg16
Nsbag1
(g55
g3
NtRp131
(dp132
g58
Nsg59
Nsg35
S'enable_gpu_service_logging_gpu'
p133
sg15
Nsg19
Nsg61
S'bool'
p134
sg16
Nsbag1
(g55
g3
NtRp135
(dp136
g58
Nsg59
Nsg35
S'enable_gpu_driver_debug_logging'
p137
sg15
Nsg19
Nsg61
S'bool'
p138
sg16
Nsbag1
(g55
g3
NtRp139
(dp140
g58
Nsg59
Nsg35
S'disable_gpu_program_cache'
p141
sg15
Nsg19
Nsg61
S'bool'
p142
sg16
Nsbag1
(g55
g3
NtRp143
(dp144
g58
Nsg59
Nsg35
S'enforce_gl_minimums'
p145
sg15
Nsg19
Nsg61
S'bool'
p146
sg16
Nsbag1
(g55
g3
NtRp147
(dp148
g58
Nsg59
Nsg35
S'force_gpu_mem_available'
p149
sg15
Nsg19
Nsg61
S'uint32'
p150
sg16
Nsbag1
(g55
g3
NtRp151
(dp152
g58
Nsg59
Nsg35
S'gpu_program_cache_size'
p153
sg15
Nsg19
Nsg61
S'uint32'
p154
sg16
Nsbag1
(g55
g3
NtRp155
(dp156
g58
Nsg59
Nsg35
S'disable_gpu_shader_disk_cache'
p157
sg15
Nsg19
Nsg61
S'bool'
p158
sg16
Nsbag1
(g55
g3
NtRp159
(dp160
g58
Nsg59
Nsg35
S'enable_threaded_texture_mailboxes'
p161
sg15
Nsg19
Nsg61
S'bool'
p162
sg16
Nsbag1
(g55
g3
NtRp163
(dp164
g58
Nsg59
Nsg35
S'gl_shader_interm_output'
p165
sg15
Nsg19
Nsg61
S'bool'
p166
sg16
Nsbag1
(g55
g3
NtRp167
(dp168
g58
Nsg59
Nsg35
S'emulate_shader_precision'
p169
sg15
Nsg19
Nsg61
S'bool'
p170
sg16
Nsbag1
(g55
g3
NtRp171
(dp172
g58
Nsg59
Nsg35
S'max_active_webgl_contexts'
p173
sg15
Nsg19
Nsg61
S'uint32'
p174
sg16
Nsbag1
(g55
g3
NtRp175
(dp176
g58
Nsg59
Nsg35
S'enable_android_surface_control'
p177
sg15
Nsg19
Nsg61
S'bool'
p178
sg16
Nsbag1
(g55
g3
NtRp179
(dp180
g58
Nsg59
Nsg35
S'enable_gpu_service_logging'
p181
sg15
Nsg19
Nsg61
S'bool'
p182
sg16
Nsbag1
(g55
g3
NtRp183
(dp184
g58
Nsg59
Nsg35
S'enable_gpu_service_tracing'
p185
sg15
Nsg19
Nsg61
S'bool'
p186
sg16
Nsbag1
(g55
g3
NtRp187
(dp188
g58
Nsg59
Nsg35
S'use_passthrough_cmd_decoder'
p189
sg15
Nsg19
Nsg61
S'bool'
p190
sg16
Nsbag1
(g55
g3
NtRp191
(dp192
g58
Nsg59
Nsg35
S'disable_biplanar_gpu_memory_buffers_for_video_frames'
p193
sg15
Nsg19
Nsg61
S'bool'
p194
sg16
Nsbag1
(g55
g3
NtRp195
(dp196
g58
Nsg59
Nsg35
S'texture_target_exception_list'
p197
sg15
Nsg19
Nsg61
S'gfx.mojom.BufferUsageAndFormat[]'
p198
sg16
Nsbag1
(g55
g3
NtRp199
(dp200
g58
Nsg59
Nsg35
S'disable_gpu_driver_bug_workarounds'
p201
sg15
Nsg19
Nsg61
S'bool'
p202
sg16
Nsbag1
(g55
g3
NtRp203
(dp204
g58
Nsg59
Nsg35
S'ignore_gpu_blacklist'
p205
sg15
Nsg19
Nsg61
S'bool'
p206
sg16
Nsbag1
(g55
g3
NtRp207
(dp208
g58
Nsg59
Nsg35
S'enable_oop_rasterization'
p209
sg15
Nsg19
Nsg61
S'bool'
p210
sg16
Nsbag1
(g55
g3
NtRp211
(dp212
g58
Nsg59
Nsg35
S'disable_oop_rasterization'
p213
sg15
Nsg19
Nsg61
S'bool'
p214
sg16
Nsbag1
(g55
g3
NtRp215
(dp216
g58
Nsg59
Nsg35
S'enable_oop_rasterization_ddl'
p217
sg15
Nsg19
Nsg61
S'bool'
p218
sg16
Nsbag1
(g55
g3
NtRp219
(dp220
g58
Nsg59
Nsg35
S'watchdog_starts_backgrounded'
p221
sg15
Nsg19
Nsg61
S'bool'
p222
sg16
Nsbag1
(g55
g3
NtRp223
(dp224
g58
Nsg59
Nsg35
S'enable_vulkan'
p225
sg15
Nsg19
Nsg61
S'bool'
p226
sg16
Nsbag1
(g55
g3
NtRp227
(dp228
g58
Nsg59
Nsg35
S'disable_vulkan_surface'
p229
sg15
Nsg19
Nsg61
S'bool'
p230
sg16
Nsbag1
(g55
g3
NtRp231
(dp232
g58
Nsg59
Nsg35
S'disable_vulkan_fallback_to_gl_for_testing'
p233
sg15
Nsg19
Nsg61
S'bool'
p234
sg16
Nsbag1
(g55
g3
NtRp235
(dp236
g58
Nsg59
Nsg35
S'enable_metal'
p237
sg15
Nsg19
Nsg61
S'bool'
p238
sg16
Nsbag1
(g55
g3
NtRp239
(dp240
g58
Nsg59
Nsg35
S'enable_gpu_benchmarking_extension'
p241
sg15
Nsg19
Nsg61
S'bool'
p242
sg16
Nsbag1
(g55
g3
NtRp243
(dp244
g58
Nsg59
Nsg35
S'enable_webgpu'
p245
sg15
Nsg19
Nsg61
S'bool'
p246
sg16
Nsbasg16
Nsg19
Nsbsg15
Nsg16
Nsg35
S'GpuPreferences'
p247
sg19
Nsbasg16
NsS'module'
p248
g1
(cmojom.parse.ast
Module
p249
g3
NtRp250
(dp251
S'mojom_namespace'
p252
(S'IDENTIFIER'
p253
S'gpu.mojom'
tp254
sg16
I6
sg15
Nsg19
g20
sbsg19
Nsb.