ccopy_reg
_reconstructor
p1
(cmojom.parse.ast
Mojom
p2
c__builtin__
object
p3
NtRp4
(dp5
S'import_list'
p6
g1
(cmojom.parse.ast
ImportList
p7
g3
NtRp8
(dp9
S'items'
p10
(lp11
sS'lineno'
p12
NsS'filename'
p13
NsbsS'definition_list'
p14
(lp15
g1
(cmojom.parse.ast
Enum
p16
g3
NtRp17
(dp18
S'attribute_list'
p19
NsS'enum_value_list'
p20
g1
(cmojom.parse.ast
EnumValueList
p21
g3
NtRp22
(dp23
g10
(lp24
g1
(cmojom.parse.ast
EnumValue
p25
g3
NtRp26
(dp27
g19
NsS'value'
p28
S'-1'
p29
sg12
I9
sS'mojom_name'
p30
S'INVALID'
p31
sg13
S'../../gpu/ipc/common/sync_token.mojom'
p32
sbag1
(g25
g3
NtRp33
(dp34
g19
Nsg28
Nsg12
I11
sg30
S'GPU_IO'
p35
sg13
g32
sbag1
(g25
g3
NtRp36
(dp37
g19
Nsg28
Nsg12
I12
sg30
S'IN_PROCESS'
p38
sg13
g32
sbag1
(g25
g3
NtRp39
(dp40
g19
Nsg28
Nsg12
I13
sg30
S'MOJO'
p41
sg13
g32
sbag1
(g25
g3
NtRp42
(dp43
g19
Nsg28
Nsg12
I14
sg30
S'MOJO_LOCAL'
p44
sg13
g32
sbag1
(g25
g3
NtRp45
(dp46
g19
Nsg28
Nsg12
I16
sg30
S'NUM_COMMAND_BUFFER_NAMESPACES'
p47
sg13
g32
sbasg12
I9
sg13
g32
sbsg12
I8
sg30
S'CommandBufferNamespace'
p48
sg13
g32
sbag1
(cmojom.parse.ast
Struct
p49
g3
NtRp50
(dp51
S'body'
p52
g1
(cmojom.parse.ast
StructBody
p53
g3
NtRp54
(dp55
g10
(lp56
g1
(cmojom.parse.ast
StructField
p57
g3
NtRp58
(dp59
S'ordinal'
p60
NsS'default_value'
p61
Nsg30
S'verified_flush'
p62
sg19
Nsg13
NsS'typename'
p63
S'bool'
p64
sg12
Nsbag1
(g57
g3
NtRp65
(dp66
g60
Nsg61
Nsg30
S'namespace_id'
p67
sg19
Nsg13
Nsg63
S'CommandBufferNamespace'
p68
sg12
Nsbag1
(g57
g3
NtRp69
(dp70
g60
Nsg61
Nsg30
S'command_buffer_id'
p71
sg19
Nsg13
Nsg63
S'uint64'
p72
sg12
Nsbag1
(g57
g3
NtRp73
(dp74
g60
Nsg61
Nsg30
S'release_count'
p75
sg19
Nsg13
Nsg63
S'uint64'
p76
sg12
Nsbasg12
Nsg13
Nsbsg19
Nsg12
Nsg30
S'SyncToken'
p77
sg13
Nsbasg12
NsS'module'
p78
g1
(cmojom.parse.ast
Module
p79
g3
NtRp80
(dp81
S'mojom_namespace'
p82
(S'IDENTIFIER'
p83
S'gpu.mojom'
tp84
sg12
I5
sg19
Nsg13
g32
sbsg13
Nsb.