ccopy_reg
_reconstructor
p1
(cmojom.parse.ast
Mojom
p2
c__builtin__
object
p3
NtRp4
(dp5
S'import_list'
p6
g1
(cmojom.parse.ast
ImportList
p7
g3
NtRp8
(dp9
S'items'
p10
(lp11
g1
(cmojom.parse.ast
Import
p12
g3
NtRp13
(dp14
S'attribute_list'
p15
NsS'lineno'
p16
I7
sS'import_filename'
p17
S'mojo/public/mojom/base/shared_memory.mojom'
p18
sS'filename'
p19
S'../../device/gamepad/public/mojom/gamepad.mojom'
p20
sbasg16
I7
sg19
g20
sbsS'definition_list'
p21
(lp22
g1
(cmojom.parse.ast
Struct
p23
g3
NtRp24
(dp25
S'body'
p26
g1
(cmojom.parse.ast
StructBody
p27
g3
NtRp28
(dp29
g10
(lp30
g1
(cmojom.parse.ast
StructField
p31
g3
NtRp32
(dp33
S'ordinal'
p34
NsS'default_value'
p35
NsS'mojom_name'
p36
S'x'
sg15
Nsg19
NsS'typename'
p37
S'float'
p38
sg16
Nsbag1
(g31
g3
NtRp39
(dp40
g34
Nsg35
Nsg36
S'y'
sg15
Nsg19
Nsg37
S'float'
p41
sg16
Nsbag1
(g31
g3
NtRp42
(dp43
g34
Nsg35
Nsg36
S'z'
sg15
Nsg19
Nsg37
S'float'
p44
sg16
Nsbag1
(g31
g3
NtRp45
(dp46
g34
Nsg35
Nsg36
S'w'
sg15
Nsg19
Nsg37
S'float'
p47
sg16
Nsbasg16
Nsg19
Nsbsg15
Nsg16
Nsg36
S'GamepadQuaternion'
p48
sg19
Nsbag1
(g23
g3
NtRp49
(dp50
g26
g1
(g27
g3
NtRp51
(dp52
g10
(lp53
g1
(g31
g3
NtRp54
(dp55
g34
Nsg35
Nsg36
S'x'
sg15
Nsg19
Nsg37
S'float'
p56
sg16
Nsbag1
(g31
g3
NtRp57
(dp58
g34
Nsg35
Nsg36
S'y'
sg15
Nsg19
Nsg37
S'float'
p59
sg16
Nsbag1
(g31
g3
NtRp60
(dp61
g34
Nsg35
Nsg36
S'z'
sg15
Nsg19
Nsg37
S'float'
p62
sg16
Nsbasg16
Nsg19
Nsbsg15
Nsg16
Nsg36
S'GamepadVector'
p63
sg19
Nsbag1
(g23
g3
NtRp64
(dp65
g26
g1
(g27
g3
NtRp66
(dp67
g10
(lp68
g1
(g31
g3
NtRp69
(dp70
g34
Nsg35
Nsg36
S'pressed'
p71
sg15
Nsg19
Nsg37
S'bool'
p72
sg16
Nsbag1
(g31
g3
NtRp73
(dp74
g34
Nsg35
Nsg36
S'touched'
p75
sg15
Nsg19
Nsg37
S'bool'
p76
sg16
Nsbag1
(g31
g3
NtRp77
(dp78
g34
Nsg35
Nsg36
S'value'
p79
sg15
Nsg19
Nsg37
S'double'
p80
sg16
Nsbasg16
Nsg19
Nsbsg15
Nsg16
Nsg36
S'GamepadButton'
p81
sg19
Nsbag1
(g23
g3
NtRp82
(dp83
g26
g1
(g27
g3
NtRp84
(dp85
g10
(lp86
g1
(g31
g3
NtRp87
(dp88
g34
Nsg35
Nsg36
S'orientation'
p89
sg15
Nsg19
Nsg37
S'GamepadQuaternion?'
p90
sg16
Nsbag1
(g31
g3
NtRp91
(dp92
g34
Nsg35
Nsg36
S'position'
p93
sg15
Nsg19
Nsg37
S'GamepadVector?'
p94
sg16
Nsbag1
(g31
g3
NtRp95
(dp96
g34
Nsg35
Nsg36
S'angular_velocity'
p97
sg15
Nsg19
Nsg37
S'GamepadVector?'
p98
sg16
Nsbag1
(g31
g3
NtRp99
(dp100
g34
Nsg35
Nsg36
S'linear_velocity'
p101
sg15
Nsg19
Nsg37
S'GamepadVector?'
p102
sg16
Nsbag1
(g31
g3
NtRp103
(dp104
g34
Nsg35
Nsg36
S'angular_acceleration'
p105
sg15
Nsg19
Nsg37
S'GamepadVector?'
p106
sg16
Nsbag1
(g31
g3
NtRp107
(dp108
g34
Nsg35
Nsg36
S'linear_acceleration'
p109
sg15
Nsg19
Nsg37
S'GamepadVector?'
p110
sg16
Nsbasg16
Nsg19
Nsbsg15
Nsg16
Nsg36
S'GamepadPose'
p111
sg19
Nsbag1
(cmojom.parse.ast
Enum
p112
g3
NtRp113
(dp114
g15
NsS'enum_value_list'
p115
g1
(cmojom.parse.ast
EnumValueList
p116
g3
NtRp117
(dp118
g10
(lp119
g1
(cmojom.parse.ast
EnumValue
p120
g3
NtRp121
(dp122
g15
NsS'value'
p123
S'0'
sg16
I38
sg36
S'GamepadHandNone'
p124
sg19
g20
sbag1
(g120
g3
NtRp125
(dp126
g15
Nsg123
S'1'
sg16
I39
sg36
S'GamepadHandLeft'
p127
sg19
g20
sbag1
(g120
g3
NtRp128
(dp129
g15
Nsg123
S'2'
sg16
I40
sg36
S'GamepadHandRight'
p130
sg19
g20
sbasg16
I38
sg19
g20
sbsg16
I37
sg36
S'GamepadHand'
p131
sg19
g20
sbag1
(g112
g3
NtRp132
(dp133
g15
Nsg115
g1
(g116
g3
NtRp134
(dp135
g10
(lp136
g1
(g120
g3
NtRp137
(dp138
g15
Nsg123
S'0'
sg16
I44
sg36
S'GamepadHapticActuatorTypeVibration'
p139
sg19
g20
sbag1
(g120
g3
NtRp140
(dp141
g15
Nsg123
S'1'
sg16
I45
sg36
S'GamepadHapticActuatorTypeDualRumble'
p142
sg19
g20
sbasg16
I44
sg19
g20
sbsg16
I43
sg36
S'GamepadHapticActuatorType'
p143
sg19
g20
sbag1
(g112
g3
NtRp144
(dp145
g15
Nsg115
g1
(g116
g3
NtRp146
(dp147
g10
(lp148
g1
(g120
g3
NtRp149
(dp150
g15
Nsg123
S'0'
sg16
I49
sg36
S'GamepadHapticEffectTypeDualRumble'
p151
sg19
g20
sbasg16
I49
sg19
g20
sbsg16
I48
sg36
S'GamepadHapticEffectType'
p152
sg19
g20
sbag1
(g23
g3
NtRp153
(dp154
g26
g1
(g27
g3
NtRp155
(dp156
g10
(lp157
g1
(g31
g3
NtRp158
(dp159
g34
Nsg35
Nsg36
S'type'
p160
sg15
Nsg19
Nsg37
S'GamepadHapticActuatorType'
p161
sg16
Nsbasg16
Nsg19
Nsbsg15
Nsg16
Nsg36
S'GamepadHapticActuator'
p162
sg19
Nsbag1
(g23
g3
NtRp163
(dp164
g26
g1
(g27
g3
NtRp165
(dp166
g10
(lp167
g1
(g31
g3
NtRp168
(dp169
g34
Nsg35
Nsg36
S'connected'
p170
sg15
Nsg19
Nsg37
S'bool'
p171
sg16
Nsbag1
(g31
g3
NtRp172
(dp173
g34
Nsg35
Nsg36
S'id'
p174
sg15
Nsg19
Nsg37
S'uint16[]'
p175
sg16
Nsbag1
(g31
g3
NtRp176
(dp177
g34
Nsg35
Nsg36
S'timestamp'
p178
sg15
Nsg19
Nsg37
S'int64'
p179
sg16
Nsbag1
(g31
g3
NtRp180
(dp181
g34
Nsg35
Nsg36
S'axes'
p182
sg15
Nsg19
Nsg37
S'double[]'
p183
sg16
Nsbag1
(g31
g3
NtRp184
(dp185
g34
Nsg35
Nsg36
S'buttons'
p186
sg15
Nsg19
Nsg37
S'GamepadButton[]'
p187
sg16
Nsbag1
(g31
g3
NtRp188
(dp189
g34
Nsg35
Nsg36
S'vibration_actuator'
p190
sg15
Nsg19
Nsg37
S'GamepadHapticActuator?'
p191
sg16
Nsbag1
(g31
g3
NtRp192
(dp193
g34
Nsg35
Nsg36
S'mapping'
p194
sg15
Nsg19
Nsg37
S'uint16[]'
p195
sg16
Nsbag1
(g31
g3
NtRp196
(dp197
g34
Nsg35
Nsg36
S'pose'
p198
sg15
Nsg19
Nsg37
S'GamepadPose?'
p199
sg16
Nsbag1
(g31
g3
NtRp200
(dp201
g34
Nsg35
Nsg36
S'hand'
p202
sg15
Nsg19
Nsg37
S'GamepadHand'
p203
sg16
Nsbag1
(g31
g3
NtRp204
(dp205
g34
Nsg35
Nsg36
S'display_id'
p206
sg15
Nsg19
Nsg37
S'uint32'
p207
sg16
Nsbasg16
Nsg19
Nsbsg15
Nsg16
Nsg36
S'Gamepad'
p208
sg19
Nsbag1
(cmojom.parse.ast
Interface
p209
g3
NtRp210
(dp211
g26
g1
(cmojom.parse.ast
InterfaceBody
p212
g3
NtRp213
(dp214
g10
(lp215
g1
(cmojom.parse.ast
Method
p216
g3
NtRp217
(dp218
g34
Nsg36
S'GamepadConnected'
p219
sS'parameter_list'
p220
g1
(cmojom.parse.ast
ParameterList
p221
g3
NtRp222
(dp223
g10
(lp224
g1
(cmojom.parse.ast
Parameter
p225
g3
NtRp226
(dp227
g34
Nsg36
S'index'
p228
sg15
Nsg19
g20
sg37
S'uint32'
p229
sg16
I72
sbag1
(g225
g3
NtRp230
(dp231
g34
Nsg36
S'gamepad'
p232
sg15
Nsg19
g20
sg37
S'Gamepad'
p233
sg16
I72
sbasg16
I72
sg19
g20
sbsg15
Nsg19
Nsg16
NsS'response_parameter_list'
p234
Nsbag1
(g216
g3
NtRp235
(dp236
g34
Nsg36
S'GamepadDisconnected'
p237
sg220
g1
(g221
g3
NtRp238
(dp239
g10
(lp240
g1
(g225
g3
NtRp241
(dp242
g34
Nsg36
S'index'
p243
sg15
Nsg19
g20
sg37
S'uint32'
p244
sg16
I77
sbag1
(g225
g3
NtRp245
(dp246
g34
Nsg36
S'gamepad'
p247
sg15
Nsg19
g20
sg37
S'Gamepad'
p248
sg16
I77
sbasg16
I77
sg19
g20
sbsg15
Nsg19
Nsg16
Nsg234
Nsbag1
(g216
g3
NtRp249
(dp250
g34
Nsg36
S'GamepadButtonOrAxisChanged'
p251
sg220
g1
(g221
g3
NtRp252
(dp253
g10
(lp254
g1
(g225
g3
NtRp255
(dp256
g34
Nsg36
S'index'
p257
sg15
Nsg19
g20
sg37
S'uint32'
p258
sg16
I82
sbag1
(g225
g3
NtRp259
(dp260
g34
Nsg36
S'gamepad'
p261
sg15
Nsg19
g20
sg37
S'Gamepad'
p262
sg16
I82
sbasg16
I82
sg19
g20
sbsg15
Nsg19
Nsg16
Nsg234
Nsbasg16
Nsg19
Nsbsg15
Nsg16
Nsg36
S'GamepadObserver'
p263
sg19
Nsbag1
(g209
g3
NtRp264
(dp265
g26
g1
(g212
g3
NtRp266
(dp267
g10
(lp268
g1
(g216
g3
NtRp269
(dp270
g34
Nsg36
S'GamepadStartPolling'
p271
sg220
g1
(g221
g3
NtRp272
(dp273
g10
(lp274
sg16
Nsg19
Nsbsg15
g1
(cmojom.parse.ast
AttributeList
p275
g3
NtRp276
(dp277
g10
(lp278
g1
(cmojom.parse.ast
Attribute
p279
g3
NtRp280
(dp281
g123
I01
sg16
I90
sS'key'
p282
S'Sync'
p283
sg19
g20
sbasg16
I90
sg19
g20
sbsg19
Nsg16
Nsg234
g1
(g221
g3
NtRp284
(dp285
g10
(lp286
g1
(g225
g3
NtRp287
(dp288
g34
Nsg36
S'memory_region'
p289
sg15
Nsg19
g20
sg37
S'mojo_base.mojom.ReadOnlySharedMemoryRegion'
p290
sg16
I92
sbasg16
I92
sg19
g20
sbsbag1
(g216
g3
NtRp291
(dp292
g34
Nsg36
S'GamepadStopPolling'
p293
sg220
g1
(g221
g3
NtRp294
(dp295
g10
(lp296
sg16
Nsg19
Nsbsg15
g1
(g275
g3
NtRp297
(dp298
g10
(lp299
g1
(g279
g3
NtRp300
(dp301
g123
I01
sg16
I94
sg282
S'Sync'
p302
sg19
g20
sbasg16
I94
sg19
g20
sbsg19
Nsg16
Nsg234
g1
(g221
g3
NtRp303
(dp304
g10
(lp305
sg16
Nsg19
Nsbsbag1
(g216
g3
NtRp306
(dp307
g34
Nsg36
S'SetObserver'
p308
sg220
g1
(g221
g3
NtRp309
(dp310
g10
(lp311
g1
(g225
g3
NtRp312
(dp313
g34
Nsg36
S'gamepad_observer'
p314
sg15
Nsg19
g20
sg37
S'GamepadObserver'
p315
sg16
I97
sbasg16
I97
sg19
g20
sbsg15
Nsg19
Nsg16
Nsg234
Nsbasg16
Nsg19
Nsbsg15
Nsg16
Nsg36
S'GamepadMonitor'
p316
sg19
Nsbag1
(g23
g3
NtRp317
(dp318
g26
g1
(g27
g3
NtRp319
(dp320
g10
(lp321
g1
(g31
g3
NtRp322
(dp323
g34
Nsg35
Nsg36
S'duration'
p324
sg15
Nsg19
Nsg37
S'double'
p325
sg16
Nsbag1
(g31
g3
NtRp326
(dp327
g34
Nsg35
Nsg36
S'start_delay'
p328
sg15
Nsg19
Nsg37
S'double'
p329
sg16
Nsbag1
(g31
g3
NtRp330
(dp331
g34
Nsg35
Nsg36
S'strong_magnitude'
p332
sg15
Nsg19
Nsg37
S'double'
p333
sg16
Nsbag1
(g31
g3
NtRp334
(dp335
g34
Nsg35
Nsg36
S'weak_magnitude'
p336
sg15
Nsg19
Nsg37
S'double'
p337
sg16
Nsbasg16
Nsg19
Nsbsg15
Nsg16
Nsg36
S'GamepadEffectParameters'
p338
sg19
Nsbag1
(g112
g3
NtRp339
(dp340
g15
Nsg115
g1
(g116
g3
NtRp341
(dp342
g10
(lp343
g1
(g120
g3
NtRp344
(dp345
g15
Nsg123
S'0'
sg16
I108
sg36
S'GamepadHapticsResultError'
p346
sg19
g20
sbag1
(g120
g3
NtRp347
(dp348
g15
Nsg123
S'1'
sg16
I109
sg36
S'GamepadHapticsResultComplete'
p349
sg19
g20
sbag1
(g120
g3
NtRp350
(dp351
g15
Nsg123
S'2'
sg16
I110
sg36
S'GamepadHapticsResultPreempted'
p352
sg19
g20
sbag1
(g120
g3
NtRp353
(dp354
g15
Nsg123
S'3'
sg16
I111
sg36
S'GamepadHapticsResultInvalidParameter'
p355
sg19
g20
sbag1
(g120
g3
NtRp356
(dp357
g15
Nsg123
S'4'
sg16
I112
sg36
S'GamepadHapticsResultNotSupported'
p358
sg19
g20
sbasg16
I108
sg19
g20
sbsg16
I107
sg36
S'GamepadHapticsResult'
p359
sg19
g20
sbag1
(g209
g3
NtRp360
(dp361
g26
g1
(g212
g3
NtRp362
(dp363
g10
(lp364
g1
(g216
g3
NtRp365
(dp366
g34
Nsg36
S'PlayVibrationEffectOnce'
p367
sg220
g1
(g221
g3
NtRp368
(dp369
g10
(lp370
g1
(g225
g3
NtRp371
(dp372
g34
Nsg36
S'pad_index'
p373
sg15
Nsg19
g20
sg37
S'uint32'
p374
sg16
I116
sbag1
(g225
g3
NtRp375
(dp376
g34
Nsg36
S'type'
p377
sg15
Nsg19
g20
sg37
S'GamepadHapticEffectType'
p378
sg16
I117
sbag1
(g225
g3
NtRp379
(dp380
g34
Nsg36
S'params'
p381
sg15
Nsg19
g20
sg37
S'GamepadEffectParameters'
p382
sg16
I118
sbasg16
I116
sg19
g20
sbsg15
Nsg19
Nsg16
Nsg234
g1
(g221
g3
NtRp383
(dp384
g10
(lp385
g1
(g225
g3
NtRp386
(dp387
g34
Nsg36
S'result'
p388
sg15
Nsg19
g20
sg37
S'GamepadHapticsResult'
p389
sg16
I119
sbasg16
I119
sg19
g20
sbsbag1
(g216
g3
NtRp390
(dp391
g34
Nsg36
S'ResetVibrationActuator'
p392
sg220
g1
(g221
g3
NtRp393
(dp394
g10
(lp395
g1
(g225
g3
NtRp396
(dp397
g34
Nsg36
S'pad_index'
p398
sg15
Nsg19
g20
sg37
S'uint32'
p399
sg16
I120
sbasg16
I120
sg19
g20
sbsg15
Nsg19
Nsg16
Nsg234
g1
(g221
g3
NtRp400
(dp401
g10
(lp402
g1
(g225
g3
NtRp403
(dp404
g34
Nsg36
S'result'
p405
sg15
Nsg19
g20
sg37
S'GamepadHapticsResult'
p406
sg16
I120
sbasg16
I120
sg19
g20
sbsbasg16
Nsg19
Nsbsg15
Nsg16
Nsg36
S'GamepadHapticsManager'
p407
sg19
Nsbasg16
NsS'module'
p408
g1
(cmojom.parse.ast
Module
p409
g3
NtRp410
(dp411
S'mojom_namespace'
p412
(S'IDENTIFIER'
p413
S'device.mojom'
tp414
sg16
I5
sg15
Nsg19
g20
sbsg19
Nsb.