ccopy_reg
_reconstructor
p1
(cmojom.parse.ast
Mojom
p2
c__builtin__
object
p3
NtRp4
(dp5
S'import_list'
p6
g1
(cmojom.parse.ast
ImportList
p7
g3
NtRp8
(dp9
S'items'
p10
(lp11
g1
(cmojom.parse.ast
Import
p12
g3
NtRp13
(dp14
S'attribute_list'
p15
NsS'lineno'
p16
I7
sS'import_filename'
p17
S'media/capture/mojom/video_capture_types.mojom'
p18
sS'filename'
p19
S'../../media/capture/mojom/video_capture.mojom'
p20
sbag1
(g12
g3
NtRp21
(dp22
g15
Nsg16
I8
sg17
S'ui/gfx/geometry/mojo/geometry.mojom'
p23
sg19
g20
sbasg16
I7
sg19
g20
sbsS'definition_list'
p24
(lp25
g1
(cmojom.parse.ast
Enum
p26
g3
NtRp27
(dp28
g15
NsS'enum_value_list'
p29
g1
(cmojom.parse.ast
EnumValueList
p30
g3
NtRp31
(dp32
g10
(lp33
g1
(cmojom.parse.ast
EnumValue
p34
g3
NtRp35
(dp36
g15
NsS'value'
p37
Nsg16
I52
sS'mojom_name'
p38
S'STARTED'
p39
sg19
g20
sbag1
(g34
g3
NtRp40
(dp41
g15
Nsg37
Nsg16
I53
sg38
S'PAUSED'
p42
sg19
g20
sbag1
(g34
g3
NtRp43
(dp44
g15
Nsg37
Nsg16
I54
sg38
S'RESUMED'
p45
sg19
g20
sbag1
(g34
g3
NtRp46
(dp47
g15
Nsg37
Nsg16
I55
sg38
S'STOPPED'
p48
sg19
g20
sbag1
(g34
g3
NtRp49
(dp50
g15
Nsg37
Nsg16
I56
sg38
S'FAILED'
p51
sg19
g20
sbag1
(g34
g3
NtRp52
(dp53
g15
Nsg37
Nsg16
I57
sg38
S'ENDED'
p54
sg19
g20
sbasg16
I52
sg19
g20
sbsg16
I51
sg38
S'VideoCaptureState'
p55
sg19
g20
sbag1
(cmojom.parse.ast
Interface
p56
g3
NtRp57
(dp58
S'body'
p59
g1
(cmojom.parse.ast
InterfaceBody
p60
g3
NtRp61
(dp62
g10
(lp63
g1
(cmojom.parse.ast
Method
p64
g3
NtRp65
(dp66
S'ordinal'
p67
Nsg38
S'OnStateChanged'
p68
sS'parameter_list'
p69
g1
(cmojom.parse.ast
ParameterList
p70
g3
NtRp71
(dp72
g10
(lp73
g1
(cmojom.parse.ast
Parameter
p74
g3
NtRp75
(dp76
g67
Nsg38
S'state'
p77
sg15
Nsg19
g20
sS'typename'
p78
S'VideoCaptureState'
p79
sg16
I64
sbasg16
I64
sg19
g20
sbsg15
Nsg19
Nsg16
NsS'response_parameter_list'
p80
Nsbag1
(g64
g3
NtRp81
(dp82
g67
Nsg38
S'OnNewBuffer'
p83
sg69
g1
(g70
g3
NtRp84
(dp85
g10
(lp86
g1
(g74
g3
NtRp87
(dp88
g67
Nsg38
S'buffer_id'
p89
sg15
Nsg19
g20
sg78
S'int32'
p90
sg16
I69
sbag1
(g74
g3
NtRp91
(dp92
g67
Nsg38
S'buffer_handle'
p93
sg15
Nsg19
g20
sg78
S'media.mojom.VideoBufferHandle'
p94
sg16
I69
sbasg16
I69
sg19
g20
sbsg15
Nsg19
Nsg16
Nsg80
Nsbag1
(g64
g3
NtRp95
(dp96
g67
Nsg38
S'OnBufferReady'
p97
sg69
g1
(g70
g3
NtRp98
(dp99
g10
(lp100
g1
(g74
g3
NtRp101
(dp102
g67
Nsg38
S'buffer_id'
p103
sg15
Nsg19
g20
sg78
S'int32'
p104
sg16
I73
sbag1
(g74
g3
NtRp105
(dp106
g67
Nsg38
S'info'
p107
sg15
Nsg19
g20
sg78
S'VideoFrameInfo'
p108
sg16
I73
sbasg16
I73
sg19
g20
sbsg15
Nsg19
Nsg16
Nsg80
Nsbag1
(g64
g3
NtRp109
(dp110
g67
Nsg38
S'OnBufferDestroyed'
p111
sg69
g1
(g70
g3
NtRp112
(dp113
g10
(lp114
g1
(g74
g3
NtRp115
(dp116
g67
Nsg38
S'buffer_id'
p117
sg15
Nsg19
g20
sg78
S'int32'
p118
sg16
I77
sbasg16
I77
sg19
g20
sbsg15
Nsg19
Nsg16
Nsg80
Nsbasg16
Nsg19
Nsbsg15
Nsg16
Nsg38
S'VideoCaptureObserver'
p119
sg19
Nsbag1
(g56
g3
NtRp120
(dp121
g59
g1
(g60
g3
NtRp122
(dp123
g10
(lp124
g1
(g64
g3
NtRp125
(dp126
g67
Nsg38
S'Start'
p127
sg69
g1
(g70
g3
NtRp128
(dp129
g10
(lp130
g1
(g74
g3
NtRp131
(dp132
g67
Nsg38
S'device_id'
p133
sg15
Nsg19
g20
sg78
S'int32'
p134
sg16
I84
sbag1
(g74
g3
NtRp135
(dp136
g67
Nsg38
S'session_id'
p137
sg15
Nsg19
g20
sg78
S'int32'
p138
sg16
I84
sbag1
(g74
g3
NtRp139
(dp140
g67
Nsg38
S'params'
p141
sg15
Nsg19
g20
sg78
S'VideoCaptureParams'
p142
sg16
I84
sbag1
(g74
g3
NtRp143
(dp144
g67
Nsg38
S'observer'
p145
sg15
Nsg19
g20
sg78
S'VideoCaptureObserver'
p146
sg16
I85
sbasg16
I84
sg19
g20
sbsg15
Nsg19
Nsg16
Nsg80
Nsbag1
(g64
g3
NtRp147
(dp148
g67
Nsg38
S'Stop'
p149
sg69
g1
(g70
g3
NtRp150
(dp151
g10
(lp152
g1
(g74
g3
NtRp153
(dp154
g67
Nsg38
S'device_id'
p155
sg15
Nsg19
g20
sg78
S'int32'
p156
sg16
I88
sbasg16
I88
sg19
g20
sbsg15
Nsg19
Nsg16
Nsg80
Nsbag1
(g64
g3
NtRp157
(dp158
g67
Nsg38
S'Pause'
p159
sg69
g1
(g70
g3
NtRp160
(dp161
g10
(lp162
g1
(g74
g3
NtRp163
(dp164
g67
Nsg38
S'device_id'
p165
sg15
Nsg19
g20
sg78
S'int32'
p166
sg16
I91
sbasg16
I91
sg19
g20
sbsg15
Nsg19
Nsg16
Nsg80
Nsbag1
(g64
g3
NtRp167
(dp168
g67
Nsg38
S'Resume'
p169
sg69
g1
(g70
g3
NtRp170
(dp171
g10
(lp172
g1
(g74
g3
NtRp173
(dp174
g67
Nsg38
S'device_id'
p175
sg15
Nsg19
g20
sg78
S'int32'
p176
sg16
I94
sbag1
(g74
g3
NtRp177
(dp178
g67
Nsg38
S'session_id'
p179
sg15
Nsg19
g20
sg78
S'int32'
p180
sg16
I94
sbag1
(g74
g3
NtRp181
(dp182
g67
Nsg38
S'params'
p183
sg15
Nsg19
g20
sg78
S'VideoCaptureParams'
p184
sg16
I94
sbasg16
I94
sg19
g20
sbsg15
Nsg19
Nsg16
Nsg80
Nsbag1
(g64
g3
NtRp185
(dp186
g67
Nsg38
S'RequestRefreshFrame'
p187
sg69
g1
(g70
g3
NtRp188
(dp189
g10
(lp190
g1
(g74
g3
NtRp191
(dp192
g67
Nsg38
S'device_id'
p193
sg15
Nsg19
g20
sg78
S'int32'
p194
sg16
I98
sbasg16
I98
sg19
g20
sbsg15
Nsg19
Nsg16
Nsg80
Nsbag1
(g64
g3
NtRp195
(dp196
g67
Nsg38
S'ReleaseBuffer'
p197
sg69
g1
(g70
g3
NtRp198
(dp199
g10
(lp200
g1
(g74
g3
NtRp201
(dp202
g67
Nsg38
S'device_id'
p203
sg15
Nsg19
g20
sg78
S'int32'
p204
sg16
I101
sbag1
(g74
g3
NtRp205
(dp206
g67
Nsg38
S'buffer_id'
p207
sg15
Nsg19
g20
sg78
S'int32'
p208
sg16
I101
sbag1
(g74
g3
NtRp209
(dp210
g67
Nsg38
S'consumer_resource_utilization'
p211
sg15
Nsg19
g20
sg78
S'double'
p212
sg16
I102
sbasg16
I101
sg19
g20
sbsg15
Nsg19
Nsg16
Nsg80
Nsbag1
(g64
g3
NtRp213
(dp214
g67
Nsg38
S'GetDeviceSupportedFormats'
p215
sg69
g1
(g70
g3
NtRp216
(dp217
g10
(lp218
g1
(g74
g3
NtRp219
(dp220
g67
Nsg38
S'device_id'
p221
sg15
Nsg19
g20
sg78
S'int32'
p222
sg16
I105
sbag1
(g74
g3
NtRp223
(dp224
g67
Nsg38
S'session_id'
p225
sg15
Nsg19
g20
sg78
S'int32'
p226
sg16
I105
sbasg16
I105
sg19
g20
sbsg15
Nsg19
Nsg16
Nsg80
g1
(g70
g3
NtRp227
(dp228
g10
(lp229
g1
(g74
g3
NtRp230
(dp231
g67
Nsg38
S'formats_supported'
p232
sg15
Nsg19
g20
sg78
S'VideoCaptureFormat[]'
p233
sg16
I106
sbasg16
I106
sg19
g20
sbsbag1
(g64
g3
NtRp234
(dp235
g67
Nsg38
S'GetDeviceFormatsInUse'
p236
sg69
g1
(g70
g3
NtRp237
(dp238
g10
(lp239
g1
(g74
g3
NtRp240
(dp241
g67
Nsg38
S'device_id'
p242
sg15
Nsg19
g20
sg78
S'int32'
p243
sg16
I109
sbag1
(g74
g3
NtRp244
(dp245
g67
Nsg38
S'session_id'
p246
sg15
Nsg19
g20
sg78
S'int32'
p247
sg16
I109
sbasg16
I109
sg19
g20
sbsg15
Nsg19
Nsg16
Nsg80
g1
(g70
g3
NtRp248
(dp249
g10
(lp250
g1
(g74
g3
NtRp251
(dp252
g67
Nsg38
S'formats_in_use'
p253
sg15
Nsg19
g20
sg78
S'VideoCaptureFormat[]'
p254
sg16
I110
sbasg16
I110
sg19
g20
sbsbag1
(g64
g3
NtRp255
(dp256
g67
Nsg38
S'OnFrameDropped'
p257
sg69
g1
(g70
g3
NtRp258
(dp259
g10
(lp260
g1
(g74
g3
NtRp261
(dp262
g67
Nsg38
S'device_id'
p263
sg15
Nsg19
g20
sg78
S'int32'
p264
sg16
I113
sbag1
(g74
g3
NtRp265
(dp266
g67
Nsg38
S'reason'
p267
sg15
Nsg19
g20
sg78
S'media.mojom.VideoCaptureFrameDropReason'
p268
sg16
I114
sbasg16
I113
sg19
g20
sbsg15
Nsg19
Nsg16
Nsg80
Nsbag1
(g64
g3
NtRp269
(dp270
g67
Nsg38
S'OnLog'
p271
sg69
g1
(g70
g3
NtRp272
(dp273
g10
(lp274
g1
(g74
g3
NtRp275
(dp276
g67
Nsg38
S'device_id'
p277
sg15
Nsg19
g20
sg78
S'int32'
p278
sg16
I117
sbag1
(g74
g3
NtRp279
(dp280
g67
Nsg38
S'message'
p281
sg15
Nsg19
g20
sg78
S'string'
p282
sg16
I117
sbasg16
I117
sg19
g20
sbsg15
Nsg19
Nsg16
Nsg80
Nsbasg16
Nsg19
Nsbsg15
Nsg16
Nsg38
S'VideoCaptureHost'
p283
sg19
Nsbasg16
NsS'module'
p284
g1
(cmojom.parse.ast
Module
p285
g3
NtRp286
(dp287
S'mojom_namespace'
p288
(S'IDENTIFIER'
p289
S'media.mojom'
tp290
sg16
I5
sg15
Nsg19
g20
sbsg19
Nsb.