ccopy_reg
_reconstructor
p1
(cmojom.parse.ast
Mojom
p2
c__builtin__
object
p3
NtRp4
(dp5
S'import_list'
p6
g1
(cmojom.parse.ast
ImportList
p7
g3
NtRp8
(dp9
S'items'
p10
(lp11
g1
(cmojom.parse.ast
Import
p12
g3
NtRp13
(dp14
S'attribute_list'
p15
NsS'lineno'
p16
I7
sS'import_filename'
p17
S'gpu/ipc/common/mailbox_holder.mojom'
p18
sS'filename'
p19
S'../../media/capture/mojom/video_capture_types.mojom'
p20
sbag1
(g12
g3
NtRp21
(dp22
g15
Nsg16
I8
sg17
S'mojo/public/mojom/base/shared_memory.mojom'
p23
sg19
g20
sbag1
(g12
g3
NtRp24
(dp25
g15
Nsg16
I9
sg17
S'mojo/public/mojom/base/time.mojom'
p26
sg19
g20
sbag1
(g12
g3
NtRp27
(dp28
g15
Nsg16
I10
sg17
S'mojo/public/mojom/base/values.mojom'
p29
sg19
g20
sbag1
(g12
g3
NtRp30
(dp31
g15
Nsg16
I11
sg17
S'ui/gfx/geometry/mojo/geometry.mojom'
p32
sg19
g20
sbag1
(g12
g3
NtRp33
(dp34
g15
Nsg16
I12
sg17
S'ui/gfx/mojo/color_space.mojom'
p35
sg19
g20
sbasg16
I7
sg19
g20
sbsS'definition_list'
p36
(lp37
g1
(cmojom.parse.ast
Enum
p38
g3
NtRp39
(dp40
g15
NsS'enum_value_list'
p41
g1
(cmojom.parse.ast
EnumValueList
p42
g3
NtRp43
(dp44
g10
(lp45
g1
(cmojom.parse.ast
EnumValue
p46
g3
NtRp47
(dp48
g15
NsS'value'
p49
Nsg16
I15
sS'mojom_name'
p50
S'UNKNOWN'
p51
sg19
g20
sbag1
(g46
g3
NtRp52
(dp53
g15
Nsg49
Nsg16
I16
sg50
S'I420'
p54
sg19
g20
sbag1
(g46
g3
NtRp55
(dp56
g15
Nsg49
Nsg16
I17
sg50
S'YV12'
p57
sg19
g20
sbag1
(g46
g3
NtRp58
(dp59
g15
Nsg49
Nsg16
I18
sg50
S'I422'
p60
sg19
g20
sbag1
(g46
g3
NtRp61
(dp62
g15
Nsg49
Nsg16
I19
sg50
S'I420A'
p63
sg19
g20
sbag1
(g46
g3
NtRp64
(dp65
g15
Nsg49
Nsg16
I20
sg50
S'I444'
p66
sg19
g20
sbag1
(g46
g3
NtRp67
(dp68
g15
Nsg49
Nsg16
I21
sg50
S'NV12'
p69
sg19
g20
sbag1
(g46
g3
NtRp70
(dp71
g15
Nsg49
Nsg16
I22
sg50
S'NV21'
p72
sg19
g20
sbag1
(g46
g3
NtRp73
(dp74
g15
Nsg49
Nsg16
I23
sg50
S'UYVY'
p75
sg19
g20
sbag1
(g46
g3
NtRp76
(dp77
g15
Nsg49
Nsg16
I24
sg50
S'YUY2'
p78
sg19
g20
sbag1
(g46
g3
NtRp79
(dp80
g15
Nsg49
Nsg16
I25
sg50
S'ARGB'
p81
sg19
g20
sbag1
(g46
g3
NtRp82
(dp83
g15
Nsg49
Nsg16
I26
sg50
S'XRGB'
p84
sg19
g20
sbag1
(g46
g3
NtRp85
(dp86
g15
Nsg49
Nsg16
I27
sg50
S'RGB24'
p87
sg19
g20
sbag1
(g46
g3
NtRp88
(dp89
g15
Nsg49
Nsg16
I28
sg50
S'RGB32'
p90
sg19
g20
sbag1
(g46
g3
NtRp91
(dp92
g15
Nsg49
Nsg16
I29
sg50
S'MJPEG'
p93
sg19
g20
sbag1
(g46
g3
NtRp94
(dp95
g15
Nsg49
Nsg16
I30
sg50
S'MT21'
p96
sg19
g20
sbag1
(g46
g3
NtRp97
(dp98
g15
Nsg49
Nsg16
I31
sg50
S'YUV420P9'
p99
sg19
g20
sbag1
(g46
g3
NtRp100
(dp101
g15
Nsg49
Nsg16
I32
sg50
S'YUV420P10'
p102
sg19
g20
sbag1
(g46
g3
NtRp103
(dp104
g15
Nsg49
Nsg16
I33
sg50
S'YUV422P9'
p105
sg19
g20
sbag1
(g46
g3
NtRp106
(dp107
g15
Nsg49
Nsg16
I34
sg50
S'YUV422P10'
p108
sg19
g20
sbag1
(g46
g3
NtRp109
(dp110
g15
Nsg49
Nsg16
I35
sg50
S'YUV444P9'
p111
sg19
g20
sbag1
(g46
g3
NtRp112
(dp113
g15
Nsg49
Nsg16
I36
sg50
S'YUV444P10'
p114
sg19
g20
sbag1
(g46
g3
NtRp115
(dp116
g15
Nsg49
Nsg16
I37
sg50
S'YUV420P12'
p117
sg19
g20
sbag1
(g46
g3
NtRp118
(dp119
g15
Nsg49
Nsg16
I38
sg50
S'YUV422P12'
p120
sg19
g20
sbag1
(g46
g3
NtRp121
(dp122
g15
Nsg49
Nsg16
I39
sg50
S'YUV444P12'
p123
sg19
g20
sbag1
(g46
g3
NtRp124
(dp125
g15
Nsg49
Nsg16
I40
sg50
S'Y16'
p126
sg19
g20
sbag1
(g46
g3
NtRp127
(dp128
g15
Nsg49
Nsg16
I41
sg50
S'ABGR'
p129
sg19
g20
sbag1
(g46
g3
NtRp130
(dp131
g15
Nsg49
Nsg16
I42
sg50
S'XBGR'
p132
sg19
g20
sbag1
(g46
g3
NtRp133
(dp134
g15
Nsg49
Nsg16
I43
sg50
S'P016LE'
p135
sg19
g20
sbasg16
I15
sg19
g20
sbsg16
I14
sg50
S'VideoCapturePixelFormat'
p136
sg19
g20
sbag1
(g38
g3
NtRp137
(dp138
g15
Nsg41
g1
(g42
g3
NtRp139
(dp140
g10
(lp141
g1
(g46
g3
NtRp142
(dp143
g15
Nsg49
Nsg16
I47
sg50
S'FIXED_RESOLUTION'
p144
sg19
g20
sbag1
(g46
g3
NtRp145
(dp146
g15
Nsg49
Nsg16
I48
sg50
S'FIXED_ASPECT_RATIO'
p147
sg19
g20
sbag1
(g46
g3
NtRp148
(dp149
g15
Nsg49
Nsg16
I49
sg50
S'ANY_WITHIN_LIMIT'
p150
sg19
g20
sbasg16
I47
sg19
g20
sbsg16
I46
sg50
S'ResolutionChangePolicy'
p151
sg19
g20
sbag1
(g38
g3
NtRp152
(dp153
g15
Nsg41
g1
(g42
g3
NtRp154
(dp155
g10
(lp156
g1
(g46
g3
NtRp157
(dp158
g15
Nsg49
Nsg16
I53
sg50
S'DEFAULT'
p159
sg19
g20
sbag1
(g46
g3
NtRp160
(dp161
g15
Nsg49
Nsg16
I54
sg50
S'HZ_50'
p162
sg19
g20
sbag1
(g46
g3
NtRp163
(dp164
g15
Nsg49
Nsg16
I55
sg50
S'HZ_60'
p165
sg19
g20
sbasg16
I53
sg19
g20
sbsg16
I52
sg50
S'PowerLineFrequency'
p166
sg19
g20
sbag1
(g38
g3
NtRp167
(dp168
g15
Nsg41
g1
(g42
g3
NtRp169
(dp170
g10
(lp171
g1
(g46
g3
NtRp172
(dp173
g15
Nsg49
Nsg16
I59
sg50
S'NONE'
p174
sg19
g20
sbag1
(g46
g3
NtRp175
(dp176
g15
Nsg49
Nsg16
I60
sg50
S'USER'
p177
sg19
g20
sbag1
(g46
g3
NtRp178
(dp179
g15
Nsg49
Nsg16
I61
sg50
S'ENVIRONMENT'
p180
sg19
g20
sbasg16
I59
sg19
g20
sbsg16
I58
sg50
S'VideoFacingMode'
p181
sg19
g20
sbag1
(g38
g3
NtRp182
(dp183
g15
Nsg41
g1
(g42
g3
NtRp184
(dp185
g10
(lp186
g1
(g46
g3
NtRp187
(dp188
g15
Nsg49
Nsg16
I65
sg50
S'LINUX_V4L2_SINGLE_PLANE'
p189
sg19
g20
sbag1
(g46
g3
NtRp190
(dp191
g15
Nsg49
Nsg16
I66
sg50
S'WIN_MEDIA_FOUNDATION'
p192
sg19
g20
sbag1
(g46
g3
NtRp193
(dp194
g15
Nsg49
Nsg16
I67
sg50
S'WIN_MEDIA_FOUNDATION_SENSOR'
p195
sg19
g20
sbag1
(g46
g3
NtRp196
(dp197
g15
Nsg49
Nsg16
I68
sg50
S'WIN_DIRECT_SHOW'
p198
sg19
g20
sbag1
(g46
g3
NtRp199
(dp200
g15
Nsg49
Nsg16
I69
sg50
S'MACOSX_AVFOUNDATION'
p201
sg19
g20
sbag1
(g46
g3
NtRp202
(dp203
g15
Nsg49
Nsg16
I70
sg50
S'MACOSX_DECKLINK'
p204
sg19
g20
sbag1
(g46
g3
NtRp205
(dp206
g15
Nsg49
Nsg16
I71
sg50
S'ANDROID_API1'
p207
sg19
g20
sbag1
(g46
g3
NtRp208
(dp209
g15
Nsg49
Nsg16
I72
sg50
S'ANDROID_API2_LEGACY'
p210
sg19
g20
sbag1
(g46
g3
NtRp211
(dp212
g15
Nsg49
Nsg16
I73
sg50
S'ANDROID_API2_FULL'
p213
sg19
g20
sbag1
(g46
g3
NtRp214
(dp215
g15
Nsg49
Nsg16
I74
sg50
S'ANDROID_API2_LIMITED'
p216
sg19
g20
sbag1
(g46
g3
NtRp217
(dp218
g15
Nsg49
Nsg16
I75
sg50
S'VIRTUAL_DEVICE'
p219
sg19
g20
sbag1
(g46
g3
NtRp220
(dp221
g15
Nsg49
Nsg16
I76
sg50
S'UNKNOWN'
p222
sg19
g20
sbasg16
I65
sg19
g20
sbsg16
I64
sg50
S'VideoCaptureApi'
p223
sg19
g20
sbag1
(g38
g3
NtRp224
(dp225
g15
Nsg41
g1
(g42
g3
NtRp226
(dp227
g10
(lp228
g1
(g46
g3
NtRp229
(dp230
g15
Nsg49
Nsg16
I81
sg50
S'MACOSX_USB_OR_BUILT_IN'
p231
sg19
g20
sbag1
(g46
g3
NtRp232
(dp233
g15
Nsg49
Nsg16
I82
sg50
S'OTHER_TRANSPORT'
p234
sg19
g20
sbasg16
I81
sg19
g20
sbsg16
I79
sg50
S'VideoCaptureTransportType'
p235
sg19
g20
sbag1
(g38
g3
NtRp236
(dp237
g15
Nsg41
g1
(g42
g3
NtRp238
(dp239
g10
(lp240
g1
(g46
g3
NtRp241
(dp242
g15
Nsg49
Nsg16
I86
sg50
S'kSharedMemory'
p243
sg19
g20
sbag1
(g46
g3
NtRp244
(dp245
g15
Nsg49
Nsg16
I92
sg50
S'kSharedMemoryViaRawFileDescriptor'
p246
sg19
g20
sbag1
(g46
g3
NtRp247
(dp248
g15
Nsg49
Nsg16
I94
sg50
S'kMailboxHolder'
p249
sg19
g20
sbasg16
I86
sg19
g20
sbsg16
I85
sg50
S'VideoCaptureBufferType'
p250
sg19
g20
sbag1
(g38
g3
NtRp251
(dp252
g15
Nsg41
g1
(g42
g3
NtRp253
(dp254
g10
(lp255
g1
(g46
g3
NtRp256
(dp257
g15
Nsg49
Nsg16
I98
sg50
S'kNone'
p258
sg19
g20
sbag1
(g46
g3
NtRp259
(dp260
g15
Nsg49
Nsg16
I99
sg50
S'kVideoCaptureControllerInvalidOrUnsupportedVideoCaptureParametersRequested'
p261
sg19
g20
sbag1
(g46
g3
NtRp262
(dp263
g15
Nsg49
Nsg16
I100
sg50
S'kVideoCaptureControllerIsAlreadyInErrorState'
p264
sg19
g20
sbag1
(g46
g3
NtRp265
(dp266
g15
Nsg49
Nsg16
I101
sg50
S'kVideoCaptureManagerDeviceConnectionLost'
p267
sg19
g20
sbag1
(g46
g3
NtRp268
(dp269
g15
Nsg49
Nsg16
I102
sg50
S'kFrameSinkVideoCaptureDeviceAleradyEndedOnFatalError'
p270
sg19
g20
sbag1
(g46
g3
NtRp271
(dp272
g15
Nsg49
Nsg16
I103
sg50
S'kFrameSinkVideoCaptureDeviceEncounteredFatalError'
p273
sg19
g20
sbag1
(g46
g3
NtRp274
(dp275
g15
Nsg49
Nsg16
I104
sg50
S'kV4L2FailedToOpenV4L2DeviceDriverFile'
p276
sg19
g20
sbag1
(g46
g3
NtRp277
(dp278
g15
Nsg49
Nsg16
I105
sg50
S'kV4L2ThisIsNotAV4L2VideoCaptureDevice'
p279
sg19
g20
sbag1
(g46
g3
NtRp280
(dp281
g15
Nsg49
Nsg16
I106
sg50
S'kV4L2FailedToFindASupportedCameraFormat'
p282
sg19
g20
sbag1
(g46
g3
NtRp283
(dp284
g15
Nsg49
Nsg16
I107
sg50
S'kV4L2FailedToSetVideoCaptureFormat'
p285
sg19
g20
sbag1
(g46
g3
NtRp286
(dp287
g15
Nsg49
Nsg16
I108
sg50
S'kV4L2UnsupportedPixelFormat'
p288
sg19
g20
sbag1
(g46
g3
NtRp289
(dp290
g15
Nsg49
Nsg16
I109
sg50
S'kV4L2FailedToSetCameraFramerate'
p291
sg19
g20
sbag1
(g46
g3
NtRp292
(dp293
g15
Nsg49
Nsg16
I110
sg50
S'kV4L2ErrorRequestingMmapBuffers'
p294
sg19
g20
sbag1
(g46
g3
NtRp295
(dp296
g15
Nsg49
Nsg16
I111
sg50
S'kV4L2AllocateBufferFailed'
p297
sg19
g20
sbag1
(g46
g3
NtRp298
(dp299
g15
Nsg49
Nsg16
I112
sg50
S'kV4L2VidiocStreamonFailed'
p300
sg19
g20
sbag1
(g46
g3
NtRp301
(dp302
g15
Nsg49
Nsg16
I113
sg50
S'kV4L2VidiocStreamoffFailed'
p303
sg19
g20
sbag1
(g46
g3
NtRp304
(dp305
g15
Nsg49
Nsg16
I114
sg50
S'kV4L2FailedToVidiocReqbufsWithCount0'
p306
sg19
g20
sbag1
(g46
g3
NtRp307
(dp308
g15
Nsg49
Nsg16
I115
sg50
S'kV4L2PollFailed'
p309
sg19
g20
sbag1
(g46
g3
NtRp310
(dp311
g15
Nsg49
Nsg16
I116
sg50
S'kV4L2MultipleContinuousTimeoutsWhileReadPolling'
p312
sg19
g20
sbag1
(g46
g3
NtRp313
(dp314
g15
Nsg49
Nsg16
I117
sg50
S'kV4L2FailedToDequeueCaptureBuffer'
p315
sg19
g20
sbag1
(g46
g3
NtRp316
(dp317
g15
Nsg49
Nsg16
I118
sg50
S'kV4L2FailedToEnqueueCaptureBuffer'
p318
sg19
g20
sbag1
(g46
g3
NtRp319
(dp320
g15
Nsg49
Nsg16
I119
sg50
S'kSingleClientVideoCaptureHostLostConnectionToDevice'
p321
sg19
g20
sbag1
(g46
g3
NtRp322
(dp323
g15
Nsg49
Nsg16
I120
sg50
S'kSingleClientVideoCaptureDeviceLaunchAborted'
p324
sg19
g20
sbag1
(g46
g3
NtRp325
(dp326
g15
Nsg49
Nsg16
I121
sg50
S'kDesktopCaptureDeviceWebrtcDesktopCapturerHasFailed'
p327
sg19
g20
sbag1
(g46
g3
NtRp328
(dp329
g15
Nsg49
Nsg16
I122
sg50
S'kFileVideoCaptureDeviceCouldNotOpenVideoFile'
p330
sg19
g20
sbag1
(g46
g3
NtRp331
(dp332
g15
Nsg49
Nsg16
I123
sg50
S'kDeviceCaptureLinuxFailedToCreateVideoCaptureDelegate'
p333
sg19
g20
sbag1
(g46
g3
NtRp334
(dp335
g15
Nsg49
Nsg16
I124
sg50
S'kErrorFakeDeviceIntentionallyEmittingErrorEvent'
p336
sg19
g20
sbag1
(g46
g3
NtRp337
(dp338
g15
Nsg49
Nsg16
I125
sg50
S'kDeviceClientTooManyFramesDroppedY16'
p339
sg19
g20
sbag1
(g46
g3
NtRp340
(dp341
g15
Nsg49
Nsg16
I126
sg50
S'kDeviceMediaToMojoAdapterEncounteredUnsupportedBufferType'
p342
sg19
g20
sbag1
(g46
g3
NtRp343
(dp344
g15
Nsg49
Nsg16
I127
sg50
S'kVideoCaptureManagerProcessDeviceStartQueueDeviceInfoNotFound'
p345
sg19
g20
sbag1
(g46
g3
NtRp346
(dp347
g15
Nsg49
Nsg16
I128
sg50
S'kInProcessDeviceLauncherFailedToCreateDeviceInstance'
p348
sg19
g20
sbag1
(g46
g3
NtRp349
(dp350
g15
Nsg49
Nsg16
I129
sg50
S'kServiceDeviceLauncherLostConnectionToDeviceFactoryDuringDeviceStart'
p351
sg19
g20
sbag1
(g46
g3
NtRp352
(dp353
g15
Nsg49
Nsg16
I130
sg50
S'kServiceDeviceLauncherServiceRespondedWithDeviceNotFound'
p354
sg19
g20
sbag1
(g46
g3
NtRp355
(dp356
g15
Nsg49
Nsg16
I131
sg50
S'kServiceDeviceLauncherConnectionLostWhileWaitingForCallback'
p357
sg19
g20
sbag1
(g46
g3
NtRp358
(dp359
g15
Nsg49
Nsg16
I132
sg50
S'kIntentionalErrorRaisedByUnitTest'
p360
sg19
g20
sbag1
(g46
g3
NtRp361
(dp362
g15
Nsg49
Nsg16
I133
sg50
S'kCrosHalV3FailedToStartDeviceThread'
p363
sg19
g20
sbag1
(g46
g3
NtRp364
(dp365
g15
Nsg49
Nsg16
I134
sg50
S'kCrosHalV3DeviceDelegateMojoConnectionError'
p366
sg19
g20
sbag1
(g46
g3
NtRp367
(dp368
g15
Nsg49
Nsg16
I135
sg50
S'kCrosHalV3DeviceDelegateFailedToGetCameraInfo'
p369
sg19
g20
sbag1
(g46
g3
NtRp370
(dp371
g15
Nsg49
Nsg16
I136
sg50
S'kCrosHalV3DeviceDelegateMissingSensorOrientationInfo'
p372
sg19
g20
sbag1
(g46
g3
NtRp373
(dp374
g15
Nsg49
Nsg16
I137
sg50
S'kCrosHalV3DeviceDelegateFailedToOpenCameraDevice'
p375
sg19
g20
sbag1
(g46
g3
NtRp376
(dp377
g15
Nsg49
Nsg16
I138
sg50
S'kCrosHalV3DeviceDelegateFailedToInitializeCameraDevice'
p378
sg19
g20
sbag1
(g46
g3
NtRp379
(dp380
g15
Nsg49
Nsg16
I139
sg50
S'kCrosHalV3DeviceDelegateFailedToConfigureStreams'
p381
sg19
g20
sbag1
(g46
g3
NtRp382
(dp383
g15
Nsg49
Nsg16
I140
sg50
S'kCrosHalV3DeviceDelegateWrongNumberOfStreamsConfigured'
p384
sg19
g20
sbag1
(g46
g3
NtRp385
(dp386
g15
Nsg49
Nsg16
I141
sg50
S'kCrosHalV3DeviceDelegateFailedToGetDefaultRequestSettings'
p387
sg19
g20
sbag1
(g46
g3
NtRp388
(dp389
g15
Nsg49
Nsg16
I142
sg50
S'kCrosHalV3BufferManagerHalRequestedTooManyBuffers'
p390
sg19
g20
sbag1
(g46
g3
NtRp391
(dp392
g15
Nsg49
Nsg16
I143
sg50
S'kCrosHalV3BufferManagerFailedToCreateGpuMemoryBuffer'
p393
sg19
g20
sbag1
(g46
g3
NtRp394
(dp395
g15
Nsg49
Nsg16
I144
sg50
S'kCrosHalV3BufferManagerFailedToMapGpuMemoryBuffer'
p396
sg19
g20
sbag1
(g46
g3
NtRp397
(dp398
g15
Nsg49
Nsg16
I145
sg50
S'kCrosHalV3BufferManagerUnsupportedVideoPixelFormat'
p399
sg19
g20
sbag1
(g46
g3
NtRp400
(dp401
g15
Nsg49
Nsg16
I146
sg50
S'kCrosHalV3BufferManagerFailedToDupFd'
p402
sg19
g20
sbag1
(g46
g3
NtRp403
(dp404
g15
Nsg49
Nsg16
I147
sg50
S'kCrosHalV3BufferManagerFailedToWrapGpuMemoryHandle'
p405
sg19
g20
sbag1
(g46
g3
NtRp406
(dp407
g15
Nsg49
Nsg16
I148
sg50
S'kCrosHalV3BufferManagerFailedToRegisterBuffer'
p408
sg19
g20
sbag1
(g46
g3
NtRp409
(dp410
g15
Nsg49
Nsg16
I149
sg50
S'kCrosHalV3BufferManagerProcessCaptureRequestFailed'
p411
sg19
g20
sbag1
(g46
g3
NtRp412
(dp413
g15
Nsg49
Nsg16
I150
sg50
S'kCrosHalV3BufferManagerInvalidPendingResultId'
p414
sg19
g20
sbag1
(g46
g3
NtRp415
(dp416
g15
Nsg49
Nsg16
I151
sg50
S'kCrosHalV3BufferManagerReceivedDuplicatedPartialMetadata'
p417
sg19
g20
sbag1
(g46
g3
NtRp418
(dp419
g15
Nsg49
Nsg16
I152
sg50
S'kCrosHalV3BufferManagerIncorrectNumberOfOutputBuffersReceived'
p420
sg19
g20
sbag1
(g46
g3
NtRp421
(dp422
g15
Nsg49
Nsg16
I153
sg50
S'kCrosHalV3BufferManagerInvalidTypeOfOutputBuffersReceived'
p423
sg19
g20
sbag1
(g46
g3
NtRp424
(dp425
g15
Nsg49
Nsg16
I154
sg50
S'kCrosHalV3BufferManagerReceivedMultipleResultBuffersForFrame'
p426
sg19
g20
sbag1
(g46
g3
NtRp427
(dp428
g15
Nsg49
Nsg16
I155
sg50
S'kCrosHalV3BufferManagerUnknownStreamInCamera3NotifyMsg'
p429
sg19
g20
sbag1
(g46
g3
NtRp430
(dp431
g15
Nsg49
Nsg16
I156
sg50
S'kCrosHalV3BufferManagerReceivedInvalidShutterTime'
p432
sg19
g20
sbag1
(g46
g3
NtRp433
(dp434
g15
Nsg49
Nsg16
I157
sg50
S'kCrosHalV3BufferManagerFatalDeviceError'
p435
sg19
g20
sbag1
(g46
g3
NtRp436
(dp437
g15
Nsg49
Nsg16
I158
sg50
S'kCrosHalV3BufferManagerReceivedFrameIsOutOfOrder'
p438
sg19
g20
sbag1
(g46
g3
NtRp439
(dp440
g15
Nsg49
Nsg16
I159
sg50
S'kCrosHalV3BufferManagerFailedToUnwrapReleaseFenceFd'
p441
sg19
g20
sbag1
(g46
g3
NtRp442
(dp443
g15
Nsg49
Nsg16
I160
sg50
S'kCrosHalV3BufferManagerSyncWaitOnReleaseFenceTimedOut'
p444
sg19
g20
sbag1
(g46
g3
NtRp445
(dp446
g15
Nsg49
Nsg16
I161
sg50
S'kCrosHalV3BufferManagerInvalidJpegBlob'
p447
sg19
g20
sbag1
(g46
g3
NtRp448
(dp449
g15
Nsg49
Nsg16
I162
sg50
S'kAndroidFailedToAllocate'
p450
sg19
g20
sbag1
(g46
g3
NtRp451
(dp452
g15
Nsg49
Nsg16
I163
sg50
S'kAndroidFailedToStartCapture'
p453
sg19
g20
sbag1
(g46
g3
NtRp454
(dp455
g15
Nsg49
Nsg16
I164
sg50
S'kAndroidFailedToStopCapture'
p456
sg19
g20
sbag1
(g46
g3
NtRp457
(dp458
g15
Nsg49
Nsg16
I165
sg50
S'kAndroidApi1CameraErrorCallbackReceived'
p459
sg19
g20
sbag1
(g46
g3
NtRp460
(dp461
g15
Nsg49
Nsg16
I166
sg50
S'kAndroidApi2CameraDeviceErrorReceived'
p462
sg19
g20
sbag1
(g46
g3
NtRp463
(dp464
g15
Nsg49
Nsg16
I167
sg50
S'kAndroidApi2CaptureSessionConfigureFailed'
p465
sg19
g20
sbag1
(g46
g3
NtRp466
(dp467
g15
Nsg49
Nsg16
I168
sg50
S'kAndroidApi2ImageReaderUnexpectedImageFormat'
p468
sg19
g20
sbag1
(g46
g3
NtRp469
(dp470
g15
Nsg49
Nsg16
I169
sg50
S'kAndroidApi2ImageReaderSizeDidNotMatchImageSize'
p471
sg19
g20
sbag1
(g46
g3
NtRp472
(dp473
g15
Nsg49
Nsg16
I170
sg50
S'kAndroidApi2ErrorRestartingPreview'
p474
sg19
g20
sbag1
(g46
g3
NtRp475
(dp476
g15
Nsg49
Nsg16
I171
sg50
S'kAndroidScreenCaptureUnsupportedFormat'
p477
sg19
g20
sbag1
(g46
g3
NtRp478
(dp479
g15
Nsg49
Nsg16
I172
sg50
S'kAndroidScreenCaptureFailedToStartCaptureMachine'
p480
sg19
g20
sbag1
(g46
g3
NtRp481
(dp482
g15
Nsg49
Nsg16
I173
sg50
S'kAndroidScreenCaptureTheUserDeniedScreenCapture'
p483
sg19
g20
sbag1
(g46
g3
NtRp484
(dp485
g15
Nsg49
Nsg16
I174
sg50
S'kAndroidScreenCaptureFailedToStartScreenCapture'
p486
sg19
g20
sbag1
(g46
g3
NtRp487
(dp488
g15
Nsg49
Nsg16
I175
sg50
S'kWinDirectShowCantGetCaptureFormatSettings'
p489
sg19
g20
sbag1
(g46
g3
NtRp490
(dp491
g15
Nsg49
Nsg16
I176
sg50
S'kWinDirectShowFailedToGetNumberOfCapabilities'
p492
sg19
g20
sbag1
(g46
g3
NtRp493
(dp494
g15
Nsg49
Nsg16
I177
sg50
S'kWinDirectShowFailedToGetCaptureDeviceCapabilities'
p495
sg19
g20
sbag1
(g46
g3
NtRp496
(dp497
g15
Nsg49
Nsg16
I178
sg50
S'kWinDirectShowFailedToSetCaptureDeviceOutputFormat'
p498
sg19
g20
sbag1
(g46
g3
NtRp499
(dp500
g15
Nsg49
Nsg16
I179
sg50
S'kWinDirectShowFailedToConnectTheCaptureGraph'
p501
sg19
g20
sbag1
(g46
g3
NtRp502
(dp503
g15
Nsg49
Nsg16
I180
sg50
S'kWinDirectShowFailedToPauseTheCaptureDevice'
p504
sg19
g20
sbag1
(g46
g3
NtRp505
(dp506
g15
Nsg49
Nsg16
I181
sg50
S'kWinDirectShowFailedToStartTheCaptureDevice'
p507
sg19
g20
sbag1
(g46
g3
NtRp508
(dp509
g15
Nsg49
Nsg16
I182
sg50
S'kWinDirectShowFailedToStopTheCaptureGraph'
p510
sg19
g20
sbag1
(g46
g3
NtRp511
(dp512
g15
Nsg49
Nsg16
I183
sg50
S'kWinMediaFoundationEngineIsNull'
p513
sg19
g20
sbag1
(g46
g3
NtRp514
(dp515
g15
Nsg49
Nsg16
I184
sg50
S'kWinMediaFoundationEngineGetSourceFailed'
p516
sg19
g20
sbag1
(g46
g3
NtRp517
(dp518
g15
Nsg49
Nsg16
I185
sg50
S'kWinMediaFoundationFillPhotoCapabilitiesFailed'
p519
sg19
g20
sbag1
(g46
g3
NtRp520
(dp521
g15
Nsg49
Nsg16
I186
sg50
S'kWinMediaFoundationFillVideoCapabilitiesFailed'
p522
sg19
g20
sbag1
(g46
g3
NtRp523
(dp524
g15
Nsg49
Nsg16
I187
sg50
S'kWinMediaFoundationNoVideoCapabilityFound'
p525
sg19
g20
sbag1
(g46
g3
NtRp526
(dp527
g15
Nsg49
Nsg16
I188
sg50
S'kWinMediaFoundationGetAvailableDeviceMediaTypeFailed'
p528
sg19
g20
sbag1
(g46
g3
NtRp529
(dp530
g15
Nsg49
Nsg16
I189
sg50
S'kWinMediaFoundationSetCurrentDeviceMediaTypeFailed'
p531
sg19
g20
sbag1
(g46
g3
NtRp532
(dp533
g15
Nsg49
Nsg16
I190
sg50
S'kWinMediaFoundationEngineGetSinkFailed'
p534
sg19
g20
sbag1
(g46
g3
NtRp535
(dp536
g15
Nsg49
Nsg16
I191
sg50
S'kWinMediaFoundationSinkQueryCapturePreviewInterfaceFailed'
p537
sg19
g20
sbag1
(g46
g3
NtRp538
(dp539
g15
Nsg49
Nsg16
I192
sg50
S'kWinMediaFoundationSinkRemoveAllStreamsFailed'
p540
sg19
g20
sbag1
(g46
g3
NtRp541
(dp542
g15
Nsg49
Nsg16
I193
sg50
S'kWinMediaFoundationCreateSinkVideoMediaTypeFailed'
p543
sg19
g20
sbag1
(g46
g3
NtRp544
(dp545
g15
Nsg49
Nsg16
I194
sg50
S'kWinMediaFoundationConvertToVideoSinkMediaTypeFailed'
p546
sg19
g20
sbag1
(g46
g3
NtRp547
(dp548
g15
Nsg49
Nsg16
I195
sg50
S'kWinMediaFoundationSinkAddStreamFailed'
p549
sg19
g20
sbag1
(g46
g3
NtRp550
(dp551
g15
Nsg49
Nsg16
I196
sg50
S'kWinMediaFoundationSinkSetSampleCallbackFailed'
p552
sg19
g20
sbag1
(g46
g3
NtRp553
(dp554
g15
Nsg49
Nsg16
I197
sg50
S'kWinMediaFoundationEngineStartPreviewFailed'
p555
sg19
g20
sbag1
(g46
g3
NtRp556
(dp557
g15
Nsg49
Nsg16
I198
sg50
S'kWinMediaFoundationGetMediaEventStatusFailed'
p558
sg19
g20
sbag1
(g46
g3
NtRp559
(dp560
g15
Nsg49
Nsg16
I199
sg50
S'kMacSetCaptureDeviceFailed'
p561
sg19
g20
sbag1
(g46
g3
NtRp562
(dp563
g15
Nsg49
Nsg16
I200
sg50
S'kMacCouldNotStartCaptureDevice'
p564
sg19
g20
sbag1
(g46
g3
NtRp565
(dp566
g15
Nsg49
Nsg16
I201
sg50
S'kMacReceivedFrameWithUnexpectedResolution'
p567
sg19
g20
sbag1
(g46
g3
NtRp568
(dp569
g15
Nsg49
Nsg16
I202
sg50
S'kMacUpdateCaptureResolutionFailed'
p570
sg19
g20
sbag1
(g46
g3
NtRp571
(dp572
g15
Nsg49
Nsg16
I203
sg50
S'kMacDeckLinkDeviceIdNotFoundInTheSystem'
p573
sg19
g20
sbag1
(g46
g3
NtRp574
(dp575
g15
Nsg49
Nsg16
I204
sg50
S'kMacDeckLinkErrorQueryingInputInterface'
p576
sg19
g20
sbag1
(g46
g3
NtRp577
(dp578
g15
Nsg49
Nsg16
I205
sg50
S'kMacDeckLinkErrorCreatingDisplayModeIterator'
p579
sg19
g20
sbag1
(g46
g3
NtRp580
(dp581
g15
Nsg49
Nsg16
I206
sg50
S'kMacDeckLinkCouldNotFindADisplayMode'
p582
sg19
g20
sbag1
(g46
g3
NtRp583
(dp584
g15
Nsg49
Nsg16
I207
sg50
S'kMacDeckLinkCouldNotSelectTheVideoFormatWeLike'
p585
sg19
g20
sbag1
(g46
g3
NtRp586
(dp587
g15
Nsg49
Nsg16
I208
sg50
S'kMacDeckLinkCouldNotStartCapturing'
p588
sg19
g20
sbag1
(g46
g3
NtRp589
(dp590
g15
Nsg49
Nsg16
I209
sg50
S'kMacDeckLinkUnsupportedPixelFormat'
p591
sg19
g20
sbag1
(g46
g3
NtRp592
(dp593
g15
Nsg49
Nsg16
I210
sg50
S'kMacAvFoundationReceivedAVCaptureSessionRuntimeErrorNotification'
p594
sg19
g20
sbag1
(g46
g3
NtRp595
(dp596
g15
Nsg49
Nsg16
I211
sg50
S'kAndroidApi2ErrorConfiguringCamera'
p597
sg19
g20
sbag1
(g46
g3
NtRp598
(dp599
g15
Nsg49
Nsg16
I212
sg50
S'kCrosHalV3DeviceDelegateFailedToFlush'
p600
sg19
g20
sbasg16
I98
sg19
g20
sbsg16
I97
sg50
S'VideoCaptureError'
p601
sg19
g20
sbag1
(g38
g3
NtRp602
(dp603
g15
Nsg41
g1
(g42
g3
NtRp604
(dp605
g10
(lp606
g1
(g46
g3
NtRp607
(dp608
g15
Nsg49
Nsg16
I216
sg50
S'kNone'
p609
sg19
g20
sbag1
(g46
g3
NtRp610
(dp611
g15
Nsg49
Nsg16
I217
sg50
S'kDeviceClientFrameHasInvalidFormat'
p612
sg19
g20
sbag1
(g46
g3
NtRp613
(dp614
g15
Nsg49
Nsg16
I218
sg50
S'kDeviceClientLibyuvConvertToI420Failed'
p615
sg19
g20
sbag1
(g46
g3
NtRp616
(dp617
g15
Nsg49
Nsg16
I219
sg50
S'kV4L2BufferErrorFlagWasSet'
p618
sg19
g20
sbag1
(g46
g3
NtRp619
(dp620
g15
Nsg49
Nsg16
I220
sg50
S'kV4L2InvalidNumberOfBytesInBuffer'
p621
sg19
g20
sbag1
(g46
g3
NtRp622
(dp623
g15
Nsg49
Nsg16
I221
sg50
S'kAndroidThrottling'
p624
sg19
g20
sbag1
(g46
g3
NtRp625
(dp626
g15
Nsg49
Nsg16
I222
sg50
S'kAndroidGetByteArrayElementsFailed'
p627
sg19
g20
sbag1
(g46
g3
NtRp628
(dp629
g15
Nsg49
Nsg16
I223
sg50
S'kAndroidApi1UnexpectedDataLength'
p630
sg19
g20
sbag1
(g46
g3
NtRp631
(dp632
g15
Nsg49
Nsg16
I224
sg50
S'kAndroidApi2AcquiredImageIsNull'
p633
sg19
g20
sbag1
(g46
g3
NtRp634
(dp635
g15
Nsg49
Nsg16
I225
sg50
S'kWinDirectShowUnexpectedSampleLength'
p636
sg19
g20
sbag1
(g46
g3
NtRp637
(dp638
g15
Nsg49
Nsg16
I226
sg50
S'kWinDirectShowFailedToGetMemoryPointerFromMediaSample'
p639
sg19
g20
sbag1
(g46
g3
NtRp640
(dp641
g15
Nsg49
Nsg16
I227
sg50
S'kWinMediaFoundationReceivedSampleIsNull'
p642
sg19
g20
sbag1
(g46
g3
NtRp643
(dp644
g15
Nsg49
Nsg16
I228
sg50
S'kWinMediaFoundationLockingBufferDelieveredNullptr'
p645
sg19
g20
sbag1
(g46
g3
NtRp646
(dp647
g15
Nsg49
Nsg16
I229
sg50
S'kWinMediaFoundationGetBufferByIndexReturnedNull'
p648
sg19
g20
sbag1
(g46
g3
NtRp649
(dp650
g15
Nsg49
Nsg16
I230
sg50
S'kBufferPoolMaxBufferCountExceeded'
p651
sg19
g20
sbag1
(g46
g3
NtRp652
(dp653
g15
Nsg49
Nsg16
I231
sg50
S'kBufferPoolBufferAllocationFailed'
p654
sg19
g20
sbag1
(g46
g3
NtRp655
(dp656
g15
Nsg49
Nsg16
I232
sg50
S'kVideoCaptureImplNotInStartedState'
p657
sg19
g20
sbag1
(g46
g3
NtRp658
(dp659
g15
Nsg49
Nsg16
I233
sg50
S'kVideoCaptureImplFailedToWrapDataAsMediaVideoFrame'
p660
sg19
g20
sbag1
(g46
g3
NtRp661
(dp662
g15
Nsg49
Nsg16
I234
sg50
S'kVideoTrackAdapterHasNoResolutionAdapters'
p663
sg19
g20
sbag1
(g46
g3
NtRp664
(dp665
g15
Nsg49
Nsg16
I235
sg50
S'kResolutionAdapterFrameIsNotValid'
p666
sg19
g20
sbag1
(g46
g3
NtRp667
(dp668
g15
Nsg49
Nsg16
I236
sg50
S'kResolutionAdapterWrappingFrameForCroppingFailed'
p669
sg19
g20
sbag1
(g46
g3
NtRp670
(dp671
g15
Nsg49
Nsg16
I237
sg50
S'kResolutionAdapterTimestampTooCloseToPrevious'
p672
sg19
g20
sbag1
(g46
g3
NtRp673
(dp674
g15
Nsg49
Nsg16
I238
sg50
S'kResolutionAdapterFrameRateIsHigherThanRequested'
p675
sg19
g20
sbag1
(g46
g3
NtRp676
(dp677
g15
Nsg49
Nsg16
I239
sg50
S'kResolutionAdapterHasNoCallbacks'
p678
sg19
g20
sbag1
(g46
g3
NtRp679
(dp680
g15
Nsg49
Nsg16
I240
sg50
S'kVideoTrackFrameDelivererNotEnabledReplacingWithBlackFrame'
p681
sg19
g20
sbag1
(g46
g3
NtRp682
(dp683
g15
Nsg49
Nsg16
I241
sg50
S'kRendererSinkFrameDelivererIsNotStarted'
p684
sg19
g20
sbasg16
I216
sg19
g20
sbsg16
I215
sg50
S'VideoCaptureFrameDropReason'
p685
sg19
g20
sbag1
(cmojom.parse.ast
Struct
p686
g3
NtRp687
(dp688
S'body'
p689
g1
(cmojom.parse.ast
StructBody
p690
g3
NtRp691
(dp692
g10
(lp693
g1
(cmojom.parse.ast
StructField
p694
g3
NtRp695
(dp696
S'ordinal'
p697
NsS'default_value'
p698
Nsg50
S'frame_size'
p699
sg15
Nsg19
NsS'typename'
p700
S'gfx.mojom.Size'
p701
sg16
Nsbag1
(g694
g3
NtRp702
(dp703
g697
Nsg698
Nsg50
S'frame_rate'
p704
sg15
Nsg19
Nsg700
S'float'
p705
sg16
Nsbag1
(g694
g3
NtRp706
(dp707
g697
Nsg698
Nsg50
S'pixel_format'
p708
sg15
Nsg19
Nsg700
S'VideoCapturePixelFormat'
p709
sg16
Nsbasg16
Nsg19
Nsbsg15
Nsg16
Nsg50
S'VideoCaptureFormat'
p710
sg19
Nsbag1
(g686
g3
NtRp711
(dp712
g689
g1
(g690
g3
NtRp713
(dp714
g10
(lp715
g1
(g694
g3
NtRp716
(dp717
g697
Nsg698
Nsg50
S'requested_format'
p718
sg15
Nsg19
Nsg700
S'VideoCaptureFormat'
p719
sg16
Nsbag1
(g694
g3
NtRp720
(dp721
g697
Nsg698
Nsg50
S'buffer_type'
p722
sg15
Nsg19
Nsg700
S'VideoCaptureBufferType'
p723
sg16
Nsbag1
(g694
g3
NtRp724
(dp725
g697
Nsg698
Nsg50
S'resolution_change_policy'
p726
sg15
Nsg19
Nsg700
S'ResolutionChangePolicy'
p727
sg16
Nsbag1
(g694
g3
NtRp728
(dp729
g697
Nsg698
Nsg50
S'power_line_frequency'
p730
sg15
Nsg19
Nsg700
S'PowerLineFrequency'
p731
sg16
Nsbag1
(g694
g3
NtRp732
(dp733
g697
Nsg698
Nsg50
S'enable_face_detection'
p734
sg15
Nsg19
Nsg700
S'bool'
p735
sg16
Nsbasg16
Nsg19
Nsbsg15
Nsg16
Nsg50
S'VideoCaptureParams'
p736
sg19
Nsbag1
(g686
g3
NtRp737
(dp738
g689
g1
(g690
g3
NtRp739
(dp740
g10
(lp741
g1
(g694
g3
NtRp742
(dp743
g697
Nsg698
Nsg50
S'stride_by_plane'
p744
sg15
Nsg19
Nsg700
S'uint32[4]'
p745
sg16
Nsbasg16
Nsg19
Nsbsg15
Nsg16
Nsg50
S'PlaneStrides'
p746
sg19
Nsbag1
(g686
g3
NtRp747
(dp748
g689
g1
(g690
g3
NtRp749
(dp750
g10
(lp751
g1
(g694
g3
NtRp752
(dp753
g697
Nsg698
Nsg50
S'timestamp'
p754
sg15
Nsg19
Nsg700
S'mojo_base.mojom.TimeDelta'
p755
sg16
Nsbag1
(g694
g3
NtRp756
(dp757
g697
Nsg698
Nsg50
S'metadata'
p758
sg15
Nsg19
Nsg700
S'mojo_base.mojom.DictionaryValue'
p759
sg16
Nsbag1
(g694
g3
NtRp760
(dp761
g697
Nsg698
Nsg50
S'pixel_format'
p762
sg15
Nsg19
Nsg700
S'VideoCapturePixelFormat'
p763
sg16
Nsbag1
(g694
g3
NtRp764
(dp765
g697
Nsg698
Nsg50
S'coded_size'
p766
sg15
Nsg19
Nsg700
S'gfx.mojom.Size'
p767
sg16
Nsbag1
(g694
g3
NtRp768
(dp769
g697
Nsg698
Nsg50
S'visible_rect'
p770
sg15
Nsg19
Nsg700
S'gfx.mojom.Rect'
p771
sg16
Nsbag1
(g694
g3
NtRp772
(dp773
g697
Nsg698
Nsg50
S'color_space'
p774
sg15
Nsg19
Nsg700
S'gfx.mojom.ColorSpace?'
p775
sg16
Nsbag1
(g694
g3
NtRp776
(dp777
g697
Nsg698
Nsg50
S'strides'
p778
sg15
Nsg19
Nsg700
S'PlaneStrides?'
p779
sg16
Nsbasg16
Nsg19
Nsbsg15
Nsg16
Nsg50
S'VideoFrameInfo'
p780
sg19
Nsbag1
(g686
g3
NtRp781
(dp782
g689
g1
(g690
g3
NtRp783
(dp784
g10
(lp785
g1
(g694
g3
NtRp786
(dp787
g697
Nsg698
Nsg50
S'display_name'
p788
sg15
Nsg19
Nsg700
S'string'
p789
sg16
Nsbag1
(g694
g3
NtRp790
(dp791
g697
Nsg698
Nsg50
S'device_id'
p792
sg15
Nsg19
Nsg700
S'string'
p793
sg16
Nsbag1
(g694
g3
NtRp794
(dp795
g697
Nsg698
Nsg50
S'model_id'
p796
sg15
Nsg19
Nsg700
S'string'
p797
sg16
Nsbag1
(g694
g3
NtRp798
(dp799
g697
Nsg698
Nsg50
S'facing_mode'
p800
sg15
Nsg19
Nsg700
S'VideoFacingMode'
p801
sg16
Nsbag1
(g694
g3
NtRp802
(dp803
g697
Nsg698
Nsg50
S'capture_api'
p804
sg15
Nsg19
Nsg700
S'VideoCaptureApi'
p805
sg16
Nsbag1
(g694
g3
NtRp806
(dp807
g697
Nsg698
Nsg50
S'transport_type'
p808
sg15
Nsg19
Nsg700
S'VideoCaptureTransportType'
p809
sg16
Nsbasg16
Nsg19
Nsbsg15
Nsg16
Nsg50
S'VideoCaptureDeviceDescriptor'
p810
sg19
Nsbag1
(g686
g3
NtRp811
(dp812
g689
g1
(g690
g3
NtRp813
(dp814
g10
(lp815
g1
(g694
g3
NtRp816
(dp817
g697
Nsg698
Nsg50
S'descriptor'
p818
sg15
Nsg19
Nsg700
S'VideoCaptureDeviceDescriptor'
p819
sg16
Nsbag1
(g694
g3
NtRp820
(dp821
g697
Nsg698
Nsg50
S'supported_formats'
p822
sg15
Nsg19
Nsg700
S'VideoCaptureFormat[]'
p823
sg16
Nsbasg16
Nsg19
Nsbsg15
Nsg16
Nsg50
S'VideoCaptureDeviceInfo'
p824
sg19
Nsbag1
(g686
g3
NtRp825
(dp826
g689
g1
(g690
g3
NtRp827
(dp828
g10
(lp829
g1
(g694
g3
NtRp830
(dp831
g697
Nsg698
Nsg50
S'mailbox_holder'
p832
sg15
Nsg19
Nsg700
S'gpu.mojom.MailboxHolder[4]'
p833
sg16
Nsbasg16
Nsg19
Nsbsg15
Nsg16
Nsg50
S'MailboxBufferHandleSet'
p834
sg19
Nsbag1
(g686
g3
NtRp835
(dp836
g689
g1
(g690
g3
NtRp837
(dp838
g10
(lp839
g1
(g694
g3
NtRp840
(dp841
g697
Nsg698
Nsg50
S'file_descriptor_handle'
p842
sg15
Nsg19
Nsg700
S'handle'
p843
sg16
Nsbag1
(g694
g3
NtRp844
(dp845
g697
Nsg698
Nsg50
S'shared_memory_size_in_bytes'
p846
sg15
Nsg19
Nsg700
S'uint32'
p847
sg16
Nsbasg16
Nsg19
Nsbsg15
Nsg16
Nsg50
S'SharedMemoryViaRawFileDescriptor'
p848
sg19
Nsbag1
(cmojom.parse.ast
Union
p849
g3
NtRp850
(dp851
g689
g1
(cmojom.parse.ast
UnionBody
p852
g3
NtRp853
(dp854
g10
(lp855
g1
(cmojom.parse.ast
UnionField
p856
g3
NtRp857
(dp858
g697
Nsg50
S'shared_buffer_handle'
p859
sg15
Nsg19
Nsg700
S'handle<shared_buffer>'
p860
sg16
Nsbag1
(g856
g3
NtRp861
(dp862
g697
Nsg50
S'read_only_shmem_region'
p863
sg15
Nsg19
Nsg700
S'mojo_base.mojom.ReadOnlySharedMemoryRegion'
p864
sg16
Nsbag1
(g856
g3
NtRp865
(dp866
g697
Nsg50
S'shared_memory_via_raw_file_descriptor'
p867
sg15
Nsg19
Nsg700
S'SharedMemoryViaRawFileDescriptor'
p868
sg16
Nsbag1
(g856
g3
NtRp869
(dp870
g697
Nsg50
S'mailbox_handles'
p871
sg15
Nsg19
Nsg700
S'MailboxBufferHandleSet'
p872
sg16
Nsbasg16
Nsg19
Nsbsg15
Nsg16
Nsg50
S'VideoBufferHandle'
p873
sg19
Nsbasg16
NsS'module'
p874
g1
(cmojom.parse.ast
Module
p875
g3
NtRp876
(dp877
S'mojom_namespace'
p878
(S'IDENTIFIER'
p879
S'media.mojom'
tp880
sg16
I5
sg15
Nsg19
g20
sbsg19
Nsb.