ccopy_reg
_reconstructor
p1
(cmojom.parse.ast
Mojom
p2
c__builtin__
object
p3
NtRp4
(dp5
S'import_list'
p6
g1
(cmojom.parse.ast
ImportList
p7
g3
NtRp8
(dp9
S'items'
p10
(lp11
g1
(cmojom.parse.ast
Import
p12
g3
NtRp13
(dp14
S'attribute_list'
p15
NsS'lineno'
p16
I7
sS'import_filename'
p17
S'device/usb/public/mojom/device.mojom'
p18
sS'filename'
p19
S'../../device/usb/public/mojom/device_manager.mojom'
p20
sbag1
(g12
g3
NtRp21
(dp22
g15
Nsg16
I8
sg17
S'device/usb/public/mojom/device_enumeration_options.mojom'
p23
sg19
g20
sbag1
(g12
g3
NtRp24
(dp25
g15
Nsg16
I9
sg17
S'device/usb/public/mojom/device_manager_client.mojom'
p26
sg19
g20
sbag1
(g12
g3
NtRp27
(dp28
g15
Nsg16
I10
sg17
S'mojo/public/mojom/base/file.mojom'
p29
sg19
g20
sbasg16
I7
sg19
g20
sbsS'definition_list'
p30
(lp31
g1
(cmojom.parse.ast
Interface
p32
g3
NtRp33
(dp34
S'body'
p35
g1
(cmojom.parse.ast
InterfaceBody
p36
g3
NtRp37
(dp38
g10
(lp39
g1
(cmojom.parse.ast
Method
p40
g3
NtRp41
(dp42
S'ordinal'
p43
NsS'mojom_name'
p44
S'EnumerateDevicesAndSetClient'
p45
sS'parameter_list'
p46
g1
(cmojom.parse.ast
ParameterList
p47
g3
NtRp48
(dp49
g10
(lp50
g1
(cmojom.parse.ast
Parameter
p51
g3
NtRp52
(dp53
g43
Nsg44
S'client'
p54
sg15
Nsg19
g20
sS'typename'
p55
S'asso<UsbDeviceManagerClient>'
p56
sg16
I15
sbasg16
I15
sg19
g20
sbsg15
Nsg19
Nsg16
NsS'response_parameter_list'
p57
g1
(g47
g3
NtRp58
(dp59
g10
(lp60
g1
(g51
g3
NtRp61
(dp62
g43
Nsg44
S'results'
p63
sg15
Nsg19
g20
sg55
S'UsbDeviceInfo[]'
p64
sg16
I16
sbasg16
I16
sg19
g20
sbsbag1
(g40
g3
NtRp65
(dp66
g43
Nsg44
S'GetDevices'
p67
sg46
g1
(g47
g3
NtRp68
(dp69
g10
(lp70
g1
(g51
g3
NtRp71
(dp72
g43
Nsg44
S'options'
p73
sg15
Nsg19
g20
sg55
S'UsbEnumerationOptions?'
p74
sg16
I20
sbasg16
I20
sg19
g20
sbsg15
Nsg19
Nsg16
Nsg57
g1
(g47
g3
NtRp75
(dp76
g10
(lp77
g1
(g51
g3
NtRp78
(dp79
g43
Nsg44
S'results'
p80
sg15
Nsg19
g20
sg55
S'UsbDeviceInfo[]'
p81
sg16
I20
sbasg16
I20
sg19
g20
sbsbag1
(g40
g3
NtRp82
(dp83
g43
Nsg44
S'GetDevice'
p84
sg46
g1
(g47
g3
NtRp85
(dp86
g10
(lp87
g1
(g51
g3
NtRp88
(dp89
g43
Nsg44
S'guid'
p90
sg15
Nsg19
g20
sg55
S'string'
p91
sg16
I23
sbag1
(g51
g3
NtRp92
(dp93
g43
Nsg44
S'device_request'
p94
sg15
Nsg19
g20
sg55
S'UsbDevice&'
p95
sg16
I23
sbag1
(g51
g3
NtRp96
(dp97
g43
Nsg44
S'device_client'
p98
sg15
Nsg19
g20
sg55
S'UsbDeviceClient?'
p99
sg16
I24
sbasg16
I23
sg19
g20
sbsg15
Nsg19
Nsg16
Nsg57
Nsbag1
(g40
g3
NtRp100
(dp101
g43
Nsg44
S'SetClient'
p102
sg46
g1
(g47
g3
NtRp103
(dp104
g10
(lp105
g1
(g51
g3
NtRp106
(dp107
g43
Nsg44
S'client'
p108
sg15
Nsg19
g20
sg55
S'asso<UsbDeviceManagerClient>'
p109
sg16
I45
sbasg16
I45
sg19
g20
sbsg15
Nsg19
Nsg16
Nsg57
Nsbasg16
Nsg19
Nsbsg15
Nsg16
Nsg44
S'UsbDeviceManager'
p110
sg19
Nsbasg16
NsS'module'
p111
g1
(cmojom.parse.ast
Module
p112
g3
NtRp113
(dp114
S'mojom_namespace'
p115
(S'IDENTIFIER'
p116
S'device.mojom'
tp117
sg16
I5
sg15
Nsg19
g20
sbsg19
Nsb.