ccopy_reg
_reconstructor
p1
(cmojom.parse.ast
Mojom
p2
c__builtin__
object
p3
NtRp4
(dp5
S'import_list'
p6
g1
(cmojom.parse.ast
ImportList
p7
g3
NtRp8
(dp9
S'items'
p10
(lp11
g1
(cmojom.parse.ast
Import
p12
g3
NtRp13
(dp14
S'attribute_list'
p15
NsS'lineno'
p16
I7
sS'import_filename'
p17
S'mojo/public/mojom/base/string16.mojom'
p18
sS'filename'
p19
S'../../device/usb/public/mojom/device.mojom'
p20
sbag1
(g12
g3
NtRp21
(dp22
g15
Nsg16
I8
sg17
S'url/mojom/url.mojom'
p23
sg19
g20
sbasg16
I7
sg19
g20
sbsS'definition_list'
p24
(lp25
g1
(cmojom.parse.ast
Enum
p26
g3
NtRp27
(dp28
g15
NsS'enum_value_list'
p29
g1
(cmojom.parse.ast
EnumValueList
p30
g3
NtRp31
(dp32
g10
(lp33
g1
(cmojom.parse.ast
EnumValue
p34
g3
NtRp35
(dp36
g15
NsS'value'
p37
Nsg16
I12
sS'mojom_name'
p38
S'OK'
p39
sg19
g20
sbag1
(g34
g3
NtRp40
(dp41
g15
Nsg37
Nsg16
I15
sg38
S'ACCESS_DENIED'
p42
sg19
g20
sbag1
(g34
g3
NtRp43
(dp44
g15
Nsg37
Nsg16
I18
sg38
S'ALREADY_OPEN'
p45
sg19
g20
sbasg16
I12
sg19
g20
sbsg16
I10
sg38
S'UsbOpenDeviceError'
p46
sg19
g20
sbag1
(g26
g3
NtRp47
(dp48
g15
Nsg29
g1
(g30
g3
NtRp49
(dp50
g10
(lp51
g1
(g34
g3
NtRp52
(dp53
g15
Nsg37
S'0'
sg16
I23
sg38
S'INBOUND'
p54
sg19
g20
sbag1
(g34
g3
NtRp55
(dp56
g15
Nsg37
Nsg16
I24
sg38
S'OUTBOUND'
p57
sg19
g20
sbasg16
I23
sg19
g20
sbsg16
I22
sg38
S'UsbTransferDirection'
p58
sg19
g20
sbag1
(g26
g3
NtRp59
(dp60
g15
Nsg29
g1
(g30
g3
NtRp61
(dp62
g10
(lp63
g1
(g34
g3
NtRp64
(dp65
g15
Nsg37
Nsg16
I28
sg38
S'STANDARD'
p66
sg19
g20
sbag1
(g34
g3
NtRp67
(dp68
g15
Nsg37
Nsg16
I29
sg38
S'CLASS'
p69
sg19
g20
sbag1
(g34
g3
NtRp70
(dp71
g15
Nsg37
Nsg16
I30
sg38
S'VENDOR'
p72
sg19
g20
sbag1
(g34
g3
NtRp73
(dp74
g15
Nsg37
Nsg16
I31
sg38
S'RESERVED'
p75
sg19
g20
sbasg16
I28
sg19
g20
sbsg16
I27
sg38
S'UsbControlTransferType'
p76
sg19
g20
sbag1
(g26
g3
NtRp77
(dp78
g15
Nsg29
g1
(g30
g3
NtRp79
(dp80
g10
(lp81
g1
(g34
g3
NtRp82
(dp83
g15
Nsg37
Nsg16
I36
sg38
S'DEVICE'
p84
sg19
g20
sbag1
(g34
g3
NtRp85
(dp86
g15
Nsg37
Nsg16
I37
sg38
S'INTERFACE'
p87
sg19
g20
sbag1
(g34
g3
NtRp88
(dp89
g15
Nsg37
Nsg16
I38
sg38
S'ENDPOINT'
p90
sg19
g20
sbag1
(g34
g3
NtRp91
(dp92
g15
Nsg37
Nsg16
I39
sg38
S'OTHER'
p93
sg19
g20
sbasg16
I36
sg19
g20
sbsg16
I35
sg38
S'UsbControlTransferRecipient'
p94
sg19
g20
sbag1
(g26
g3
NtRp95
(dp96
g15
Nsg29
g1
(g30
g3
NtRp97
(dp98
g10
(lp99
g1
(g34
g3
NtRp100
(dp101
g15
Nsg37
S'0'
sg16
I43
sg38
S'CONTROL'
p102
sg19
g20
sbag1
(g34
g3
NtRp103
(dp104
g15
Nsg37
Nsg16
I44
sg38
S'ISOCHRONOUS'
p105
sg19
g20
sbag1
(g34
g3
NtRp106
(dp107
g15
Nsg37
Nsg16
I45
sg38
S'BULK'
p108
sg19
g20
sbag1
(g34
g3
NtRp109
(dp110
g15
Nsg37
Nsg16
I46
sg38
S'INTERRUPT'
p111
sg19
g20
sbasg16
I43
sg19
g20
sbsg16
I42
sg38
S'UsbTransferType'
p112
sg19
g20
sbag1
(g26
g3
NtRp113
(dp114
g15
Nsg29
g1
(g30
g3
NtRp115
(dp116
g10
(lp117
g1
(g34
g3
NtRp118
(dp119
g15
Nsg37
S'0'
sg16
I50
sg38
S'NONE'
p120
sg19
g20
sbag1
(g34
g3
NtRp121
(dp122
g15
Nsg37
Nsg16
I51
sg38
S'ASYNCHRONOUS'
p123
sg19
g20
sbag1
(g34
g3
NtRp124
(dp125
g15
Nsg37
Nsg16
I52
sg38
S'ADAPTIVE'
p126
sg19
g20
sbag1
(g34
g3
NtRp127
(dp128
g15
Nsg37
Nsg16
I53
sg38
S'SYNCHRONOUS'
p129
sg19
g20
sbasg16
I50
sg19
g20
sbsg16
I49
sg38
S'UsbSynchronizationType'
p130
sg19
g20
sbag1
(g26
g3
NtRp131
(dp132
g15
Nsg29
g1
(g30
g3
NtRp133
(dp134
g10
(lp135
g1
(g34
g3
NtRp136
(dp137
g15
Nsg37
S'0'
sg16
I58
sg38
S'DATA'
p138
sg19
g20
sbag1
(g34
g3
NtRp139
(dp140
g15
Nsg37
Nsg16
I59
sg38
S'FEEDBACK'
p141
sg19
g20
sbag1
(g34
g3
NtRp142
(dp143
g15
Nsg37
Nsg16
I60
sg38
S'EXPLICIT_FEEDBACK'
p144
sg19
g20
sbag1
(g34
g3
NtRp145
(dp146
g15
Nsg37
Nsg16
I62
sg38
S'PERIODIC'
p147
sg19
g20
sbag1
(g34
g3
NtRp148
(dp149
g15
Nsg37
Nsg16
I63
sg38
S'NOTIFICATION'
p150
sg19
g20
sbag1
(g34
g3
NtRp151
(dp152
g15
Nsg37
Nsg16
I65
sg38
S'RESERVED'
p153
sg19
g20
sbasg16
I58
sg19
g20
sbsg16
I56
sg38
S'UsbUsageType'
p154
sg19
g20
sbag1
(cmojom.parse.ast
Struct
p155
g3
NtRp156
(dp157
S'body'
p158
g1
(cmojom.parse.ast
StructBody
p159
g3
NtRp160
(dp161
g10
(lp162
g1
(cmojom.parse.ast
StructField
p163
g3
NtRp164
(dp165
S'ordinal'
p166
NsS'default_value'
p167
Nsg38
S'endpoint_number'
p168
sg15
Nsg19
NsS'typename'
p169
S'uint8'
p170
sg16
Nsbag1
(g163
g3
NtRp171
(dp172
g166
Nsg167
Nsg38
S'direction'
p173
sg15
Nsg19
Nsg169
S'UsbTransferDirection'
p174
sg16
Nsbag1
(g163
g3
NtRp175
(dp176
g166
Nsg167
Nsg38
S'type'
p177
sg15
Nsg19
Nsg169
S'UsbTransferType'
p178
sg16
Nsbag1
(g163
g3
NtRp179
(dp180
g166
Nsg167
Nsg38
S'packet_size'
p181
sg15
Nsg19
Nsg169
S'uint32'
p182
sg16
Nsbag1
(g163
g3
NtRp183
(dp184
g166
Nsg167
Nsg38
S'synchronization_type'
p185
sg15
Nsg19
Nsg169
S'UsbSynchronizationType'
p186
sg16
Nsbag1
(g163
g3
NtRp187
(dp188
g166
Nsg167
Nsg38
S'usage_type'
p189
sg15
Nsg19
Nsg169
S'UsbUsageType'
p190
sg16
Nsbag1
(g163
g3
NtRp191
(dp192
g166
Nsg167
Nsg38
S'polling_interval'
p193
sg15
Nsg19
Nsg169
S'uint8'
p194
sg16
Nsbag1
(g163
g3
NtRp195
(dp196
g166
Nsg167
Nsg38
S'extra_data'
p197
sg15
Nsg19
Nsg169
S'uint8[]'
p198
sg16
Nsbasg16
Nsg19
Nsbsg15
Nsg16
Nsg38
S'UsbEndpointInfo'
p199
sg19
Nsbag1
(g155
g3
NtRp200
(dp201
g158
g1
(g159
g3
NtRp202
(dp203
g10
(lp204
g1
(g163
g3
NtRp205
(dp206
g166
Nsg167
Nsg38
S'alternate_setting'
p207
sg15
Nsg19
Nsg169
S'uint8'
p208
sg16
Nsbag1
(g163
g3
NtRp209
(dp210
g166
Nsg167
Nsg38
S'class_code'
p211
sg15
Nsg19
Nsg169
S'uint8'
p212
sg16
Nsbag1
(g163
g3
NtRp213
(dp214
g166
Nsg167
Nsg38
S'subclass_code'
p215
sg15
Nsg19
Nsg169
S'uint8'
p216
sg16
Nsbag1
(g163
g3
NtRp217
(dp218
g166
Nsg167
Nsg38
S'protocol_code'
p219
sg15
Nsg19
Nsg169
S'uint8'
p220
sg16
Nsbag1
(g163
g3
NtRp221
(dp222
g166
Nsg167
Nsg38
S'interface_name'
p223
sg15
Nsg19
Nsg169
S'mojo_base.mojom.String16?'
p224
sg16
Nsbag1
(g163
g3
NtRp225
(dp226
g166
Nsg167
Nsg38
S'endpoints'
p227
sg15
Nsg19
Nsg169
S'UsbEndpointInfo[]'
p228
sg16
Nsbag1
(g163
g3
NtRp229
(dp230
g166
Nsg167
Nsg38
S'extra_data'
p231
sg15
Nsg19
Nsg169
S'uint8[]'
p232
sg16
Nsbasg16
Nsg19
Nsbsg15
Nsg16
Nsg38
S'UsbAlternateInterfaceInfo'
p233
sg19
Nsbag1
(g155
g3
NtRp234
(dp235
g158
g1
(g159
g3
NtRp236
(dp237
g10
(lp238
g1
(g163
g3
NtRp239
(dp240
g166
Nsg167
Nsg38
S'interface_number'
p241
sg15
Nsg19
Nsg169
S'uint8'
p242
sg16
Nsbag1
(g163
g3
NtRp243
(dp244
g166
Nsg167
Nsg38
S'alternates'
p245
sg15
Nsg19
Nsg169
S'UsbAlternateInterfaceInfo[]'
p246
sg16
Nsbasg16
Nsg19
Nsbsg15
Nsg16
Nsg38
S'UsbInterfaceInfo'
p247
sg19
Nsbag1
(g155
g3
NtRp248
(dp249
g158
g1
(g159
g3
NtRp250
(dp251
g10
(lp252
g1
(g163
g3
NtRp253
(dp254
g166
Nsg167
Nsg38
S'configuration_value'
p255
sg15
Nsg19
Nsg169
S'uint8'
p256
sg16
Nsbag1
(g163
g3
NtRp257
(dp258
g166
Nsg167
Nsg38
S'configuration_name'
p259
sg15
Nsg19
Nsg169
S'mojo_base.mojom.String16?'
p260
sg16
Nsbag1
(g163
g3
NtRp261
(dp262
g166
Nsg167
Nsg38
S'self_powered'
p263
sg15
Nsg19
Nsg169
S'bool'
p264
sg16
Nsbag1
(g163
g3
NtRp265
(dp266
g166
Nsg167
Nsg38
S'remote_wakeup'
p267
sg15
Nsg19
Nsg169
S'bool'
p268
sg16
Nsbag1
(g163
g3
NtRp269
(dp270
g166
Nsg167
Nsg38
S'maximum_power'
p271
sg15
Nsg19
Nsg169
S'uint8'
p272
sg16
Nsbag1
(g163
g3
NtRp273
(dp274
g166
Nsg167
Nsg38
S'interfaces'
p275
sg15
Nsg19
Nsg169
S'UsbInterfaceInfo[]'
p276
sg16
Nsbag1
(g163
g3
NtRp277
(dp278
g166
Nsg167
Nsg38
S'extra_data'
p279
sg15
Nsg19
Nsg169
S'uint8[]'
p280
sg16
Nsbasg16
Nsg19
Nsbsg15
Nsg16
Nsg38
S'UsbConfigurationInfo'
p281
sg19
Nsbag1
(g155
g3
NtRp282
(dp283
g158
g1
(g159
g3
NtRp284
(dp285
g10
(lp286
g1
(g163
g3
NtRp287
(dp288
g166
Nsg167
Nsg38
S'guid'
p289
sg15
Nsg19
Nsg169
S'string'
p290
sg16
Nsbag1
(g163
g3
NtRp291
(dp292
g166
Nsg167
Nsg38
S'usb_version_major'
p293
sg15
Nsg19
Nsg169
S'uint8'
p294
sg16
Nsbag1
(g163
g3
NtRp295
(dp296
g166
Nsg167
Nsg38
S'usb_version_minor'
p297
sg15
Nsg19
Nsg169
S'uint8'
p298
sg16
Nsbag1
(g163
g3
NtRp299
(dp300
g166
Nsg167
Nsg38
S'usb_version_subminor'
p301
sg15
Nsg19
Nsg169
S'uint8'
p302
sg16
Nsbag1
(g163
g3
NtRp303
(dp304
g166
Nsg167
Nsg38
S'class_code'
p305
sg15
Nsg19
Nsg169
S'uint8'
p306
sg16
Nsbag1
(g163
g3
NtRp307
(dp308
g166
Nsg167
Nsg38
S'subclass_code'
p309
sg15
Nsg19
Nsg169
S'uint8'
p310
sg16
Nsbag1
(g163
g3
NtRp311
(dp312
g166
Nsg167
Nsg38
S'protocol_code'
p313
sg15
Nsg19
Nsg169
S'uint8'
p314
sg16
Nsbag1
(g163
g3
NtRp315
(dp316
g166
Nsg167
Nsg38
S'bus_number'
p317
sg15
Nsg19
Nsg169
S'uint32'
p318
sg16
Nsbag1
(g163
g3
NtRp319
(dp320
g166
Nsg167
Nsg38
S'port_number'
p321
sg15
Nsg19
Nsg169
S'uint32'
p322
sg16
Nsbag1
(g163
g3
NtRp323
(dp324
g166
Nsg167
Nsg38
S'vendor_id'
p325
sg15
Nsg19
Nsg169
S'uint16'
p326
sg16
Nsbag1
(g163
g3
NtRp327
(dp328
g166
Nsg167
Nsg38
S'product_id'
p329
sg15
Nsg19
Nsg169
S'uint16'
p330
sg16
Nsbag1
(g163
g3
NtRp331
(dp332
g166
Nsg167
Nsg38
S'device_version_major'
p333
sg15
Nsg19
Nsg169
S'uint8'
p334
sg16
Nsbag1
(g163
g3
NtRp335
(dp336
g166
Nsg167
Nsg38
S'device_version_minor'
p337
sg15
Nsg19
Nsg169
S'uint8'
p338
sg16
Nsbag1
(g163
g3
NtRp339
(dp340
g166
Nsg167
Nsg38
S'device_version_subminor'
p341
sg15
Nsg19
Nsg169
S'uint8'
p342
sg16
Nsbag1
(g163
g3
NtRp343
(dp344
g166
Nsg167
Nsg38
S'manufacturer_name'
p345
sg15
Nsg19
Nsg169
S'mojo_base.mojom.String16?'
p346
sg16
Nsbag1
(g163
g3
NtRp347
(dp348
g166
Nsg167
Nsg38
S'product_name'
p349
sg15
Nsg19
Nsg169
S'mojo_base.mojom.String16?'
p350
sg16
Nsbag1
(g163
g3
NtRp351
(dp352
g166
Nsg167
Nsg38
S'serial_number'
p353
sg15
Nsg19
Nsg169
S'mojo_base.mojom.String16?'
p354
sg16
Nsbag1
(g163
g3
NtRp355
(dp356
g166
Nsg167
Nsg38
S'webusb_landing_page'
p357
sg15
Nsg19
Nsg169
S'url.mojom.Url?'
p358
sg16
Nsbag1
(g163
g3
NtRp359
(dp360
g166
Nsg167
Nsg38
S'active_configuration'
p361
sg15
Nsg19
Nsg169
S'uint8'
p362
sg16
Nsbag1
(g163
g3
NtRp363
(dp364
g166
Nsg167
Nsg38
S'configurations'
p365
sg15
Nsg19
Nsg169
S'UsbConfigurationInfo[]'
p366
sg16
Nsbasg16
Nsg19
Nsbsg15
Nsg16
Nsg38
S'UsbDeviceInfo'
p367
sg19
Nsbag1
(g155
g3
NtRp368
(dp369
g158
g1
(g159
g3
NtRp370
(dp371
g10
(lp372
g1
(g163
g3
NtRp373
(dp374
g166
Nsg167
Nsg38
S'type'
p375
sg15
Nsg19
Nsg169
S'UsbControlTransferType'
p376
sg16
Nsbag1
(g163
g3
NtRp377
(dp378
g166
Nsg167
Nsg38
S'recipient'
p379
sg15
Nsg19
Nsg169
S'UsbControlTransferRecipient'
p380
sg16
Nsbag1
(g163
g3
NtRp381
(dp382
g166
Nsg167
Nsg38
S'request'
p383
sg15
Nsg19
Nsg169
S'uint8'
p384
sg16
Nsbag1
(g163
g3
NtRp385
(dp386
g166
Nsg167
Nsg38
S'value'
p387
sg15
Nsg19
Nsg169
S'uint16'
p388
sg16
Nsbag1
(g163
g3
NtRp389
(dp390
g166
Nsg167
Nsg38
S'index'
p391
sg15
Nsg19
Nsg169
S'uint16'
p392
sg16
Nsbasg16
Nsg19
Nsbsg15
Nsg16
Nsg38
S'UsbControlTransferParams'
p393
sg19
Nsbag1
(g26
g3
NtRp394
(dp395
g15
Nsg29
g1
(g30
g3
NtRp396
(dp397
g10
(lp398
g1
(g34
g3
NtRp399
(dp400
g15
Nsg37
S'0'
sg16
I139
sg38
S'COMPLETED'
p401
sg19
g20
sbag1
(g34
g3
NtRp402
(dp403
g15
Nsg37
Nsg16
I142
sg38
S'TRANSFER_ERROR'
p404
sg19
g20
sbag1
(g34
g3
NtRp405
(dp406
g15
Nsg37
Nsg16
I145
sg38
S'TIMEOUT'
p407
sg19
g20
sbag1
(g34
g3
NtRp408
(dp409
g15
Nsg37
Nsg16
I148
sg38
S'CANCELLED'
p410
sg19
g20
sbag1
(g34
g3
NtRp411
(dp412
g15
Nsg37
Nsg16
I151
sg38
S'STALLED'
p413
sg19
g20
sbag1
(g34
g3
NtRp414
(dp415
g15
Nsg37
Nsg16
I154
sg38
S'DISCONNECT'
p416
sg19
g20
sbag1
(g34
g3
NtRp417
(dp418
g15
Nsg37
Nsg16
I158
sg38
S'BABBLE'
p419
sg19
g20
sbag1
(g34
g3
NtRp420
(dp421
g15
Nsg37
Nsg16
I162
sg38
S'SHORT_PACKET'
p422
sg19
g20
sbag1
(g34
g3
NtRp423
(dp424
g15
Nsg37
Nsg16
I165
sg38
S'PERMISSION_DENIED'
p425
sg19
g20
sbasg16
I139
sg19
g20
sbsg16
I137
sg38
S'UsbTransferStatus'
p426
sg19
g20
sbag1
(g155
g3
NtRp427
(dp428
g158
g1
(g159
g3
NtRp429
(dp430
g10
(lp431
g1
(g163
g3
NtRp432
(dp433
g166
Nsg167
Nsg38
S'length'
p434
sg15
Nsg19
Nsg169
S'uint32'
p435
sg16
Nsbag1
(g163
g3
NtRp436
(dp437
g166
Nsg167
Nsg38
S'transferred_length'
p438
sg15
Nsg19
Nsg169
S'uint32'
p439
sg16
Nsbag1
(g163
g3
NtRp440
(dp441
g166
Nsg167
Nsg38
S'status'
p442
sg15
Nsg19
Nsg169
S'UsbTransferStatus'
p443
sg16
Nsbasg16
Nsg19
Nsbsg15
Nsg16
Nsg38
S'UsbIsochronousPacket'
p444
sg19
Nsbag1
(cmojom.parse.ast
Interface
p445
g3
NtRp446
(dp447
g158
g1
(cmojom.parse.ast
InterfaceBody
p448
g3
NtRp449
(dp450
g10
(lp451
g1
(cmojom.parse.ast
Method
p452
g3
NtRp453
(dp454
g166
Nsg38
S'Open'
p455
sS'parameter_list'
p456
g1
(cmojom.parse.ast
ParameterList
p457
g3
NtRp458
(dp459
g10
(lp460
sg16
Nsg19
Nsbsg15
Nsg19
Nsg16
NsS'response_parameter_list'
p461
g1
(g457
g3
NtRp462
(dp463
g10
(lp464
g1
(cmojom.parse.ast
Parameter
p465
g3
NtRp466
(dp467
g166
Nsg38
S'error'
p468
sg15
Nsg19
g20
sg169
S'UsbOpenDeviceError'
p469
sg16
I176
sbasg16
I176
sg19
g20
sbsbag1
(g452
g3
NtRp470
(dp471
g166
Nsg38
S'Close'
p472
sg456
g1
(g457
g3
NtRp473
(dp474
g10
(lp475
sg16
Nsg19
Nsbsg15
Nsg19
Nsg16
Nsg461
g1
(g457
g3
NtRp476
(dp477
g10
(lp478
sg16
Nsg19
Nsbsbag1
(g452
g3
NtRp479
(dp480
g166
Nsg38
S'SetConfiguration'
p481
sg456
g1
(g457
g3
NtRp482
(dp483
g10
(lp484
g1
(g465
g3
NtRp485
(dp486
g166
Nsg38
S'value'
p487
sg15
Nsg19
g20
sg169
S'uint8'
p488
sg16
I183
sbasg16
I183
sg19
g20
sbsg15
Nsg19
Nsg16
Nsg461
g1
(g457
g3
NtRp489
(dp490
g10
(lp491
g1
(g465
g3
NtRp492
(dp493
g166
Nsg38
S'success'
p494
sg15
Nsg19
g20
sg169
S'bool'
p495
sg16
I183
sbasg16
I183
sg19
g20
sbsbag1
(g452
g3
NtRp496
(dp497
g166
Nsg38
S'ClaimInterface'
p498
sg456
g1
(g457
g3
NtRp499
(dp500
g10
(lp501
g1
(g465
g3
NtRp502
(dp503
g166
Nsg38
S'interface_number'
p504
sg15
Nsg19
g20
sg169
S'uint8'
p505
sg16
I186
sbasg16
I186
sg19
g20
sbsg15
Nsg19
Nsg16
Nsg461
g1
(g457
g3
NtRp506
(dp507
g10
(lp508
g1
(g465
g3
NtRp509
(dp510
g166
Nsg38
S'success'
p511
sg15
Nsg19
g20
sg169
S'bool'
p512
sg16
I186
sbasg16
I186
sg19
g20
sbsbag1
(g452
g3
NtRp513
(dp514
g166
Nsg38
S'ReleaseInterface'
p515
sg456
g1
(g457
g3
NtRp516
(dp517
g10
(lp518
g1
(g465
g3
NtRp519
(dp520
g166
Nsg38
S'interface_number'
p521
sg15
Nsg19
g20
sg169
S'uint8'
p522
sg16
I189
sbasg16
I189
sg19
g20
sbsg15
Nsg19
Nsg16
Nsg461
g1
(g457
g3
NtRp523
(dp524
g10
(lp525
g1
(g465
g3
NtRp526
(dp527
g166
Nsg38
S'success'
p528
sg15
Nsg19
g20
sg169
S'bool'
p529
sg16
I189
sbasg16
I189
sg19
g20
sbsbag1
(g452
g3
NtRp530
(dp531
g166
Nsg38
S'SetInterfaceAlternateSetting'
p532
sg456
g1
(g457
g3
NtRp533
(dp534
g10
(lp535
g1
(g465
g3
NtRp536
(dp537
g166
Nsg38
S'interface_number'
p538
sg15
Nsg19
g20
sg169
S'uint8'
p539
sg16
I192
sbag1
(g465
g3
NtRp540
(dp541
g166
Nsg38
S'alternate_setting'
p542
sg15
Nsg19
g20
sg169
S'uint8'
p543
sg16
I192
sbasg16
I192
sg19
g20
sbsg15
Nsg19
Nsg16
Nsg461
g1
(g457
g3
NtRp544
(dp545
g10
(lp546
g1
(g465
g3
NtRp547
(dp548
g166
Nsg38
S'success'
p549
sg15
Nsg19
g20
sg169
S'bool'
p550
sg16
I193
sbasg16
I193
sg19
g20
sbsbag1
(g452
g3
NtRp551
(dp552
g166
Nsg38
S'Reset'
p553
sg456
g1
(g457
g3
NtRp554
(dp555
g10
(lp556
sg16
Nsg19
Nsbsg15
Nsg19
Nsg16
Nsg461
g1
(g457
g3
NtRp557
(dp558
g10
(lp559
g1
(g465
g3
NtRp560
(dp561
g166
Nsg38
S'success'
p562
sg15
Nsg19
g20
sg169
S'bool'
p563
sg16
I196
sbasg16
I196
sg19
g20
sbsbag1
(g452
g3
NtRp564
(dp565
g166
Nsg38
S'ClearHalt'
p566
sg456
g1
(g457
g3
NtRp567
(dp568
g10
(lp569
g1
(g465
g3
NtRp570
(dp571
g166
Nsg38
S'endpoint'
p572
sg15
Nsg19
g20
sg169
S'uint8'
p573
sg16
I199
sbasg16
I199
sg19
g20
sbsg15
Nsg19
Nsg16
Nsg461
g1
(g457
g3
NtRp574
(dp575
g10
(lp576
g1
(g465
g3
NtRp577
(dp578
g166
Nsg38
S'success'
p579
sg15
Nsg19
g20
sg169
S'bool'
p580
sg16
I199
sbasg16
I199
sg19
g20
sbsbag1
(g452
g3
NtRp581
(dp582
g166
Nsg38
S'ControlTransferIn'
p583
sg456
g1
(g457
g3
NtRp584
(dp585
g10
(lp586
g1
(g465
g3
NtRp587
(dp588
g166
Nsg38
S'params'
p589
sg15
Nsg19
g20
sg169
S'UsbControlTransferParams'
p590
sg16
I212
sbag1
(g465
g3
NtRp591
(dp592
g166
Nsg38
S'length'
p593
sg15
Nsg19
g20
sg169
S'uint32'
p594
sg16
I213
sbag1
(g465
g3
NtRp595
(dp596
g166
Nsg38
S'timeout'
p597
sg15
Nsg19
g20
sg169
S'uint32'
p598
sg16
I214
sbasg16
I212
sg19
g20
sbsg15
Nsg19
Nsg16
Nsg461
g1
(g457
g3
NtRp599
(dp600
g10
(lp601
g1
(g465
g3
NtRp602
(dp603
g166
Nsg38
S'status'
p604
sg15
Nsg19
g20
sg169
S'UsbTransferStatus'
p605
sg16
I215
sbag1
(g465
g3
NtRp606
(dp607
g166
Nsg38
S'data'
p608
sg15
Nsg19
g20
sg169
S'uint8[]'
p609
sg16
I215
sbasg16
I215
sg19
g20
sbsbag1
(g452
g3
NtRp610
(dp611
g166
Nsg38
S'ControlTransferOut'
p612
sg456
g1
(g457
g3
NtRp613
(dp614
g10
(lp615
g1
(g465
g3
NtRp616
(dp617
g166
Nsg38
S'params'
p618
sg15
Nsg19
g20
sg169
S'UsbControlTransferParams'
p619
sg16
I226
sbag1
(g465
g3
NtRp620
(dp621
g166
Nsg38
S'data'
p622
sg15
Nsg19
g20
sg169
S'uint8[]'
p623
sg16
I227
sbag1
(g465
g3
NtRp624
(dp625
g166
Nsg38
S'timeout'
p626
sg15
Nsg19
g20
sg169
S'uint32'
p627
sg16
I228
sbasg16
I226
sg19
g20
sbsg15
Nsg19
Nsg16
Nsg461
g1
(g457
g3
NtRp628
(dp629
g10
(lp630
g1
(g465
g3
NtRp631
(dp632
g166
Nsg38
S'status'
p633
sg15
Nsg19
g20
sg169
S'UsbTransferStatus'
p634
sg16
I229
sbasg16
I229
sg19
g20
sbsbag1
(g452
g3
NtRp635
(dp636
g166
Nsg38
S'GenericTransferIn'
p637
sg456
g1
(g457
g3
NtRp638
(dp639
g10
(lp640
g1
(g465
g3
NtRp641
(dp642
g166
Nsg38
S'endpoint_number'
p643
sg15
Nsg19
g20
sg169
S'uint8'
p644
sg16
I244
sbag1
(g465
g3
NtRp645
(dp646
g166
Nsg38
S'length'
p647
sg15
Nsg19
g20
sg169
S'uint32'
p648
sg16
I244
sbag1
(g465
g3
NtRp649
(dp650
g166
Nsg38
S'timeout'
p651
sg15
Nsg19
g20
sg169
S'uint32'
p652
sg16
I244
sbasg16
I244
sg19
g20
sbsg15
Nsg19
Nsg16
Nsg461
g1
(g457
g3
NtRp653
(dp654
g10
(lp655
g1
(g465
g3
NtRp656
(dp657
g166
Nsg38
S'status'
p658
sg15
Nsg19
g20
sg169
S'UsbTransferStatus'
p659
sg16
I245
sbag1
(g465
g3
NtRp660
(dp661
g166
Nsg38
S'data'
p662
sg15
Nsg19
g20
sg169
S'uint8[]'
p663
sg16
I245
sbasg16
I245
sg19
g20
sbsbag1
(g452
g3
NtRp664
(dp665
g166
Nsg38
S'GenericTransferOut'
p666
sg456
g1
(g457
g3
NtRp667
(dp668
g10
(lp669
g1
(g465
g3
NtRp670
(dp671
g166
Nsg38
S'endpoint_number'
p672
sg15
Nsg19
g20
sg169
S'uint8'
p673
sg16
I258
sbag1
(g465
g3
NtRp674
(dp675
g166
Nsg38
S'data'
p676
sg15
Nsg19
g20
sg169
S'uint8[]'
p677
sg16
I258
sbag1
(g465
g3
NtRp678
(dp679
g166
Nsg38
S'timeout'
p680
sg15
Nsg19
g20
sg169
S'uint32'
p681
sg16
I258
sbasg16
I258
sg19
g20
sbsg15
Nsg19
Nsg16
Nsg461
g1
(g457
g3
NtRp682
(dp683
g10
(lp684
g1
(g465
g3
NtRp685
(dp686
g166
Nsg38
S'status'
p687
sg15
Nsg19
g20
sg169
S'UsbTransferStatus'
p688
sg16
I259
sbasg16
I259
sg19
g20
sbsbag1
(g452
g3
NtRp689
(dp690
g166
Nsg38
S'IsochronousTransferIn'
p691
sg456
g1
(g457
g3
NtRp692
(dp693
g10
(lp694
g1
(g465
g3
NtRp695
(dp696
g166
Nsg38
S'endpoint_number'
p697
sg15
Nsg19
g20
sg169
S'uint8'
p698
sg16
I279
sbag1
(g465
g3
NtRp699
(dp700
g166
Nsg38
S'packet_lengths'
p701
sg15
Nsg19
g20
sg169
S'uint32[]'
p702
sg16
I280
sbag1
(g465
g3
NtRp703
(dp704
g166
Nsg38
S'timeout'
p705
sg15
Nsg19
g20
sg169
S'uint32'
p706
sg16
I281
sbasg16
I279
sg19
g20
sbsg15
Nsg19
Nsg16
Nsg461
g1
(g457
g3
NtRp707
(dp708
g10
(lp709
g1
(g465
g3
NtRp710
(dp711
g166
Nsg38
S'data'
p712
sg15
Nsg19
g20
sg169
S'uint8[]'
p713
sg16
I282
sbag1
(g465
g3
NtRp714
(dp715
g166
Nsg38
S'packets'
p716
sg15
Nsg19
g20
sg169
S'UsbIsochronousPacket[]'
p717
sg16
I282
sbasg16
I282
sg19
g20
sbsbag1
(g452
g3
NtRp718
(dp719
g166
Nsg38
S'IsochronousTransferOut'
p720
sg456
g1
(g457
g3
NtRp721
(dp722
g10
(lp723
g1
(g465
g3
NtRp724
(dp725
g166
Nsg38
S'endpoint_number'
p726
sg15
Nsg19
g20
sg169
S'uint8'
p727
sg16
I300
sbag1
(g465
g3
NtRp728
(dp729
g166
Nsg38
S'data'
p730
sg15
Nsg19
g20
sg169
S'uint8[]'
p731
sg16
I301
sbag1
(g465
g3
NtRp732
(dp733
g166
Nsg38
S'packet_lengths'
p734
sg15
Nsg19
g20
sg169
S'uint32[]'
p735
sg16
I302
sbag1
(g465
g3
NtRp736
(dp737
g166
Nsg38
S'timeout'
p738
sg15
Nsg19
g20
sg169
S'uint32'
p739
sg16
I303
sbasg16
I300
sg19
g20
sbsg15
Nsg19
Nsg16
Nsg461
g1
(g457
g3
NtRp740
(dp741
g10
(lp742
g1
(g465
g3
NtRp743
(dp744
g166
Nsg38
S'packets'
p745
sg15
Nsg19
g20
sg169
S'UsbIsochronousPacket[]'
p746
sg16
I304
sbasg16
I304
sg19
g20
sbsbasg16
Nsg19
Nsbsg15
Nsg16
Nsg38
S'UsbDevice'
p747
sg19
Nsbag1
(g445
g3
NtRp748
(dp749
g158
g1
(g448
g3
NtRp750
(dp751
g10
(lp752
g1
(g452
g3
NtRp753
(dp754
g166
Nsg38
S'OnDeviceOpened'
p755
sg456
g1
(g457
g3
NtRp756
(dp757
g10
(lp758
sg16
Nsg19
Nsbsg15
Nsg19
Nsg16
Nsg461
Nsbag1
(g452
g3
NtRp759
(dp760
g166
Nsg38
S'OnDeviceClosed'
p761
sg456
g1
(g457
g3
NtRp762
(dp763
g10
(lp764
sg16
Nsg19
Nsbsg15
Nsg19
Nsg16
Nsg461
Nsbasg16
Nsg19
Nsbsg15
Nsg16
Nsg38
S'UsbDeviceClient'
p765
sg19
Nsbasg16
NsS'module'
p766
g1
(cmojom.parse.ast
Module
p767
g3
NtRp768
(dp769
S'mojom_namespace'
p770
(S'IDENTIFIER'
p771
S'device.mojom'
tp772
sg16
I5
sg15
Nsg19
g20
sbsg19
Nsb.