ccopy_reg
_reconstructor
p1
(cmojom.parse.ast
Mojom
p2
c__builtin__
object
p3
NtRp4
(dp5
S'import_list'
p6
g1
(cmojom.parse.ast
ImportList
p7
g3
NtRp8
(dp9
S'items'
p10
(lp11
sS'lineno'
p12
NsS'filename'
p13
NsbsS'definition_list'
p14
(lp15
g1
(cmojom.parse.ast
Const
p16
g3
NtRp17
(dp18
S'mojom_name'
p19
S'kServiceName'
p20
sS'attribute_list'
p21
NsS'value'
p22
S'"video_capture"'
p23
sg13
NsS'typename'
p24
S'string'
p25
sg12
Nsbag1
(g16
g3
NtRp26
(dp27
g19
S'kInvalidBufferId'
p28
sg21
Nsg22
S'-1'
p29
sg13
Nsg24
S'int32'
p30
sg12
Nsbasg12
NsS'module'
p31
g1
(cmojom.parse.ast
Module
p32
g3
NtRp33
(dp34
S'mojom_namespace'
p35
(S'IDENTIFIER'
p36
S'video_capture.mojom'
tp37
sg12
I5
sg21
Nsg13
S'../../services/video_capture/public/mojom/constants.mojom'
p38
sbsg13
Nsb.