ccopy_reg
_reconstructor
p1
(cmojom.parse.ast
Mojom
p2
c__builtin__
object
p3
NtRp4
(dp5
S'import_list'
p6
g1
(cmojom.parse.ast
ImportList
p7
g3
NtRp8
(dp9
S'items'
p10
(lp11
g1
(cmojom.parse.ast
Import
p12
g3
NtRp13
(dp14
S'attribute_list'
p15
NsS'lineno'
p16
I7
sS'import_filename'
p17
S'media/capture/mojom/video_capture_types.mojom'
p18
sS'filename'
p19
S'../../services/video_capture/public/mojom/device.mojom'
p20
sbag1
(g12
g3
NtRp21
(dp22
g15
Nsg16
I8
sg17
S'media/capture/mojom/image_capture.mojom'
p23
sg19
g20
sbag1
(g12
g3
NtRp24
(dp25
g15
Nsg16
I9
sg17
S'services/video_capture/public/mojom/receiver.mojom'
p26
sg19
g20
sbasg16
I7
sg19
g20
sbsS'definition_list'
p27
(lp28
g1
(cmojom.parse.ast
Interface
p29
g3
NtRp30
(dp31
S'body'
p32
g1
(cmojom.parse.ast
InterfaceBody
p33
g3
NtRp34
(dp35
g10
(lp36
g1
(cmojom.parse.ast
Method
p37
g3
NtRp38
(dp39
S'ordinal'
p40
NsS'mojom_name'
p41
S'Start'
p42
sS'parameter_list'
p43
g1
(cmojom.parse.ast
ParameterList
p44
g3
NtRp45
(dp46
g10
(lp47
g1
(cmojom.parse.ast
Parameter
p48
g3
NtRp49
(dp50
g40
Nsg41
S'requested_settings'
p51
sg15
Nsg19
g20
sS'typename'
p52
S'media.mojom.VideoCaptureParams'
p53
sg16
I19
sbag1
(g48
g3
NtRp54
(dp55
g40
Nsg41
S'receiver'
p56
sg15
Nsg19
g20
sg52
S'Receiver'
p57
sg16
I19
sbasg16
I19
sg19
g20
sbsg15
Nsg19
Nsg16
NsS'response_parameter_list'
p58
Nsbag1
(g37
g3
NtRp59
(dp60
g40
Nsg41
S'MaybeSuspend'
p61
sg43
g1
(g44
g3
NtRp62
(dp63
g10
(lp64
sg16
Nsg19
Nsbsg15
Nsg19
Nsg16
Nsg58
Nsbag1
(g37
g3
NtRp65
(dp66
g40
Nsg41
S'Resume'
p67
sg43
g1
(g44
g3
NtRp68
(dp69
g10
(lp70
sg16
Nsg19
Nsbsg15
Nsg19
Nsg16
Nsg58
Nsbag1
(g37
g3
NtRp71
(dp72
g40
Nsg41
S'GetPhotoState'
p73
sg43
g1
(g44
g3
NtRp74
(dp75
g10
(lp76
sg16
Nsg19
Nsbsg15
Nsg19
Nsg16
Nsg58
g1
(g44
g3
NtRp77
(dp78
g10
(lp79
g1
(g48
g3
NtRp80
(dp81
g40
Nsg41
S'capabilities'
p82
sg15
Nsg19
g20
sg52
S'media.mojom.PhotoState?'
p83
sg16
I23
sbasg16
I23
sg19
g20
sbsbag1
(g37
g3
NtRp84
(dp85
g40
Nsg41
S'SetPhotoOptions'
p86
sg43
g1
(g44
g3
NtRp87
(dp88
g10
(lp89
g1
(g48
g3
NtRp90
(dp91
g40
Nsg41
S'settings'
p92
sg15
Nsg19
g20
sg52
S'media.mojom.PhotoSettings'
p93
sg16
I24
sbasg16
I24
sg19
g20
sbsg15
Nsg19
Nsg16
Nsg58
g1
(g44
g3
NtRp94
(dp95
g10
(lp96
g1
(g48
g3
NtRp97
(dp98
g40
Nsg41
S'success'
p99
sg15
Nsg19
g20
sg52
S'bool'
p100
sg16
I25
sbasg16
I25
sg19
g20
sbsbag1
(g37
g3
NtRp101
(dp102
g40
Nsg41
S'TakePhoto'
p103
sg43
g1
(g44
g3
NtRp104
(dp105
g10
(lp106
sg16
Nsg19
Nsbsg15
Nsg19
Nsg16
Nsg58
g1
(g44
g3
NtRp107
(dp108
g10
(lp109
g1
(g48
g3
NtRp110
(dp111
g40
Nsg41
S'blob'
p112
sg15
Nsg19
g20
sg52
S'media.mojom.Blob?'
p113
sg16
I27
sbasg16
I27
sg19
g20
sbsbasg16
Nsg19
Nsbsg15
Nsg16
Nsg41
S'Device'
p114
sg19
Nsbasg16
NsS'module'
p115
g1
(cmojom.parse.ast
Module
p116
g3
NtRp117
(dp118
S'mojom_namespace'
p119
(S'IDENTIFIER'
p120
S'video_capture.mojom'
tp121
sg16
I5
sg15
Nsg19
g20
sbsg19
Nsb.