ccopy_reg
_reconstructor
p1
(cmojom.parse.ast
Mojom
p2
c__builtin__
object
p3
NtRp4
(dp5
S'import_list'
p6
g1
(cmojom.parse.ast
ImportList
p7
g3
NtRp8
(dp9
S'items'
p10
(lp11
g1
(cmojom.parse.ast
Import
p12
g3
NtRp13
(dp14
S'attribute_list'
p15
NsS'lineno'
p16
I7
sS'import_filename'
p17
S'media/capture/mojom/video_capture_types.mojom'
p18
sS'filename'
p19
S'../../services/video_capture/public/mojom/device_factory.mojom'
p20
sbag1
(g12
g3
NtRp21
(dp22
g15
Nsg16
I8
sg17
S'services/video_capture/public/mojom/device.mojom'
p23
sg19
g20
sbag1
(g12
g3
NtRp24
(dp25
g15
Nsg16
I9
sg17
S'services/video_capture/public/mojom/devices_changed_observer.mojom'
p26
sg19
g20
sbag1
(g12
g3
NtRp27
(dp28
g15
Nsg16
I10
sg17
S'services/video_capture/public/mojom/producer.mojom'
p29
sg19
g20
sbag1
(g12
g3
NtRp30
(dp31
g15
Nsg16
I11
sg17
S'services/video_capture/public/mojom/virtual_device.mojom'
p32
sg19
g20
sbasg16
I7
sg19
g20
sbsS'definition_list'
p33
(lp34
g1
(cmojom.parse.ast
Enum
p35
g3
NtRp36
(dp37
g15
NsS'enum_value_list'
p38
g1
(cmojom.parse.ast
EnumValueList
p39
g3
NtRp40
(dp41
g10
(lp42
g1
(cmojom.parse.ast
EnumValue
p43
g3
NtRp44
(dp45
g15
NsS'value'
p46
Nsg16
I14
sS'mojom_name'
p47
S'NOT_INITIALIZED'
p48
sg19
g20
sbag1
(g43
g3
NtRp49
(dp50
g15
Nsg46
Nsg16
I15
sg47
S'SUCCESS'
p51
sg19
g20
sbag1
(g43
g3
NtRp52
(dp53
g15
Nsg46
Nsg16
I16
sg47
S'ERROR_DEVICE_NOT_FOUND'
p54
sg19
g20
sbasg16
I14
sg19
g20
sbsg16
I13
sg47
S'DeviceAccessResultCode'
p55
sg19
g20
sbag1
(cmojom.parse.ast
Interface
p56
g3
NtRp57
(dp58
S'body'
p59
g1
(cmojom.parse.ast
InterfaceBody
p60
g3
NtRp61
(dp62
g10
(lp63
g1
(cmojom.parse.ast
Method
p64
g3
NtRp65
(dp66
S'ordinal'
p67
Nsg47
S'GetDeviceInfos'
p68
sS'parameter_list'
p69
g1
(cmojom.parse.ast
ParameterList
p70
g3
NtRp71
(dp72
g10
(lp73
sg16
Nsg19
Nsbsg15
Nsg19
Nsg16
NsS'response_parameter_list'
p74
g1
(g70
g3
NtRp75
(dp76
g10
(lp77
g1
(cmojom.parse.ast
Parameter
p78
g3
NtRp79
(dp80
g67
Nsg47
S'device_infos'
p81
sg15
Nsg19
g20
sS'typename'
p82
S'media.mojom.VideoCaptureDeviceInfo[]'
p83
sg16
I28
sbasg16
I28
sg19
g20
sbsbag1
(g64
g3
NtRp84
(dp85
g67
Nsg47
S'CreateDevice'
p86
sg69
g1
(g70
g3
NtRp87
(dp88
g10
(lp89
g1
(g78
g3
NtRp90
(dp91
g67
Nsg47
S'device_id'
p92
sg15
Nsg19
g20
sg82
S'string'
p93
sg16
I41
sbag1
(g78
g3
NtRp94
(dp95
g67
Nsg47
S'device_request'
p96
sg15
Nsg19
g20
sg82
S'Device&'
p97
sg16
I41
sbasg16
I41
sg19
g20
sbsg15
Nsg19
Nsg16
Nsg74
g1
(g70
g3
NtRp98
(dp99
g10
(lp100
g1
(g78
g3
NtRp101
(dp102
g67
Nsg47
S'result_code'
p103
sg15
Nsg19
g20
sg82
S'DeviceAccessResultCode'
p104
sg16
I42
sbasg16
I42
sg19
g20
sbsbag1
(g64
g3
NtRp105
(dp106
g67
Nsg47
S'AddSharedMemoryVirtualDevice'
p107
sg69
g1
(g70
g3
NtRp108
(dp109
g10
(lp110
g1
(g78
g3
NtRp111
(dp112
g67
Nsg47
S'device_info'
p113
sg15
Nsg19
g20
sg82
S'media.mojom.VideoCaptureDeviceInfo'
p114
sg16
I56
sbag1
(g78
g3
NtRp115
(dp116
g67
Nsg47
S'producer'
p117
sg15
Nsg19
g20
sg82
S'Producer'
p118
sg16
I57
sbag1
(g78
g3
NtRp119
(dp120
g67
Nsg47
S'send_buffer_handles_to_producer_as_raw_file_descriptors'
p121
sg15
Nsg19
g20
sg82
S'bool'
p122
sg16
I58
sbag1
(g78
g3
NtRp123
(dp124
g67
Nsg47
S'virtual_device'
p125
sg15
Nsg19
g20
sg82
S'SharedMemoryVirtualDevice&'
p126
sg16
I59
sbasg16
I56
sg19
g20
sbsg15
Nsg19
Nsg16
Nsg74
Nsbag1
(g64
g3
NtRp127
(dp128
g67
Nsg47
S'AddTextureVirtualDevice'
p129
sg69
g1
(g70
g3
NtRp130
(dp131
g10
(lp132
g1
(g78
g3
NtRp133
(dp134
g67
Nsg47
S'device_info'
p135
sg15
Nsg19
g20
sg82
S'media.mojom.VideoCaptureDeviceInfo'
p136
sg16
I65
sbag1
(g78
g3
NtRp137
(dp138
g67
Nsg47
S'virtual_device'
p139
sg15
Nsg19
g20
sg82
S'TextureVirtualDevice&'
p140
sg16
I66
sbasg16
I65
sg19
g20
sbsg15
Nsg19
Nsg16
Nsg74
Nsbag1
(g64
g3
NtRp141
(dp142
g67
Nsg47
S'RegisterVirtualDevicesChangedObserver'
p143
sg69
g1
(g70
g3
NtRp144
(dp145
g10
(lp146
g1
(g78
g3
NtRp147
(dp148
g67
Nsg47
S'observer'
p149
sg15
Nsg19
g20
sg82
S'DevicesChangedObserver'
p150
sg16
I73
sbag1
(g78
g3
NtRp151
(dp152
g67
Nsg47
S'raise_event_if_virtual_devices_already_present'
p153
sg15
Nsg19
g20
sg82
S'bool'
p154
sg16
I74
sbasg16
I73
sg19
g20
sbsg15
Nsg19
Nsg16
Nsg74
Nsbasg16
Nsg19
Nsbsg15
Nsg16
Nsg47
S'DeviceFactory'
p155
sg19
Nsbasg16
NsS'module'
p156
g1
(cmojom.parse.ast
Module
p157
g3
NtRp158
(dp159
S'mojom_namespace'
p160
(S'IDENTIFIER'
p161
S'video_capture.mojom'
tp162
sg16
I5
sg15
Nsg19
g20
sbsg19
Nsb.