ccopy_reg
_reconstructor
p1
(cmojom.parse.ast
Mojom
p2
c__builtin__
object
p3
NtRp4
(dp5
S'import_list'
p6
g1
(cmojom.parse.ast
ImportList
p7
g3
NtRp8
(dp9
S'items'
p10
(lp11
g1
(cmojom.parse.ast
Import
p12
g3
NtRp13
(dp14
S'attribute_list'
p15
NsS'lineno'
p16
I7
sS'import_filename'
p17
S'media/capture/mojom/video_capture_types.mojom'
p18
sS'filename'
p19
S'../../services/video_capture/public/mojom/receiver.mojom'
p20
sbag1
(g12
g3
NtRp21
(dp22
g15
Nsg16
I8
sg17
S'services/video_capture/public/mojom/scoped_access_permission.mojom'
p23
sg19
g20
sbasg16
I7
sg19
g20
sbsS'definition_list'
p24
(lp25
g1
(cmojom.parse.ast
Interface
p26
g3
NtRp27
(dp28
S'body'
p29
g1
(cmojom.parse.ast
InterfaceBody
p30
g3
NtRp31
(dp32
g10
(lp33
g1
(cmojom.parse.ast
Method
p34
g3
NtRp35
(dp36
S'ordinal'
p37
NsS'mojom_name'
p38
S'OnNewBuffer'
p39
sS'parameter_list'
p40
g1
(cmojom.parse.ast
ParameterList
p41
g3
NtRp42
(dp43
g10
(lp44
g1
(cmojom.parse.ast
Parameter
p45
g3
NtRp46
(dp47
g37
Nsg38
S'buffer_id'
p48
sg15
Nsg19
g20
sS'typename'
p49
S'int32'
p50
sg16
I20
sbag1
(g45
g3
NtRp51
(dp52
g37
Nsg38
S'buffer_handle'
p53
sg15
Nsg19
g20
sg49
S'media.mojom.VideoBufferHandle'
p54
sg16
I20
sbasg16
I20
sg19
g20
sbsg15
Nsg19
Nsg16
NsS'response_parameter_list'
p55
Nsbag1
(g34
g3
NtRp56
(dp57
g37
Nsg38
S'OnFrameReadyInBuffer'
p58
sg40
g1
(g41
g3
NtRp59
(dp60
g10
(lp61
g1
(g45
g3
NtRp62
(dp63
g37
Nsg38
S'buffer_id'
p64
sg15
Nsg19
g20
sg49
S'int32'
p65
sg16
I26
sbag1
(g45
g3
NtRp66
(dp67
g37
Nsg38
S'frame_feedback_id'
p68
sg15
Nsg19
g20
sg49
S'int32'
p69
sg16
I26
sbag1
(g45
g3
NtRp70
(dp71
g37
Nsg38
S'access_permission'
p72
sg15
Nsg19
g20
sg49
S'ScopedAccessPermission'
p73
sg16
I27
sbag1
(g45
g3
NtRp74
(dp75
g37
Nsg38
S'frame_info'
p76
sg15
Nsg19
g20
sg49
S'media.mojom.VideoFrameInfo'
p77
sg16
I28
sbasg16
I26
sg19
g20
sbsg15
Nsg19
Nsg16
Nsg55
Nsbag1
(g34
g3
NtRp78
(dp79
g37
Nsg38
S'OnBufferRetired'
p80
sg40
g1
(g41
g3
NtRp81
(dp82
g10
(lp83
g1
(g45
g3
NtRp84
(dp85
g37
Nsg38
S'buffer_id'
p86
sg15
Nsg19
g20
sg49
S'int32'
p87
sg16
I37
sbasg16
I37
sg19
g20
sbsg15
Nsg19
Nsg16
Nsg55
Nsbag1
(g34
g3
NtRp88
(dp89
g37
Nsg38
S'OnError'
p90
sg40
g1
(g41
g3
NtRp91
(dp92
g10
(lp93
g1
(g45
g3
NtRp94
(dp95
g37
Nsg38
S'error'
p96
sg15
Nsg19
g20
sg49
S'media.mojom.VideoCaptureError'
p97
sg16
I40
sbasg16
I40
sg19
g20
sbsg15
Nsg19
Nsg16
Nsg55
Nsbag1
(g34
g3
NtRp98
(dp99
g37
Nsg38
S'OnFrameDropped'
p100
sg40
g1
(g41
g3
NtRp101
(dp102
g10
(lp103
g1
(g45
g3
NtRp104
(dp105
g37
Nsg38
S'reason'
p106
sg15
Nsg19
g20
sg49
S'media.mojom.VideoCaptureFrameDropReason'
p107
sg16
I42
sbasg16
I42
sg19
g20
sbsg15
Nsg19
Nsg16
Nsg55
Nsbag1
(g34
g3
NtRp108
(dp109
g37
Nsg38
S'OnLog'
p110
sg40
g1
(g41
g3
NtRp111
(dp112
g10
(lp113
g1
(g45
g3
NtRp114
(dp115
g37
Nsg38
S'message'
p116
sg15
Nsg19
g20
sg49
S'string'
p117
sg16
I43
sbasg16
I43
sg19
g20
sbsg15
Nsg19
Nsg16
Nsg55
Nsbag1
(g34
g3
NtRp118
(dp119
g37
Nsg38
S'OnStarted'
p120
sg40
g1
(g41
g3
NtRp121
(dp122
g10
(lp123
sg16
Nsg19
Nsbsg15
Nsg19
Nsg16
Nsg55
Nsbag1
(g34
g3
NtRp124
(dp125
g37
Nsg38
S'OnStartedUsingGpuDecode'
p126
sg40
g1
(g41
g3
NtRp127
(dp128
g10
(lp129
sg16
Nsg19
Nsbsg15
Nsg19
Nsg16
Nsg55
Nsbag1
(g34
g3
NtRp130
(dp131
g37
Nsg38
S'OnStopped'
p132
sg40
g1
(g41
g3
NtRp133
(dp134
g10
(lp135
sg16
Nsg19
Nsbsg15
Nsg19
Nsg16
Nsg55
Nsbasg16
Nsg19
Nsbsg15
Nsg16
Nsg38
S'Receiver'
p136
sg19
Nsbasg16
NsS'module'
p137
g1
(cmojom.parse.ast
Module
p138
g3
NtRp139
(dp140
S'mojom_namespace'
p141
(S'IDENTIFIER'
p142
S'video_capture.mojom'
tp143
sg16
I5
sg15
Nsg19
g20
sbsg19
Nsb.