ccopy_reg
_reconstructor
p1
(cmojom.parse.ast
Mojom
p2
c__builtin__
object
p3
NtRp4
(dp5
S'import_list'
p6
g1
(cmojom.parse.ast
ImportList
p7
g3
NtRp8
(dp9
S'items'
p10
(lp11
g1
(cmojom.parse.ast
Import
p12
g3
NtRp13
(dp14
S'attribute_list'
p15
NsS'lineno'
p16
I7
sS'import_filename'
p17
S'media/capture/mojom/video_capture_types.mojom'
p18
sS'filename'
p19
S'../../services/video_capture/public/mojom/video_source_provider.mojom'
p20
sbag1
(g12
g3
NtRp21
(dp22
g15
Nsg16
I8
sg17
S'services/video_capture/public/mojom/devices_changed_observer.mojom'
p23
sg19
g20
sbag1
(g12
g3
NtRp24
(dp25
g15
Nsg16
I9
sg17
S'services/video_capture/public/mojom/producer.mojom'
p26
sg19
g20
sbag1
(g12
g3
NtRp27
(dp28
g15
Nsg16
I10
sg17
S'services/video_capture/public/mojom/video_source.mojom'
p29
sg19
g20
sbag1
(g12
g3
NtRp30
(dp31
g15
Nsg16
I11
sg17
S'services/video_capture/public/mojom/virtual_device.mojom'
p32
sg19
g20
sbasg16
I7
sg19
g20
sbsS'definition_list'
p33
(lp34
g1
(cmojom.parse.ast
Interface
p35
g3
NtRp36
(dp37
S'body'
p38
g1
(cmojom.parse.ast
InterfaceBody
p39
g3
NtRp40
(dp41
g10
(lp42
g1
(cmojom.parse.ast
Method
p43
g3
NtRp44
(dp45
S'ordinal'
p46
NsS'mojom_name'
p47
S'GetSourceInfos'
p48
sS'parameter_list'
p49
g1
(cmojom.parse.ast
ParameterList
p50
g3
NtRp51
(dp52
g10
(lp53
sg16
Nsg19
Nsbsg15
Nsg19
Nsg16
NsS'response_parameter_list'
p54
g1
(g50
g3
NtRp55
(dp56
g10
(lp57
g1
(cmojom.parse.ast
Parameter
p58
g3
NtRp59
(dp60
g46
Nsg47
S'source_infos'
p61
sg15
Nsg19
g20
sS'typename'
p62
S'media.mojom.VideoCaptureDeviceInfo[]'
p63
sg16
I15
sbasg16
I15
sg19
g20
sbsbag1
(g43
g3
NtRp64
(dp65
g46
Nsg47
S'GetVideoSource'
p66
sg49
g1
(g50
g3
NtRp67
(dp68
g10
(lp69
g1
(g58
g3
NtRp70
(dp71
g46
Nsg47
S'source_id'
p72
sg15
Nsg19
g20
sg62
S'string'
p73
sg16
I20
sbag1
(g58
g3
NtRp74
(dp75
g46
Nsg47
S'stream'
p76
sg15
Nsg19
g20
sg62
S'VideoSource&'
p77
sg16
I20
sbasg16
I20
sg19
g20
sbsg15
Nsg19
Nsg16
Nsg54
Nsbag1
(g43
g3
NtRp78
(dp79
g46
Nsg47
S'AddSharedMemoryVirtualDevice'
p80
sg49
g1
(g50
g3
NtRp81
(dp82
g10
(lp83
g1
(g58
g3
NtRp84
(dp85
g46
Nsg47
S'device_info'
p86
sg15
Nsg19
g20
sg62
S'media.mojom.VideoCaptureDeviceInfo'
p87
sg16
I34
sbag1
(g58
g3
NtRp88
(dp89
g46
Nsg47
S'producer'
p90
sg15
Nsg19
g20
sg62
S'Producer'
p91
sg16
I35
sbag1
(g58
g3
NtRp92
(dp93
g46
Nsg47
S'send_buffer_handles_to_producer_as_raw_file_descriptors'
p94
sg15
Nsg19
g20
sg62
S'bool'
p95
sg16
I36
sbag1
(g58
g3
NtRp96
(dp97
g46
Nsg47
S'virtual_device'
p98
sg15
Nsg19
g20
sg62
S'SharedMemoryVirtualDevice&'
p99
sg16
I37
sbasg16
I34
sg19
g20
sbsg15
Nsg19
Nsg16
Nsg54
Nsbag1
(g43
g3
NtRp100
(dp101
g46
Nsg47
S'AddTextureVirtualDevice'
p102
sg49
g1
(g50
g3
NtRp103
(dp104
g10
(lp105
g1
(g58
g3
NtRp106
(dp107
g46
Nsg47
S'device_info'
p108
sg15
Nsg19
g20
sg62
S'media.mojom.VideoCaptureDeviceInfo'
p109
sg16
I43
sbag1
(g58
g3
NtRp110
(dp111
g46
Nsg47
S'virtual_device'
p112
sg15
Nsg19
g20
sg62
S'TextureVirtualDevice&'
p113
sg16
I44
sbasg16
I43
sg19
g20
sbsg15
Nsg19
Nsg16
Nsg54
Nsbag1
(g43
g3
NtRp114
(dp115
g46
Nsg47
S'RegisterVirtualDevicesChangedObserver'
p116
sg49
g1
(g50
g3
NtRp117
(dp118
g10
(lp119
g1
(g58
g3
NtRp120
(dp121
g46
Nsg47
S'observer'
p122
sg15
Nsg19
g20
sg62
S'DevicesChangedObserver'
p123
sg16
I51
sbag1
(g58
g3
NtRp124
(dp125
g46
Nsg47
S'raise_event_if_virtual_devices_already_present'
p126
sg15
Nsg19
g20
sg62
S'bool'
p127
sg16
I52
sbasg16
I51
sg19
g20
sbsg15
Nsg19
Nsg16
Nsg54
Nsbag1
(g43
g3
NtRp128
(dp129
g46
Nsg47
S'Close'
p130
sg49
g1
(g50
g3
NtRp131
(dp132
g10
(lp133
sg16
Nsg19
Nsbsg15
Nsg19
Nsg16
Nsg54
g1
(g50
g3
NtRp134
(dp135
g10
(lp136
sg16
Nsg19
Nsbsbasg16
Nsg19
Nsbsg15
Nsg16
Nsg47
S'VideoSourceProvider'
p137
sg19
Nsbasg16
NsS'module'
p138
g1
(cmojom.parse.ast
Module
p139
g3
NtRp140
(dp141
S'mojom_namespace'
p142
(S'IDENTIFIER'
p143
S'video_capture.mojom'
tp144
sg16
I5
sg15
Nsg19
g20
sbsg19
Nsb.