ccopy_reg
_reconstructor
p1
(cmojom.parse.ast
Mojom
p2
c__builtin__
object
p3
NtRp4
(dp5
S'import_list'
p6
g1
(cmojom.parse.ast
ImportList
p7
g3
NtRp8
(dp9
S'items'
p10
(lp11
g1
(cmojom.parse.ast
Import
p12
g3
NtRp13
(dp14
S'attribute_list'
p15
NsS'lineno'
p16
I7
sS'import_filename'
p17
S'media/capture/mojom/image_capture.mojom'
p18
sS'filename'
p19
S'../../services/video_capture/public/mojom/video_source.mojom'
p20
sbag1
(g12
g3
NtRp21
(dp22
g15
Nsg16
I8
sg17
S'media/capture/mojom/video_capture_types.mojom'
p23
sg19
g20
sbag1
(g12
g3
NtRp24
(dp25
g15
Nsg16
I9
sg17
S'services/video_capture/public/mojom/receiver.mojom'
p26
sg19
g20
sbasg16
I7
sg19
g20
sbsS'definition_list'
p27
(lp28
g1
(cmojom.parse.ast
Enum
p29
g3
NtRp30
(dp31
g15
NsS'enum_value_list'
p32
g1
(cmojom.parse.ast
EnumValueList
p33
g3
NtRp34
(dp35
g10
(lp36
g1
(cmojom.parse.ast
EnumValue
p37
g3
NtRp38
(dp39
g15
NsS'value'
p40
Nsg16
I12
sS'mojom_name'
p41
S'kCreatedWithRequestedSettings'
p42
sg19
g20
sbag1
(g37
g3
NtRp43
(dp44
g15
Nsg40
Nsg16
I13
sg41
S'kCreatedWithDifferentSettings'
p45
sg19
g20
sbag1
(g37
g3
NtRp46
(dp47
g15
Nsg40
Nsg16
I14
sg41
S'kFailed'
p48
sg19
g20
sbasg16
I12
sg19
g20
sbsg16
I11
sg41
S'CreatePushSubscriptionResultCode'
p49
sg19
g20
sbag1
(cmojom.parse.ast
Interface
p50
g3
NtRp51
(dp52
S'body'
p53
g1
(cmojom.parse.ast
InterfaceBody
p54
g3
NtRp55
(dp56
g10
(lp57
g1
(cmojom.parse.ast
Method
p58
g3
NtRp59
(dp60
S'ordinal'
p61
Nsg41
S'Activate'
p62
sS'parameter_list'
p63
g1
(cmojom.parse.ast
ParameterList
p64
g3
NtRp65
(dp66
g10
(lp67
sg16
Nsg19
Nsbsg15
Nsg19
Nsg16
NsS'response_parameter_list'
p68
Nsbag1
(g58
g3
NtRp69
(dp70
g61
Nsg41
S'Suspend'
p71
sg63
g1
(g64
g3
NtRp72
(dp73
g10
(lp74
sg16
Nsg19
Nsbsg15
Nsg19
Nsg16
Nsg68
g1
(g64
g3
NtRp75
(dp76
g10
(lp77
sg16
Nsg19
Nsbsbag1
(g58
g3
NtRp78
(dp79
g61
Nsg41
S'Resume'
p80
sg63
g1
(g64
g3
NtRp81
(dp82
g10
(lp83
sg16
Nsg19
Nsbsg15
Nsg19
Nsg16
Nsg68
Nsbag1
(g58
g3
NtRp84
(dp85
g61
Nsg41
S'GetPhotoState'
p86
sg63
g1
(g64
g3
NtRp87
(dp88
g10
(lp89
sg16
Nsg19
Nsbsg15
Nsg19
Nsg16
Nsg68
g1
(g64
g3
NtRp90
(dp91
g10
(lp92
g1
(cmojom.parse.ast
Parameter
p93
g3
NtRp94
(dp95
g61
Nsg41
S'capabilities'
p96
sg15
Nsg19
g20
sS'typename'
p97
S'media.mojom.PhotoState?'
p98
sg16
I37
sbasg16
I37
sg19
g20
sbsbag1
(g58
g3
NtRp99
(dp100
g61
Nsg41
S'SetPhotoOptions'
p101
sg63
g1
(g64
g3
NtRp102
(dp103
g10
(lp104
g1
(g93
g3
NtRp105
(dp106
g61
Nsg41
S'settings'
p107
sg15
Nsg19
g20
sg97
S'media.mojom.PhotoSettings'
p108
sg16
I44
sbasg16
I44
sg19
g20
sbsg15
Nsg19
Nsg16
Nsg68
g1
(g64
g3
NtRp109
(dp110
g10
(lp111
g1
(g93
g3
NtRp112
(dp113
g61
Nsg41
S'success'
p114
sg15
Nsg19
g20
sg97
S'bool'
p115
sg16
I45
sbasg16
I45
sg19
g20
sbsbag1
(g58
g3
NtRp116
(dp117
g61
Nsg41
S'TakePhoto'
p118
sg63
g1
(g64
g3
NtRp119
(dp120
g10
(lp121
sg16
Nsg19
Nsbsg15
Nsg19
Nsg16
Nsg68
g1
(g64
g3
NtRp122
(dp123
g10
(lp124
g1
(g93
g3
NtRp125
(dp126
g61
Nsg41
S'blob'
p127
sg15
Nsg19
g20
sg97
S'media.mojom.Blob?'
p128
sg16
I47
sbasg16
I47
sg19
g20
sbsbag1
(g58
g3
NtRp129
(dp130
g61
Nsg41
S'Close'
p131
sg63
g1
(g64
g3
NtRp132
(dp133
g10
(lp134
sg16
Nsg19
Nsbsg15
Nsg19
Nsg16
Nsg68
g1
(g64
g3
NtRp135
(dp136
g10
(lp137
sg16
Nsg19
Nsbsbasg16
Nsg19
Nsbsg15
Nsg16
Nsg41
S'PushVideoStreamSubscription'
p138
sg19
Nsbag1
(g50
g3
NtRp139
(dp140
g53
g1
(g54
g3
NtRp141
(dp142
g10
(lp143
g1
(g58
g3
NtRp144
(dp145
g61
Nsg41
S'CreatePushSubscription'
p146
sg63
g1
(g64
g3
NtRp147
(dp148
g10
(lp149
g1
(g93
g3
NtRp150
(dp151
g61
Nsg41
S'subscriber'
p152
sg15
Nsg19
g20
sg97
S'Receiver'
p153
sg16
I83
sbag1
(g93
g3
NtRp154
(dp155
g61
Nsg41
S'requested_settings'
p156
sg15
Nsg19
g20
sg97
S'media.mojom.VideoCaptureParams'
p157
sg16
I84
sbag1
(g93
g3
NtRp158
(dp159
g61
Nsg41
S'force_reopen_with_new_settings'
p160
sg15
Nsg19
g20
sg97
S'bool'
p161
sg16
I85
sbag1
(g93
g3
NtRp162
(dp163
g61
Nsg41
S'subscription'
p164
sg15
Nsg19
g20
sg97
S'PushVideoStreamSubscription&'
p165
sg16
I86
sbasg16
I83
sg19
g20
sbsg15
Nsg19
Nsg16
Nsg68
g1
(g64
g3
NtRp166
(dp167
g10
(lp168
g1
(g93
g3
NtRp169
(dp170
g61
Nsg41
S'result_code'
p171
sg15
Nsg19
g20
sg97
S'CreatePushSubscriptionResultCode'
p172
sg16
I87
sbag1
(g93
g3
NtRp173
(dp174
g61
Nsg41
S'settings_source_was_opened_with'
p175
sg15
Nsg19
g20
sg97
S'media.mojom.VideoCaptureParams'
p176
sg16
I88
sbasg16
I87
sg19
g20
sbsbasg16
Nsg19
Nsbsg15
Nsg16
Nsg41
S'VideoSource'
p177
sg19
Nsbasg16
NsS'module'
p178
g1
(cmojom.parse.ast
Module
p179
g3
NtRp180
(dp181
S'mojom_namespace'
p182
(S'IDENTIFIER'
p183
S'video_capture.mojom'
tp184
sg16
I5
sg15
Nsg19
g20
sbsg19
Nsb.