ccopy_reg
_reconstructor
p1
(cmojom.parse.ast
Mojom
p2
c__builtin__
object
p3
NtRp4
(dp5
S'import_list'
p6
g1
(cmojom.parse.ast
ImportList
p7
g3
NtRp8
(dp9
S'items'
p10
(lp11
g1
(cmojom.parse.ast
Import
p12
g3
NtRp13
(dp14
S'attribute_list'
p15
NsS'lineno'
p16
I7
sS'import_filename'
p17
S'media/capture/mojom/video_capture_types.mojom'
p18
sS'filename'
p19
S'../../services/video_capture/public/mojom/virtual_device.mojom'
p20
sbag1
(g12
g3
NtRp21
(dp22
g15
Nsg16
I8
sg17
S'services/video_capture/public/mojom/producer.mojom'
p23
sg19
g20
sbag1
(g12
g3
NtRp24
(dp25
g15
Nsg16
I9
sg17
S'services/video_capture/public/mojom/scoped_access_permission.mojom'
p26
sg19
g20
sbag1
(g12
g3
NtRp27
(dp28
g15
Nsg16
I10
sg17
S'ui/gfx/geometry/mojo/geometry.mojom'
p29
sg19
g20
sbasg16
I7
sg19
g20
sbsS'definition_list'
p30
(lp31
g1
(cmojom.parse.ast
Interface
p32
g3
NtRp33
(dp34
S'body'
p35
g1
(cmojom.parse.ast
InterfaceBody
p36
g3
NtRp37
(dp38
g10
(lp39
g1
(cmojom.parse.ast
Method
p40
g3
NtRp41
(dp42
S'ordinal'
p43
NsS'mojom_name'
p44
S'RequestFrameBuffer'
p45
sS'parameter_list'
p46
g1
(cmojom.parse.ast
ParameterList
p47
g3
NtRp48
(dp49
g10
(lp50
g1
(cmojom.parse.ast
Parameter
p51
g3
NtRp52
(dp53
g43
Nsg44
S'dimension'
p54
sg15
Nsg19
g20
sS'typename'
p55
S'gfx.mojom.Size'
p56
sg16
I37
sbag1
(g51
g3
NtRp57
(dp58
g43
Nsg44
S'pixel_format'
p59
sg15
Nsg19
g20
sg55
S'media.mojom.VideoCapturePixelFormat'
p60
sg16
I38
sbag1
(g51
g3
NtRp61
(dp62
g43
Nsg44
S'strides'
p63
sg15
Nsg19
g20
sg55
S'media.mojom.PlaneStrides?'
p64
sg16
I39
sbasg16
I37
sg19
g20
sbsg15
Nsg19
Nsg16
NsS'response_parameter_list'
p65
g1
(g47
g3
NtRp66
(dp67
g10
(lp68
g1
(g51
g3
NtRp69
(dp70
g43
Nsg44
S'buffer_id'
p71
sg15
Nsg19
g20
sg55
S'int32'
p72
sg16
I40
sbasg16
I40
sg19
g20
sbsbag1
(g40
g3
NtRp73
(dp74
g43
Nsg44
S'OnFrameReadyInBuffer'
p75
sg46
g1
(g47
g3
NtRp76
(dp77
g10
(lp78
g1
(g51
g3
NtRp79
(dp80
g43
Nsg44
S'buffer_id'
p81
sg15
Nsg19
g20
sg55
S'int32'
p82
sg16
I44
sbag1
(g51
g3
NtRp83
(dp84
g43
Nsg44
S'frame_info'
p85
sg15
Nsg19
g20
sg55
S'media.mojom.VideoFrameInfo'
p86
sg16
I45
sbasg16
I44
sg19
g20
sbsg15
Nsg19
Nsg16
Nsg65
Nsbasg16
Nsg19
Nsbsg15
Nsg16
Nsg44
S'SharedMemoryVirtualDevice'
p87
sg19
Nsbag1
(g32
g3
NtRp88
(dp89
g35
g1
(g36
g3
NtRp90
(dp91
g10
(lp92
g1
(g40
g3
NtRp93
(dp94
g43
Nsg44
S'OnNewMailboxHolderBufferHandle'
p95
sg46
g1
(g47
g3
NtRp96
(dp97
g10
(lp98
g1
(g51
g3
NtRp99
(dp100
g43
Nsg44
S'buffer_id'
p101
sg15
Nsg19
g20
sg55
S'int32'
p102
sg16
I55
sbag1
(g51
g3
NtRp103
(dp104
g43
Nsg44
S'mailbox_handles'
p105
sg15
Nsg19
g20
sg55
S'media.mojom.MailboxBufferHandleSet'
p106
sg16
I55
sbasg16
I55
sg19
g20
sbsg15
Nsg19
Nsg16
Nsg65
Nsbag1
(g40
g3
NtRp107
(dp108
g43
Nsg44
S'OnFrameReadyInBuffer'
p109
sg46
g1
(g47
g3
NtRp110
(dp111
g10
(lp112
g1
(g51
g3
NtRp113
(dp114
g43
Nsg44
S'buffer_id'
p115
sg15
Nsg19
g20
sg55
S'int32'
p116
sg16
I61
sbag1
(g51
g3
NtRp117
(dp118
g43
Nsg44
S'access_permission'
p119
sg15
Nsg19
g20
sg55
S'ScopedAccessPermission'
p120
sg16
I62
sbag1
(g51
g3
NtRp121
(dp122
g43
Nsg44
S'frame_info'
p123
sg15
Nsg19
g20
sg55
S'media.mojom.VideoFrameInfo'
p124
sg16
I63
sbasg16
I61
sg19
g20
sbsg15
Nsg19
Nsg16
Nsg65
Nsbag1
(g40
g3
NtRp125
(dp126
g43
Nsg44
S'OnBufferRetired'
p127
sg46
g1
(g47
g3
NtRp128
(dp129
g10
(lp130
g1
(g51
g3
NtRp131
(dp132
g43
Nsg44
S'buffer_id'
p133
sg15
Nsg19
g20
sg55
S'int32'
p134
sg16
I67
sbasg16
I67
sg19
g20
sbsg15
Nsg19
Nsg16
Nsg65
Nsbasg16
Nsg19
Nsbsg15
Nsg16
Nsg44
S'TextureVirtualDevice'
p135
sg19
Nsbasg16
NsS'module'
p136
g1
(cmojom.parse.ast
Module
p137
g3
NtRp138
(dp139
S'mojom_namespace'
p140
(S'IDENTIFIER'
p141
S'video_capture.mojom'
tp142
sg16
I5
sg15
Nsg19
g20
sbsg19
Nsb.