ccopy_reg
_reconstructor
p1
(cmojom.parse.ast
Mojom
p2
c__builtin__
object
p3
NtRp4
(dp5
S'import_list'
p6
g1
(cmojom.parse.ast
ImportList
p7
g3
NtRp8
(dp9
S'items'
p10
(lp11
g1
(cmojom.parse.ast
Import
p12
g3
NtRp13
(dp14
S'attribute_list'
p15
NsS'lineno'
p16
I7
sS'import_filename'
p17
S'mojo/public/mojom/base/process_id.mojom'
p18
sS'filename'
p19
S'../../services/service_manager/public/mojom/connector.mojom'
p20
sbag1
(g12
g3
NtRp21
(dp22
g15
Nsg16
I8
sg17
S'mojo/public/mojom/base/token.mojom'
p23
sg19
g20
sbag1
(g12
g3
NtRp24
(dp25
g15
Nsg16
I9
sg17
S'services/service_manager/public/mojom/constants.mojom'
p26
sg19
g20
sbag1
(g12
g3
NtRp27
(dp28
g15
Nsg16
I10
sg17
S'services/service_manager/public/mojom/interface_provider.mojom'
p29
sg19
g20
sbag1
(g12
g3
NtRp30
(dp31
g15
Nsg16
I11
sg17
S'services/service_manager/public/mojom/service_filter.mojom'
p32
sg19
g20
sbasg16
I7
sg19
g20
sbsS'definition_list'
p33
(lp34
g1
(cmojom.parse.ast
Enum
p35
g3
NtRp36
(dp37
g15
NsS'enum_value_list'
p38
g1
(cmojom.parse.ast
EnumValueList
p39
g3
NtRp40
(dp41
g10
(lp42
g1
(cmojom.parse.ast
EnumValue
p43
g3
NtRp44
(dp45
g15
NsS'value'
p46
Nsg16
I17
sS'mojom_name'
p47
S'SUCCEEDED'
p48
sg19
g20
sbag1
(g43
g3
NtRp49
(dp50
g15
Nsg46
Nsg16
I20
sg47
S'INVALID_ARGUMENT'
p51
sg19
g20
sbag1
(g43
g3
NtRp52
(dp53
g15
Nsg46
Nsg16
I26
sg47
S'ACCESS_DENIED'
p54
sg19
g20
sbasg16
I17
sg19
g20
sbsg16
I15
sg47
S'ConnectResult'
p55
sg19
g20
sbag1
(g35
g3
NtRp56
(dp57
g15
Nsg38
g1
(g39
g3
NtRp58
(dp59
g10
(lp60
g1
(g43
g3
NtRp61
(dp62
g15
Nsg46
Nsg16
I35
sg47
S'kImportant'
p63
sg19
g20
sbag1
(g43
g3
NtRp64
(dp65
g15
Nsg46
Nsg16
I42
sg47
S'kBestEffort'
p66
sg19
g20
sbasg16
I35
sg19
g20
sbsg16
I31
sg47
S'BindInterfacePriority'
p67
sg19
g20
sbag1
(cmojom.parse.ast
Struct
p68
g3
NtRp69
(dp70
S'body'
p71
g1
(cmojom.parse.ast
StructBody
p72
g3
NtRp73
(dp74
g10
(lp75
g1
(cmojom.parse.ast
StructField
p76
g3
NtRp77
(dp78
S'ordinal'
p79
NsS'default_value'
p80
Nsg47
S'name'
p81
sg15
Nsg19
NsS'typename'
p82
S'string'
p83
sg16
Nsbag1
(g76
g3
NtRp84
(dp85
g79
Nsg80
Nsg47
S'instance_group'
p86
sg15
Nsg19
Nsg82
S'mojo_base.mojom.Token'
p87
sg16
Nsbag1
(g76
g3
NtRp88
(dp89
g79
Nsg80
Nsg47
S'instance_id'
p90
sg15
Nsg19
Nsg82
S'mojo_base.mojom.Token'
p91
sg16
Nsbag1
(g76
g3
NtRp92
(dp93
g79
Nsg80
Nsg47
S'globally_unique_id'
p94
sg15
Nsg19
Nsg82
S'mojo_base.mojom.Token'
p95
sg16
Nsbasg16
Nsg19
Nsbsg15
Nsg16
Nsg47
S'Identity'
p96
sg19
Nsbag1
(g68
g3
NtRp97
(dp98
g71
g1
(g72
g3
NtRp99
(dp100
g10
(lp101
g1
(g76
g3
NtRp102
(dp103
g79
Nsg80
Nsg47
S'sandbox_type'
p104
sg15
Nsg19
Nsg82
S'string'
p105
sg16
Nsbasg16
Nsg19
Nsbsg15
Nsg16
Nsg47
S'ServiceInfo'
p106
sg19
Nsbag1
(cmojom.parse.ast
Interface
p107
g3
NtRp108
(dp109
g71
g1
(cmojom.parse.ast
InterfaceBody
p110
g3
NtRp111
(dp112
g10
(lp113
g1
(cmojom.parse.ast
Method
p114
g3
NtRp115
(dp116
g79
Nsg47
S'SetPID'
p117
sS'parameter_list'
p118
g1
(cmojom.parse.ast
ParameterList
p119
g3
NtRp120
(dp121
g10
(lp122
g1
(cmojom.parse.ast
Parameter
p123
g3
NtRp124
(dp125
g79
Nsg47
S'pid'
p126
sg15
Nsg19
g20
sg82
S'mojo_base.mojom.ProcessId'
p127
sg16
I90
sbasg16
I90
sg19
g20
sbsg15
Nsg19
Nsg16
NsS'response_parameter_list'
p128
Nsbasg16
Nsg19
Nsbsg15
Nsg16
Nsg47
S'ProcessMetadata'
p129
sg19
Nsbag1
(g107
g3
NtRp130
(dp131
g71
g1
(g110
g3
NtRp132
(dp133
g10
(lp134
g1
(g114
g3
NtRp135
(dp136
g79
Nsg47
S'BindInterface'
p137
sg118
g1
(g119
g3
NtRp138
(dp139
g10
(lp140
g1
(g123
g3
NtRp141
(dp142
g79
Nsg47
S'filter'
p143
sg15
Nsg19
g20
sg82
S'ServiceFilter'
p144
sg16
I125
sbag1
(g123
g3
NtRp145
(dp146
g79
Nsg47
S'interface_name'
p147
sg15
Nsg19
g20
sg82
S'string'
p148
sg16
I126
sbag1
(g123
g3
NtRp149
(dp150
g79
Nsg47
S'interface_pipe'
p151
sg15
Nsg19
g20
sg82
S'handle<message_pipe>'
p152
sg16
I127
sbag1
(g123
g3
NtRp153
(dp154
g79
Nsg47
S'priority'
p155
sg15
Nsg19
g20
sg82
S'BindInterfacePriority'
p156
sg16
I128
sbasg16
I125
sg19
g20
sbsg15
Nsg19
Nsg16
Nsg128
g1
(g119
g3
NtRp157
(dp158
g10
(lp159
g1
(g123
g3
NtRp160
(dp161
g79
Nsg47
S'result'
p162
sg15
Nsg19
g20
sg82
S'ConnectResult'
p163
sg16
I129
sbag1
(g123
g3
NtRp164
(dp165
g79
Nsg47
S'identity'
p166
sg15
Nsg19
g20
sg82
S'Identity?'
p167
sg16
I129
sbasg16
I129
sg19
g20
sbsbag1
(g114
g3
NtRp168
(dp169
g79
Nsg47
S'QueryService'
p170
sg118
g1
(g119
g3
NtRp171
(dp172
g10
(lp173
g1
(g123
g3
NtRp174
(dp175
g79
Nsg47
S'service_name'
p176
sg15
Nsg19
g20
sg82
S'string'
p177
sg16
I135
sbasg16
I135
sg19
g20
sbsg15
Nsg19
Nsg16
Nsg128
g1
(g119
g3
NtRp178
(dp179
g10
(lp180
g1
(g123
g3
NtRp181
(dp182
g79
Nsg47
S'info'
p183
sg15
Nsg19
g20
sg82
S'ServiceInfo?'
p184
sg16
I135
sbasg16
I135
sg19
g20
sbsbag1
(g114
g3
NtRp185
(dp186
g79
Nsg47
S'WarmService'
p187
sg118
g1
(g119
g3
NtRp188
(dp189
g10
(lp190
g1
(g123
g3
NtRp191
(dp192
g79
Nsg47
S'filter'
p193
sg15
Nsg19
g20
sg82
S'ServiceFilter'
p194
sg16
I146
sbasg16
I146
sg19
g20
sbsg15
Nsg19
Nsg16
Nsg128
g1
(g119
g3
NtRp195
(dp196
g10
(lp197
g1
(g123
g3
NtRp198
(dp199
g79
Nsg47
S'result'
p200
sg15
Nsg19
g20
sg82
S'ConnectResult'
p201
sg16
I147
sbag1
(g123
g3
NtRp202
(dp203
g79
Nsg47
S'identity'
p204
sg15
Nsg19
g20
sg82
S'Identity?'
p205
sg16
I147
sbasg16
I147
sg19
g20
sbsbag1
(g114
g3
NtRp206
(dp207
g79
Nsg47
S'RegisterServiceInstance'
p208
sg118
g1
(g119
g3
NtRp209
(dp210
g10
(lp211
g1
(g123
g3
NtRp212
(dp213
g79
Nsg47
S'identity'
p214
sg15
Nsg19
g20
sg82
S'Identity'
p215
sg16
I174
sbag1
(g123
g3
NtRp216
(dp217
g79
Nsg47
S'service'
p218
sg15
Nsg19
g20
sg82
S'handle<message_pipe>'
p219
sg16
I175
sbag1
(g123
g3
NtRp220
(dp221
g79
Nsg47
S'metadata_receiver'
p222
sg15
Nsg19
g20
sg82
S'rcv<ProcessMetadata>?'
p223
sg16
I176
sbasg16
I174
sg19
g20
sbsg15
Nsg19
Nsg16
Nsg128
g1
(g119
g3
NtRp224
(dp225
g10
(lp226
g1
(g123
g3
NtRp227
(dp228
g79
Nsg47
S'result'
p229
sg15
Nsg19
g20
sg82
S'ConnectResult'
p230
sg16
I177
sbasg16
I177
sg19
g20
sbsbag1
(g114
g3
NtRp231
(dp232
g79
Nsg47
S'Clone'
p233
sg118
g1
(g119
g3
NtRp234
(dp235
g10
(lp236
g1
(g123
g3
NtRp237
(dp238
g79
Nsg47
S'request'
p239
sg15
Nsg19
g20
sg82
S'Connector&'
p240
sg16
I182
sbasg16
I182
sg19
g20
sbsg15
Nsg19
Nsg16
Nsg128
Nsbag1
(g114
g3
NtRp241
(dp242
g79
Nsg47
S'FilterInterfaces'
p243
sg118
g1
(g119
g3
NtRp244
(dp245
g10
(lp246
g1
(g123
g3
NtRp247
(dp248
g79
Nsg47
S'spec'
p249
sg15
Nsg19
g20
sg82
S'string'
p250
sg16
I206
sbag1
(g123
g3
NtRp251
(dp252
g79
Nsg47
S'source'
p253
sg15
Nsg19
g20
sg82
S'Identity'
p254
sg16
I207
sbag1
(g123
g3
NtRp255
(dp256
g79
Nsg47
S'source_request'
p257
sg15
Nsg19
g20
sg82
S'InterfaceProvider&'
p258
sg16
I208
sbag1
(g123
g3
NtRp259
(dp260
g79
Nsg47
S'target'
p261
sg15
Nsg19
g20
sg82
S'InterfaceProvider'
p262
sg16
I209
sbasg16
I206
sg19
g20
sbsg15
Nsg19
Nsg16
Nsg128
Nsbasg16
Nsg19
Nsbsg15
Nsg16
Nsg47
S'Connector'
p263
sg19
Nsbasg16
NsS'module'
p264
g1
(cmojom.parse.ast
Module
p265
g3
NtRp266
(dp267
S'mojom_namespace'
p268
(S'IDENTIFIER'
p269
S'service_manager.mojom'
tp270
sg16
I5
sg15
Nsg19
g20
sbsg19
Nsb.