ccopy_reg
_reconstructor
p1
(cmojom.parse.ast
Mojom
p2
c__builtin__
object
p3
NtRp4
(dp5
S'import_list'
p6
g1
(cmojom.parse.ast
ImportList
p7
g3
NtRp8
(dp9
S'items'
p10
(lp11
sS'lineno'
p12
NsS'filename'
p13
NsbsS'definition_list'
p14
(lp15
g1
(cmojom.parse.ast
Const
p16
g3
NtRp17
(dp18
S'mojom_name'
p19
S'kServiceName'
p20
sS'attribute_list'
p21
NsS'value'
p22
S'"service_manager"'
p23
sg13
NsS'typename'
p24
S'string'
p25
sg12
Nsbag1
(g16
g3
NtRp26
(dp27
g19
S'kSystemInstanceGroupHigh'
p28
sg21
Nsg22
S'0xE90E5C501330C043'
p29
sg13
Nsg24
S'uint64'
p30
sg12
Nsbag1
(g16
g3
NtRp31
(dp32
g19
S'kSystemInstanceGroupLow'
p33
sg21
Nsg22
S'0x82B0A84F50CF8D84'
p34
sg13
Nsg24
S'uint64'
p35
sg12
Nsbag1
(cmojom.parse.ast
Struct
p36
g3
NtRp37
(dp38
S'body'
p39
g1
(cmojom.parse.ast
StructBody
p40
g3
NtRp41
(dp42
g10
(lp43
sg12
Nsg13
Nsbsg21
Nsg12
Nsg19
S'Constants_UnusedStruct_Internal'
p44
sg13
Nsbasg12
NsS'module'
p45
g1
(cmojom.parse.ast
Module
p46
g3
NtRp47
(dp48
S'mojom_namespace'
p49
(S'IDENTIFIER'
p50
S'service_manager.mojom'
tp51
sg12
I5
sg21
Nsg13
S'../../services/service_manager/public/mojom/constants.mojom'
p52
sbsg13
Nsb.