ccopy_reg
_reconstructor
p1
(cmojom.parse.ast
Mojom
p2
c__builtin__
object
p3
NtRp4
(dp5
S'import_list'
p6
g1
(cmojom.parse.ast
ImportList
p7
g3
NtRp8
(dp9
S'items'
p10
(lp11
sS'lineno'
p12
NsS'filename'
p13
NsbsS'definition_list'
p14
(lp15
g1
(cmojom.parse.ast
Struct
p16
g3
NtRp17
(dp18
S'body'
p19
g1
(cmojom.parse.ast
StructBody
p20
g3
NtRp21
(dp22
g10
(lp23
g1
(cmojom.parse.ast
StructField
p24
g3
NtRp25
(dp26
S'ordinal'
p27
NsS'default_value'
p28
NsS'mojom_name'
p29
S'interfaces'
p30
sS'attribute_list'
p31
Nsg13
NsS'typename'
p32
S'string[]'
p33
sg12
Nsbasg12
Nsg13
Nsbsg31
Nsg12
Nsg29
S'InterfaceSet'
p34
sg13
Nsbag1
(g16
g3
NtRp35
(dp36
g19
g1
(g20
g3
NtRp37
(dp38
g10
(lp39
g1
(g24
g3
NtRp40
(dp41
g27
Nsg28
Nsg29
S'capabilities'
p42
sg31
Nsg13
Nsg32
S'string[]'
p43
sg12
Nsbasg12
Nsg13
Nsbsg31
Nsg12
Nsg29
S'CapabilitySet'
p44
sg13
Nsbag1
(g16
g3
NtRp45
(dp46
g19
g1
(g20
g3
NtRp47
(dp48
g10
(lp49
g1
(g24
g3
NtRp50
(dp51
g27
Nsg28
Nsg29
S'provides'
p52
sg31
Nsg13
Nsg32
S'InterfaceSet{string}'
p53
sg12
Nsbag1
(g24
g3
NtRp54
(dp55
g27
Nsg28
Nsg29
S'requires'
p56
sg31
Nsg13
Nsg32
S'CapabilitySet{string}'
p57
sg12
Nsbasg12
Nsg13
Nsbsg31
Nsg12
Nsg29
S'InterfaceProviderSpec'
p58
sg13
Nsbag1
(cmojom.parse.ast
Const
p59
g3
NtRp60
(dp61
g29
S'kServiceManager_ConnectorSpec'
p62
sg31
NsS'value'
p63
S'"service_manager:connector"'
p64
sg13
Nsg32
S'string'
p65
sg12
Nsbasg12
NsS'module'
p66
g1
(cmojom.parse.ast
Module
p67
g3
NtRp68
(dp69
S'mojom_namespace'
p70
(S'IDENTIFIER'
p71
S'service_manager.mojom'
tp72
sg12
I5
sg31
Nsg13
S'../../services/service_manager/public/mojom/interface_provider_spec.mojom'
p73
sbsg13
Nsb.