ccopy_reg
_reconstructor
p1
(cmojom.parse.ast
Mojom
p2
c__builtin__
object
p3
NtRp4
(dp5
S'import_list'
p6
g1
(cmojom.parse.ast
ImportList
p7
g3
NtRp8
(dp9
S'items'
p10
(lp11
g1
(cmojom.parse.ast
Import
p12
g3
NtRp13
(dp14
S'attribute_list'
p15
NsS'lineno'
p16
I7
sS'import_filename'
p17
S'media/mojo/interfaces/audio_parameters.mojom'
p18
sS'filename'
p19
S'../../media/mojo/interfaces/audio_logging.mojom'
p20
sbasg16
I7
sg19
g20
sbsS'definition_list'
p21
(lp22
g1
(cmojom.parse.ast
Interface
p23
g3
NtRp24
(dp25
S'body'
p26
g1
(cmojom.parse.ast
InterfaceBody
p27
g3
NtRp28
(dp29
g10
(lp30
g1
(cmojom.parse.ast
Method
p31
g3
NtRp32
(dp33
S'ordinal'
p34
NsS'mojom_name'
p35
S'OnCreated'
p36
sS'parameter_list'
p37
g1
(cmojom.parse.ast
ParameterList
p38
g3
NtRp39
(dp40
g10
(lp41
g1
(cmojom.parse.ast
Parameter
p42
g3
NtRp43
(dp44
g34
Nsg35
S'params'
p45
sg15
Nsg19
g20
sS'typename'
p46
S'media.mojom.AudioParameters'
p47
sg16
I15
sbag1
(g42
g3
NtRp48
(dp49
g34
Nsg35
S'device_id'
p50
sg15
Nsg19
g20
sg46
S'string'
p51
sg16
I16
sbasg16
I15
sg19
g20
sbsg15
Nsg19
Nsg16
NsS'response_parameter_list'
p52
Nsbag1
(g31
g3
NtRp53
(dp54
g34
Nsg35
S'OnStarted'
p55
sg37
g1
(g38
g3
NtRp56
(dp57
g10
(lp58
sg16
Nsg19
Nsbsg15
Nsg19
Nsg16
Nsg52
Nsbag1
(g31
g3
NtRp59
(dp60
g34
Nsg35
S'OnStopped'
p61
sg37
g1
(g38
g3
NtRp62
(dp63
g10
(lp64
sg16
Nsg19
Nsbsg15
Nsg19
Nsg16
Nsg52
Nsbag1
(g31
g3
NtRp65
(dp66
g34
Nsg35
S'OnClosed'
p67
sg37
g1
(g38
g3
NtRp68
(dp69
g10
(lp70
sg16
Nsg19
Nsbsg15
Nsg19
Nsg16
Nsg52
Nsbag1
(g31
g3
NtRp71
(dp72
g34
Nsg35
S'OnError'
p73
sg37
g1
(g38
g3
NtRp74
(dp75
g10
(lp76
sg16
Nsg19
Nsbsg15
Nsg19
Nsg16
Nsg52
Nsbag1
(g31
g3
NtRp77
(dp78
g34
Nsg35
S'OnSetVolume'
p79
sg37
g1
(g38
g3
NtRp80
(dp81
g10
(lp82
g1
(g42
g3
NtRp83
(dp84
g34
Nsg35
S'volume'
p85
sg15
Nsg19
g20
sg46
S'double'
p86
sg16
I34
sbasg16
I34
sg19
g20
sbsg15
Nsg19
Nsg16
Nsg52
Nsbag1
(g31
g3
NtRp87
(dp88
g34
Nsg35
S'OnProcessingStateChanged'
p89
sg37
g1
(g38
g3
NtRp90
(dp91
g10
(lp92
g1
(g42
g3
NtRp93
(dp94
g34
Nsg35
S'message'
p95
sg15
Nsg19
g20
sg46
S'string'
p96
sg16
I38
sbasg16
I38
sg19
g20
sbsg15
Nsg19
Nsg16
Nsg52
Nsbag1
(g31
g3
NtRp97
(dp98
g34
Nsg35
S'OnLogMessage'
p99
sg37
g1
(g38
g3
NtRp100
(dp101
g10
(lp102
g1
(g42
g3
NtRp103
(dp104
g34
Nsg35
S'message'
p105
sg15
Nsg19
g20
sg46
S'string'
p106
sg16
I41
sbasg16
I41
sg19
g20
sbsg15
Nsg19
Nsg16
Nsg52
Nsbasg16
Nsg19
Nsbsg15
Nsg16
Nsg35
S'AudioLog'
p107
sg19
Nsbag1
(cmojom.parse.ast
Enum
p108
g3
NtRp109
(dp110
g15
NsS'enum_value_list'
p111
g1
(cmojom.parse.ast
EnumValueList
p112
g3
NtRp113
(dp114
g10
(lp115
g1
(cmojom.parse.ast
EnumValue
p116
g3
NtRp117
(dp118
g15
NsS'value'
p119
Nsg16
I45
sg35
S'kInputController'
p120
sg19
g20
sbag1
(g116
g3
NtRp121
(dp122
g15
Nsg119
Nsg16
I46
sg35
S'kOutputController'
p123
sg19
g20
sbag1
(g116
g3
NtRp124
(dp125
g15
Nsg119
Nsg16
I47
sg35
S'kOutputStream'
p126
sg19
g20
sbasg16
I45
sg19
g20
sbsg16
I44
sg35
S'AudioLogComponent'
p127
sg19
g20
sbag1
(g23
g3
NtRp128
(dp129
g26
g1
(g27
g3
NtRp130
(dp131
g10
(lp132
g1
(g31
g3
NtRp133
(dp134
g34
Nsg35
S'CreateAudioLog'
p135
sg37
g1
(g38
g3
NtRp136
(dp137
g10
(lp138
g1
(g42
g3
NtRp139
(dp140
g34
Nsg35
S'component'
p141
sg15
Nsg19
g20
sg46
S'AudioLogComponent'
p142
sg16
I57
sbag1
(g42
g3
NtRp143
(dp144
g34
Nsg35
S'component_id'
p145
sg15
Nsg19
g20
sg46
S'int32'
p146
sg16
I58
sbag1
(g42
g3
NtRp147
(dp148
g34
Nsg35
S'audio_log_request'
p149
sg15
Nsg19
g20
sg46
S'AudioLog&'
p150
sg16
I59
sbasg16
I57
sg19
g20
sbsg15
Nsg19
Nsg16
Nsg52
Nsbasg16
Nsg19
Nsbsg15
Nsg16
Nsg35
S'AudioLogFactory'
p151
sg19
Nsbasg16
NsS'module'
p152
g1
(cmojom.parse.ast
Module
p153
g3
NtRp154
(dp155
S'mojom_namespace'
p156
(S'IDENTIFIER'
p157
S'media.mojom'
tp158
sg16
I5
sg15
Nsg19
g20
sbsg19
Nsb.