ccopy_reg
_reconstructor
p1
(cmojom.parse.ast
Mojom
p2
c__builtin__
object
p3
NtRp4
(dp5
S'import_list'
p6
g1
(cmojom.parse.ast
ImportList
p7
g3
NtRp8
(dp9
S'items'
p10
(lp11
sS'lineno'
p12
NsS'filename'
p13
NsbsS'definition_list'
p14
(lp15
g1
(cmojom.parse.ast
Struct
p16
g3
NtRp17
(dp18
S'body'
p19
NsS'attribute_list'
p20
g1
(cmojom.parse.ast
AttributeList
p21
g3
NtRp22
(dp23
g10
(lp24
g1
(cmojom.parse.ast
Attribute
p25
g3
NtRp26
(dp27
S'value'
p28
I01
sg12
I8
sS'key'
p29
S'Native'
p30
sg13
S'../../media/mojo/interfaces/audio_parameters.mojom'
p31
sbasg12
I8
sg13
g31
sbsg12
NsS'mojom_name'
p32
S'AudioParameters'
p33
sg13
Nsbasg12
NsS'module'
p34
g1
(cmojom.parse.ast
Module
p35
g3
NtRp36
(dp37
S'mojom_namespace'
p38
(S'IDENTIFIER'
p39
S'media.mojom'
tp40
sg12
I5
sg20
Nsg13
g31
sbsg13
Nsb.