ccopy_reg
_reconstructor
p1
(cmojom.parse.ast
Mojom
p2
c__builtin__
object
p3
NtRp4
(dp5
S'import_list'
p6
g1
(cmojom.parse.ast
ImportList
p7
g3
NtRp8
(dp9
S'items'
p10
(lp11
g1
(cmojom.parse.ast
Import
p12
g3
NtRp13
(dp14
S'attribute_list'
p15
NsS'lineno'
p16
I7
sS'import_filename'
p17
S'media/mojo/interfaces/media_types.mojom'
p18
sS'filename'
p19
S'../../media/mojo/interfaces/audio_decoder.mojom'
p20
sbasg16
I7
sg19
g20
sbsS'definition_list'
p21
(lp22
g1
(cmojom.parse.ast
Interface
p23
g3
NtRp24
(dp25
S'body'
p26
g1
(cmojom.parse.ast
InterfaceBody
p27
g3
NtRp28
(dp29
g10
(lp30
g1
(cmojom.parse.ast
Method
p31
g3
NtRp32
(dp33
S'ordinal'
p34
NsS'mojom_name'
p35
S'Construct'
p36
sS'parameter_list'
p37
g1
(cmojom.parse.ast
ParameterList
p38
g3
NtRp39
(dp40
g10
(lp41
g1
(cmojom.parse.ast
Parameter
p42
g3
NtRp43
(dp44
g34
Nsg35
S'client'
p45
sg15
Nsg19
g20
sS'typename'
p46
S'asso<AudioDecoderClient>'
p47
sg16
I14
sbasg16
I14
sg19
g20
sbsg15
Nsg19
Nsg16
NsS'response_parameter_list'
p48
Nsbag1
(g31
g3
NtRp49
(dp50
g34
Nsg35
S'Initialize'
p51
sg37
g1
(g38
g3
NtRp52
(dp53
g10
(lp54
g1
(g42
g3
NtRp55
(dp56
g34
Nsg35
S'config'
p57
sg15
Nsg19
g20
sg46
S'AudioDecoderConfig'
p58
sg16
I20
sbag1
(g42
g3
NtRp59
(dp60
g34
Nsg35
S'cdm_id'
p61
sg15
Nsg19
g20
sg46
S'int32'
p62
sg16
I20
sbasg16
I20
sg19
g20
sbsg15
Nsg19
Nsg16
Nsg48
g1
(g38
g3
NtRp63
(dp64
g10
(lp65
g1
(g42
g3
NtRp66
(dp67
g34
Nsg35
S'success'
p68
sg15
Nsg19
g20
sg46
S'bool'
p69
sg16
I21
sbag1
(g42
g3
NtRp70
(dp71
g34
Nsg35
S'needs_bitstream_conversion'
p72
sg15
Nsg19
g20
sg46
S'bool'
p73
sg16
I21
sbasg16
I21
sg19
g20
sbsbag1
(g31
g3
NtRp74
(dp75
g34
Nsg35
S'SetDataSource'
p76
sg37
g1
(g38
g3
NtRp77
(dp78
g10
(lp79
g1
(g42
g3
NtRp80
(dp81
g34
Nsg35
S'receive_pipe'
p82
sg15
Nsg19
g20
sg46
S'handle<data_pipe_consumer>'
p83
sg16
I24
sbasg16
I24
sg19
g20
sbsg15
Nsg19
Nsg16
Nsg48
Nsbag1
(g31
g3
NtRp84
(dp85
g34
Nsg35
S'Decode'
p86
sg37
g1
(g38
g3
NtRp87
(dp88
g10
(lp89
g1
(g42
g3
NtRp90
(dp91
g34
Nsg35
S'buffer'
p92
sg15
Nsg19
g20
sg46
S'DecoderBuffer'
p93
sg16
I34
sbasg16
I34
sg19
g20
sbsg15
Nsg19
Nsg16
Nsg48
g1
(g38
g3
NtRp94
(dp95
g10
(lp96
g1
(g42
g3
NtRp97
(dp98
g34
Nsg35
S'status'
p99
sg15
Nsg19
g20
sg46
S'DecodeStatus'
p100
sg16
I34
sbasg16
I34
sg19
g20
sbsbag1
(g31
g3
NtRp101
(dp102
g34
Nsg35
S'Reset'
p103
sg37
g1
(g38
g3
NtRp104
(dp105
g10
(lp106
sg16
Nsg19
Nsbsg15
Nsg19
Nsg16
Nsg48
g1
(g38
g3
NtRp107
(dp108
g10
(lp109
sg16
Nsg19
Nsbsbasg16
Nsg19
Nsbsg15
Nsg16
Nsg35
S'AudioDecoder'
p110
sg19
Nsbag1
(g23
g3
NtRp111
(dp112
g26
g1
(g27
g3
NtRp113
(dp114
g10
(lp115
g1
(g31
g3
NtRp116
(dp117
g34
Nsg35
S'OnBufferDecoded'
p118
sg37
g1
(g38
g3
NtRp119
(dp120
g10
(lp121
g1
(g42
g3
NtRp122
(dp123
g34
Nsg35
S'buffer'
p124
sg15
Nsg19
g20
sg46
S'AudioBuffer'
p125
sg16
I44
sbasg16
I44
sg19
g20
sbsg15
Nsg19
Nsg16
Nsg48
Nsbag1
(g31
g3
NtRp126
(dp127
g34
Nsg35
S'OnWaiting'
p128
sg37
g1
(g38
g3
NtRp129
(dp130
g10
(lp131
g1
(g42
g3
NtRp132
(dp133
g34
Nsg35
S'reason'
p134
sg15
Nsg19
g20
sg46
S'WaitingReason'
p135
sg16
I48
sbasg16
I48
sg19
g20
sbsg15
Nsg19
Nsg16
Nsg48
Nsbasg16
Nsg19
Nsbsg15
Nsg16
Nsg35
S'AudioDecoderClient'
p136
sg19
Nsbasg16
NsS'module'
p137
g1
(cmojom.parse.ast
Module
p138
g3
NtRp139
(dp140
S'mojom_namespace'
p141
(S'IDENTIFIER'
p142
S'media.mojom'
tp143
sg16
I5
sg15
Nsg19
g20
sbsg19
Nsb.