ccopy_reg
_reconstructor
p1
(cmojom.parse.ast
Mojom
p2
c__builtin__
object
p3
NtRp4
(dp5
S'import_list'
p6
g1
(cmojom.parse.ast
ImportList
p7
g3
NtRp8
(dp9
S'items'
p10
(lp11
sS'lineno'
p12
NsS'filename'
p13
NsbsS'definition_list'
p14
(lp15
g1
(cmojom.parse.ast
Interface
p16
g3
NtRp17
(dp18
S'body'
p19
g1
(cmojom.parse.ast
InterfaceBody
p20
g3
NtRp21
(dp22
g10
(lp23
g1
(cmojom.parse.ast
Enum
p24
g3
NtRp25
(dp26
S'attribute_list'
p27
g1
(cmojom.parse.ast
AttributeList
p28
g3
NtRp29
(dp30
g10
(lp31
g1
(cmojom.parse.ast
Attribute
p32
g3
NtRp33
(dp34
S'value'
p35
I01
sg12
I14
sS'key'
p36
S'Native'
p37
sg13
S'../../media/mojo/interfaces/cdm_proxy.mojom'
p38
sbasg12
I14
sg13
g38
sbsS'enum_value_list'
p39
Nsg12
I15
sS'mojom_name'
p40
S'Status'
p41
sg13
g38
sbag1
(g24
g3
NtRp42
(dp43
g27
g1
(g28
g3
NtRp44
(dp45
g10
(lp46
g1
(g32
g3
NtRp47
(dp48
g35
I01
sg12
I17
sg36
S'Native'
p49
sg13
g38
sbasg12
I17
sg13
g38
sbsg39
Nsg12
I18
sg40
S'Protocol'
p50
sg13
g38
sbag1
(g24
g3
NtRp51
(dp52
g27
g1
(g28
g3
NtRp53
(dp54
g10
(lp55
g1
(g32
g3
NtRp56
(dp57
g35
I01
sg12
I20
sg36
S'Native'
p58
sg13
g38
sbasg12
I20
sg13
g38
sbsg39
Nsg12
I21
sg40
S'Function'
p59
sg13
g38
sbag1
(g24
g3
NtRp60
(dp61
g27
g1
(g28
g3
NtRp62
(dp63
g10
(lp64
g1
(g32
g3
NtRp65
(dp66
g35
I01
sg12
I23
sg36
S'Native'
p67
sg13
g38
sbasg12
I23
sg13
g38
sbsg39
Nsg12
I24
sg40
S'KeyType'
p68
sg13
g38
sbag1
(cmojom.parse.ast
Method
p69
g3
NtRp70
(dp71
S'ordinal'
p72
Nsg40
S'Initialize'
p73
sS'parameter_list'
p74
g1
(cmojom.parse.ast
ParameterList
p75
g3
NtRp76
(dp77
g10
(lp78
g1
(cmojom.parse.ast
Parameter
p79
g3
NtRp80
(dp81
g72
Nsg40
S'client'
p82
sg27
Nsg13
g38
sS'typename'
p83
S'asso<CdmProxyClient>'
p84
sg12
I30
sbasg12
I30
sg13
g38
sbsg27
Nsg13
Nsg12
NsS'response_parameter_list'
p85
g1
(g75
g3
NtRp86
(dp87
g10
(lp88
g1
(g79
g3
NtRp89
(dp90
g72
Nsg40
S'status'
p91
sg27
Nsg13
g38
sg83
S'Status'
p92
sg12
I30
sbag1
(g79
g3
NtRp93
(dp94
g72
Nsg40
S'protocol'
p95
sg27
Nsg13
g38
sg83
S'Protocol'
p96
sg12
I31
sbag1
(g79
g3
NtRp97
(dp98
g72
Nsg40
S'crypto_session_id'
p99
sg27
Nsg13
g38
sg83
S'uint32'
p100
sg12
I32
sbag1
(g79
g3
NtRp101
(dp102
g72
Nsg40
S'cdm_id'
p103
sg27
Nsg13
g38
sg83
S'int32'
p104
sg12
I33
sbasg12
I30
sg13
g38
sbsbag1
(g69
g3
NtRp105
(dp106
g72
Nsg40
S'Process'
p107
sg74
g1
(g75
g3
NtRp108
(dp109
g10
(lp110
g1
(g79
g3
NtRp111
(dp112
g72
Nsg40
S'function'
p113
sg27
Nsg13
g38
sg83
S'Function'
p114
sg12
I44
sbag1
(g79
g3
NtRp115
(dp116
g72
Nsg40
S'crypto_session_id'
p117
sg27
Nsg13
g38
sg83
S'uint32'
p118
sg12
I45
sbag1
(g79
g3
NtRp119
(dp120
g72
Nsg40
S'input_data'
p121
sg27
Nsg13
g38
sg83
S'uint8[]'
p122
sg12
I46
sbag1
(g79
g3
NtRp123
(dp124
g72
Nsg40
S'output_data_size'
p125
sg27
Nsg13
g38
sg83
S'uint32'
p126
sg12
I47
sbasg12
I44
sg13
g38
sbsg27
Nsg13
Nsg12
Nsg85
g1
(g75
g3
NtRp127
(dp128
g10
(lp129
g1
(g79
g3
NtRp130
(dp131
g72
Nsg40
S'status'
p132
sg27
Nsg13
g38
sg83
S'Status'
p133
sg12
I47
sbag1
(g79
g3
NtRp134
(dp135
g72
Nsg40
S'output_data'
p136
sg27
Nsg13
g38
sg83
S'uint8[]'
p137
sg12
I48
sbasg12
I47
sg13
g38
sbsbag1
(g69
g3
NtRp138
(dp139
g72
Nsg40
S'CreateMediaCryptoSession'
p140
sg74
g1
(g75
g3
NtRp141
(dp142
g10
(lp143
g1
(g79
g3
NtRp144
(dp145
g72
Nsg40
S'input_data'
p146
sg27
Nsg13
g38
sg83
S'uint8[]'
p147
sg12
I55
sbasg12
I55
sg13
g38
sbsg27
Nsg13
Nsg12
Nsg85
g1
(g75
g3
NtRp148
(dp149
g10
(lp150
g1
(g79
g3
NtRp151
(dp152
g72
Nsg40
S'status'
p153
sg27
Nsg13
g38
sg83
S'Status'
p154
sg12
I56
sbag1
(g79
g3
NtRp155
(dp156
g72
Nsg40
S'crypto_session_id'
p157
sg27
Nsg13
g38
sg83
S'uint32'
p158
sg12
I56
sbag1
(g79
g3
NtRp159
(dp160
g72
Nsg40
S'output_data'
p161
sg27
Nsg13
g38
sg83
S'uint64'
p162
sg12
I56
sbasg12
I56
sg13
g38
sbsbag1
(g69
g3
NtRp163
(dp164
g72
Nsg40
S'SetKey'
p165
sg74
g1
(g75
g3
NtRp166
(dp167
g10
(lp168
g1
(g79
g3
NtRp169
(dp170
g72
Nsg40
S'crypto_session_id'
p171
sg27
Nsg13
g38
sg83
S'uint32'
p172
sg12
I62
sbag1
(g79
g3
NtRp173
(dp174
g72
Nsg40
S'key_id'
p175
sg27
Nsg13
g38
sg83
S'uint8[]'
p176
sg12
I62
sbag1
(g79
g3
NtRp177
(dp178
g72
Nsg40
S'key_type'
p179
sg27
Nsg13
g38
sg83
S'KeyType'
p180
sg12
I62
sbag1
(g79
g3
NtRp181
(dp182
g72
Nsg40
S'key_blob'
p183
sg27
Nsg13
g38
sg83
S'uint8[]'
p184
sg12
I63
sbasg12
I62
sg13
g38
sbsg27
Nsg13
Nsg12
Nsg85
g1
(g75
g3
NtRp185
(dp186
g10
(lp187
g1
(g79
g3
NtRp188
(dp189
g72
Nsg40
S'status'
p190
sg27
Nsg13
g38
sg83
S'Status'
p191
sg12
I63
sbasg12
I63
sg13
g38
sbsbag1
(g69
g3
NtRp192
(dp193
g72
Nsg40
S'RemoveKey'
p194
sg74
g1
(g75
g3
NtRp195
(dp196
g10
(lp197
g1
(g79
g3
NtRp198
(dp199
g72
Nsg40
S'crypto_session_id'
p200
sg27
Nsg13
g38
sg83
S'uint32'
p201
sg12
I68
sbag1
(g79
g3
NtRp202
(dp203
g72
Nsg40
S'key_id'
p204
sg27
Nsg13
g38
sg83
S'uint8[]'
p205
sg12
I68
sbasg12
I68
sg13
g38
sbsg27
Nsg13
Nsg12
Nsg85
g1
(g75
g3
NtRp206
(dp207
g10
(lp208
g1
(g79
g3
NtRp209
(dp210
g72
Nsg40
S'status'
p211
sg27
Nsg13
g38
sg83
S'Status'
p212
sg12
I68
sbasg12
I68
sg13
g38
sbsbasg12
I15
sg13
g38
sbsg27
Nsg12
Nsg40
S'CdmProxy'
p213
sg13
Nsbag1
(g16
g3
NtRp214
(dp215
g19
g1
(g20
g3
NtRp216
(dp217
g10
(lp218
g1
(g69
g3
NtRp219
(dp220
g72
Nsg40
S'NotifyHardwareReset'
p221
sg74
g1
(g75
g3
NtRp222
(dp223
g10
(lp224
sg12
Nsg13
Nsbsg27
Nsg13
Nsg12
Nsg85
Nsbasg12
Nsg13
Nsbsg27
Nsg12
Nsg40
S'CdmProxyClient'
p225
sg13
Nsbasg12
NsS'module'
p226
g1
(cmojom.parse.ast
Module
p227
g3
NtRp228
(dp229
S'mojom_namespace'
p230
(S'IDENTIFIER'
p231
S'media.mojom'
tp232
sg12
I5
sg27
Nsg13
g38
sbsg13
Nsb.