ccopy_reg
_reconstructor
p1
(cmojom.parse.ast
Mojom
p2
c__builtin__
object
p3
NtRp4
(dp5
S'import_list'
p6
g1
(cmojom.parse.ast
ImportList
p7
g3
NtRp8
(dp9
S'items'
p10
(lp11
g1
(cmojom.parse.ast
Import
p12
g3
NtRp13
(dp14
S'attribute_list'
p15
NsS'lineno'
p16
I7
sS'import_filename'
p17
S'media/mojo/interfaces/decryptor.mojom'
p18
sS'filename'
p19
S'../../media/mojo/interfaces/content_decryption_module.mojom'
p20
sbag1
(g12
g3
NtRp21
(dp22
g15
Nsg16
I8
sg17
S'url/mojom/origin.mojom'
p23
sg19
g20
sbag1
(g12
g3
NtRp24
(dp25
g15
Nsg16
I9
sg17
S'url/mojom/url.mojom'
p26
sg19
g20
sbasg16
I7
sg19
g20
sbsS'definition_list'
p27
(lp28
g1
(cmojom.parse.ast
Enum
p29
g3
NtRp30
(dp31
g15
g1
(cmojom.parse.ast
AttributeList
p32
g3
NtRp33
(dp34
g10
(lp35
g1
(cmojom.parse.ast
Attribute
p36
g3
NtRp37
(dp38
S'value'
p39
I01
sg16
I12
sS'key'
p40
S'Native'
p41
sg19
g20
sbasg16
I12
sg19
g20
sbsS'enum_value_list'
p42
Nsg16
I13
sS'mojom_name'
p43
S'EmeInitDataType'
p44
sg19
g20
sbag1
(g29
g3
NtRp45
(dp46
g15
g1
(g32
g3
NtRp47
(dp48
g10
(lp49
g1
(g36
g3
NtRp50
(dp51
g39
I01
sg16
I16
sg40
S'Native'
p52
sg19
g20
sbasg16
I16
sg19
g20
sbsg42
Nsg16
I17
sg43
S'CdmSessionType'
p53
sg19
g20
sbag1
(g29
g3
NtRp54
(dp55
g15
g1
(g32
g3
NtRp56
(dp57
g10
(lp58
g1
(g36
g3
NtRp59
(dp60
g39
I01
sg16
I20
sg40
S'Native'
p61
sg19
g20
sbasg16
I20
sg19
g20
sbsg42
Nsg16
I21
sg43
S'CdmMessageType'
p62
sg19
g20
sbag1
(g29
g3
NtRp63
(dp64
g15
Nsg42
g1
(cmojom.parse.ast
EnumValueList
p65
g3
NtRp66
(dp67
g10
(lp68
g1
(cmojom.parse.ast
EnumValue
p69
g3
NtRp70
(dp71
g15
Nsg39
Nsg16
I25
sg43
S'USABLE'
p72
sg19
g20
sbag1
(g69
g3
NtRp73
(dp74
g15
Nsg39
Nsg16
I26
sg43
S'INTERNAL_ERROR'
p75
sg19
g20
sbag1
(g69
g3
NtRp76
(dp77
g15
Nsg39
Nsg16
I27
sg43
S'EXPIRED'
p78
sg19
g20
sbag1
(g69
g3
NtRp79
(dp80
g15
Nsg39
Nsg16
I28
sg43
S'OUTPUT_RESTRICTED'
p81
sg19
g20
sbag1
(g69
g3
NtRp82
(dp83
g15
Nsg39
Nsg16
I29
sg43
S'OUTPUT_DOWNSCALED'
p84
sg19
g20
sbag1
(g69
g3
NtRp85
(dp86
g15
Nsg39
Nsg16
I30
sg43
S'KEY_STATUS_PENDING'
p87
sg19
g20
sbag1
(g69
g3
NtRp88
(dp89
g15
Nsg39
Nsg16
I31
sg43
S'RELEASED'
p90
sg19
g20
sbasg16
I25
sg19
g20
sbsg16
I24
sg43
S'CdmKeyStatus'
p91
sg19
g20
sbag1
(g29
g3
NtRp92
(dp93
g15
g1
(g32
g3
NtRp94
(dp95
g10
(lp96
g1
(g36
g3
NtRp97
(dp98
g39
I01
sg16
I35
sg40
S'Native'
p99
sg19
g20
sbasg16
I35
sg19
g20
sbsg42
Nsg16
I36
sg43
S'HdcpVersion'
p100
sg19
g20
sbag1
(cmojom.parse.ast
Struct
p101
g3
NtRp102
(dp103
S'body'
p104
Nsg15
g1
(g32
g3
NtRp105
(dp106
g10
(lp107
g1
(g36
g3
NtRp108
(dp109
g39
I01
sg16
I39
sg40
S'Native'
p110
sg19
g20
sbasg16
I39
sg19
g20
sbsg16
Nsg43
S'CdmConfig'
p111
sg19
Nsbag1
(g101
g3
NtRp112
(dp113
g104
g1
(cmojom.parse.ast
StructBody
p114
g3
NtRp115
(dp116
g10
(lp117
g1
(g29
g3
NtRp118
(dp119
g15
g1
(g32
g3
NtRp120
(dp121
g10
(lp122
g1
(g36
g3
NtRp123
(dp124
g39
I01
sg16
I49
sg40
S'Native'
p125
sg19
g20
sbasg16
I49
sg19
g20
sbsg42
Nsg16
I50
sg43
S'Exception'
p126
sg19
g20
sbag1
(cmojom.parse.ast
StructField
p127
g3
NtRp128
(dp129
S'ordinal'
p130
NsS'default_value'
p131
Nsg43
S'success'
p132
sg15
Nsg19
NsS'typename'
p133
S'bool'
p134
sg16
Nsbag1
(g127
g3
NtRp135
(dp136
g130
Nsg131
Nsg43
S'exception'
p137
sg15
Nsg19
Nsg133
S'Exception'
p138
sg16
Nsbag1
(g127
g3
NtRp139
(dp140
g130
Nsg131
Nsg43
S'system_code'
p141
sg15
Nsg19
Nsg133
S'uint32'
p142
sg16
Nsbag1
(g127
g3
NtRp143
(dp144
g130
Nsg131
Nsg43
S'error_message'
p145
sg15
Nsg19
Nsg133
S'string'
p146
sg16
Nsbasg16
I50
sg19
g20
sbsg15
Nsg16
Nsg43
S'CdmPromiseResult'
p147
sg19
Nsbag1
(g101
g3
NtRp148
(dp149
g104
g1
(g114
g3
NtRp150
(dp151
g10
(lp152
g1
(g127
g3
NtRp153
(dp154
g130
Nsg131
Nsg43
S'key_id'
p155
sg15
Nsg19
Nsg133
S'uint8[]'
p156
sg16
Nsbag1
(g127
g3
NtRp157
(dp158
g130
Nsg131
Nsg43
S'status'
p159
sg15
Nsg19
Nsg133
S'CdmKeyStatus'
p160
sg16
Nsbag1
(g127
g3
NtRp161
(dp162
g130
Nsg131
Nsg43
S'system_code'
p163
sg15
Nsg19
Nsg133
S'uint32'
p164
sg16
Nsbasg16
Nsg19
Nsbsg15
Nsg16
Nsg43
S'CdmKeyInformation'
p165
sg19
Nsbag1
(cmojom.parse.ast
Interface
p166
g3
NtRp167
(dp168
g104
g1
(cmojom.parse.ast
InterfaceBody
p169
g3
NtRp170
(dp171
g10
(lp172
g1
(cmojom.parse.ast
Method
p173
g3
NtRp174
(dp175
g130
Nsg43
S'SetClient'
p176
sS'parameter_list'
p177
g1
(cmojom.parse.ast
ParameterList
p178
g3
NtRp179
(dp180
g10
(lp181
g1
(cmojom.parse.ast
Parameter
p182
g3
NtRp183
(dp184
g130
Nsg43
S'client'
p185
sg15
Nsg19
g20
sg133
S'asso<ContentDecryptionModuleClient>'
p186
sg16
I75
sbasg16
I75
sg19
g20
sbsg15
Nsg19
Nsg16
NsS'response_parameter_list'
p187
Nsbag1
(g173
g3
NtRp188
(dp189
g130
Nsg43
S'Initialize'
p190
sg177
g1
(g178
g3
NtRp191
(dp192
g10
(lp193
g1
(g182
g3
NtRp194
(dp195
g130
Nsg43
S'key_system'
p196
sg15
Nsg19
g20
sg133
S'string'
p197
sg16
I82
sbag1
(g182
g3
NtRp198
(dp199
g130
Nsg43
S'security_origin'
p200
sg15
Nsg19
g20
sg133
S'url.mojom.Origin'
p201
sg16
I83
sbag1
(g182
g3
NtRp202
(dp203
g130
Nsg43
S'cdm_config'
p204
sg15
Nsg19
g20
sg133
S'CdmConfig'
p205
sg16
I84
sbasg16
I82
sg19
g20
sbsg15
Nsg19
Nsg16
Nsg187
g1
(g178
g3
NtRp206
(dp207
g10
(lp208
g1
(g182
g3
NtRp209
(dp210
g130
Nsg43
S'result'
p211
sg15
Nsg19
g20
sg133
S'CdmPromiseResult'
p212
sg16
I85
sbag1
(g182
g3
NtRp213
(dp214
g130
Nsg43
S'cdm_id'
p215
sg15
Nsg19
g20
sg133
S'int32'
p216
sg16
I85
sbag1
(g182
g3
NtRp217
(dp218
g130
Nsg43
S'decryptor'
p219
sg15
Nsg19
g20
sg133
S'Decryptor?'
p220
sg16
I85
sbasg16
I85
sg19
g20
sbsbag1
(g173
g3
NtRp221
(dp222
g130
Nsg43
S'SetServerCertificate'
p223
sg177
g1
(g178
g3
NtRp224
(dp225
g10
(lp226
g1
(g182
g3
NtRp227
(dp228
g130
Nsg43
S'certificate_data'
p229
sg15
Nsg19
g20
sg133
S'uint8[]'
p230
sg16
I89
sbasg16
I89
sg19
g20
sbsg15
Nsg19
Nsg16
Nsg187
g1
(g178
g3
NtRp231
(dp232
g10
(lp233
g1
(g182
g3
NtRp234
(dp235
g130
Nsg43
S'result'
p236
sg15
Nsg19
g20
sg133
S'CdmPromiseResult'
p237
sg16
I90
sbasg16
I90
sg19
g20
sbsbag1
(g173
g3
NtRp238
(dp239
g130
Nsg43
S'GetStatusForPolicy'
p240
sg177
g1
(g178
g3
NtRp241
(dp242
g10
(lp243
g1
(g182
g3
NtRp244
(dp245
g130
Nsg43
S'min_hdcp_version'
p246
sg15
Nsg19
g20
sg133
S'HdcpVersion'
p247
sg16
I96
sbasg16
I96
sg19
g20
sbsg15
Nsg19
Nsg16
Nsg187
g1
(g178
g3
NtRp248
(dp249
g10
(lp250
g1
(g182
g3
NtRp251
(dp252
g130
Nsg43
S'result'
p253
sg15
Nsg19
g20
sg133
S'CdmPromiseResult'
p254
sg16
I97
sbag1
(g182
g3
NtRp255
(dp256
g130
Nsg43
S'key_status'
p257
sg15
Nsg19
g20
sg133
S'CdmKeyStatus'
p258
sg16
I97
sbasg16
I97
sg19
g20
sbsbag1
(g173
g3
NtRp259
(dp260
g130
Nsg43
S'CreateSessionAndGenerateRequest'
p261
sg177
g1
(g178
g3
NtRp262
(dp263
g10
(lp264
g1
(g182
g3
NtRp265
(dp266
g130
Nsg43
S'session_type'
p267
sg15
Nsg19
g20
sg133
S'CdmSessionType'
p268
sg16
I102
sbag1
(g182
g3
NtRp269
(dp270
g130
Nsg43
S'init_data_type'
p271
sg15
Nsg19
g20
sg133
S'EmeInitDataType'
p272
sg16
I103
sbag1
(g182
g3
NtRp273
(dp274
g130
Nsg43
S'init_data'
p275
sg15
Nsg19
g20
sg133
S'uint8[]'
p276
sg16
I104
sbasg16
I102
sg19
g20
sbsg15
Nsg19
Nsg16
Nsg187
g1
(g178
g3
NtRp277
(dp278
g10
(lp279
g1
(g182
g3
NtRp280
(dp281
g130
Nsg43
S'result'
p282
sg15
Nsg19
g20
sg133
S'CdmPromiseResult'
p283
sg16
I105
sbag1
(g182
g3
NtRp284
(dp285
g130
Nsg43
S'session_id'
p286
sg15
Nsg19
g20
sg133
S'string'
p287
sg16
I105
sbasg16
I105
sg19
g20
sbsbag1
(g173
g3
NtRp288
(dp289
g130
Nsg43
S'LoadSession'
p290
sg177
g1
(g178
g3
NtRp291
(dp292
g10
(lp293
g1
(g182
g3
NtRp294
(dp295
g130
Nsg43
S'session_type'
p296
sg15
Nsg19
g20
sg133
S'CdmSessionType'
p297
sg16
I113
sbag1
(g182
g3
NtRp298
(dp299
g130
Nsg43
S'session_id'
p300
sg15
Nsg19
g20
sg133
S'string'
p301
sg16
I113
sbasg16
I113
sg19
g20
sbsg15
Nsg19
Nsg16
Nsg187
g1
(g178
g3
NtRp302
(dp303
g10
(lp304
g1
(g182
g3
NtRp305
(dp306
g130
Nsg43
S'result'
p307
sg15
Nsg19
g20
sg133
S'CdmPromiseResult'
p308
sg16
I114
sbag1
(g182
g3
NtRp309
(dp310
g130
Nsg43
S'session_id'
p311
sg15
Nsg19
g20
sg133
S'string'
p312
sg16
I114
sbasg16
I114
sg19
g20
sbsbag1
(g173
g3
NtRp313
(dp314
g130
Nsg43
S'UpdateSession'
p315
sg177
g1
(g178
g3
NtRp316
(dp317
g10
(lp318
g1
(g182
g3
NtRp319
(dp320
g130
Nsg43
S'session_id'
p321
sg15
Nsg19
g20
sg133
S'string'
p322
sg16
I117
sbag1
(g182
g3
NtRp323
(dp324
g130
Nsg43
S'response'
p325
sg15
Nsg19
g20
sg133
S'uint8[]'
p326
sg16
I117
sbasg16
I117
sg19
g20
sbsg15
Nsg19
Nsg16
Nsg187
g1
(g178
g3
NtRp327
(dp328
g10
(lp329
g1
(g182
g3
NtRp330
(dp331
g130
Nsg43
S'result'
p332
sg15
Nsg19
g20
sg133
S'CdmPromiseResult'
p333
sg16
I118
sbasg16
I118
sg19
g20
sbsbag1
(g173
g3
NtRp334
(dp335
g130
Nsg43
S'CloseSession'
p336
sg177
g1
(g178
g3
NtRp337
(dp338
g10
(lp339
g1
(g182
g3
NtRp340
(dp341
g130
Nsg43
S'session_id'
p342
sg15
Nsg19
g20
sg133
S'string'
p343
sg16
I121
sbasg16
I121
sg19
g20
sbsg15
Nsg19
Nsg16
Nsg187
g1
(g178
g3
NtRp344
(dp345
g10
(lp346
g1
(g182
g3
NtRp347
(dp348
g130
Nsg43
S'result'
p349
sg15
Nsg19
g20
sg133
S'CdmPromiseResult'
p350
sg16
I121
sbasg16
I121
sg19
g20
sbsbag1
(g173
g3
NtRp351
(dp352
g130
Nsg43
S'RemoveSession'
p353
sg177
g1
(g178
g3
NtRp354
(dp355
g10
(lp356
g1
(g182
g3
NtRp357
(dp358
g130
Nsg43
S'session_id'
p359
sg15
Nsg19
g20
sg133
S'string'
p360
sg16
I125
sbasg16
I125
sg19
g20
sbsg15
Nsg19
Nsg16
Nsg187
g1
(g178
g3
NtRp361
(dp362
g10
(lp363
g1
(g182
g3
NtRp364
(dp365
g130
Nsg43
S'result'
p366
sg15
Nsg19
g20
sg133
S'CdmPromiseResult'
p367
sg16
I125
sbasg16
I125
sg19
g20
sbsbasg16
Nsg19
Nsbsg15
Nsg16
Nsg43
S'ContentDecryptionModule'
p368
sg19
Nsbag1
(g166
g3
NtRp369
(dp370
g104
g1
(g169
g3
NtRp371
(dp372
g10
(lp373
g1
(g173
g3
NtRp374
(dp375
g130
Nsg43
S'OnSessionMessage'
p376
sg177
g1
(g178
g3
NtRp377
(dp378
g10
(lp379
g1
(g182
g3
NtRp380
(dp381
g130
Nsg43
S'session_id'
p382
sg15
Nsg19
g20
sg133
S'string'
p383
sg16
I130
sbag1
(g182
g3
NtRp384
(dp385
g130
Nsg43
S'message_type'
p386
sg15
Nsg19
g20
sg133
S'CdmMessageType'
p387
sg16
I130
sbag1
(g182
g3
NtRp388
(dp389
g130
Nsg43
S'message'
p390
sg15
Nsg19
g20
sg133
S'uint8[]'
p391
sg16
I131
sbasg16
I130
sg19
g20
sbsg15
Nsg19
Nsg16
Nsg187
Nsbag1
(g173
g3
NtRp392
(dp393
g130
Nsg43
S'OnSessionClosed'
p394
sg177
g1
(g178
g3
NtRp395
(dp396
g10
(lp397
g1
(g182
g3
NtRp398
(dp399
g130
Nsg43
S'session_id'
p400
sg15
Nsg19
g20
sg133
S'string'
p401
sg16
I133
sbasg16
I133
sg19
g20
sbsg15
Nsg19
Nsg16
Nsg187
Nsbag1
(g173
g3
NtRp402
(dp403
g130
Nsg43
S'OnSessionKeysChange'
p404
sg177
g1
(g178
g3
NtRp405
(dp406
g10
(lp407
g1
(g182
g3
NtRp408
(dp409
g130
Nsg43
S'session_id'
p410
sg15
Nsg19
g20
sg133
S'string'
p411
sg16
I135
sbag1
(g182
g3
NtRp412
(dp413
g130
Nsg43
S'has_additional_usable_key'
p414
sg15
Nsg19
g20
sg133
S'bool'
p415
sg16
I135
sbag1
(g182
g3
NtRp416
(dp417
g130
Nsg43
S'keys_info'
p418
sg15
Nsg19
g20
sg133
S'CdmKeyInformation[]'
p419
sg16
I136
sbasg16
I135
sg19
g20
sbsg15
Nsg19
Nsg16
Nsg187
Nsbag1
(g173
g3
NtRp420
(dp421
g130
Nsg43
S'OnSessionExpirationUpdate'
p422
sg177
g1
(g178
g3
NtRp423
(dp424
g10
(lp425
g1
(g182
g3
NtRp426
(dp427
g130
Nsg43
S'session_id'
p428
sg15
Nsg19
g20
sg133
S'string'
p429
sg16
I140
sbag1
(g182
g3
NtRp430
(dp431
g130
Nsg43
S'new_expiry_time_sec'
p432
sg15
Nsg19
g20
sg133
S'double'
p433
sg16
I140
sbasg16
I140
sg19
g20
sbsg15
Nsg19
Nsg16
Nsg187
Nsbasg16
Nsg19
Nsbsg15
Nsg16
Nsg43
S'ContentDecryptionModuleClient'
p434
sg19
Nsbag1
(g166
g3
NtRp435
(dp436
g104
g1
(g169
g3
NtRp437
(dp438
g10
(lp439
g1
(g173
g3
NtRp440
(dp441
g130
Nsg43
S'CreateCdm'
p442
sg177
g1
(g178
g3
NtRp443
(dp444
g10
(lp445
g1
(g182
g3
NtRp446
(dp447
g130
Nsg43
S'key_system'
p448
sg15
Nsg19
g20
sg133
S'string'
p449
sg16
I149
sbag1
(g182
g3
NtRp450
(dp451
g130
Nsg43
S'cdm'
p452
sg15
Nsg19
g20
sg133
S'ContentDecryptionModule&'
p453
sg16
I149
sbasg16
I149
sg19
g20
sbsg15
Nsg19
Nsg16
Nsg187
Nsbasg16
Nsg19
Nsbsg15
Nsg16
Nsg43
S'CdmFactory'
p454
sg19
Nsbasg16
NsS'module'
p455
g1
(cmojom.parse.ast
Module
p456
g3
NtRp457
(dp458
S'mojom_namespace'
p459
(S'IDENTIFIER'
p460
S'media.mojom'
tp461
sg16
I5
sg15
Nsg19
g20
sbsg19
Nsb.