ccopy_reg
_reconstructor
p1
(cmojom.parse.ast
Mojom
p2
c__builtin__
object
p3
NtRp4
(dp5
S'import_list'
p6
g1
(cmojom.parse.ast
ImportList
p7
g3
NtRp8
(dp9
S'items'
p10
(lp11
g1
(cmojom.parse.ast
Import
p12
g3
NtRp13
(dp14
S'attribute_list'
p15
NsS'lineno'
p16
I7
sS'import_filename'
p17
S'media/mojo/interfaces/media_types.mojom'
p18
sS'filename'
p19
S'../../media/mojo/interfaces/demuxer_stream.mojom'
p20
sbasg16
I7
sg19
g20
sbsS'definition_list'
p21
(lp22
g1
(cmojom.parse.ast
Interface
p23
g3
NtRp24
(dp25
S'body'
p26
g1
(cmojom.parse.ast
InterfaceBody
p27
g3
NtRp28
(dp29
g10
(lp30
g1
(cmojom.parse.ast
Enum
p31
g3
NtRp32
(dp33
g15
g1
(cmojom.parse.ast
AttributeList
p34
g3
NtRp35
(dp36
g10
(lp37
g1
(cmojom.parse.ast
Attribute
p38
g3
NtRp39
(dp40
S'value'
p41
I01
sg16
I14
sS'key'
p42
S'Native'
p43
sg19
g20
sbasg16
I14
sg19
g20
sbsS'enum_value_list'
p44
Nsg16
I15
sS'mojom_name'
p45
S'Type'
p46
sg19
g20
sbag1
(g31
g3
NtRp47
(dp48
g15
g1
(g34
g3
NtRp49
(dp50
g10
(lp51
g1
(g38
g3
NtRp52
(dp53
g41
I01
sg16
I18
sg42
S'Native'
p54
sg19
g20
sbasg16
I18
sg19
g20
sbsg44
Nsg16
I19
sg45
S'Status'
p55
sg19
g20
sbag1
(cmojom.parse.ast
Method
p56
g3
NtRp57
(dp58
S'ordinal'
p59
Nsg45
S'Initialize'
p60
sS'parameter_list'
p61
g1
(cmojom.parse.ast
ParameterList
p62
g3
NtRp63
(dp64
g10
(lp65
sg16
Nsg19
Nsbsg15
Nsg19
Nsg16
NsS'response_parameter_list'
p66
g1
(g62
g3
NtRp67
(dp68
g10
(lp69
g1
(cmojom.parse.ast
Parameter
p70
g3
NtRp71
(dp72
g59
Nsg45
S'type'
p73
sg15
Nsg19
g20
sS'typename'
p74
S'Type'
p75
sg16
I26
sbag1
(g70
g3
NtRp76
(dp77
g59
Nsg45
S'pipe'
p78
sg15
Nsg19
g20
sg74
S'handle<data_pipe_consumer>'
p79
sg16
I27
sbag1
(g70
g3
NtRp80
(dp81
g59
Nsg45
S'audio_config'
p82
sg15
Nsg19
g20
sg74
S'AudioDecoderConfig?'
p83
sg16
I28
sbag1
(g70
g3
NtRp84
(dp85
g59
Nsg45
S'video_config'
p86
sg15
Nsg19
g20
sg74
S'VideoDecoderConfig?'
p87
sg16
I29
sbasg16
I26
sg19
g20
sbsbag1
(g56
g3
NtRp88
(dp89
g59
Nsg45
S'Read'
p90
sg61
g1
(g62
g3
NtRp91
(dp92
g10
(lp93
sg16
Nsg19
Nsbsg15
Nsg19
Nsg16
Nsg66
g1
(g62
g3
NtRp94
(dp95
g10
(lp96
g1
(g70
g3
NtRp97
(dp98
g59
Nsg45
S'status'
p99
sg15
Nsg19
g20
sg74
S'Status'
p100
sg16
I45
sbag1
(g70
g3
NtRp101
(dp102
g59
Nsg45
S'buffer'
p103
sg15
Nsg19
g20
sg74
S'DecoderBuffer?'
p104
sg16
I46
sbag1
(g70
g3
NtRp105
(dp106
g59
Nsg45
S'audio_config'
p107
sg15
Nsg19
g20
sg74
S'AudioDecoderConfig?'
p108
sg16
I47
sbag1
(g70
g3
NtRp109
(dp110
g59
Nsg45
S'video_config'
p111
sg15
Nsg19
g20
sg74
S'VideoDecoderConfig?'
p112
sg16
I48
sbasg16
I45
sg19
g20
sbsbag1
(g56
g3
NtRp113
(dp114
g59
Nsg45
S'EnableBitstreamConverter'
p115
sg61
g1
(g62
g3
NtRp116
(dp117
g10
(lp118
sg16
Nsg19
Nsbsg15
Nsg19
Nsg16
Nsg66
Nsbasg16
I15
sg19
g20
sbsg15
Nsg16
Nsg45
S'DemuxerStream'
p119
sg19
Nsbasg16
NsS'module'
p120
g1
(cmojom.parse.ast
Module
p121
g3
NtRp122
(dp123
S'mojom_namespace'
p124
(S'IDENTIFIER'
p125
S'media.mojom'
tp126
sg16
I5
sg15
Nsg19
g20
sbsg19
Nsb.