ccopy_reg
_reconstructor
p1
(cmojom.parse.ast
Mojom
p2
c__builtin__
object
p3
NtRp4
(dp5
S'import_list'
p6
g1
(cmojom.parse.ast
ImportList
p7
g3
NtRp8
(dp9
S'items'
p10
(lp11
g1
(cmojom.parse.ast
Import
p12
g3
NtRp13
(dp14
S'attribute_list'
p15
NsS'lineno'
p16
I7
sS'import_filename'
p17
S'gpu/ipc/common/mailbox_holder.mojom'
p18
sS'filename'
p19
S'../../media/mojo/interfaces/media_types.mojom'
p20
sbag1
(g12
g3
NtRp21
(dp22
g15
Nsg16
I8
sg17
S'mojo/public/mojom/base/time.mojom'
p23
sg19
g20
sbag1
(g12
g3
NtRp24
(dp25
g15
Nsg16
I9
sg17
S'mojo/public/mojom/base/values.mojom'
p26
sg19
g20
sbag1
(g12
g3
NtRp27
(dp28
g15
Nsg16
I10
sg17
S'ui/gfx/geometry/mojo/geometry.mojom'
p29
sg19
g20
sbag1
(g12
g3
NtRp30
(dp31
g15
Nsg16
I11
sg17
S'ui/gfx/mojo/color_space.mojom'
p32
sg19
g20
sbasg16
I7
sg19
g20
sbsS'definition_list'
p33
(lp34
g1
(cmojom.parse.ast
Enum
p35
g3
NtRp36
(dp37
g15
g1
(cmojom.parse.ast
AttributeList
p38
g3
NtRp39
(dp40
g10
(lp41
g1
(cmojom.parse.ast
Attribute
p42
g3
NtRp43
(dp44
S'value'
p45
I01
sg16
I14
sS'key'
p46
S'Native'
p47
sg19
g20
sbasg16
I14
sg19
g20
sbsS'enum_value_list'
p48
Nsg16
I15
sS'mojom_name'
p49
S'AudioCodec'
p50
sg19
g20
sbag1
(g35
g3
NtRp51
(dp52
g15
g1
(g38
g3
NtRp53
(dp54
g10
(lp55
g1
(g42
g3
NtRp56
(dp57
g45
I01
sg16
I18
sg46
S'Native'
p58
sg19
g20
sbasg16
I18
sg19
g20
sbsg48
Nsg16
I19
sg49
S'BufferingState'
p59
sg19
g20
sbag1
(g35
g3
NtRp60
(dp61
g15
g1
(g38
g3
NtRp62
(dp63
g10
(lp64
g1
(g42
g3
NtRp65
(dp66
g45
I01
sg16
I22
sg46
S'Native'
p67
sg19
g20
sbasg16
I22
sg19
g20
sbsg48
Nsg16
I23
sg49
S'ChannelLayout'
p68
sg19
g20
sbag1
(g35
g3
NtRp69
(dp70
g15
g1
(g38
g3
NtRp71
(dp72
g10
(lp73
g1
(g42
g3
NtRp74
(dp75
g45
I01
sg16
I26
sg46
S'Native'
p76
sg19
g20
sbasg16
I26
sg19
g20
sbsg48
Nsg16
I27
sg49
S'ColorSpace'
p77
sg19
g20
sbag1
(g35
g3
NtRp78
(dp79
g15
g1
(g38
g3
NtRp80
(dp81
g10
(lp82
g1
(g42
g3
NtRp83
(dp84
g45
I01
sg16
I30
sg46
S'Native'
p85
sg19
g20
sbasg16
I30
sg19
g20
sbsg48
Nsg16
I31
sg49
S'DecodeStatus'
p86
sg19
g20
sbag1
(cmojom.parse.ast
Struct
p87
g3
NtRp88
(dp89
S'body'
p90
Nsg15
g1
(g38
g3
NtRp91
(dp92
g10
(lp93
g1
(g42
g3
NtRp94
(dp95
g45
I01
sg16
I34
sg46
S'Native'
p96
sg19
g20
sbasg16
I34
sg19
g20
sbsg16
Nsg49
S'MediaLogEvent'
p97
sg19
Nsbag1
(g35
g3
NtRp98
(dp99
g15
g1
(g38
g3
NtRp100
(dp101
g10
(lp102
g1
(g42
g3
NtRp103
(dp104
g45
I01
sg16
I38
sg46
S'Native'
p105
sg19
g20
sbasg16
I38
sg19
g20
sbsg48
Nsg16
I39
sg49
S'OutputDeviceStatus'
p106
sg19
g20
sbag1
(g35
g3
NtRp107
(dp108
g15
g1
(g38
g3
NtRp109
(dp110
g10
(lp111
g1
(g42
g3
NtRp112
(dp113
g45
I01
sg16
I42
sg46
S'Native'
p114
sg19
g20
sbasg16
I42
sg19
g20
sbsg48
Nsg16
I43
sg49
S'PipelineStatus'
p115
sg19
g20
sbag1
(g35
g3
NtRp116
(dp117
g15
g1
(g38
g3
NtRp118
(dp119
g10
(lp120
g1
(g42
g3
NtRp121
(dp122
g45
I01
sg16
I46
sg46
S'Native'
p123
sg19
g20
sbasg16
I46
sg19
g20
sbsg48
Nsg16
I47
sg49
S'SampleFormat'
p124
sg19
g20
sbag1
(g35
g3
NtRp125
(dp126
g15
g1
(g38
g3
NtRp127
(dp128
g10
(lp129
g1
(g42
g3
NtRp130
(dp131
g45
I01
sg16
I50
sg46
S'Native'
p132
sg19
g20
sbasg16
I50
sg19
g20
sbsg48
Nsg16
I51
sg49
S'VideoCodec'
p133
sg19
g20
sbag1
(g35
g3
NtRp134
(dp135
g15
g1
(g38
g3
NtRp136
(dp137
g10
(lp138
g1
(g42
g3
NtRp139
(dp140
g45
I01
sg16
I54
sg46
S'Native'
p141
sg19
g20
sbasg16
I54
sg19
g20
sbsg48
Nsg16
I55
sg49
S'VideoCodecProfile'
p142
sg19
g20
sbag1
(g35
g3
NtRp143
(dp144
g15
g1
(g38
g3
NtRp145
(dp146
g10
(lp147
g1
(g42
g3
NtRp148
(dp149
g45
I01
sg16
I58
sg46
S'Native'
p150
sg19
g20
sbasg16
I58
sg19
g20
sbsg48
Nsg16
I59
sg49
S'VideoPixelFormat'
p151
sg19
g20
sbag1
(g35
g3
NtRp152
(dp153
g15
g1
(g38
g3
NtRp154
(dp155
g10
(lp156
g1
(g42
g3
NtRp157
(dp158
g45
I01
sg16
I62
sg46
S'Native'
p159
sg19
g20
sbasg16
I62
sg19
g20
sbsg48
Nsg16
I63
sg49
S'VideoRotation'
p160
sg19
g20
sbag1
(g87
g3
NtRp161
(dp162
g90
g1
(cmojom.parse.ast
StructBody
p163
g3
NtRp164
(dp165
g10
(lp166
g1
(cmojom.parse.ast
StructField
p167
g3
NtRp168
(dp169
S'ordinal'
p170
NsS'default_value'
p171
Nsg49
S'rotation'
p172
sg15
Nsg19
NsS'typename'
p173
S'VideoRotation'
p174
sg16
Nsbag1
(g167
g3
NtRp175
(dp176
g170
Nsg171
Nsg49
S'mirrored'
p177
sg15
Nsg19
Nsg173
S'bool'
p178
sg16
Nsbasg16
Nsg19
Nsbsg15
Nsg16
Nsg49
S'VideoTransformation'
p179
sg19
Nsbag1
(g35
g3
NtRp180
(dp181
g15
g1
(g38
g3
NtRp182
(dp183
g10
(lp184
g1
(g42
g3
NtRp185
(dp186
g45
I01
sg16
I72
sg46
S'Native'
p187
sg19
g20
sbasg16
I72
sg19
g20
sbsg48
Nsg16
I73
sg49
S'WaitingReason'
p188
sg19
g20
sbag1
(g35
g3
NtRp189
(dp190
g15
g1
(g38
g3
NtRp191
(dp192
g10
(lp193
g1
(g42
g3
NtRp194
(dp195
g45
I01
sg16
I76
sg46
S'Native'
p196
sg19
g20
sbasg16
I76
sg19
g20
sbsg48
Nsg16
I77
sg49
S'WatchTimeKey'
p197
sg19
g20
sbag1
(g35
g3
NtRp198
(dp199
g15
g1
(g38
g3
NtRp200
(dp201
g10
(lp202
g1
(g42
g3
NtRp203
(dp204
g45
I01
sg16
I80
sg46
S'Native'
p205
sg19
g20
sbasg16
I80
sg19
g20
sbsg48
Nsg16
I81
sg49
S'EncryptionMode'
p206
sg19
g20
sbag1
(g35
g3
NtRp207
(dp208
g15
g1
(g38
g3
NtRp209
(dp210
g10
(lp211
g1
(g42
g3
NtRp212
(dp213
g45
I01
sg16
I84
sg46
S'Native'
p214
sg19
g20
sbasg16
I84
sg19
g20
sbsg48
Nsg16
I85
sg49
S'MediaContainerName'
p215
sg19
g20
sbag1
(g35
g3
NtRp216
(dp217
g15
g1
(g38
g3
NtRp218
(dp219
g10
(lp220
g1
(g42
g3
NtRp221
(dp222
g45
I01
sg16
I88
sg46
S'Native'
p223
sg19
g20
sbasg16
I88
sg19
g20
sbsg48
Nsg16
I89
sg49
S'MediaStatusState'
p224
sg19
g20
sbag1
(g87
g3
NtRp225
(dp226
g90
g1
(g163
g3
NtRp227
(dp228
g10
(lp229
g1
(g167
g3
NtRp230
(dp231
g170
Nsg171
Nsg49
S'crypt_byte_block'
p232
sg15
Nsg19
Nsg173
S'uint32'
p233
sg16
Nsbag1
(g167
g3
NtRp234
(dp235
g170
Nsg171
Nsg49
S'skip_byte_block'
p236
sg15
Nsg19
Nsg173
S'uint32'
p237
sg16
Nsbasg16
Nsg19
Nsbsg15
Nsg16
Nsg49
S'EncryptionPattern'
p238
sg19
Nsbag1
(g87
g3
NtRp239
(dp240
g90
g1
(g163
g3
NtRp241
(dp242
g10
(lp243
g1
(g35
g3
NtRp244
(dp245
g15
g1
(g38
g3
NtRp246
(dp247
g10
(lp248
g1
(g42
g3
NtRp249
(dp250
g45
I01
sg16
I101
sg46
S'Native'
p251
sg19
g20
sbasg16
I101
sg19
g20
sbsg48
Nsg16
I102
sg49
S'CipherMode'
p252
sg19
g20
sbag1
(g167
g3
NtRp253
(dp254
g170
Nsg171
Nsg49
S'mode'
p255
sg15
Nsg19
Nsg173
S'CipherMode'
p256
sg16
Nsbag1
(g167
g3
NtRp257
(dp258
g170
Nsg171
Nsg49
S'pattern'
p259
sg15
Nsg19
Nsg173
S'EncryptionPattern'
p260
sg16
Nsbasg16
I102
sg19
g20
sbsg15
Nsg16
Nsg49
S'EncryptionScheme'
p261
sg19
Nsbag1
(g87
g3
NtRp262
(dp263
g90
g1
(g163
g3
NtRp264
(dp265
g10
(lp266
g1
(g35
g3
NtRp267
(dp268
g15
g1
(g38
g3
NtRp269
(dp270
g10
(lp271
g1
(g42
g3
NtRp272
(dp273
g45
I01
sg16
I111
sg46
S'Native'
p274
sg19
g20
sbasg16
I111
sg19
g20
sbsg48
Nsg16
I112
sg49
S'PrimaryID'
p275
sg19
g20
sbag1
(g35
g3
NtRp276
(dp277
g15
g1
(g38
g3
NtRp278
(dp279
g10
(lp280
g1
(g42
g3
NtRp281
(dp282
g45
I01
sg16
I114
sg46
S'Native'
p283
sg19
g20
sbasg16
I114
sg19
g20
sbsg48
Nsg16
I115
sg49
S'TransferID'
p284
sg19
g20
sbag1
(g35
g3
NtRp285
(dp286
g15
g1
(g38
g3
NtRp287
(dp288
g10
(lp289
g1
(g42
g3
NtRp290
(dp291
g45
I01
sg16
I117
sg46
S'Native'
p292
sg19
g20
sbasg16
I117
sg19
g20
sbsg48
Nsg16
I118
sg49
S'MatrixID'
p293
sg19
g20
sbag1
(g35
g3
NtRp294
(dp295
g15
g1
(g38
g3
NtRp296
(dp297
g10
(lp298
g1
(g42
g3
NtRp299
(dp300
g45
I01
sg16
I120
sg46
S'Native'
p301
sg19
g20
sbasg16
I120
sg19
g20
sbsg48
Nsg16
I121
sg49
S'RangeID'
p302
sg19
g20
sbag1
(g167
g3
NtRp303
(dp304
g170
Nsg171
Nsg49
S'primaries'
p305
sg15
Nsg19
Nsg173
S'PrimaryID'
p306
sg16
Nsbag1
(g167
g3
NtRp307
(dp308
g170
Nsg171
Nsg49
S'transfer'
p309
sg15
Nsg19
Nsg173
S'TransferID'
p310
sg16
Nsbag1
(g167
g3
NtRp311
(dp312
g170
Nsg171
Nsg49
S'matrix'
p313
sg15
Nsg19
Nsg173
S'MatrixID'
p314
sg16
Nsbag1
(g167
g3
NtRp315
(dp316
g170
Nsg171
Nsg49
S'range'
p317
sg15
Nsg19
Nsg173
S'RangeID'
p318
sg16
Nsbasg16
I112
sg19
g20
sbsg15
Nsg16
Nsg49
S'VideoColorSpace'
p319
sg19
Nsbag1
(g87
g3
NtRp320
(dp321
g90
g1
(g163
g3
NtRp322
(dp323
g10
(lp324
g1
(g167
g3
NtRp325
(dp326
g170
Nsg171
Nsg49
S'primary_r'
p327
sg15
Nsg19
Nsg173
S'gfx.mojom.PointF'
p328
sg16
Nsbag1
(g167
g3
NtRp329
(dp330
g170
Nsg171
Nsg49
S'primary_g'
p331
sg15
Nsg19
Nsg173
S'gfx.mojom.PointF'
p332
sg16
Nsbag1
(g167
g3
NtRp333
(dp334
g170
Nsg171
Nsg49
S'primary_b'
p335
sg15
Nsg19
Nsg173
S'gfx.mojom.PointF'
p336
sg16
Nsbag1
(g167
g3
NtRp337
(dp338
g170
Nsg171
Nsg49
S'white_point'
p339
sg15
Nsg19
Nsg173
S'gfx.mojom.PointF'
p340
sg16
Nsbag1
(g167
g3
NtRp341
(dp342
g170
Nsg171
Nsg49
S'luminance_max'
p343
sg15
Nsg19
Nsg173
S'float'
p344
sg16
Nsbag1
(g167
g3
NtRp345
(dp346
g170
Nsg171
Nsg49
S'luminance_min'
p347
sg15
Nsg19
Nsg173
S'float'
p348
sg16
Nsbasg16
Nsg19
Nsbsg15
Nsg16
Nsg49
S'MasteringMetadata'
p349
sg19
Nsbag1
(g87
g3
NtRp350
(dp351
g90
g1
(g163
g3
NtRp352
(dp353
g10
(lp354
g1
(g167
g3
NtRp355
(dp356
g170
Nsg171
Nsg49
S'mastering_metadata'
p357
sg15
Nsg19
Nsg173
S'MasteringMetadata'
p358
sg16
Nsbag1
(g167
g3
NtRp359
(dp360
g170
Nsg171
Nsg49
S'max_content_light_level'
p361
sg15
Nsg19
Nsg173
S'uint32'
p362
sg16
Nsbag1
(g167
g3
NtRp363
(dp364
g170
Nsg171
Nsg49
S'max_frame_average_light_level'
p365
sg15
Nsg19
Nsg173
S'uint32'
p366
sg16
Nsbasg16
Nsg19
Nsbsg15
Nsg16
Nsg49
S'HDRMetadata'
p367
sg19
Nsbag1
(g87
g3
NtRp368
(dp369
g90
g1
(g163
g3
NtRp370
(dp371
g10
(lp372
g1
(g167
g3
NtRp373
(dp374
g170
Nsg171
Nsg49
S'codec'
p375
sg15
Nsg19
Nsg173
S'AudioCodec'
p376
sg16
Nsbag1
(g167
g3
NtRp377
(dp378
g170
Nsg171
Nsg49
S'sample_format'
p379
sg15
Nsg19
Nsg173
S'SampleFormat'
p380
sg16
Nsbag1
(g167
g3
NtRp381
(dp382
g170
Nsg171
Nsg49
S'channel_layout'
p383
sg15
Nsg19
Nsg173
S'ChannelLayout'
p384
sg16
Nsbag1
(g167
g3
NtRp385
(dp386
g170
Nsg171
Nsg49
S'samples_per_second'
p387
sg15
Nsg19
Nsg173
S'int32'
p388
sg16
Nsbag1
(g167
g3
NtRp389
(dp390
g170
Nsg171
Nsg49
S'extra_data'
p391
sg15
Nsg19
Nsg173
S'uint8[]'
p392
sg16
Nsbag1
(g167
g3
NtRp393
(dp394
g170
Nsg171
Nsg49
S'seek_preroll'
p395
sg15
Nsg19
Nsg173
S'mojo_base.mojom.TimeDelta'
p396
sg16
Nsbag1
(g167
g3
NtRp397
(dp398
g170
Nsg171
Nsg49
S'codec_delay'
p399
sg15
Nsg19
Nsg173
S'int32'
p400
sg16
Nsbag1
(g167
g3
NtRp401
(dp402
g170
Nsg171
Nsg49
S'encryption_scheme'
p403
sg15
Nsg19
Nsg173
S'EncryptionScheme'
p404
sg16
Nsbasg16
Nsg19
Nsbsg15
Nsg16
Nsg49
S'AudioDecoderConfig'
p405
sg19
Nsbag1
(g87
g3
NtRp406
(dp407
g90
g1
(g163
g3
NtRp408
(dp409
g10
(lp410
g1
(g167
g3
NtRp411
(dp412
g170
Nsg171
Nsg49
S'codec'
p413
sg15
Nsg19
Nsg173
S'VideoCodec'
p414
sg16
Nsbag1
(g167
g3
NtRp415
(dp416
g170
Nsg171
Nsg49
S'profile'
p417
sg15
Nsg19
Nsg173
S'VideoCodecProfile'
p418
sg16
Nsbag1
(g167
g3
NtRp419
(dp420
g170
Nsg171
Nsg49
S'format'
p421
sg15
Nsg19
Nsg173
S'VideoPixelFormat'
p422
sg16
Nsbag1
(g167
g3
NtRp423
(dp424
g170
Nsg171
Nsg49
S'transformation'
p425
sg15
Nsg19
Nsg173
S'VideoTransformation'
p426
sg16
Nsbag1
(g167
g3
NtRp427
(dp428
g170
Nsg171
Nsg49
S'coded_size'
p429
sg15
Nsg19
Nsg173
S'gfx.mojom.Size'
p430
sg16
Nsbag1
(g167
g3
NtRp431
(dp432
g170
Nsg171
Nsg49
S'visible_rect'
p433
sg15
Nsg19
Nsg173
S'gfx.mojom.Rect'
p434
sg16
Nsbag1
(g167
g3
NtRp435
(dp436
g170
Nsg171
Nsg49
S'natural_size'
p437
sg15
Nsg19
Nsg173
S'gfx.mojom.Size'
p438
sg16
Nsbag1
(g167
g3
NtRp439
(dp440
g170
Nsg171
Nsg49
S'extra_data'
p441
sg15
Nsg19
Nsg173
S'uint8[]'
p442
sg16
Nsbag1
(g167
g3
NtRp443
(dp444
g170
Nsg171
Nsg49
S'encryption_scheme'
p445
sg15
Nsg19
Nsg173
S'EncryptionScheme'
p446
sg16
Nsbag1
(g167
g3
NtRp447
(dp448
g170
Nsg171
Nsg49
S'color_space_info'
p449
sg15
Nsg19
Nsg173
S'VideoColorSpace'
p450
sg16
Nsbag1
(g167
g3
NtRp451
(dp452
g170
Nsg171
Nsg49
S'hdr_metadata'
p453
sg15
Nsg19
Nsg173
S'HDRMetadata?'
p454
sg16
Nsbasg16
Nsg19
Nsbsg15
Nsg16
Nsg49
S'VideoDecoderConfig'
p455
sg19
Nsbag1
(g87
g3
NtRp456
(dp457
g90
Nsg15
g1
(g38
g3
NtRp458
(dp459
g10
(lp460
g1
(g42
g3
NtRp461
(dp462
g45
I01
sg16
I176
sg46
S'Native'
p463
sg19
g20
sbasg16
I176
sg19
g20
sbsg16
Nsg49
S'SubsampleEntry'
p464
sg19
Nsbag1
(g87
g3
NtRp465
(dp466
g90
g1
(g163
g3
NtRp467
(dp468
g10
(lp469
g1
(g167
g3
NtRp470
(dp471
g170
Nsg171
Nsg49
S'encryption_mode'
p472
sg15
Nsg19
Nsg173
S'EncryptionMode'
p473
sg16
Nsbag1
(g167
g3
NtRp474
(dp475
g170
Nsg171
Nsg49
S'key_id'
p476
sg15
Nsg19
Nsg173
S'string'
p477
sg16
Nsbag1
(g167
g3
NtRp478
(dp479
g170
Nsg171
Nsg49
S'iv'
p480
sg15
Nsg19
Nsg173
S'string'
p481
sg16
Nsbag1
(g167
g3
NtRp482
(dp483
g170
Nsg171
Nsg49
S'subsamples'
p484
sg15
Nsg19
Nsg173
S'SubsampleEntry[]'
p485
sg16
Nsbag1
(g167
g3
NtRp486
(dp487
g170
Nsg171
Nsg49
S'encryption_pattern'
p488
sg15
Nsg19
Nsg173
S'EncryptionPattern?'
p489
sg16
Nsbasg16
Nsg19
Nsbsg15
Nsg16
Nsg49
S'DecryptConfig'
p490
sg19
Nsbag1
(g87
g3
NtRp491
(dp492
g90
g1
(g163
g3
NtRp493
(dp494
g10
(lp495
g1
(g167
g3
NtRp496
(dp497
g170
Nsg171
Nsg49
S'timestamp'
p498
sg15
Nsg19
Nsg173
S'mojo_base.mojom.TimeDelta'
p499
sg16
Nsbag1
(g167
g3
NtRp500
(dp501
g170
Nsg171
Nsg49
S'duration'
p502
sg15
Nsg19
Nsg173
S'mojo_base.mojom.TimeDelta'
p503
sg16
Nsbag1
(g167
g3
NtRp504
(dp505
g170
Nsg171
Nsg49
S'is_end_of_stream'
p506
sg15
Nsg19
Nsg173
S'bool'
p507
sg16
Nsbag1
(g167
g3
NtRp508
(dp509
g170
Nsg171
Nsg49
S'data_size'
p510
sg15
Nsg19
Nsg173
S'uint32'
p511
sg16
Nsbag1
(g167
g3
NtRp512
(dp513
g170
Nsg171
Nsg49
S'is_key_frame'
p514
sg15
Nsg19
Nsg173
S'bool'
p515
sg16
Nsbag1
(g167
g3
NtRp516
(dp517
g170
Nsg171
Nsg49
S'side_data'
p518
sg15
Nsg19
Nsg173
S'uint8[]'
p519
sg16
Nsbag1
(g167
g3
NtRp520
(dp521
g170
Nsg171
Nsg49
S'decrypt_config'
p522
sg15
Nsg19
Nsg173
S'DecryptConfig?'
p523
sg16
Nsbag1
(g167
g3
NtRp524
(dp525
g170
Nsg171
Nsg49
S'front_discard'
p526
sg15
Nsg19
Nsg173
S'mojo_base.mojom.TimeDelta'
p527
sg16
Nsbag1
(g167
g3
NtRp528
(dp529
g170
Nsg171
Nsg49
S'back_discard'
p530
sg15
Nsg19
Nsg173
S'mojo_base.mojom.TimeDelta'
p531
sg16
Nsbasg16
Nsg19
Nsbsg15
Nsg16
Nsg49
S'DecoderBuffer'
p532
sg19
Nsbag1
(g87
g3
NtRp533
(dp534
g90
g1
(g163
g3
NtRp535
(dp536
g10
(lp537
g1
(g167
g3
NtRp538
(dp539
g170
Nsg171
Nsg49
S'sample_format'
p540
sg15
Nsg19
Nsg173
S'SampleFormat'
p541
sg16
Nsbag1
(g167
g3
NtRp542
(dp543
g170
Nsg171
Nsg49
S'channel_layout'
p544
sg15
Nsg19
Nsg173
S'ChannelLayout'
p545
sg16
Nsbag1
(g167
g3
NtRp546
(dp547
g170
Nsg171
Nsg49
S'channel_count'
p548
sg15
Nsg19
Nsg173
S'int32'
p549
sg16
Nsbag1
(g167
g3
NtRp550
(dp551
g170
Nsg171
Nsg49
S'sample_rate'
p552
sg15
Nsg19
Nsg173
S'int32'
p553
sg16
Nsbag1
(g167
g3
NtRp554
(dp555
g170
Nsg171
Nsg49
S'frame_count'
p556
sg15
Nsg19
Nsg173
S'int32'
p557
sg16
Nsbag1
(g167
g3
NtRp558
(dp559
g170
Nsg171
Nsg49
S'end_of_stream'
p560
sg15
Nsg19
Nsg173
S'bool'
p561
sg16
Nsbag1
(g167
g3
NtRp562
(dp563
g170
Nsg171
Nsg49
S'timestamp'
p564
sg15
Nsg19
Nsg173
S'mojo_base.mojom.TimeDelta'
p565
sg16
Nsbag1
(g167
g3
NtRp566
(dp567
g170
Nsg171
Nsg49
S'data'
p568
sg15
Nsg19
Nsg173
S'uint8[]'
p569
sg16
Nsbasg16
Nsg19
Nsbsg15
Nsg16
Nsg49
S'AudioBuffer'
p570
sg19
Nsbag1
(g87
g3
NtRp571
(dp572
g90
g1
(g163
g3
NtRp573
(dp574
g10
(lp575
g1
(g167
g3
NtRp576
(dp577
g170
Nsg171
Nsg49
S'format'
p578
sg15
Nsg19
Nsg173
S'VideoPixelFormat'
p579
sg16
Nsbag1
(g167
g3
NtRp580
(dp581
g170
Nsg171
Nsg49
S'coded_size'
p582
sg15
Nsg19
Nsg173
S'gfx.mojom.Size'
p583
sg16
Nsbag1
(g167
g3
NtRp584
(dp585
g170
Nsg171
Nsg49
S'visible_rect'
p586
sg15
Nsg19
Nsg173
S'gfx.mojom.Rect'
p587
sg16
Nsbag1
(g167
g3
NtRp588
(dp589
g170
Nsg171
Nsg49
S'natural_size'
p590
sg15
Nsg19
Nsg173
S'gfx.mojom.Size'
p591
sg16
Nsbag1
(g167
g3
NtRp592
(dp593
g170
Nsg171
Nsg49
S'timestamp'
p594
sg15
Nsg19
Nsg173
S'mojo_base.mojom.TimeDelta'
p595
sg16
Nsbag1
(g167
g3
NtRp596
(dp597
g170
Nsg171
Nsg49
S'data'
p598
sg15
Nsg19
Nsg173
S'VideoFrameData'
p599
sg16
Nsbag1
(g167
g3
NtRp600
(dp601
g170
Nsg171
Nsg49
S'metadata'
p602
sg15
Nsg19
Nsg173
S'mojo_base.mojom.DictionaryValue'
p603
sg16
Nsbag1
(g167
g3
NtRp604
(dp605
g170
Nsg171
Nsg49
S'color_space'
p606
sg15
Nsg19
Nsg173
S'gfx.mojom.ColorSpace'
p607
sg16
Nsbasg16
Nsg19
Nsbsg15
Nsg16
Nsg49
S'VideoFrame'
p608
sg19
Nsbag1
(cmojom.parse.ast
Union
p609
g3
NtRp610
(dp611
g90
g1
(cmojom.parse.ast
UnionBody
p612
g3
NtRp613
(dp614
g10
(lp615
g1
(cmojom.parse.ast
UnionField
p616
g3
NtRp617
(dp618
g170
Nsg49
S'eos_data'
p619
sg15
Nsg19
Nsg173
S'EosVideoFrameData'
p620
sg16
Nsbag1
(g616
g3
NtRp621
(dp622
g170
Nsg49
S'shared_buffer_data'
p623
sg15
Nsg19
Nsg173
S'SharedBufferVideoFrameData'
p624
sg16
Nsbag1
(g616
g3
NtRp625
(dp626
g170
Nsg49
S'mailbox_data'
p627
sg15
Nsg19
Nsg173
S'MailboxVideoFrameData'
p628
sg16
Nsbasg16
Nsg19
Nsbsg15
Nsg16
Nsg49
S'VideoFrameData'
p629
sg19
Nsbag1
(g87
g3
NtRp630
(dp631
g90
g1
(g163
g3
NtRp632
(dp633
g10
(lp634
sg16
Nsg19
Nsbsg15
Nsg16
Nsg49
S'EosVideoFrameData'
p635
sg19
Nsbag1
(g87
g3
NtRp636
(dp637
g90
g1
(g163
g3
NtRp638
(dp639
g10
(lp640
g1
(g167
g3
NtRp641
(dp642
g170
Nsg171
Nsg49
S'frame_data'
p643
sg15
Nsg19
Nsg173
S'handle<shared_buffer>'
p644
sg16
Nsbag1
(g167
g3
NtRp645
(dp646
g170
Nsg171
Nsg49
S'frame_data_size'
p647
sg15
Nsg19
Nsg173
S'uint64'
p648
sg16
Nsbag1
(g167
g3
NtRp649
(dp650
g170
Nsg171
Nsg49
S'y_stride'
p651
sg15
Nsg19
Nsg173
S'int32'
p652
sg16
Nsbag1
(g167
g3
NtRp653
(dp654
g170
Nsg171
Nsg49
S'u_stride'
p655
sg15
Nsg19
Nsg173
S'int32'
p656
sg16
Nsbag1
(g167
g3
NtRp657
(dp658
g170
Nsg171
Nsg49
S'v_stride'
p659
sg15
Nsg19
Nsg173
S'int32'
p660
sg16
Nsbag1
(g167
g3
NtRp661
(dp662
g170
Nsg171
Nsg49
S'y_offset'
p663
sg15
Nsg19
Nsg173
S'uint64'
p664
sg16
Nsbag1
(g167
g3
NtRp665
(dp666
g170
Nsg171
Nsg49
S'u_offset'
p667
sg15
Nsg19
Nsg173
S'uint64'
p668
sg16
Nsbag1
(g167
g3
NtRp669
(dp670
g170
Nsg171
Nsg49
S'v_offset'
p671
sg15
Nsg19
Nsg173
S'uint64'
p672
sg16
Nsbasg16
Nsg19
Nsbsg15
Nsg16
Nsg49
S'SharedBufferVideoFrameData'
p673
sg19
Nsbag1
(g87
g3
NtRp674
(dp675
g90
g1
(g163
g3
NtRp676
(dp677
g10
(lp678
g1
(g167
g3
NtRp679
(dp680
g170
Nsg171
Nsg49
S'mailbox_holder'
p681
sg15
Nsg19
Nsg173
S'gpu.mojom.MailboxHolder[4]'
p682
sg16
Nsbasg16
Nsg19
Nsbsg15
Nsg16
Nsg49
S'MailboxVideoFrameData'
p683
sg19
Nsbag1
(g87
g3
NtRp684
(dp685
g90
g1
(g163
g3
NtRp686
(dp687
g10
(lp688
g1
(g167
g3
NtRp689
(dp690
g170
Nsg171
Nsg49
S'audio_bytes_decoded'
p691
sg15
Nsg19
Nsg173
S'uint64'
p692
sg16
Nsbag1
(g167
g3
NtRp693
(dp694
g170
Nsg171
Nsg49
S'video_bytes_decoded'
p695
sg15
Nsg19
Nsg173
S'uint64'
p696
sg16
Nsbag1
(g167
g3
NtRp697
(dp698
g170
Nsg171
Nsg49
S'video_frames_decoded'
p699
sg15
Nsg19
Nsg173
S'uint32'
p700
sg16
Nsbag1
(g167
g3
NtRp701
(dp702
g170
Nsg171
Nsg49
S'video_frames_dropped'
p703
sg15
Nsg19
Nsg173
S'uint32'
p704
sg16
Nsbag1
(g167
g3
NtRp705
(dp706
g170
Nsg171
Nsg49
S'audio_memory_usage'
p707
sg15
Nsg19
Nsg173
S'int64'
p708
sg16
Nsbag1
(g167
g3
NtRp709
(dp710
g170
Nsg171
Nsg49
S'video_memory_usage'
p711
sg15
Nsg19
Nsg173
S'int64'
p712
sg16
Nsbasg16
Nsg19
Nsbsg15
Nsg16
Nsg49
S'PipelineStatistics'
p713
sg19
Nsbag1
(g87
g3
NtRp714
(dp715
g90
g1
(g163
g3
NtRp716
(dp717
g10
(lp718
g1
(g167
g3
NtRp719
(dp720
g170
Nsg171
Nsg49
S'profile'
p721
sg15
Nsg19
Nsg173
S'VideoCodecProfile'
p722
sg16
Nsbag1
(g167
g3
NtRp723
(dp724
g170
Nsg171
Nsg49
S'video_size'
p725
sg15
Nsg19
Nsg173
S'gfx.mojom.Size'
p726
sg16
Nsbag1
(g167
g3
NtRp727
(dp728
g170
Nsg171
S'0'
sg49
S'frames_per_sec'
p729
sg15
Nsg19
Nsg173
S'int32'
p730
sg16
Nsbag1
(g167
g3
NtRp731
(dp732
g170
Nsg171
Nsg49
S'key_system'
p733
sg15
Nsg19
Nsg173
S'string'
p734
sg16
Nsbag1
(g167
g3
NtRp735
(dp736
g170
Nsg171
S'false'
p737
sg49
S'use_hw_secure_codecs'
p738
sg15
Nsg19
Nsg173
S'bool'
p739
sg16
Nsbasg16
Nsg19
Nsbsg15
Nsg16
Nsg49
S'PredictionFeatures'
p740
sg19
Nsbag1
(g87
g3
NtRp741
(dp742
g90
g1
(g163
g3
NtRp743
(dp744
g10
(lp745
g1
(g167
g3
NtRp746
(dp747
g170
Nsg171
S'0'
sg49
S'frames_decoded'
p748
sg15
Nsg19
Nsg173
S'uint32'
p749
sg16
Nsbag1
(g167
g3
NtRp750
(dp751
g170
Nsg171
S'0'
sg49
S'frames_dropped'
p752
sg15
Nsg19
Nsg173
S'uint32'
p753
sg16
Nsbag1
(g167
g3
NtRp754
(dp755
g170
Nsg171
S'0'
sg49
S'frames_power_efficient'
p756
sg15
Nsg19
Nsg173
S'uint32'
p757
sg16
Nsbasg16
Nsg19
Nsbsg15
Nsg16
Nsg49
S'PredictionTargets'
p758
sg19
Nsbasg16
NsS'module'
p759
g1
(cmojom.parse.ast
Module
p760
g3
NtRp761
(dp762
S'mojom_namespace'
p763
(S'IDENTIFIER'
p764
S'media.mojom'
tp765
sg16
I5
sg15
Nsg19
g20
sbsg19
Nsb.