ccopy_reg
_reconstructor
p1
(cmojom.parse.ast
Mojom
p2
c__builtin__
object
p3
NtRp4
(dp5
S'import_list'
p6
g1
(cmojom.parse.ast
ImportList
p7
g3
NtRp8
(dp9
S'items'
p10
(lp11
sS'lineno'
p12
NsS'filename'
p13
NsbsS'definition_list'
p14
(lp15
g1
(cmojom.parse.ast
Interface
p16
g3
NtRp17
(dp18
S'body'
p19
g1
(cmojom.parse.ast
InterfaceBody
p20
g3
NtRp21
(dp22
g10
(lp23
g1
(cmojom.parse.ast
Method
p24
g3
NtRp25
(dp26
S'ordinal'
p27
NsS'mojom_name'
p28
S'ChallengePlatform'
p29
sS'parameter_list'
p30
g1
(cmojom.parse.ast
ParameterList
p31
g3
NtRp32
(dp33
g10
(lp34
g1
(cmojom.parse.ast
Parameter
p35
g3
NtRp36
(dp37
g27
Nsg28
S'service_id'
p38
sS'attribute_list'
p39
Nsg13
S'../../media/mojo/interfaces/platform_verification.mojom'
p40
sS'typename'
p41
S'string'
p42
sg12
I24
sbag1
(g35
g3
NtRp43
(dp44
g27
Nsg28
S'challenge'
p45
sg39
Nsg13
g40
sg41
S'string'
p46
sg12
I24
sbasg12
I24
sg13
g40
sbsg39
Nsg13
Nsg12
NsS'response_parameter_list'
p47
g1
(g31
g3
NtRp48
(dp49
g10
(lp50
g1
(g35
g3
NtRp51
(dp52
g27
Nsg28
S'success'
p53
sg39
Nsg13
g40
sg41
S'bool'
p54
sg12
I25
sbag1
(g35
g3
NtRp55
(dp56
g27
Nsg28
S'signed_data'
p57
sg39
Nsg13
g40
sg41
S'string'
p58
sg12
I26
sbag1
(g35
g3
NtRp59
(dp60
g27
Nsg28
S'signed_data_signature'
p61
sg39
Nsg13
g40
sg41
S'string'
p62
sg12
I27
sbag1
(g35
g3
NtRp63
(dp64
g27
Nsg28
S'platform_key_certificate'
p65
sg39
Nsg13
g40
sg41
S'string'
p66
sg12
I28
sbasg12
I25
sg13
g40
sbsbag1
(g24
g3
NtRp67
(dp68
g27
Nsg28
S'GetStorageId'
p69
sg30
g1
(g31
g3
NtRp70
(dp71
g10
(lp72
g1
(g35
g3
NtRp73
(dp74
g27
Nsg28
S'version'
p75
sg39
Nsg13
g40
sg41
S'uint32'
p76
sg12
I33
sbasg12
I33
sg13
g40
sbsg39
Nsg13
Nsg12
Nsg47
g1
(g31
g3
NtRp77
(dp78
g10
(lp79
g1
(g35
g3
NtRp80
(dp81
g27
Nsg28
S'version'
p82
sg39
Nsg13
g40
sg41
S'uint32'
p83
sg12
I33
sbag1
(g35
g3
NtRp84
(dp85
g27
Nsg28
S'storage_id'
p86
sg39
Nsg13
g40
sg41
S'uint8[]'
p87
sg12
I33
sbasg12
I33
sg13
g40
sbsbasg12
Nsg13
Nsbsg39
Nsg12
Nsg28
S'PlatformVerification'
p88
sg13
Nsbasg12
NsS'module'
p89
g1
(cmojom.parse.ast
Module
p90
g3
NtRp91
(dp92
S'mojom_namespace'
p93
(S'IDENTIFIER'
p94
S'media.mojom'
tp95
sg12
I6
sg39
Nsg13
g40
sbsg13
Nsb.