ccopy_reg
_reconstructor
p1
(cmojom.parse.ast
Mojom
p2
c__builtin__
object
p3
NtRp4
(dp5
S'import_list'
p6
g1
(cmojom.parse.ast
ImportList
p7
g3
NtRp8
(dp9
S'items'
p10
(lp11
g1
(cmojom.parse.ast
Import
p12
g3
NtRp13
(dp14
S'attribute_list'
p15
NsS'lineno'
p16
I7
sS'import_filename'
p17
S'media/mojo/interfaces/remoting_common.mojom'
p18
sS'filename'
p19
S'../../media/mojo/interfaces/remoting.mojom'
p20
sbasg16
I7
sg19
g20
sbsS'definition_list'
p21
(lp22
g1
(cmojom.parse.ast
Interface
p23
g3
NtRp24
(dp25
S'body'
p26
g1
(cmojom.parse.ast
InterfaceBody
p27
g3
NtRp28
(dp29
g10
(lp30
g1
(cmojom.parse.ast
Method
p31
g3
NtRp32
(dp33
S'ordinal'
p34
NsS'mojom_name'
p35
S'Create'
p36
sS'parameter_list'
p37
g1
(cmojom.parse.ast
ParameterList
p38
g3
NtRp39
(dp40
g10
(lp41
g1
(cmojom.parse.ast
Parameter
p42
g3
NtRp43
(dp44
g34
Nsg35
S'source'
p45
sg15
Nsg19
g20
sS'typename'
p46
S'RemotingSource'
p47
sg16
I13
sbag1
(g42
g3
NtRp48
(dp49
g34
Nsg35
S'remoter'
p50
sg15
Nsg19
g20
sg46
S'Remoter&'
p51
sg16
I13
sbasg16
I13
sg19
g20
sbsg15
Nsg19
Nsg16
NsS'response_parameter_list'
p52
Nsbasg16
Nsg19
Nsbsg15
Nsg16
Nsg35
S'RemoterFactory'
p53
sg19
Nsbag1
(g23
g3
NtRp54
(dp55
g26
g1
(g27
g3
NtRp56
(dp57
g10
(lp58
g1
(g31
g3
NtRp59
(dp60
g34
Nsg35
S'SendFrame'
p61
sg37
g1
(g38
g3
NtRp62
(dp63
g10
(lp64
g1
(g42
g3
NtRp65
(dp66
g34
Nsg35
S'frame_size'
p67
sg15
Nsg19
g20
sg46
S'uint32'
p68
sg16
I22
sbasg16
I22
sg19
g20
sbsg15
Nsg19
Nsg16
Nsg52
Nsbag1
(g31
g3
NtRp69
(dp70
g34
Nsg35
S'CancelInFlightData'
p71
sg37
g1
(g38
g3
NtRp72
(dp73
g10
(lp74
sg16
Nsg19
Nsbsg15
Nsg19
Nsg16
Nsg52
Nsbasg16
Nsg19
Nsbsg15
Nsg16
Nsg35
S'RemotingDataStreamSender'
p75
sg19
Nsbag1
(g23
g3
NtRp76
(dp77
g26
g1
(g27
g3
NtRp78
(dp79
g10
(lp80
g1
(g31
g3
NtRp81
(dp82
g34
Nsg35
S'Start'
p83
sg37
g1
(g38
g3
NtRp84
(dp85
g10
(lp86
sg16
Nsg19
Nsbsg15
Nsg19
Nsg16
Nsg52
Nsbag1
(g31
g3
NtRp87
(dp88
g34
Nsg35
S'StartDataStreams'
p89
sg37
g1
(g38
g3
NtRp90
(dp91
g10
(lp92
g1
(g42
g3
NtRp93
(dp94
g34
Nsg35
S'audio_pipe'
p95
sg15
Nsg19
g20
sg46
S'handle<data_pipe_consumer>?'
p96
sg16
I49
sbag1
(g42
g3
NtRp97
(dp98
g34
Nsg35
S'video_pipe'
p99
sg15
Nsg19
g20
sg46
S'handle<data_pipe_consumer>?'
p100
sg16
I50
sbag1
(g42
g3
NtRp101
(dp102
g34
Nsg35
S'audio_sender'
p103
sg15
Nsg19
g20
sg46
S'RemotingDataStreamSender&?'
p104
sg16
I51
sbag1
(g42
g3
NtRp105
(dp106
g34
Nsg35
S'video_sender'
p107
sg15
Nsg19
g20
sg46
S'RemotingDataStreamSender&?'
p108
sg16
I52
sbasg16
I49
sg19
g20
sbsg15
Nsg19
Nsg16
Nsg52
Nsbag1
(g31
g3
NtRp109
(dp110
g34
Nsg35
S'Stop'
p111
sg37
g1
(g38
g3
NtRp112
(dp113
g10
(lp114
g1
(g42
g3
NtRp115
(dp116
g34
Nsg35
S'reason'
p117
sg15
Nsg19
g20
sg46
S'RemotingStopReason'
p118
sg16
I56
sbasg16
I56
sg19
g20
sbsg15
Nsg19
Nsg16
Nsg52
Nsbag1
(g31
g3
NtRp119
(dp120
g34
Nsg35
S'SendMessageToSink'
p121
sg37
g1
(g38
g3
NtRp122
(dp123
g10
(lp124
g1
(g42
g3
NtRp125
(dp126
g34
Nsg35
S'message'
p127
sg15
Nsg19
g20
sg46
S'uint8[]'
p128
sg16
I60
sbasg16
I60
sg19
g20
sbsg15
Nsg19
Nsg16
Nsg52
Nsbag1
(g31
g3
NtRp129
(dp130
g34
Nsg35
S'EstimateTransmissionCapacity'
p131
sg37
g1
(g38
g3
NtRp132
(dp133
g10
(lp134
sg16
Nsg19
Nsbsg15
Nsg19
Nsg16
Nsg52
g1
(g38
g3
NtRp135
(dp136
g10
(lp137
g1
(g42
g3
NtRp138
(dp139
g34
Nsg35
S'rate'
p140
sg15
Nsg19
g20
sg46
S'double'
p141
sg16
I64
sbasg16
I64
sg19
g20
sbsbasg16
Nsg19
Nsbsg15
Nsg16
Nsg35
S'Remoter'
p142
sg19
Nsbag1
(g23
g3
NtRp143
(dp144
g26
g1
(g27
g3
NtRp145
(dp146
g10
(lp147
g1
(g31
g3
NtRp148
(dp149
g34
Nsg35
S'OnSinkAvailable'
p150
sg37
g1
(g38
g3
NtRp151
(dp152
g10
(lp153
g1
(g42
g3
NtRp154
(dp155
g34
Nsg35
S'metadata'
p156
sg15
Nsg19
g20
sg46
S'RemotingSinkMetadata'
p157
sg16
I72
sbasg16
I72
sg19
g20
sbsg15
Nsg19
Nsg16
Nsg52
Nsbag1
(g31
g3
NtRp158
(dp159
g34
Nsg35
S'OnSinkGone'
p160
sg37
g1
(g38
g3
NtRp161
(dp162
g10
(lp163
sg16
Nsg19
Nsbsg15
Nsg19
Nsg16
Nsg52
Nsbag1
(g31
g3
NtRp164
(dp165
g34
Nsg35
S'OnStarted'
p166
sg37
g1
(g38
g3
NtRp167
(dp168
g10
(lp169
sg16
Nsg19
Nsbsg15
Nsg19
Nsg16
Nsg52
Nsbag1
(g31
g3
NtRp170
(dp171
g34
Nsg35
S'OnStartFailed'
p172
sg37
g1
(g38
g3
NtRp173
(dp174
g10
(lp175
g1
(g42
g3
NtRp176
(dp177
g34
Nsg35
S'reason'
p178
sg15
Nsg19
g20
sg46
S'RemotingStartFailReason'
p179
sg16
I85
sbasg16
I85
sg19
g20
sbsg15
Nsg19
Nsg16
Nsg52
Nsbag1
(g31
g3
NtRp180
(dp181
g34
Nsg35
S'OnMessageFromSink'
p182
sg37
g1
(g38
g3
NtRp183
(dp184
g10
(lp185
g1
(g42
g3
NtRp186
(dp187
g34
Nsg35
S'message'
p188
sg15
Nsg19
g20
sg46
S'uint8[]'
p189
sg16
I90
sbasg16
I90
sg19
g20
sbsg15
Nsg19
Nsg16
Nsg52
Nsbag1
(g31
g3
NtRp190
(dp191
g34
Nsg35
S'OnStopped'
p192
sg37
g1
(g38
g3
NtRp193
(dp194
g10
(lp195
g1
(g42
g3
NtRp196
(dp197
g34
Nsg35
S'reason'
p198
sg15
Nsg19
g20
sg46
S'RemotingStopReason'
p199
sg16
I95
sbasg16
I95
sg19
g20
sbsg15
Nsg19
Nsg16
Nsg52
Nsbasg16
Nsg19
Nsbsg15
Nsg16
Nsg35
S'RemotingSource'
p200
sg19
Nsbasg16
NsS'module'
p201
g1
(cmojom.parse.ast
Module
p202
g3
NtRp203
(dp204
S'mojom_namespace'
p205
(S'IDENTIFIER'
p206
S'media.mojom'
tp207
sg16
I5
sg15
Nsg19
g20
sbsg19
Nsb.