ccopy_reg
_reconstructor
p1
(cmojom.parse.ast
Mojom
p2
c__builtin__
object
p3
NtRp4
(dp5
S'import_list'
p6
g1
(cmojom.parse.ast
ImportList
p7
g3
NtRp8
(dp9
S'items'
p10
(lp11
sS'lineno'
p12
NsS'filename'
p13
NsbsS'definition_list'
p14
(lp15
g1
(cmojom.parse.ast
Enum
p16
g3
NtRp17
(dp18
S'attribute_list'
p19
NsS'enum_value_list'
p20
g1
(cmojom.parse.ast
EnumValueList
p21
g3
NtRp22
(dp23
g10
(lp24
g1
(cmojom.parse.ast
EnumValue
p25
g3
NtRp26
(dp27
g19
NsS'value'
p28
Nsg12
I8
sS'mojom_name'
p29
S'ROUTE_TERMINATED'
p30
sg13
S'../../media/mojo/interfaces/remoting_common.mojom'
p31
sbag1
(g25
g3
NtRp32
(dp33
g19
Nsg28
Nsg12
I9
sg29
S'LOCAL_PLAYBACK'
p34
sg13
g31
sbag1
(g25
g3
NtRp35
(dp36
g19
Nsg28
Nsg12
I10
sg29
S'SOURCE_GONE'
p37
sg13
g31
sbag1
(g25
g3
NtRp38
(dp39
g19
Nsg28
Nsg12
I11
sg29
S'MESSAGE_SEND_FAILED'
p40
sg13
g31
sbag1
(g25
g3
NtRp41
(dp42
g19
Nsg28
Nsg12
I12
sg29
S'DATA_SEND_FAILED'
p43
sg13
g31
sbag1
(g25
g3
NtRp44
(dp45
g19
Nsg28
Nsg12
I13
sg29
S'UNEXPECTED_FAILURE'
p46
sg13
g31
sbag1
(g25
g3
NtRp47
(dp48
g19
Nsg28
Nsg12
I14
sg29
S'SERVICE_GONE'
p49
sg13
g31
sbag1
(g25
g3
NtRp50
(dp51
g19
Nsg28
Nsg12
I15
sg29
S'USER_DISABLED'
p52
sg13
g31
sbasg12
I8
sg13
g31
sbsg12
I7
sg29
S'RemotingStopReason'
p53
sg13
g31
sbag1
(g16
g3
NtRp54
(dp55
g19
Nsg20
g1
(g21
g3
NtRp56
(dp57
g10
(lp58
g1
(g25
g3
NtRp59
(dp60
g19
Nsg28
Nsg12
I19
sg29
S'CANNOT_START_MULTIPLE'
p61
sg13
g31
sbag1
(g25
g3
NtRp62
(dp63
g19
Nsg28
Nsg12
I20
sg29
S'ROUTE_TERMINATED'
p64
sg13
g31
sbag1
(g25
g3
NtRp65
(dp66
g19
Nsg28
Nsg12
I21
sg29
S'SERVICE_NOT_CONNECTED'
p67
sg13
g31
sbasg12
I19
sg13
g31
sbsg12
I18
sg29
S'RemotingStartFailReason'
p68
sg13
g31
sbag1
(g16
g3
NtRp69
(dp70
g19
Nsg20
g1
(g21
g3
NtRp71
(dp72
g10
(lp73
g1
(g25
g3
NtRp74
(dp75
g19
Nsg28
Nsg12
I25
sg29
S'RENDERING'
p76
sg13
g31
sbag1
(g25
g3
NtRp77
(dp78
g19
Nsg28
Nsg12
I26
sg29
S'CONTENT_DECRYPTION'
p79
sg13
g31
sbasg12
I25
sg13
g31
sbsg12
I24
sg29
S'RemotingSinkFeature'
p80
sg13
g31
sbag1
(g16
g3
NtRp81
(dp82
g19
Nsg20
g1
(g21
g3
NtRp83
(dp84
g10
(lp85
g1
(g25
g3
NtRp86
(dp87
g19
Nsg28
Nsg12
I30
sg29
S'CODEC_BASELINE_SET'
p88
sg13
g31
sbag1
(g25
g3
NtRp89
(dp90
g19
Nsg28
Nsg12
I31
sg29
S'CODEC_AAC'
p91
sg13
g31
sbag1
(g25
g3
NtRp92
(dp93
g19
Nsg28
Nsg12
I32
sg29
S'CODEC_OPUS'
p94
sg13
g31
sbasg12
I30
sg13
g31
sbsg12
I29
sg29
S'RemotingSinkAudioCapability'
p95
sg13
g31
sbag1
(g16
g3
NtRp96
(dp97
g19
Nsg20
g1
(g21
g3
NtRp98
(dp99
g10
(lp100
g1
(g25
g3
NtRp101
(dp102
g19
Nsg28
Nsg12
I36
sg29
S'SUPPORT_4K'
p103
sg13
g31
sbag1
(g25
g3
NtRp104
(dp105
g19
Nsg28
Nsg12
I37
sg29
S'CODEC_BASELINE_SET'
p106
sg13
g31
sbag1
(g25
g3
NtRp107
(dp108
g19
Nsg28
Nsg12
I38
sg29
S'CODEC_H264'
p109
sg13
g31
sbag1
(g25
g3
NtRp110
(dp111
g19
Nsg28
Nsg12
I39
sg29
S'CODEC_VP8'
p112
sg13
g31
sbag1
(g25
g3
NtRp113
(dp114
g19
Nsg28
Nsg12
I40
sg29
S'CODEC_VP9'
p115
sg13
g31
sbag1
(g25
g3
NtRp116
(dp117
g19
Nsg28
Nsg12
I41
sg29
S'CODEC_HEVC'
p118
sg13
g31
sbasg12
I36
sg13
g31
sbsg12
I35
sg29
S'RemotingSinkVideoCapability'
p119
sg13
g31
sbag1
(cmojom.parse.ast
Struct
p120
g3
NtRp121
(dp122
S'body'
p123
g1
(cmojom.parse.ast
StructBody
p124
g3
NtRp125
(dp126
g10
(lp127
g1
(cmojom.parse.ast
StructField
p128
g3
NtRp129
(dp130
S'ordinal'
p131
NsS'default_value'
p132
Nsg29
S'features'
p133
sg19
Nsg13
NsS'typename'
p134
S'RemotingSinkFeature[]'
p135
sg12
Nsbag1
(g128
g3
NtRp136
(dp137
g131
Nsg132
Nsg29
S'audio_capabilities'
p138
sg19
Nsg13
Nsg134
S'RemotingSinkAudioCapability[]'
p139
sg12
Nsbag1
(g128
g3
NtRp140
(dp141
g131
Nsg132
Nsg29
S'video_capabilities'
p142
sg19
Nsg13
Nsg134
S'RemotingSinkVideoCapability[]'
p143
sg12
Nsbag1
(g128
g3
NtRp144
(dp145
g131
Nsg132
Nsg29
S'friendly_name'
p146
sg19
Nsg13
Nsg134
S'string'
p147
sg12
Nsbasg12
Nsg13
Nsbsg19
Nsg12
Nsg29
S'RemotingSinkMetadata'
p148
sg13
Nsbasg12
NsS'module'
p149
g1
(cmojom.parse.ast
Module
p150
g3
NtRp151
(dp152
S'mojom_namespace'
p153
(S'IDENTIFIER'
p154
S'media.mojom'
tp155
sg12
I5
sg19
Nsg13
g31
sbsg13
Nsb.