ccopy_reg
_reconstructor
p1
(cmojom.parse.ast
Mojom
p2
c__builtin__
object
p3
NtRp4
(dp5
S'import_list'
p6
g1
(cmojom.parse.ast
ImportList
p7
g3
NtRp8
(dp9
S'items'
p10
(lp11
g1
(cmojom.parse.ast
Import
p12
g3
NtRp13
(dp14
S'attribute_list'
p15
NsS'lineno'
p16
I7
sS'import_filename'
p17
S'media/mojo/interfaces/demuxer_stream.mojom'
p18
sS'filename'
p19
S'../../media/mojo/interfaces/renderer.mojom'
p20
sbag1
(g12
g3
NtRp21
(dp22
g15
Nsg16
I8
sg17
S'media/mojo/interfaces/media_types.mojom'
p23
sg19
g20
sbag1
(g12
g3
NtRp24
(dp25
g15
Nsg16
I9
sg17
S'mojo/public/mojom/base/time.mojom'
p26
sg19
g20
sbag1
(g12
g3
NtRp27
(dp28
g15
Nsg16
I10
sg17
S'mojo/public/mojom/base/unguessable_token.mojom'
p29
sg19
g20
sbag1
(g12
g3
NtRp30
(dp31
g15
Nsg16
I11
sg17
S'ui/gfx/geometry/mojo/geometry.mojom'
p32
sg19
g20
sbag1
(g12
g3
NtRp33
(dp34
g15
Nsg16
I12
sg17
S'url/mojom/url.mojom'
p35
sg19
g20
sbasg16
I7
sg19
g20
sbsS'definition_list'
p36
(lp37
g1
(cmojom.parse.ast
Interface
p38
g3
NtRp39
(dp40
S'body'
p41
g1
(cmojom.parse.ast
InterfaceBody
p42
g3
NtRp43
(dp44
g10
(lp45
g1
(cmojom.parse.ast
Method
p46
g3
NtRp47
(dp48
S'ordinal'
p49
NsS'mojom_name'
p50
S'Initialize'
p51
sS'parameter_list'
p52
g1
(cmojom.parse.ast
ParameterList
p53
g3
NtRp54
(dp55
g10
(lp56
g1
(cmojom.parse.ast
Parameter
p57
g3
NtRp58
(dp59
g49
Nsg50
S'client'
p60
sg15
Nsg19
g20
sS'typename'
p61
S'asso<RendererClient>'
p62
sg16
I18
sbag1
(g57
g3
NtRp63
(dp64
g49
Nsg50
S'streams'
p65
sg15
Nsg19
g20
sg61
S'DemuxerStream[]?'
p66
sg16
I19
sbag1
(g57
g3
NtRp67
(dp68
g49
Nsg50
S'media_url'
p69
sg15
Nsg19
g20
sg61
S'url.mojom.Url?'
p70
sg16
I20
sbag1
(g57
g3
NtRp71
(dp72
g49
Nsg50
S'first_party_for_cookies'
p73
sg15
Nsg19
g20
sg61
S'url.mojom.Url?'
p74
sg16
I21
sbag1
(g57
g3
NtRp75
(dp76
g49
Nsg50
S'allow_credentials'
p77
sg15
Nsg19
g20
sg61
S'bool'
p78
sg16
I21
sbasg16
I18
sg19
g20
sbsg15
Nsg19
Nsg16
NsS'response_parameter_list'
p79
g1
(g53
g3
NtRp80
(dp81
g10
(lp82
g1
(g57
g3
NtRp83
(dp84
g49
Nsg50
S'success'
p85
sg15
Nsg19
g20
sg61
S'bool'
p86
sg16
I22
sbasg16
I22
sg19
g20
sbsbag1
(g46
g3
NtRp87
(dp88
g49
Nsg50
S'Flush'
p89
sg52
g1
(g53
g3
NtRp90
(dp91
g10
(lp92
sg16
Nsg19
Nsbsg15
Nsg19
Nsg16
Nsg79
g1
(g53
g3
NtRp93
(dp94
g10
(lp95
sg16
Nsg19
Nsbsbag1
(g46
g3
NtRp96
(dp97
g49
Nsg50
S'StartPlayingFrom'
p98
sg52
g1
(g53
g3
NtRp99
(dp100
g10
(lp101
g1
(g57
g3
NtRp102
(dp103
g49
Nsg50
S'time'
p104
sg15
Nsg19
g20
sg61
S'mojo_base.mojom.TimeDelta'
p105
sg16
I30
sbasg16
I30
sg19
g20
sbsg15
Nsg19
Nsg16
Nsg79
Nsbag1
(g46
g3
NtRp106
(dp107
g49
Nsg50
S'SetPlaybackRate'
p108
sg52
g1
(g53
g3
NtRp109
(dp110
g10
(lp111
g1
(g57
g3
NtRp112
(dp113
g49
Nsg50
S'playback_rate'
p114
sg15
Nsg19
g20
sg61
S'double'
p115
sg16
I33
sbasg16
I33
sg19
g20
sbsg15
Nsg19
Nsg16
Nsg79
Nsbag1
(g46
g3
NtRp116
(dp117
g49
Nsg50
S'SetVolume'
p118
sg52
g1
(g53
g3
NtRp119
(dp120
g10
(lp121
g1
(g57
g3
NtRp122
(dp123
g49
Nsg50
S'volume'
p124
sg15
Nsg19
g20
sg61
S'float'
p125
sg16
I36
sbasg16
I36
sg19
g20
sbsg15
Nsg19
Nsg16
Nsg79
Nsbag1
(g46
g3
NtRp126
(dp127
g49
Nsg50
S'SetCdm'
p128
sg52
g1
(g53
g3
NtRp129
(dp130
g10
(lp131
g1
(g57
g3
NtRp132
(dp133
g49
Nsg50
S'cdm_id'
p134
sg15
Nsg19
g20
sg61
S'int32'
p135
sg16
I40
sbasg16
I40
sg19
g20
sbsg15
Nsg19
Nsg16
Nsg79
g1
(g53
g3
NtRp136
(dp137
g10
(lp138
g1
(g57
g3
NtRp139
(dp140
g49
Nsg50
S'success'
p141
sg15
Nsg19
g20
sg61
S'bool'
p142
sg16
I40
sbasg16
I40
sg19
g20
sbsbasg16
Nsg19
Nsbsg15
Nsg16
Nsg50
S'Renderer'
p143
sg19
Nsbag1
(g38
g3
NtRp144
(dp145
g41
g1
(g42
g3
NtRp146
(dp147
g10
(lp148
g1
(g46
g3
NtRp149
(dp150
g49
Nsg50
S'OnTimeUpdate'
p151
sg52
g1
(g53
g3
NtRp152
(dp153
g10
(lp154
g1
(g57
g3
NtRp155
(dp156
g49
Nsg50
S'time'
p157
sg15
Nsg19
g20
sg61
S'mojo_base.mojom.TimeDelta'
p158
sg16
I51
sbag1
(g57
g3
NtRp159
(dp160
g49
Nsg50
S'max_time'
p161
sg15
Nsg19
g20
sg61
S'mojo_base.mojom.TimeDelta'
p162
sg16
I52
sbag1
(g57
g3
NtRp163
(dp164
g49
Nsg50
S'capture_time'
p165
sg15
Nsg19
g20
sg61
S'mojo_base.mojom.TimeTicks'
p166
sg16
I53
sbasg16
I51
sg19
g20
sbsg15
Nsg19
Nsg16
Nsg79
Nsbag1
(g46
g3
NtRp167
(dp168
g49
Nsg50
S'OnBufferingStateChange'
p169
sg52
g1
(g53
g3
NtRp170
(dp171
g10
(lp172
g1
(g57
g3
NtRp173
(dp174
g49
Nsg50
S'state'
p175
sg15
Nsg19
g20
sg61
S'BufferingState'
p176
sg16
I56
sbasg16
I56
sg19
g20
sbsg15
Nsg19
Nsg16
Nsg79
Nsbag1
(g46
g3
NtRp177
(dp178
g49
Nsg50
S'OnEnded'
p179
sg52
g1
(g53
g3
NtRp180
(dp181
g10
(lp182
sg16
Nsg19
Nsbsg15
Nsg19
Nsg16
Nsg79
Nsbag1
(g46
g3
NtRp183
(dp184
g49
Nsg50
S'OnError'
p185
sg52
g1
(g53
g3
NtRp186
(dp187
g10
(lp188
sg16
Nsg19
Nsbsg15
Nsg19
Nsg16
Nsg79
Nsbag1
(g46
g3
NtRp189
(dp190
g49
Nsg50
S'OnAudioConfigChange'
p191
sg52
g1
(g53
g3
NtRp192
(dp193
g10
(lp194
g1
(g57
g3
NtRp195
(dp196
g49
Nsg50
S'config'
p197
sg15
Nsg19
g20
sg61
S'AudioDecoderConfig'
p198
sg16
I68
sbasg16
I68
sg19
g20
sbsg15
Nsg19
Nsg16
Nsg79
Nsbag1
(g46
g3
NtRp199
(dp200
g49
Nsg50
S'OnVideoConfigChange'
p201
sg52
g1
(g53
g3
NtRp202
(dp203
g10
(lp204
g1
(g57
g3
NtRp205
(dp206
g49
Nsg50
S'config'
p207
sg15
Nsg19
g20
sg61
S'VideoDecoderConfig'
p208
sg16
I69
sbasg16
I69
sg19
g20
sbsg15
Nsg19
Nsg16
Nsg79
Nsbag1
(g46
g3
NtRp209
(dp210
g49
Nsg50
S'OnVideoNaturalSizeChange'
p211
sg52
g1
(g53
g3
NtRp212
(dp213
g10
(lp214
g1
(g57
g3
NtRp215
(dp216
g49
Nsg50
S'size'
p217
sg15
Nsg19
g20
sg61
S'gfx.mojom.Size'
p218
sg16
I72
sbasg16
I72
sg19
g20
sbsg15
Nsg19
Nsg16
Nsg79
Nsbag1
(g46
g3
NtRp219
(dp220
g49
Nsg50
S'OnVideoOpacityChange'
p221
sg52
g1
(g53
g3
NtRp222
(dp223
g10
(lp224
g1
(g57
g3
NtRp225
(dp226
g49
Nsg50
S'opaque'
p227
sg15
Nsg19
g20
sg61
S'bool'
p228
sg16
I75
sbasg16
I75
sg19
g20
sbsg15
Nsg19
Nsg16
Nsg79
Nsbag1
(g46
g3
NtRp229
(dp230
g49
Nsg50
S'OnStatisticsUpdate'
p231
sg52
g1
(g53
g3
NtRp232
(dp233
g10
(lp234
g1
(g57
g3
NtRp235
(dp236
g49
Nsg50
S'stats'
p237
sg15
Nsg19
g20
sg61
S'PipelineStatistics'
p238
sg16
I79
sbasg16
I79
sg19
g20
sbsg15
Nsg19
Nsg16
Nsg79
Nsbag1
(g46
g3
NtRp239
(dp240
g49
Nsg50
S'OnWaiting'
p241
sg52
g1
(g53
g3
NtRp242
(dp243
g10
(lp244
g1
(g57
g3
NtRp245
(dp246
g49
Nsg50
S'reason'
p247
sg15
Nsg19
g20
sg61
S'WaitingReason'
p248
sg16
I83
sbasg16
I83
sg19
g20
sbsg15
Nsg19
Nsg16
Nsg79
Nsbasg16
Nsg19
Nsbsg15
Nsg16
Nsg50
S'RendererClient'
p249
sg19
Nsbasg16
NsS'module'
p250
g1
(cmojom.parse.ast
Module
p251
g3
NtRp252
(dp253
S'mojom_namespace'
p254
(S'IDENTIFIER'
p255
S'media.mojom'
tp256
sg16
I5
sg15
Nsg19
g20
sbsg19
Nsb.