ccopy_reg
_reconstructor
p1
(cmojom.parse.ast
Mojom
p2
c__builtin__
object
p3
NtRp4
(dp5
S'import_list'
p6
g1
(cmojom.parse.ast
ImportList
p7
g3
NtRp8
(dp9
S'items'
p10
(lp11
g1
(cmojom.parse.ast
Import
p12
g3
NtRp13
(dp14
S'attribute_list'
p15
NsS'lineno'
p16
I7
sS'import_filename'
p17
S'media/mojo/interfaces/media_types.mojom'
p18
sS'filename'
p19
S'../../media/mojo/interfaces/renderer_extensions.mojom'
p20
sbag1
(g12
g3
NtRp21
(dp22
g15
Nsg16
I8
sg17
S'mojo/public/mojom/base/time.mojom'
p23
sg19
g20
sbag1
(g12
g3
NtRp24
(dp25
g15
Nsg16
I9
sg17
S'mojo/public/mojom/base/unguessable_token.mojom'
p26
sg19
g20
sbag1
(g12
g3
NtRp27
(dp28
g15
Nsg16
I10
sg17
S'ui/gfx/geometry/mojo/geometry.mojom'
p29
sg19
g20
sbasg16
I7
sg19
g20
sbsS'definition_list'
p30
(lp31
g1
(cmojom.parse.ast
Interface
p32
g3
NtRp33
(dp34
S'body'
p35
g1
(cmojom.parse.ast
InterfaceBody
p36
g3
NtRp37
(dp38
g10
(lp39
g1
(cmojom.parse.ast
Method
p40
g3
NtRp41
(dp42
S'ordinal'
p43
NsS'mojom_name'
p44
S'OnVideoSizeChange'
p45
sS'parameter_list'
p46
g1
(cmojom.parse.ast
ParameterList
p47
g3
NtRp48
(dp49
g10
(lp50
g1
(cmojom.parse.ast
Parameter
p51
g3
NtRp52
(dp53
g43
Nsg44
S'size'
p54
sg15
Nsg19
g20
sS'typename'
p55
S'gfx.mojom.Size'
p56
sg16
I21
sbasg16
I21
sg19
g20
sbsg15
Nsg19
Nsg16
NsS'response_parameter_list'
p57
Nsbag1
(g40
g3
NtRp58
(dp59
g43
Nsg44
S'OnDurationChange'
p60
sg46
g1
(g47
g3
NtRp61
(dp62
g10
(lp63
g1
(g51
g3
NtRp64
(dp65
g43
Nsg44
S'duration'
p66
sg15
Nsg19
g20
sg55
S'mojo_base.mojom.TimeDelta'
p67
sg16
I22
sbasg16
I22
sg19
g20
sbsg15
Nsg19
Nsg16
Nsg57
Nsbasg16
Nsg19
Nsbsg15
Nsg16
Nsg44
S'MediaPlayerRendererClientExtension'
p68
sg19
Nsbag1
(g32
g3
NtRp69
(dp70
g35
g1
(g36
g3
NtRp71
(dp72
g10
(lp73
g1
(g40
g3
NtRp74
(dp75
g43
Nsg44
S'InitiateScopedSurfaceRequest'
p76
sg46
g1
(g47
g3
NtRp77
(dp78
g10
(lp79
sg16
Nsg19
Nsbsg15
Nsg19
Nsg16
Nsg57
g1
(g47
g3
NtRp80
(dp81
g10
(lp82
g1
(g51
g3
NtRp83
(dp84
g43
Nsg44
S'request_token'
p85
sg15
Nsg19
g20
sg55
S'mojo_base.mojom.UnguessableToken'
p86
sg16
I36
sbasg16
I36
sg19
g20
sbsbasg16
Nsg19
Nsbsg15
Nsg16
Nsg44
S'MediaPlayerRendererExtension'
p87
sg19
Nsbag1
(g32
g3
NtRp88
(dp89
g35
g1
(g36
g3
NtRp90
(dp91
g10
(lp92
g1
(g40
g3
NtRp93
(dp94
g43
Nsg44
S'OnRemotePlayStateChange'
p95
sg46
g1
(g47
g3
NtRp96
(dp97
g10
(lp98
g1
(g51
g3
NtRp99
(dp100
g43
Nsg44
S'state'
p101
sg15
Nsg19
g20
sg55
S'MediaStatusState'
p102
sg16
I48
sbasg16
I48
sg19
g20
sbsg15
Nsg19
Nsg16
Nsg57
Nsbasg16
Nsg19
Nsbsg15
Nsg16
Nsg44
S'FlingingRendererClientExtension'
p103
sg19
Nsbasg16
NsS'module'
p104
g1
(cmojom.parse.ast
Module
p105
g3
NtRp106
(dp107
S'mojom_namespace'
p108
(S'IDENTIFIER'
p109
S'media.mojom'
tp110
sg16
I5
sg15
Nsg19
g20
sbsg19
Nsb.