ccopy_reg
_reconstructor
p1
(cmojom.parse.ast
Mojom
p2
c__builtin__
object
p3
NtRp4
(dp5
S'import_list'
p6
g1
(cmojom.parse.ast
ImportList
p7
g3
NtRp8
(dp9
S'items'
p10
(lp11
g1
(cmojom.parse.ast
Import
p12
g3
NtRp13
(dp14
S'attribute_list'
p15
NsS'lineno'
p16
I7
sS'import_filename'
p17
S'media/mojo/interfaces/media_types.mojom'
p18
sS'filename'
p19
S'../../media/mojo/interfaces/video_decode_perf_history.mojom'
p20
sbag1
(g12
g3
NtRp21
(dp22
g15
Nsg16
I8
sg17
S'ui/gfx/geometry/mojo/geometry.mojom'
p23
sg19
g20
sbasg16
I7
sg19
g20
sbsS'definition_list'
p24
(lp25
g1
(cmojom.parse.ast
Interface
p26
g3
NtRp27
(dp28
S'body'
p29
g1
(cmojom.parse.ast
InterfaceBody
p30
g3
NtRp31
(dp32
g10
(lp33
g1
(cmojom.parse.ast
Method
p34
g3
NtRp35
(dp36
S'ordinal'
p37
NsS'mojom_name'
p38
S'GetPerfInfo'
p39
sS'parameter_list'
p40
g1
(cmojom.parse.ast
ParameterList
p41
g3
NtRp42
(dp43
g10
(lp44
g1
(cmojom.parse.ast
Parameter
p45
g3
NtRp46
(dp47
g37
Nsg38
S'features'
p48
sg15
Nsg19
g20
sS'typename'
p49
S'PredictionFeatures'
p50
sg16
I17
sbasg16
I17
sg19
g20
sbsg15
Nsg19
Nsg16
NsS'response_parameter_list'
p51
g1
(g41
g3
NtRp52
(dp53
g10
(lp54
g1
(g45
g3
NtRp55
(dp56
g37
Nsg38
S'is_smooth'
p57
sg15
Nsg19
g20
sg49
S'bool'
p58
sg16
I17
sbag1
(g45
g3
NtRp59
(dp60
g37
Nsg38
S'is_power_efficient'
p61
sg15
Nsg19
g20
sg49
S'bool'
p62
sg16
I17
sbasg16
I17
sg19
g20
sbsbasg16
Nsg19
Nsbsg15
Nsg16
Nsg38
S'VideoDecodePerfHistory'
p63
sg19
Nsbasg16
NsS'module'
p64
g1
(cmojom.parse.ast
Module
p65
g3
NtRp66
(dp67
S'mojom_namespace'
p68
(S'IDENTIFIER'
p69
S'media.mojom'
tp70
sg16
I5
sg15
Nsg19
g20
sbsg19
Nsb.