ccopy_reg
_reconstructor
p1
(cmojom.parse.ast
Mojom
p2
c__builtin__
object
p3
NtRp4
(dp5
S'import_list'
p6
g1
(cmojom.parse.ast
ImportList
p7
g3
NtRp8
(dp9
S'items'
p10
(lp11
g1
(cmojom.parse.ast
Import
p12
g3
NtRp13
(dp14
S'attribute_list'
p15
NsS'lineno'
p16
I7
sS'import_filename'
p17
S'media/mojo/interfaces/media_types.mojom'
p18
sS'filename'
p19
S'../../media/mojo/interfaces/video_encode_accelerator.mojom'
p20
sbag1
(g12
g3
NtRp21
(dp22
g15
Nsg16
I8
sg17
S'mojo/public/mojom/base/time.mojom'
p23
sg19
g20
sbag1
(g12
g3
NtRp24
(dp25
g15
Nsg16
I9
sg17
S'ui/gfx/geometry/mojo/geometry.mojom'
p26
sg19
g20
sbasg16
I7
sg19
g20
sbsS'definition_list'
p27
(lp28
g1
(cmojom.parse.ast
Interface
p29
g3
NtRp30
(dp31
S'body'
p32
g1
(cmojom.parse.ast
InterfaceBody
p33
g3
NtRp34
(dp35
g10
(lp36
g1
(cmojom.parse.ast
Method
p37
g3
NtRp38
(dp39
S'ordinal'
p40
NsS'mojom_name'
p41
S'CreateVideoEncodeAccelerator'
p42
sS'parameter_list'
p43
g1
(cmojom.parse.ast
ParameterList
p44
g3
NtRp45
(dp46
g10
(lp47
g1
(cmojom.parse.ast
Parameter
p48
g3
NtRp49
(dp50
g40
Nsg41
S'request'
p51
sg15
Nsg19
g20
sS'typename'
p52
S'VideoEncodeAccelerator&'
p53
sg16
I36
sbasg16
I36
sg19
g20
sbsg15
Nsg19
Nsg16
NsS'response_parameter_list'
p54
Nsbasg16
Nsg19
Nsbsg15
Nsg16
Nsg41
S'VideoEncodeAcceleratorProvider'
p55
sg19
Nsbag1
(cmojom.parse.ast
Struct
p56
g3
NtRp57
(dp58
g32
g1
(cmojom.parse.ast
StructBody
p59
g3
NtRp60
(dp61
g10
(lp62
g1
(cmojom.parse.ast
StructField
p63
g3
NtRp64
(dp65
g40
NsS'default_value'
p66
Nsg41
S'bitrates'
p67
sg15
Nsg19
Nsg52
S'int32[]'
p68
sg16
Nsbasg16
Nsg19
Nsbsg15
Nsg16
Nsg41
S'VideoBitrateAllocation'
p69
sg19
Nsbag1
(g56
g3
NtRp70
(dp71
g32
g1
(g59
g3
NtRp72
(dp73
g10
(lp74
g1
(cmojom.parse.ast
Enum
p75
g3
NtRp76
(dp77
g15
NsS'enum_value_list'
p78
g1
(cmojom.parse.ast
EnumValueList
p79
g3
NtRp80
(dp81
g10
(lp82
g1
(cmojom.parse.ast
EnumValue
p83
g3
NtRp84
(dp85
g15
NsS'value'
p86
Nsg16
I50
sg41
S'kCamera'
p87
sg19
g20
sbag1
(g83
g3
NtRp88
(dp89
g15
Nsg86
Nsg16
I51
sg41
S'kDisplay'
p90
sg19
g20
sbasg16
I50
sg19
g20
sbsg16
I49
sg41
S'ContentType'
p91
sg19
g20
sbag1
(g63
g3
NtRp92
(dp93
g40
Nsg66
Nsg41
S'input_format'
p94
sg15
Nsg19
Nsg52
S'VideoPixelFormat'
p95
sg16
Nsbag1
(g63
g3
NtRp96
(dp97
g40
Nsg66
Nsg41
S'input_visible_size'
p98
sg15
Nsg19
Nsg52
S'gfx.mojom.Size'
p99
sg16
Nsbag1
(g63
g3
NtRp100
(dp101
g40
Nsg66
Nsg41
S'output_profile'
p102
sg15
Nsg19
Nsg52
S'VideoCodecProfile'
p103
sg16
Nsbag1
(g63
g3
NtRp104
(dp105
g40
Nsg66
Nsg41
S'initial_bitrate'
p106
sg15
Nsg19
Nsg52
S'uint32'
p107
sg16
Nsbag1
(g63
g3
NtRp108
(dp109
g40
Nsg66
Nsg41
S'initial_framerate'
p110
sg15
Nsg19
Nsg52
S'uint32'
p111
sg16
Nsbag1
(g63
g3
NtRp112
(dp113
g40
Nsg66
Nsg41
S'has_initial_framerate'
p114
sg15
Nsg19
Nsg52
S'bool'
p115
sg16
Nsbag1
(g63
g3
NtRp116
(dp117
g40
Nsg66
Nsg41
S'gop_length'
p118
sg15
Nsg19
Nsg52
S'uint32'
p119
sg16
Nsbag1
(g63
g3
NtRp120
(dp121
g40
Nsg66
Nsg41
S'has_gop_length'
p122
sg15
Nsg19
Nsg52
S'bool'
p123
sg16
Nsbag1
(g63
g3
NtRp124
(dp125
g40
Nsg66
Nsg41
S'h264_output_level'
p126
sg15
Nsg19
Nsg52
S'uint8'
p127
sg16
Nsbag1
(g63
g3
NtRp128
(dp129
g40
Nsg66
Nsg41
S'has_h264_output_level'
p130
sg15
Nsg19
Nsg52
S'bool'
p131
sg16
Nsbag1
(g63
g3
NtRp132
(dp133
g40
Nsg66
Nsg41
S'content_type'
p134
sg15
Nsg19
Nsg52
S'ContentType'
p135
sg16
Nsbasg16
I49
sg19
g20
sbsg15
Nsg16
Nsg41
S'VideoEncodeAcceleratorConfig'
p136
sg19
Nsbag1
(g29
g3
NtRp137
(dp138
g32
g1
(g33
g3
NtRp139
(dp140
g10
(lp141
g1
(g75
g3
NtRp142
(dp143
g15
Nsg78
g1
(g79
g3
NtRp144
(dp145
g10
(lp146
g1
(g83
g3
NtRp147
(dp148
g15
Nsg86
Nsg16
I70
sg41
S'ILLEGAL_STATE'
p149
sg19
g20
sbag1
(g83
g3
NtRp150
(dp151
g15
Nsg86
Nsg16
I71
sg41
S'INVALID_ARGUMENT'
p152
sg19
g20
sbag1
(g83
g3
NtRp153
(dp154
g15
Nsg86
Nsg16
I72
sg41
S'PLATFORM_FAILURE'
p155
sg19
g20
sbasg16
I70
sg19
g20
sbsg16
I69
sg41
S'Error'
p156
sg19
g20
sbag1
(g37
g3
NtRp157
(dp158
g40
Nsg41
S'Initialize'
p159
sg43
g1
(g44
g3
NtRp160
(dp161
g10
(lp162
g1
(g48
g3
NtRp163
(dp164
g40
Nsg41
S'config'
p165
sg15
Nsg19
g20
sg52
S'VideoEncodeAcceleratorConfig'
p166
sg16
I78
sbag1
(g48
g3
NtRp167
(dp168
g40
Nsg41
S'client'
p169
sg15
Nsg19
g20
sg52
S'VideoEncodeAcceleratorClient'
p170
sg16
I79
sbasg16
I78
sg19
g20
sbsg15
g1
(cmojom.parse.ast
AttributeList
p171
g3
NtRp172
(dp173
g10
(lp174
g1
(cmojom.parse.ast
Attribute
p175
g3
NtRp176
(dp177
g86
I01
sg16
I77
sS'key'
p178
S'Sync'
p179
sg19
g20
sbasg16
I77
sg19
g20
sbsg19
Nsg16
Nsg54
g1
(g44
g3
NtRp180
(dp181
g10
(lp182
g1
(g48
g3
NtRp183
(dp184
g40
Nsg41
S'result'
p185
sg15
Nsg19
g20
sg52
S'bool'
p186
sg16
I80
sbasg16
I80
sg19
g20
sbsbag1
(g37
g3
NtRp187
(dp188
g40
Nsg41
S'Encode'
p189
sg43
g1
(g44
g3
NtRp190
(dp191
g10
(lp192
g1
(g48
g3
NtRp193
(dp194
g40
Nsg41
S'frame'
p195
sg15
Nsg19
g20
sg52
S'VideoFrame'
p196
sg16
I83
sbag1
(g48
g3
NtRp197
(dp198
g40
Nsg41
S'force_keyframe'
p199
sg15
Nsg19
g20
sg52
S'bool'
p200
sg16
I83
sbasg16
I83
sg19
g20
sbsg15
Nsg19
Nsg16
Nsg54
g1
(g44
g3
NtRp201
(dp202
g10
(lp203
sg16
Nsg19
Nsbsbag1
(g37
g3
NtRp204
(dp205
g40
Nsg41
S'UseOutputBitstreamBuffer'
p206
sg43
g1
(g44
g3
NtRp207
(dp208
g10
(lp209
g1
(g48
g3
NtRp210
(dp211
g40
Nsg41
S'bitstream_buffer_id'
p212
sg15
Nsg19
g20
sg52
S'int32'
p213
sg16
I85
sbag1
(g48
g3
NtRp214
(dp215
g40
Nsg41
S'buffer'
p216
sg15
Nsg19
g20
sg52
S'handle<shared_buffer>'
p217
sg16
I86
sbasg16
I85
sg19
g20
sbsg15
Nsg19
Nsg16
Nsg54
Nsbag1
(g37
g3
NtRp218
(dp219
g40
Nsg41
S'RequestEncodingParametersChange'
p220
sg43
g1
(g44
g3
NtRp221
(dp222
g10
(lp223
g1
(g48
g3
NtRp224
(dp225
g40
Nsg41
S'bitrate_allocation'
p226
sg15
Nsg19
g20
sg52
S'VideoBitrateAllocation'
p227
sg16
I89
sbag1
(g48
g3
NtRp228
(dp229
g40
Nsg41
S'framerate'
p230
sg15
Nsg19
g20
sg52
S'uint32'
p231
sg16
I90
sbasg16
I89
sg19
g20
sbsg15
Nsg19
Nsg16
Nsg54
Nsbasg16
I69
sg19
g20
sbsg15
Nsg16
Nsg41
S'VideoEncodeAccelerator'
p232
sg19
Nsbag1
(g56
g3
NtRp233
(dp234
g32
g1
(g59
g3
NtRp235
(dp236
g10
(lp237
g1
(g63
g3
NtRp238
(dp239
g40
Nsg66
Nsg41
S'non_reference'
p240
sg15
Nsg19
Nsg52
S'bool'
p241
sg16
Nsbag1
(g63
g3
NtRp242
(dp243
g40
Nsg66
Nsg41
S'temporal_idx'
p244
sg15
Nsg19
Nsg52
S'uint8'
p245
sg16
Nsbag1
(g63
g3
NtRp246
(dp247
g40
Nsg66
Nsg41
S'layer_sync'
p248
sg15
Nsg19
Nsg52
S'bool'
p249
sg16
Nsbasg16
Nsg19
Nsbsg15
Nsg16
Nsg41
S'Vp8Metadata'
p250
sg19
Nsbag1
(g56
g3
NtRp251
(dp252
g32
g1
(g59
g3
NtRp253
(dp254
g10
(lp255
g1
(g63
g3
NtRp256
(dp257
g40
Nsg66
Nsg41
S'payload_size_bytes'
p258
sg15
Nsg19
Nsg52
S'uint32'
p259
sg16
Nsbag1
(g63
g3
NtRp260
(dp261
g40
Nsg66
Nsg41
S'key_frame'
p262
sg15
Nsg19
Nsg52
S'bool'
p263
sg16
Nsbag1
(g63
g3
NtRp264
(dp265
g40
Nsg66
Nsg41
S'timestamp'
p266
sg15
Nsg19
Nsg52
S'mojo_base.mojom.TimeDelta'
p267
sg16
Nsbag1
(g63
g3
NtRp268
(dp269
g40
Nsg66
Nsg41
S'vp8'
p270
sg15
Nsg19
Nsg52
S'Vp8Metadata?'
p271
sg16
Nsbasg16
Nsg19
Nsbsg15
Nsg16
Nsg41
S'BitstreamBufferMetadata'
p272
sg19
Nsbag1
(g29
g3
NtRp273
(dp274
g32
g1
(g33
g3
NtRp275
(dp276
g10
(lp277
g1
(g37
g3
NtRp278
(dp279
g40
Nsg41
S'RequireBitstreamBuffers'
p280
sg43
g1
(g44
g3
NtRp281
(dp282
g10
(lp283
g1
(g48
g3
NtRp284
(dp285
g40
Nsg41
S'input_count'
p286
sg15
Nsg19
g20
sg52
S'uint32'
p287
sg16
I108
sbag1
(g48
g3
NtRp288
(dp289
g40
Nsg41
S'input_coded_size'
p290
sg15
Nsg19
g20
sg52
S'gfx.mojom.Size'
p291
sg16
I109
sbag1
(g48
g3
NtRp292
(dp293
g40
Nsg41
S'output_buffer_size'
p294
sg15
Nsg19
g20
sg52
S'uint32'
p295
sg16
I110
sbasg16
I108
sg19
g20
sbsg15
Nsg19
Nsg16
Nsg54
Nsbag1
(g37
g3
NtRp296
(dp297
g40
Nsg41
S'BitstreamBufferReady'
p298
sg43
g1
(g44
g3
NtRp299
(dp300
g10
(lp301
g1
(g48
g3
NtRp302
(dp303
g40
Nsg41
S'bitstream_buffer_id'
p304
sg15
Nsg19
g20
sg52
S'int32'
p305
sg16
I112
sbag1
(g48
g3
NtRp306
(dp307
g40
Nsg41
S'metadata'
p308
sg15
Nsg19
g20
sg52
S'BitstreamBufferMetadata'
p309
sg16
I113
sbasg16
I112
sg19
g20
sbsg15
Nsg19
Nsg16
Nsg54
Nsbag1
(g37
g3
NtRp310
(dp311
g40
Nsg41
S'NotifyError'
p312
sg43
g1
(g44
g3
NtRp313
(dp314
g10
(lp315
g1
(g48
g3
NtRp316
(dp317
g40
Nsg41
S'error'
p318
sg15
Nsg19
g20
sg52
S'VideoEncodeAccelerator.Error'
p319
sg16
I115
sbasg16
I115
sg19
g20
sbsg15
Nsg19
Nsg16
Nsg54
Nsbasg16
Nsg19
Nsbsg15
Nsg16
Nsg41
S'VideoEncodeAcceleratorClient'
p320
sg19
Nsbasg16
NsS'module'
p321
g1
(cmojom.parse.ast
Module
p322
g3
NtRp323
(dp324
S'mojom_namespace'
p325
(S'IDENTIFIER'
p326
S'media.mojom'
tp327
sg16
I5
sg15
Nsg19
g20
sbsg19
Nsb.