ccopy_reg
_reconstructor
p1
(cmojom.parse.ast
Mojom
p2
c__builtin__
object
p3
NtRp4
(dp5
S'import_list'
p6
g1
(cmojom.parse.ast
ImportList
p7
g3
NtRp8
(dp9
S'items'
p10
(lp11
g1
(cmojom.parse.ast
Import
p12
g3
NtRp13
(dp14
S'attribute_list'
p15
NsS'lineno'
p16
I7
sS'import_filename'
p17
S'gpu/ipc/common/sync_token.mojom'
p18
sS'filename'
p19
S'../../media/mojo/interfaces/video_decoder.mojom'
p20
sbag1
(g12
g3
NtRp21
(dp22
g15
Nsg16
I8
sg17
S'media/mojo/interfaces/media_log.mojom'
p23
sg19
g20
sbag1
(g12
g3
NtRp24
(dp25
g15
Nsg16
I9
sg17
S'media/mojo/interfaces/media_types.mojom'
p26
sg19
g20
sbag1
(g12
g3
NtRp27
(dp28
g15
Nsg16
I10
sg17
S'mojo/public/mojom/base/unguessable_token.mojom'
p29
sg19
g20
sbag1
(g12
g3
NtRp30
(dp31
g15
Nsg16
I11
sg17
S'ui/gfx/geometry/mojo/geometry.mojom'
p32
sg19
g20
sbag1
(g12
g3
NtRp33
(dp34
g15
Nsg16
I12
sg17
S'ui/gfx/mojo/color_space.mojom'
p35
sg19
g20
sbasg16
I7
sg19
g20
sbsS'definition_list'
p36
(lp37
g1
(cmojom.parse.ast
Struct
p38
g3
NtRp39
(dp40
S'body'
p41
g1
(cmojom.parse.ast
StructBody
p42
g3
NtRp43
(dp44
g10
(lp45
g1
(cmojom.parse.ast
StructField
p46
g3
NtRp47
(dp48
S'ordinal'
p49
NsS'default_value'
p50
NsS'mojom_name'
p51
S'profile_min'
p52
sg15
Nsg19
NsS'typename'
p53
S'VideoCodecProfile'
p54
sg16
Nsbag1
(g46
g3
NtRp55
(dp56
g49
Nsg50
Nsg51
S'profile_max'
p57
sg15
Nsg19
Nsg53
S'VideoCodecProfile'
p58
sg16
Nsbag1
(g46
g3
NtRp59
(dp60
g49
Nsg50
Nsg51
S'coded_size_min'
p61
sg15
Nsg19
Nsg53
S'gfx.mojom.Size'
p62
sg16
Nsbag1
(g46
g3
NtRp63
(dp64
g49
Nsg50
Nsg51
S'coded_size_max'
p65
sg15
Nsg19
Nsg53
S'gfx.mojom.Size'
p66
sg16
Nsbag1
(g46
g3
NtRp67
(dp68
g49
Nsg50
Nsg51
S'allow_encrypted'
p69
sg15
Nsg19
Nsg53
S'bool'
p70
sg16
Nsbag1
(g46
g3
NtRp71
(dp72
g49
Nsg50
Nsg51
S'require_encrypted'
p73
sg15
Nsg19
Nsg53
S'bool'
p74
sg16
Nsbasg16
Nsg19
Nsbsg15
Nsg16
Nsg51
S'SupportedVideoDecoderConfig'
p75
sg19
Nsbag1
(g38
g3
NtRp76
(dp77
g41
g1
(g42
g3
NtRp78
(dp79
g10
(lp80
g1
(g46
g3
NtRp81
(dp82
g49
Nsg50
Nsg51
S'channel_token'
p83
sg15
Nsg19
Nsg53
S'mojo_base.mojom.UnguessableToken'
p84
sg16
Nsbag1
(g46
g3
NtRp85
(dp86
g49
Nsg50
Nsg51
S'route_id'
p87
sg15
Nsg19
Nsg53
S'int32'
p88
sg16
Nsbasg16
Nsg19
Nsbsg15
Nsg16
Nsg51
S'CommandBufferId'
p89
sg19
Nsbag1
(g38
g3
NtRp90
(dp91
g41
Nsg15
g1
(cmojom.parse.ast
AttributeList
p92
g3
NtRp93
(dp94
g10
(lp95
g1
(cmojom.parse.ast
Attribute
p96
g3
NtRp97
(dp98
S'value'
p99
I01
sg16
I40
sS'key'
p100
S'Native'
p101
sg19
g20
sbasg16
I40
sg19
g20
sbsg16
Nsg51
S'OverlayInfo'
p102
sg19
Nsbag1
(cmojom.parse.ast
Interface
p103
g3
NtRp104
(dp105
g41
g1
(cmojom.parse.ast
InterfaceBody
p106
g3
NtRp107
(dp108
g10
(lp109
g1
(cmojom.parse.ast
Method
p110
g3
NtRp111
(dp112
g49
Nsg51
S'ReleaseVideoFrame'
p113
sS'parameter_list'
p114
g1
(cmojom.parse.ast
ParameterList
p115
g3
NtRp116
(dp117
g10
(lp118
g1
(cmojom.parse.ast
Parameter
p119
g3
NtRp120
(dp121
g49
Nsg51
S'release_token'
p122
sg15
Nsg19
g20
sg53
S'mojo_base.mojom.UnguessableToken'
p123
sg16
I52
sbag1
(g119
g3
NtRp124
(dp125
g49
Nsg51
S'release_sync_token'
p126
sg15
Nsg19
g20
sg53
S'gpu.mojom.SyncToken'
p127
sg16
I53
sbasg16
I52
sg19
g20
sbsg15
Nsg19
Nsg16
NsS'response_parameter_list'
p128
Nsbasg16
Nsg19
Nsbsg15
Nsg16
Nsg51
S'VideoFrameHandleReleaser'
p129
sg19
Nsbag1
(cmojom.parse.ast
Enum
p130
g3
NtRp131
(dp132
g15
g1
(g92
g3
NtRp133
(dp134
g10
(lp135
g1
(g96
g3
NtRp136
(dp137
g99
I01
sg16
I58
sg100
S'Native'
p138
sg19
g20
sbasg16
I58
sg19
g20
sbsS'enum_value_list'
p139
Nsg16
I59
sg51
S'VideoDecoderImplementation'
p140
sg19
g20
sbag1
(g103
g3
NtRp141
(dp142
g41
g1
(g106
g3
NtRp143
(dp144
g10
(lp145
g1
(g110
g3
NtRp146
(dp147
g49
Nsg51
S'GetSupportedConfigs'
p148
sg114
g1
(g115
g3
NtRp149
(dp150
g10
(lp151
sg16
Nsg19
Nsbsg15
Nsg19
Nsg16
Nsg128
g1
(g115
g3
NtRp152
(dp153
g10
(lp154
g1
(g119
g3
NtRp155
(dp156
g49
Nsg51
S'supported_configs'
p157
sg15
Nsg19
g20
sg53
S'SupportedVideoDecoderConfig[]{VideoDecoderImplementation}'
p158
sg16
I73
sbasg16
I73
sg19
g20
sbsbag1
(g110
g3
NtRp159
(dp160
g49
Nsg51
S'Construct'
p161
sg114
g1
(g115
g3
NtRp162
(dp163
g10
(lp164
g1
(g119
g3
NtRp165
(dp166
g49
Nsg51
S'client'
p167
sg15
Nsg19
g20
sg53
S'asso<VideoDecoderClient>'
p168
sg16
I102
sbag1
(g119
g3
NtRp169
(dp170
g49
Nsg51
S'media_log'
p171
sg15
Nsg19
g20
sg53
S'asso<MediaLog>'
p172
sg16
I103
sbag1
(g119
g3
NtRp173
(dp174
g49
Nsg51
S'video_frame_handle_releaser'
p175
sg15
Nsg19
g20
sg53
S'VideoFrameHandleReleaser&'
p176
sg16
I104
sbag1
(g119
g3
NtRp177
(dp178
g49
Nsg51
S'decoder_buffer_pipe'
p179
sg15
Nsg19
g20
sg53
S'handle<data_pipe_consumer>'
p180
sg16
I105
sbag1
(g119
g3
NtRp181
(dp182
g49
Nsg51
S'command_buffer_id'
p183
sg15
Nsg19
g20
sg53
S'CommandBufferId?'
p184
sg16
I106
sbag1
(g119
g3
NtRp185
(dp186
g49
Nsg51
S'implementation'
p187
sg15
Nsg19
g20
sg53
S'VideoDecoderImplementation'
p188
sg16
I107
sbag1
(g119
g3
NtRp189
(dp190
g49
Nsg51
S'target_color_space'
p191
sg15
Nsg19
g20
sg53
S'gfx.mojom.ColorSpace'
p192
sg16
I108
sbasg16
I102
sg19
g20
sbsg15
Nsg19
Nsg16
Nsg128
Nsbag1
(g110
g3
NtRp193
(dp194
g49
Nsg51
S'Initialize'
p195
sg114
g1
(g115
g3
NtRp196
(dp197
g10
(lp198
g1
(g119
g3
NtRp199
(dp200
g49
Nsg51
S'config'
p201
sg15
Nsg19
g20
sg53
S'VideoDecoderConfig'
p202
sg16
I126
sbag1
(g119
g3
NtRp203
(dp204
g49
Nsg51
S'low_delay'
p205
sg15
Nsg19
g20
sg53
S'bool'
p206
sg16
I126
sbag1
(g119
g3
NtRp207
(dp208
g49
Nsg51
S'cdm_id'
p209
sg15
Nsg19
g20
sg53
S'int32'
p210
sg16
I126
sbasg16
I126
sg19
g20
sbsg15
Nsg19
Nsg16
Nsg128
g1
(g115
g3
NtRp211
(dp212
g10
(lp213
g1
(g119
g3
NtRp214
(dp215
g49
Nsg51
S'success'
p216
sg15
Nsg19
g20
sg53
S'bool'
p217
sg16
I127
sbag1
(g119
g3
NtRp218
(dp219
g49
Nsg51
S'needs_bitstream_conversion'
p220
sg15
Nsg19
g20
sg53
S'bool'
p221
sg16
I127
sbag1
(g119
g3
NtRp222
(dp223
g49
Nsg51
S'max_decode_requests'
p224
sg15
Nsg19
g20
sg53
S'int32'
p225
sg16
I128
sbasg16
I127
sg19
g20
sbsbag1
(g110
g3
NtRp226
(dp227
g49
Nsg51
S'Decode'
p228
sg114
g1
(g115
g3
NtRp229
(dp230
g10
(lp231
g1
(g119
g3
NtRp232
(dp233
g49
Nsg51
S'buffer'
p234
sg15
Nsg19
g20
sg53
S'DecoderBuffer'
p235
sg16
I142
sbasg16
I142
sg19
g20
sbsg15
Nsg19
Nsg16
Nsg128
g1
(g115
g3
NtRp236
(dp237
g10
(lp238
g1
(g119
g3
NtRp239
(dp240
g49
Nsg51
S'status'
p241
sg15
Nsg19
g20
sg53
S'DecodeStatus'
p242
sg16
I142
sbasg16
I142
sg19
g20
sbsbag1
(g110
g3
NtRp243
(dp244
g49
Nsg51
S'Reset'
p245
sg114
g1
(g115
g3
NtRp246
(dp247
g10
(lp248
sg16
Nsg19
Nsbsg15
Nsg19
Nsg16
Nsg128
g1
(g115
g3
NtRp249
(dp250
g10
(lp251
sg16
Nsg19
Nsbsbag1
(g110
g3
NtRp252
(dp253
g49
Nsg51
S'OnOverlayInfoChanged'
p254
sg114
g1
(g115
g3
NtRp255
(dp256
g10
(lp257
g1
(g119
g3
NtRp258
(dp259
g49
Nsg51
S'overlay_info'
p260
sg15
Nsg19
g20
sg53
S'OverlayInfo'
p261
sg16
I150
sbasg16
I150
sg19
g20
sbsg15
Nsg19
Nsg16
Nsg128
Nsbasg16
Nsg19
Nsbsg15
Nsg16
Nsg51
S'VideoDecoder'
p262
sg19
Nsbag1
(g103
g3
NtRp263
(dp264
g41
g1
(g106
g3
NtRp265
(dp266
g10
(lp267
g1
(g110
g3
NtRp268
(dp269
g49
Nsg51
S'OnVideoFrameDecoded'
p270
sg114
g1
(g115
g3
NtRp271
(dp272
g10
(lp273
g1
(g119
g3
NtRp274
(dp275
g49
Nsg51
S'frame'
p276
sg15
Nsg19
g20
sg53
S'VideoFrame'
p277
sg16
I163
sbag1
(g119
g3
NtRp278
(dp279
g49
Nsg51
S'can_read_without_stalling'
p280
sg15
Nsg19
g20
sg53
S'bool'
p281
sg16
I164
sbag1
(g119
g3
NtRp282
(dp283
g49
Nsg51
S'release_token'
p284
sg15
Nsg19
g20
sg53
S'mojo_base.mojom.UnguessableToken?'
p285
sg16
I165
sbasg16
I163
sg19
g20
sbsg15
Nsg19
Nsg16
Nsg128
Nsbag1
(g110
g3
NtRp286
(dp287
g49
Nsg51
S'OnWaiting'
p288
sg114
g1
(g115
g3
NtRp289
(dp290
g10
(lp291
g1
(g119
g3
NtRp292
(dp293
g49
Nsg51
S'reason'
p294
sg15
Nsg19
g20
sg53
S'WaitingReason'
p295
sg16
I169
sbasg16
I169
sg19
g20
sbsg15
Nsg19
Nsg16
Nsg128
Nsbag1
(g110
g3
NtRp296
(dp297
g49
Nsg51
S'RequestOverlayInfo'
p298
sg114
g1
(g115
g3
NtRp299
(dp300
g10
(lp301
g1
(g119
g3
NtRp302
(dp303
g49
Nsg51
S'restart_for_transitions'
p304
sg15
Nsg19
g20
sg53
S'bool'
p305
sg16
I175
sbasg16
I175
sg19
g20
sbsg15
Nsg19
Nsg16
Nsg128
Nsbasg16
Nsg19
Nsbsg15
Nsg16
Nsg51
S'VideoDecoderClient'
p306
sg19
Nsbasg16
NsS'module'
p307
g1
(cmojom.parse.ast
Module
p308
g3
NtRp309
(dp310
S'mojom_namespace'
p311
(S'IDENTIFIER'
p312
S'media.mojom'
tp313
sg16
I5
sg15
Nsg19
g20
sbsg19
Nsb.