ccopy_reg
_reconstructor
p1
(cmojom.parse.ast
Mojom
p2
c__builtin__
object
p3
NtRp4
(dp5
S'import_list'
p6
g1
(cmojom.parse.ast
ImportList
p7
g3
NtRp8
(dp9
S'items'
p10
(lp11
sS'lineno'
p12
NsS'filename'
p13
NsbsS'definition_list'
p14
(lp15
g1
(cmojom.parse.ast
Enum
p16
g3
NtRp17
(dp18
S'attribute_list'
p19
NsS'enum_value_list'
p20
g1
(cmojom.parse.ast
EnumValueList
p21
g3
NtRp22
(dp23
g10
(lp24
g1
(cmojom.parse.ast
EnumValue
p25
g3
NtRp26
(dp27
g19
NsS'value'
p28
Nsg12
I11
sS'mojom_name'
p29
S'PRE_TARGET'
p30
sg13
S'../../ui/events/mojo/event_constants.mojom'
p31
sbag1
(g25
g3
NtRp32
(dp33
g19
Nsg28
Nsg12
I12
sg29
S'POST_TARGET'
p34
sg13
g31
sbasg12
I11
sg13
g31
sbsg12
I10
sg29
S'AcceleratorPhase'
p35
sg13
g31
sbag1
(g16
g3
NtRp36
(dp37
g19
Nsg20
g1
(g21
g3
NtRp38
(dp39
g10
(lp40
g1
(g25
g3
NtRp41
(dp42
g19
Nsg28
Nsg12
I16
sg29
S'UNKNOWN'
p43
sg13
g31
sbag1
(g25
g3
NtRp44
(dp45
g19
Nsg28
Nsg12
I17
sg29
S'KEY_PRESSED'
p46
sg13
g31
sbag1
(g25
g3
NtRp47
(dp48
g19
Nsg28
Nsg12
I18
sg29
S'KEY_RELEASED'
p49
sg13
g31
sbag1
(g25
g3
NtRp50
(dp51
g19
Nsg28
Nsg12
I19
sg29
S'GESTURE_TAP'
p52
sg13
g31
sbag1
(g25
g3
NtRp53
(dp54
g19
Nsg28
Nsg12
I20
sg29
S'GESTURE_SWIPE'
p55
sg13
g31
sbag1
(g25
g3
NtRp56
(dp57
g19
Nsg28
Nsg12
I21
sg29
S'GESTURE_PINCH_BEGIN'
p58
sg13
g31
sbag1
(g25
g3
NtRp59
(dp60
g19
Nsg28
Nsg12
I22
sg29
S'GESTURE_PINCH_END'
p61
sg13
g31
sbag1
(g25
g3
NtRp62
(dp63
g19
Nsg28
Nsg12
I23
sg29
S'GESTURE_PINCH_UPDATE'
p64
sg13
g31
sbag1
(g25
g3
NtRp65
(dp66
g19
Nsg28
Nsg12
I24
sg29
S'SCROLL'
p67
sg13
g31
sbag1
(g25
g3
NtRp68
(dp69
g19
Nsg28
Nsg12
I25
sg29
S'SCROLL_FLING_START'
p70
sg13
g31
sbag1
(g25
g3
NtRp71
(dp72
g19
Nsg28
Nsg12
I26
sg29
S'SCROLL_FLING_CANCEL'
p73
sg13
g31
sbag1
(g25
g3
NtRp74
(dp75
g19
Nsg28
Nsg12
I27
sg29
S'CANCEL_MODE'
p76
sg13
g31
sbag1
(g25
g3
NtRp77
(dp78
g19
Nsg28
Nsg12
I31
sg29
S'MOUSE_PRESSED_EVENT'
p79
sg13
g31
sbag1
(g25
g3
NtRp80
(dp81
g19
Nsg28
Nsg12
I32
sg29
S'MOUSE_DRAGGED_EVENT'
p82
sg13
g31
sbag1
(g25
g3
NtRp83
(dp84
g19
Nsg28
Nsg12
I33
sg29
S'MOUSE_RELEASED_EVENT'
p85
sg13
g31
sbag1
(g25
g3
NtRp86
(dp87
g19
Nsg28
Nsg12
I34
sg29
S'MOUSE_MOVED_EVENT'
p88
sg13
g31
sbag1
(g25
g3
NtRp89
(dp90
g19
Nsg28
Nsg12
I35
sg29
S'MOUSE_ENTERED_EVENT'
p91
sg13
g31
sbag1
(g25
g3
NtRp92
(dp93
g19
Nsg28
Nsg12
I36
sg29
S'MOUSE_EXITED_EVENT'
p94
sg13
g31
sbag1
(g25
g3
NtRp95
(dp96
g19
Nsg28
Nsg12
I37
sg29
S'MOUSE_WHEEL_EVENT'
p97
sg13
g31
sbag1
(g25
g3
NtRp98
(dp99
g19
Nsg28
Nsg12
I38
sg29
S'MOUSE_CAPTURE_CHANGED_EVENT'
p100
sg13
g31
sbag1
(g25
g3
NtRp101
(dp102
g19
Nsg28
Nsg12
I39
sg29
S'TOUCH_RELEASED'
p103
sg13
g31
sbag1
(g25
g3
NtRp104
(dp105
g19
Nsg28
Nsg12
I40
sg29
S'TOUCH_PRESSED'
p106
sg13
g31
sbag1
(g25
g3
NtRp107
(dp108
g19
Nsg28
Nsg12
I41
sg29
S'TOUCH_MOVED'
p109
sg13
g31
sbag1
(g25
g3
NtRp110
(dp111
g19
Nsg28
Nsg12
I42
sg29
S'TOUCH_CANCELLED'
p112
sg13
g31
sbasg12
I16
sg13
g31
sbsg12
I15
sg29
S'EventType'
p113
sg13
g31
sbag1
(cmojom.parse.ast
Const
p114
g3
NtRp115
(dp116
g29
S'kEventFlagNone'
p117
sg19
Nsg28
S'0x00000'
p118
sg13
NsS'typename'
p119
S'int32'
p120
sg12
Nsbag1
(g114
g3
NtRp121
(dp122
g29
S'kEventFlagIsSynthesized'
p123
sg19
Nsg28
S'0x00001'
p124
sg13
Nsg119
S'int32'
p125
sg12
Nsbag1
(g114
g3
NtRp126
(dp127
g29
S'kEventFlagShiftDown'
p128
sg19
Nsg28
S'0x00002'
p129
sg13
Nsg119
S'int32'
p130
sg12
Nsbag1
(g114
g3
NtRp131
(dp132
g29
S'kEventFlagControlDown'
p133
sg19
Nsg28
S'0x00004'
p134
sg13
Nsg119
S'int32'
p135
sg12
Nsbag1
(g114
g3
NtRp136
(dp137
g29
S'kEventFlagAltDown'
p138
sg19
Nsg28
S'0x00008'
p139
sg13
Nsg119
S'int32'
p140
sg12
Nsbag1
(g114
g3
NtRp141
(dp142
g29
S'kEventFlagCommandDown'
p143
sg19
Nsg28
S'0x00010'
p144
sg13
Nsg119
S'int32'
p145
sg12
Nsbag1
(g114
g3
NtRp146
(dp147
g29
S'kEventFlagAltgrDown'
p148
sg19
Nsg28
S'0x00020'
p149
sg13
Nsg119
S'int32'
p150
sg12
Nsbag1
(g114
g3
NtRp151
(dp152
g29
S'kEventFlagMod3Down'
p153
sg19
Nsg28
S'0x00040'
p154
sg13
Nsg119
S'int32'
p155
sg12
Nsbag1
(g114
g3
NtRp156
(dp157
g29
S'kEventFlagNumLockOn'
p158
sg19
Nsg28
S'0x00080'
p159
sg13
Nsg119
S'int32'
p160
sg12
Nsbag1
(g114
g3
NtRp161
(dp162
g29
S'kEventFlagCapsLockOn'
p163
sg19
Nsg28
S'0x00100'
p164
sg13
Nsg119
S'int32'
p165
sg12
Nsbag1
(g114
g3
NtRp166
(dp167
g29
S'kEventFlagScrollLockOn'
p168
sg19
Nsg28
S'0x00200'
p169
sg13
Nsg119
S'int32'
p170
sg12
Nsbag1
(g114
g3
NtRp171
(dp172
g29
S'kEventFlagLeftMouseButton'
p173
sg19
Nsg28
S'0x00400'
p174
sg13
Nsg119
S'int32'
p175
sg12
Nsbag1
(g114
g3
NtRp176
(dp177
g29
S'kEventFlagMiddleMouseButton'
p178
sg19
Nsg28
S'0x00800'
p179
sg13
Nsg119
S'int32'
p180
sg12
Nsbag1
(g114
g3
NtRp181
(dp182
g29
S'kEventFlagRightMouseButton'
p183
sg19
Nsg28
S'0x01000'
p184
sg13
Nsg119
S'int32'
p185
sg12
Nsbag1
(g114
g3
NtRp186
(dp187
g29
S'kEventFlagBackMouseButton'
p188
sg19
Nsg28
S'0x02000'
p189
sg13
Nsg119
S'int32'
p190
sg12
Nsbag1
(g114
g3
NtRp191
(dp192
g29
S'kEventFlagForwardMouseButton'
p193
sg19
Nsg28
S'0x04000'
p194
sg13
Nsg119
S'int32'
p195
sg12
Nsbag1
(g114
g3
NtRp196
(dp197
g29
S'kMouseEventFlagIsDoubleClick'
p198
sg19
Nsg28
S'0x08000'
p199
sg13
Nsg119
S'int32'
p200
sg12
Nsbag1
(g114
g3
NtRp201
(dp202
g29
S'kMouseEventFlagIsTripleClick'
p203
sg19
Nsg28
S'0x10000'
p204
sg13
Nsg119
S'int32'
p205
sg12
Nsbag1
(g114
g3
NtRp206
(dp207
g29
S'kMouseEventFlagIsNonClient'
p208
sg19
Nsg28
S'0x20000'
p209
sg13
Nsg119
S'int32'
p210
sg12
Nsbag1
(g16
g3
NtRp211
(dp212
g19
Nsg20
g1
(g21
g3
NtRp213
(dp214
g10
(lp215
g1
(g25
g3
NtRp216
(dp217
g19
Nsg28
Nsg12
I72
sg29
S'UNKNOWN'
p218
sg13
g31
sbag1
(g25
g3
NtRp219
(dp220
g19
Nsg28
Nsg12
I73
sg29
S'MOUSE'
p221
sg13
g31
sbag1
(g25
g3
NtRp222
(dp223
g19
Nsg28
Nsg12
I74
sg29
S'PEN'
p224
sg13
g31
sbag1
(g25
g3
NtRp225
(dp226
g19
Nsg28
Nsg12
I75
sg29
S'TOUCH'
p227
sg13
g31
sbag1
(g25
g3
NtRp228
(dp229
g19
Nsg28
Nsg12
I76
sg29
S'ERASER'
p230
sg13
g31
sbasg12
I72
sg13
g31
sbsg12
I71
sg29
S'PointerKind'
p231
sg13
g31
sbag1
(g16
g3
NtRp232
(dp233
g19
Nsg20
g1
(g21
g3
NtRp234
(dp235
g10
(lp236
g1
(g25
g3
NtRp237
(dp238
g19
Nsg28
Nsg12
I82
sg29
S'kNone'
p239
sg13
g31
sbag1
(g25
g3
NtRp240
(dp241
g19
Nsg28
Nsg12
I83
sg29
S'kBegan'
p242
sg13
g31
sbag1
(g25
g3
NtRp243
(dp244
g19
Nsg28
Nsg12
I84
sg29
S'kUpdate'
p245
sg13
g31
sbag1
(g25
g3
NtRp246
(dp247
g19
Nsg28
Nsg12
I85
sg29
S'kEnd'
p248
sg13
g31
sbasg12
I82
sg13
g31
sbsg12
I81
sg29
S'ScrollEventPhase'
p249
sg13
g31
sbag1
(g16
g3
NtRp250
(dp251
g19
Nsg20
g1
(g21
g3
NtRp252
(dp253
g10
(lp254
g1
(g25
g3
NtRp255
(dp256
g19
Nsg28
Nsg12
I91
sg29
S'NONE'
p257
sg13
g31
sbag1
(g25
g3
NtRp258
(dp259
g19
Nsg28
Nsg12
I92
sg29
S'BEGAN'
p260
sg13
g31
sbag1
(g25
g3
NtRp261
(dp262
g19
Nsg28
Nsg12
I93
sg29
S'MAY_BEGIN'
p263
sg13
g31
sbag1
(g25
g3
NtRp264
(dp265
g19
Nsg28
Nsg12
I94
sg29
S'INERTIAL_UPDATE'
p266
sg13
g31
sbag1
(g25
g3
NtRp267
(dp268
g19
Nsg28
Nsg12
I95
sg29
S'END'
p269
sg13
g31
sbasg12
I91
sg13
g31
sbsg12
I90
sg29
S'EventMomentumPhase'
p270
sg13
g31
sbag1
(g16
g3
NtRp271
(dp272
g19
Nsg20
g1
(g21
g3
NtRp273
(dp274
g10
(lp275
g1
(g25
g3
NtRp276
(dp277
g19
Nsg28
Nsg12
I101
sg29
S'DEVICE_UNKNOWN'
p278
sg13
g31
sbag1
(g25
g3
NtRp279
(dp280
g19
Nsg28
Nsg12
I102
sg29
S'DEVICE_TOUCHPAD'
p281
sg13
g31
sbag1
(g25
g3
NtRp282
(dp283
g19
Nsg28
Nsg12
I103
sg29
S'DEVICE_TOUCHSCREEN'
p284
sg13
g31
sbasg12
I101
sg13
g31
sbsg12
I100
sg29
S'GestureDeviceType'
p285
sg13
g31
sbasg12
NsS'module'
p286
g1
(cmojom.parse.ast
Module
p287
g3
NtRp288
(dp289
S'mojom_namespace'
p290
(S'IDENTIFIER'
p291
S'ui.mojom'
tp292
sg12
I5
sg19
Nsg13
g31
sbsg13
Nsb.