ccopy_reg
_reconstructor
p1
(cmojom.parse.ast
Mojom
p2
c__builtin__
object
p3
NtRp4
(dp5
S'import_list'
p6
g1
(cmojom.parse.ast
ImportList
p7
g3
NtRp8
(dp9
S'items'
p10
(lp11
sS'lineno'
p12
NsS'filename'
p13
NsbsS'definition_list'
p14
(lp15
g1
(cmojom.parse.ast
Enum
p16
g3
NtRp17
(dp18
S'attribute_list'
p19
g1
(cmojom.parse.ast
AttributeList
p20
g3
NtRp21
(dp22
g10
(lp23
g1
(cmojom.parse.ast
Attribute
p24
g3
NtRp25
(dp26
S'value'
p27
I01
sg12
I11
sS'key'
p28
S'Extensible'
p29
sg13
S'../../ui/events/mojo/keyboard_codes.mojom'
p30
sbasg12
I11
sg13
g30
sbsS'enum_value_list'
p31
g1
(cmojom.parse.ast
EnumValueList
p32
g3
NtRp33
(dp34
g10
(lp35
g1
(cmojom.parse.ast
EnumValue
p36
g3
NtRp37
(dp38
g19
Nsg27
S'0x08'
p39
sg12
I13
sS'mojom_name'
p40
S'BACK'
p41
sg13
g30
sbag1
(g36
g3
NtRp42
(dp43
g19
Nsg27
S'0x09'
p44
sg12
I14
sg40
S'TAB'
p45
sg13
g30
sbag1
(g36
g3
NtRp46
(dp47
g19
Nsg27
S'0x0C'
p48
sg12
I15
sg40
S'CLEAR'
p49
sg13
g30
sbag1
(g36
g3
NtRp50
(dp51
g19
Nsg27
S'0x0D'
p52
sg12
I16
sg40
S'RETURN'
p53
sg13
g30
sbag1
(g36
g3
NtRp54
(dp55
g19
Nsg27
S'0x10'
p56
sg12
I17
sg40
S'SHIFT'
p57
sg13
g30
sbag1
(g36
g3
NtRp58
(dp59
g19
Nsg27
S'0x11'
p60
sg12
I18
sg40
S'CONTROL'
p61
sg13
g30
sbag1
(g36
g3
NtRp62
(dp63
g19
Nsg27
S'0x12'
p64
sg12
I19
sg40
S'MENU'
p65
sg13
g30
sbag1
(g36
g3
NtRp66
(dp67
g19
Nsg27
S'0x13'
p68
sg12
I20
sg40
S'PAUSE'
p69
sg13
g30
sbag1
(g36
g3
NtRp70
(dp71
g19
Nsg27
S'0x14'
p72
sg12
I21
sg40
S'CAPITAL'
p73
sg13
g30
sbag1
(g36
g3
NtRp74
(dp75
g19
Nsg27
S'0x15'
p76
sg12
I22
sg40
S'KANA'
p77
sg13
g30
sbag1
(g36
g3
NtRp78
(dp79
g19
Nsg27
S'0x15'
p80
sg12
I23
sg40
S'HANGUL'
p81
sg13
g30
sbag1
(g36
g3
NtRp82
(dp83
g19
Nsg27
S'0x17'
p84
sg12
I24
sg40
S'JUNJA'
p85
sg13
g30
sbag1
(g36
g3
NtRp86
(dp87
g19
Nsg27
S'0x18'
p88
sg12
I25
sg40
S'FINAL'
p89
sg13
g30
sbag1
(g36
g3
NtRp90
(dp91
g19
Nsg27
S'0x19'
p92
sg12
I26
sg40
S'HANJA'
p93
sg13
g30
sbag1
(g36
g3
NtRp94
(dp95
g19
Nsg27
S'0x19'
p96
sg12
I27
sg40
S'KANJI'
p97
sg13
g30
sbag1
(g36
g3
NtRp98
(dp99
g19
Nsg27
S'0x1B'
p100
sg12
I28
sg40
S'ESCAPE'
p101
sg13
g30
sbag1
(g36
g3
NtRp102
(dp103
g19
Nsg27
S'0x1C'
p104
sg12
I29
sg40
S'CONVERT'
p105
sg13
g30
sbag1
(g36
g3
NtRp106
(dp107
g19
Nsg27
S'0x1D'
p108
sg12
I30
sg40
S'NONCONVERT'
p109
sg13
g30
sbag1
(g36
g3
NtRp110
(dp111
g19
Nsg27
S'0x1E'
p112
sg12
I31
sg40
S'ACCEPT'
p113
sg13
g30
sbag1
(g36
g3
NtRp114
(dp115
g19
Nsg27
S'0x1F'
p116
sg12
I32
sg40
S'MODECHANGE'
p117
sg13
g30
sbag1
(g36
g3
NtRp118
(dp119
g19
Nsg27
S'0x20'
p120
sg12
I33
sg40
S'SPACE'
p121
sg13
g30
sbag1
(g36
g3
NtRp122
(dp123
g19
Nsg27
S'0x21'
p124
sg12
I34
sg40
S'PRIOR'
p125
sg13
g30
sbag1
(g36
g3
NtRp126
(dp127
g19
Nsg27
S'0x22'
p128
sg12
I35
sg40
S'NEXT'
p129
sg13
g30
sbag1
(g36
g3
NtRp130
(dp131
g19
Nsg27
S'0x23'
p132
sg12
I36
sg40
S'END'
p133
sg13
g30
sbag1
(g36
g3
NtRp134
(dp135
g19
Nsg27
S'0x24'
p136
sg12
I37
sg40
S'HOME'
p137
sg13
g30
sbag1
(g36
g3
NtRp138
(dp139
g19
Nsg27
S'0x25'
p140
sg12
I38
sg40
S'LEFT'
p141
sg13
g30
sbag1
(g36
g3
NtRp142
(dp143
g19
Nsg27
S'0x26'
p144
sg12
I39
sg40
S'UP'
p145
sg13
g30
sbag1
(g36
g3
NtRp146
(dp147
g19
Nsg27
S'0x27'
p148
sg12
I40
sg40
S'RIGHT'
p149
sg13
g30
sbag1
(g36
g3
NtRp150
(dp151
g19
Nsg27
S'0x28'
p152
sg12
I41
sg40
S'DOWN'
p153
sg13
g30
sbag1
(g36
g3
NtRp154
(dp155
g19
Nsg27
S'0x29'
p156
sg12
I42
sg40
S'SELECT'
p157
sg13
g30
sbag1
(g36
g3
NtRp158
(dp159
g19
Nsg27
S'0x2A'
p160
sg12
I43
sg40
S'PRINT'
p161
sg13
g30
sbag1
(g36
g3
NtRp162
(dp163
g19
Nsg27
S'0x2B'
p164
sg12
I44
sg40
S'EXECUTE'
p165
sg13
g30
sbag1
(g36
g3
NtRp166
(dp167
g19
Nsg27
S'0x2C'
p168
sg12
I45
sg40
S'SNAPSHOT'
p169
sg13
g30
sbag1
(g36
g3
NtRp170
(dp171
g19
Nsg27
S'0x2D'
p172
sg12
I46
sg40
S'INSERT'
p173
sg13
g30
sbag1
(g36
g3
NtRp174
(dp175
g19
Nsg27
S'0x2E'
p176
sg12
I47
sg40
S'KEY_DELETE'
p177
sg13
g30
sbag1
(g36
g3
NtRp178
(dp179
g19
Nsg27
S'0x2F'
p180
sg12
I48
sg40
S'HELP'
p181
sg13
g30
sbag1
(g36
g3
NtRp182
(dp183
g19
Nsg27
S'0x30'
p184
sg12
I49
sg40
S'NUM_0'
p185
sg13
g30
sbag1
(g36
g3
NtRp186
(dp187
g19
Nsg27
S'0x31'
p188
sg12
I50
sg40
S'NUM_1'
p189
sg13
g30
sbag1
(g36
g3
NtRp190
(dp191
g19
Nsg27
S'0x32'
p192
sg12
I51
sg40
S'NUM_2'
p193
sg13
g30
sbag1
(g36
g3
NtRp194
(dp195
g19
Nsg27
S'0x33'
p196
sg12
I52
sg40
S'NUM_3'
p197
sg13
g30
sbag1
(g36
g3
NtRp198
(dp199
g19
Nsg27
S'0x34'
p200
sg12
I53
sg40
S'NUM_4'
p201
sg13
g30
sbag1
(g36
g3
NtRp202
(dp203
g19
Nsg27
S'0x35'
p204
sg12
I54
sg40
S'NUM_5'
p205
sg13
g30
sbag1
(g36
g3
NtRp206
(dp207
g19
Nsg27
S'0x36'
p208
sg12
I55
sg40
S'NUM_6'
p209
sg13
g30
sbag1
(g36
g3
NtRp210
(dp211
g19
Nsg27
S'0x37'
p212
sg12
I56
sg40
S'NUM_7'
p213
sg13
g30
sbag1
(g36
g3
NtRp214
(dp215
g19
Nsg27
S'0x38'
p216
sg12
I57
sg40
S'NUM_8'
p217
sg13
g30
sbag1
(g36
g3
NtRp218
(dp219
g19
Nsg27
S'0x39'
p220
sg12
I58
sg40
S'NUM_9'
p221
sg13
g30
sbag1
(g36
g3
NtRp222
(dp223
g19
Nsg27
S'0x41'
p224
sg12
I59
sg40
S'A'
sg13
g30
sbag1
(g36
g3
NtRp225
(dp226
g19
Nsg27
S'0x42'
p227
sg12
I60
sg40
S'B'
sg13
g30
sbag1
(g36
g3
NtRp228
(dp229
g19
Nsg27
S'0x43'
p230
sg12
I61
sg40
S'C'
sg13
g30
sbag1
(g36
g3
NtRp231
(dp232
g19
Nsg27
S'0x44'
p233
sg12
I62
sg40
S'D'
sg13
g30
sbag1
(g36
g3
NtRp234
(dp235
g19
Nsg27
S'0x45'
p236
sg12
I63
sg40
S'E'
sg13
g30
sbag1
(g36
g3
NtRp237
(dp238
g19
Nsg27
S'0x46'
p239
sg12
I64
sg40
S'F'
sg13
g30
sbag1
(g36
g3
NtRp240
(dp241
g19
Nsg27
S'0x47'
p242
sg12
I65
sg40
S'G'
sg13
g30
sbag1
(g36
g3
NtRp243
(dp244
g19
Nsg27
S'0x48'
p245
sg12
I66
sg40
S'H'
sg13
g30
sbag1
(g36
g3
NtRp246
(dp247
g19
Nsg27
S'0x49'
p248
sg12
I67
sg40
S'I'
sg13
g30
sbag1
(g36
g3
NtRp249
(dp250
g19
Nsg27
S'0x4A'
p251
sg12
I68
sg40
S'J'
sg13
g30
sbag1
(g36
g3
NtRp252
(dp253
g19
Nsg27
S'0x4B'
p254
sg12
I69
sg40
S'K'
sg13
g30
sbag1
(g36
g3
NtRp255
(dp256
g19
Nsg27
S'0x4C'
p257
sg12
I70
sg40
S'L'
sg13
g30
sbag1
(g36
g3
NtRp258
(dp259
g19
Nsg27
S'0x4D'
p260
sg12
I71
sg40
S'M'
sg13
g30
sbag1
(g36
g3
NtRp261
(dp262
g19
Nsg27
S'0x4E'
p263
sg12
I72
sg40
S'N'
sg13
g30
sbag1
(g36
g3
NtRp264
(dp265
g19
Nsg27
S'0x4F'
p266
sg12
I73
sg40
S'O'
sg13
g30
sbag1
(g36
g3
NtRp267
(dp268
g19
Nsg27
S'0x50'
p269
sg12
I74
sg40
S'P'
sg13
g30
sbag1
(g36
g3
NtRp270
(dp271
g19
Nsg27
S'0x51'
p272
sg12
I75
sg40
S'Q'
sg13
g30
sbag1
(g36
g3
NtRp273
(dp274
g19
Nsg27
S'0x52'
p275
sg12
I76
sg40
S'R'
sg13
g30
sbag1
(g36
g3
NtRp276
(dp277
g19
Nsg27
S'0x53'
p278
sg12
I77
sg40
S'S'
sg13
g30
sbag1
(g36
g3
NtRp279
(dp280
g19
Nsg27
S'0x54'
p281
sg12
I78
sg40
S'T'
sg13
g30
sbag1
(g36
g3
NtRp282
(dp283
g19
Nsg27
S'0x55'
p284
sg12
I79
sg40
S'U'
sg13
g30
sbag1
(g36
g3
NtRp285
(dp286
g19
Nsg27
S'0x56'
p287
sg12
I80
sg40
S'V'
sg13
g30
sbag1
(g36
g3
NtRp288
(dp289
g19
Nsg27
S'0x57'
p290
sg12
I81
sg40
S'W'
sg13
g30
sbag1
(g36
g3
NtRp291
(dp292
g19
Nsg27
S'0x58'
p293
sg12
I82
sg40
S'X'
sg13
g30
sbag1
(g36
g3
NtRp294
(dp295
g19
Nsg27
S'0x59'
p296
sg12
I83
sg40
S'Y'
sg13
g30
sbag1
(g36
g3
NtRp297
(dp298
g19
Nsg27
S'0x5A'
p299
sg12
I84
sg40
S'Z'
sg13
g30
sbag1
(g36
g3
NtRp300
(dp301
g19
Nsg27
S'0x5B'
p302
sg12
I85
sg40
S'LWIN'
p303
sg13
g30
sbag1
(g36
g3
NtRp304
(dp305
g19
Nsg27
S'0x5B'
p306
sg12
I86
sg40
S'COMMAND'
p307
sg13
g30
sbag1
(g36
g3
NtRp308
(dp309
g19
Nsg27
S'0x5C'
p310
sg12
I87
sg40
S'RWIN'
p311
sg13
g30
sbag1
(g36
g3
NtRp312
(dp313
g19
Nsg27
S'0x5D'
p314
sg12
I88
sg40
S'APPS'
p315
sg13
g30
sbag1
(g36
g3
NtRp316
(dp317
g19
Nsg27
S'0x5F'
p318
sg12
I89
sg40
S'SLEEP'
p319
sg13
g30
sbag1
(g36
g3
NtRp320
(dp321
g19
Nsg27
S'0x60'
p322
sg12
I90
sg40
S'NUMPAD0'
p323
sg13
g30
sbag1
(g36
g3
NtRp324
(dp325
g19
Nsg27
S'0x61'
p326
sg12
I91
sg40
S'NUMPAD1'
p327
sg13
g30
sbag1
(g36
g3
NtRp328
(dp329
g19
Nsg27
S'0x62'
p330
sg12
I92
sg40
S'NUMPAD2'
p331
sg13
g30
sbag1
(g36
g3
NtRp332
(dp333
g19
Nsg27
S'0x63'
p334
sg12
I93
sg40
S'NUMPAD3'
p335
sg13
g30
sbag1
(g36
g3
NtRp336
(dp337
g19
Nsg27
S'0x64'
p338
sg12
I94
sg40
S'NUMPAD4'
p339
sg13
g30
sbag1
(g36
g3
NtRp340
(dp341
g19
Nsg27
S'0x65'
p342
sg12
I95
sg40
S'NUMPAD5'
p343
sg13
g30
sbag1
(g36
g3
NtRp344
(dp345
g19
Nsg27
S'0x66'
p346
sg12
I96
sg40
S'NUMPAD6'
p347
sg13
g30
sbag1
(g36
g3
NtRp348
(dp349
g19
Nsg27
S'0x67'
p350
sg12
I97
sg40
S'NUMPAD7'
p351
sg13
g30
sbag1
(g36
g3
NtRp352
(dp353
g19
Nsg27
S'0x68'
p354
sg12
I98
sg40
S'NUMPAD8'
p355
sg13
g30
sbag1
(g36
g3
NtRp356
(dp357
g19
Nsg27
S'0x69'
p358
sg12
I99
sg40
S'NUMPAD9'
p359
sg13
g30
sbag1
(g36
g3
NtRp360
(dp361
g19
Nsg27
S'0x6A'
p362
sg12
I100
sg40
S'MULTIPLY'
p363
sg13
g30
sbag1
(g36
g3
NtRp364
(dp365
g19
Nsg27
S'0x6B'
p366
sg12
I101
sg40
S'ADD'
p367
sg13
g30
sbag1
(g36
g3
NtRp368
(dp369
g19
Nsg27
S'0x6C'
p370
sg12
I102
sg40
S'SEPARATOR'
p371
sg13
g30
sbag1
(g36
g3
NtRp372
(dp373
g19
Nsg27
S'0x6D'
p374
sg12
I103
sg40
S'SUBTRACT'
p375
sg13
g30
sbag1
(g36
g3
NtRp376
(dp377
g19
Nsg27
S'0x6E'
p378
sg12
I104
sg40
S'DECIMAL'
p379
sg13
g30
sbag1
(g36
g3
NtRp380
(dp381
g19
Nsg27
S'0x6F'
p382
sg12
I105
sg40
S'DIVIDE'
p383
sg13
g30
sbag1
(g36
g3
NtRp384
(dp385
g19
Nsg27
S'0x70'
p386
sg12
I106
sg40
S'F1'
p387
sg13
g30
sbag1
(g36
g3
NtRp388
(dp389
g19
Nsg27
S'0x71'
p390
sg12
I107
sg40
S'F2'
p391
sg13
g30
sbag1
(g36
g3
NtRp392
(dp393
g19
Nsg27
S'0x72'
p394
sg12
I108
sg40
S'F3'
p395
sg13
g30
sbag1
(g36
g3
NtRp396
(dp397
g19
Nsg27
S'0x73'
p398
sg12
I109
sg40
S'F4'
p399
sg13
g30
sbag1
(g36
g3
NtRp400
(dp401
g19
Nsg27
S'0x74'
p402
sg12
I110
sg40
S'F5'
p403
sg13
g30
sbag1
(g36
g3
NtRp404
(dp405
g19
Nsg27
S'0x75'
p406
sg12
I111
sg40
S'F6'
p407
sg13
g30
sbag1
(g36
g3
NtRp408
(dp409
g19
Nsg27
S'0x76'
p410
sg12
I112
sg40
S'F7'
p411
sg13
g30
sbag1
(g36
g3
NtRp412
(dp413
g19
Nsg27
S'0x77'
p414
sg12
I113
sg40
S'F8'
p415
sg13
g30
sbag1
(g36
g3
NtRp416
(dp417
g19
Nsg27
S'0x78'
p418
sg12
I114
sg40
S'F9'
p419
sg13
g30
sbag1
(g36
g3
NtRp420
(dp421
g19
Nsg27
S'0x79'
p422
sg12
I115
sg40
S'F10'
p423
sg13
g30
sbag1
(g36
g3
NtRp424
(dp425
g19
Nsg27
S'0x7A'
p426
sg12
I116
sg40
S'F11'
p427
sg13
g30
sbag1
(g36
g3
NtRp428
(dp429
g19
Nsg27
S'0x7B'
p430
sg12
I117
sg40
S'F12'
p431
sg13
g30
sbag1
(g36
g3
NtRp432
(dp433
g19
Nsg27
S'0x7C'
p434
sg12
I118
sg40
S'F13'
p435
sg13
g30
sbag1
(g36
g3
NtRp436
(dp437
g19
Nsg27
S'0x7D'
p438
sg12
I119
sg40
S'F14'
p439
sg13
g30
sbag1
(g36
g3
NtRp440
(dp441
g19
Nsg27
S'0x7E'
p442
sg12
I120
sg40
S'F15'
p443
sg13
g30
sbag1
(g36
g3
NtRp444
(dp445
g19
Nsg27
S'0x7F'
p446
sg12
I121
sg40
S'F16'
p447
sg13
g30
sbag1
(g36
g3
NtRp448
(dp449
g19
Nsg27
S'0x80'
p450
sg12
I122
sg40
S'F17'
p451
sg13
g30
sbag1
(g36
g3
NtRp452
(dp453
g19
Nsg27
S'0x81'
p454
sg12
I123
sg40
S'F18'
p455
sg13
g30
sbag1
(g36
g3
NtRp456
(dp457
g19
Nsg27
S'0x82'
p458
sg12
I124
sg40
S'F19'
p459
sg13
g30
sbag1
(g36
g3
NtRp460
(dp461
g19
Nsg27
S'0x83'
p462
sg12
I125
sg40
S'F20'
p463
sg13
g30
sbag1
(g36
g3
NtRp464
(dp465
g19
Nsg27
S'0x84'
p466
sg12
I126
sg40
S'F21'
p467
sg13
g30
sbag1
(g36
g3
NtRp468
(dp469
g19
Nsg27
S'0x85'
p470
sg12
I127
sg40
S'F22'
p471
sg13
g30
sbag1
(g36
g3
NtRp472
(dp473
g19
Nsg27
S'0x86'
p474
sg12
I128
sg40
S'F23'
p475
sg13
g30
sbag1
(g36
g3
NtRp476
(dp477
g19
Nsg27
S'0x87'
p478
sg12
I129
sg40
S'F24'
p479
sg13
g30
sbag1
(g36
g3
NtRp480
(dp481
g19
Nsg27
S'0x90'
p482
sg12
I130
sg40
S'NUMLOCK'
p483
sg13
g30
sbag1
(g36
g3
NtRp484
(dp485
g19
Nsg27
S'0x91'
p486
sg12
I131
sg40
S'SCROLL'
p487
sg13
g30
sbag1
(g36
g3
NtRp488
(dp489
g19
Nsg27
S'0xA0'
p490
sg12
I132
sg40
S'LSHIFT'
p491
sg13
g30
sbag1
(g36
g3
NtRp492
(dp493
g19
Nsg27
S'0xA1'
p494
sg12
I133
sg40
S'RSHIFT'
p495
sg13
g30
sbag1
(g36
g3
NtRp496
(dp497
g19
Nsg27
S'0xA2'
p498
sg12
I134
sg40
S'LCONTROL'
p499
sg13
g30
sbag1
(g36
g3
NtRp500
(dp501
g19
Nsg27
S'0xA3'
p502
sg12
I135
sg40
S'RCONTROL'
p503
sg13
g30
sbag1
(g36
g3
NtRp504
(dp505
g19
Nsg27
S'0xA4'
p506
sg12
I136
sg40
S'LMENU'
p507
sg13
g30
sbag1
(g36
g3
NtRp508
(dp509
g19
Nsg27
S'0xA5'
p510
sg12
I137
sg40
S'RMENU'
p511
sg13
g30
sbag1
(g36
g3
NtRp512
(dp513
g19
Nsg27
S'0xA6'
p514
sg12
I138
sg40
S'BROWSER_BACK'
p515
sg13
g30
sbag1
(g36
g3
NtRp516
(dp517
g19
Nsg27
S'0xA7'
p518
sg12
I139
sg40
S'BROWSER_FORWARD'
p519
sg13
g30
sbag1
(g36
g3
NtRp520
(dp521
g19
Nsg27
S'0xA8'
p522
sg12
I140
sg40
S'BROWSER_REFRESH'
p523
sg13
g30
sbag1
(g36
g3
NtRp524
(dp525
g19
Nsg27
S'0xA9'
p526
sg12
I141
sg40
S'BROWSER_STOP'
p527
sg13
g30
sbag1
(g36
g3
NtRp528
(dp529
g19
Nsg27
S'0xAA'
p530
sg12
I142
sg40
S'BROWSER_SEARCH'
p531
sg13
g30
sbag1
(g36
g3
NtRp532
(dp533
g19
Nsg27
S'0xAB'
p534
sg12
I143
sg40
S'BROWSER_FAVORITES'
p535
sg13
g30
sbag1
(g36
g3
NtRp536
(dp537
g19
Nsg27
S'0xAC'
p538
sg12
I144
sg40
S'BROWSER_HOME'
p539
sg13
g30
sbag1
(g36
g3
NtRp540
(dp541
g19
Nsg27
S'0xAD'
p542
sg12
I145
sg40
S'VOLUME_MUTE'
p543
sg13
g30
sbag1
(g36
g3
NtRp544
(dp545
g19
Nsg27
S'0xAE'
p546
sg12
I146
sg40
S'VOLUME_DOWN'
p547
sg13
g30
sbag1
(g36
g3
NtRp548
(dp549
g19
Nsg27
S'0xAF'
p550
sg12
I147
sg40
S'VOLUME_UP'
p551
sg13
g30
sbag1
(g36
g3
NtRp552
(dp553
g19
Nsg27
S'0xB0'
p554
sg12
I148
sg40
S'MEDIA_NEXT_TRACK'
p555
sg13
g30
sbag1
(g36
g3
NtRp556
(dp557
g19
Nsg27
S'0xB1'
p558
sg12
I149
sg40
S'MEDIA_PREV_TRACK'
p559
sg13
g30
sbag1
(g36
g3
NtRp560
(dp561
g19
Nsg27
S'0xB2'
p562
sg12
I150
sg40
S'MEDIA_STOP'
p563
sg13
g30
sbag1
(g36
g3
NtRp564
(dp565
g19
Nsg27
S'0xB3'
p566
sg12
I151
sg40
S'MEDIA_PLAY_PAUSE'
p567
sg13
g30
sbag1
(g36
g3
NtRp568
(dp569
g19
Nsg27
S'0xB4'
p570
sg12
I152
sg40
S'MEDIA_LAUNCH_MAIL'
p571
sg13
g30
sbag1
(g36
g3
NtRp572
(dp573
g19
Nsg27
S'0xB5'
p574
sg12
I153
sg40
S'MEDIA_LAUNCH_MEDIA_SELECT'
p575
sg13
g30
sbag1
(g36
g3
NtRp576
(dp577
g19
Nsg27
S'0xB6'
p578
sg12
I154
sg40
S'MEDIA_LAUNCH_APP1'
p579
sg13
g30
sbag1
(g36
g3
NtRp580
(dp581
g19
Nsg27
S'0xB7'
p582
sg12
I155
sg40
S'MEDIA_LAUNCH_APP2'
p583
sg13
g30
sbag1
(g36
g3
NtRp584
(dp585
g19
Nsg27
S'0xBA'
p586
sg12
I157
sg40
S'OEM_1'
p587
sg13
g30
sbag1
(g36
g3
NtRp588
(dp589
g19
Nsg27
S'0xBB'
p590
sg12
I158
sg40
S'OEM_PLUS'
p591
sg13
g30
sbag1
(g36
g3
NtRp592
(dp593
g19
Nsg27
S'0xBC'
p594
sg12
I159
sg40
S'OEM_COMMA'
p595
sg13
g30
sbag1
(g36
g3
NtRp596
(dp597
g19
Nsg27
S'0xBD'
p598
sg12
I160
sg40
S'OEM_MINUS'
p599
sg13
g30
sbag1
(g36
g3
NtRp600
(dp601
g19
Nsg27
S'0xBE'
p602
sg12
I161
sg40
S'OEM_PERIOD'
p603
sg13
g30
sbag1
(g36
g3
NtRp604
(dp605
g19
Nsg27
S'0xBF'
p606
sg12
I162
sg40
S'OEM_2'
p607
sg13
g30
sbag1
(g36
g3
NtRp608
(dp609
g19
Nsg27
S'0xC0'
p610
sg12
I163
sg40
S'OEM_3'
p611
sg13
g30
sbag1
(g36
g3
NtRp612
(dp613
g19
Nsg27
S'0xDB'
p614
sg12
I164
sg40
S'OEM_4'
p615
sg13
g30
sbag1
(g36
g3
NtRp616
(dp617
g19
Nsg27
S'0xDC'
p618
sg12
I165
sg40
S'OEM_5'
p619
sg13
g30
sbag1
(g36
g3
NtRp620
(dp621
g19
Nsg27
S'0xDD'
p622
sg12
I166
sg40
S'OEM_6'
p623
sg13
g30
sbag1
(g36
g3
NtRp624
(dp625
g19
Nsg27
S'0xDE'
p626
sg12
I167
sg40
S'OEM_7'
p627
sg13
g30
sbag1
(g36
g3
NtRp628
(dp629
g19
Nsg27
S'0xDF'
p630
sg12
I168
sg40
S'OEM_8'
p631
sg13
g30
sbag1
(g36
g3
NtRp632
(dp633
g19
Nsg27
S'0xE2'
p634
sg12
I169
sg40
S'OEM_102'
p635
sg13
g30
sbag1
(g36
g3
NtRp636
(dp637
g19
Nsg27
S'0xE5'
p638
sg12
I170
sg40
S'PROCESSKEY'
p639
sg13
g30
sbag1
(g36
g3
NtRp640
(dp641
g19
Nsg27
S'0xE7'
p642
sg12
I171
sg40
S'PACKET'
p643
sg13
g30
sbag1
(g36
g3
NtRp644
(dp645
g19
Nsg27
S'0xF3'
p646
sg12
I172
sg40
S'DBE_SBCSCHAR'
p647
sg13
g30
sbag1
(g36
g3
NtRp648
(dp649
g19
Nsg27
S'0xF4'
p650
sg12
I173
sg40
S'DBE_DBCSCHAR'
p651
sg13
g30
sbag1
(g36
g3
NtRp652
(dp653
g19
Nsg27
S'0xF6'
p654
sg12
I174
sg40
S'ATTN'
p655
sg13
g30
sbag1
(g36
g3
NtRp656
(dp657
g19
Nsg27
S'0xF7'
p658
sg12
I175
sg40
S'CRSEL'
p659
sg13
g30
sbag1
(g36
g3
NtRp660
(dp661
g19
Nsg27
S'0xF8'
p662
sg12
I176
sg40
S'EXSEL'
p663
sg13
g30
sbag1
(g36
g3
NtRp664
(dp665
g19
Nsg27
S'0xF9'
p666
sg12
I177
sg40
S'EREOF'
p667
sg13
g30
sbag1
(g36
g3
NtRp668
(dp669
g19
Nsg27
S'0xFA'
p670
sg12
I178
sg40
S'PLAY'
p671
sg13
g30
sbag1
(g36
g3
NtRp672
(dp673
g19
Nsg27
S'0xFB'
p674
sg12
I179
sg40
S'ZOOM'
p675
sg13
g30
sbag1
(g36
g3
NtRp676
(dp677
g19
Nsg27
S'0xFC'
p678
sg12
I180
sg40
S'NONAME'
p679
sg13
g30
sbag1
(g36
g3
NtRp680
(dp681
g19
Nsg27
S'0xFD'
p682
sg12
I181
sg40
S'PA1'
p683
sg13
g30
sbag1
(g36
g3
NtRp684
(dp685
g19
Nsg27
S'0xFE'
p686
sg12
I182
sg40
S'OEM_CLEAR'
p687
sg13
g30
sbag1
(g36
g3
NtRp688
(dp689
g19
Nsg27
S'0'
sg12
I183
sg40
S'UNKNOWN'
p690
sg13
g30
sbag1
(g36
g3
NtRp691
(dp692
g19
Nsg27
S'0x97'
p693
sg12
I187
sg40
S'WLAN'
p694
sg13
g30
sbag1
(g36
g3
NtRp695
(dp696
g19
Nsg27
S'0x98'
p697
sg12
I188
sg40
S'POWER'
p698
sg13
g30
sbag1
(g36
g3
NtRp699
(dp700
g19
Nsg27
S'0x99'
p701
sg12
I189
sg40
S'ASSISTANT'
p702
sg13
g30
sbag1
(g36
g3
NtRp703
(dp704
g19
Nsg27
S'0xD8'
p705
sg12
I190
sg40
S'BRIGHTNESS_DOWN'
p706
sg13
g30
sbag1
(g36
g3
NtRp707
(dp708
g19
Nsg27
S'0xD9'
p709
sg12
I191
sg40
S'BRIGHTNESS_UP'
p710
sg13
g30
sbag1
(g36
g3
NtRp711
(dp712
g19
Nsg27
S'0xDA'
p713
sg12
I192
sg40
S'KBD_BRIGHTNESS_DOWN'
p714
sg13
g30
sbag1
(g36
g3
NtRp715
(dp716
g19
Nsg27
S'0xE8'
p717
sg12
I193
sg40
S'KBD_BRIGHTNESS_UP'
p718
sg13
g30
sbag1
(g36
g3
NtRp719
(dp720
g19
Nsg27
S'0xE9'
p721
sg12
I194
sg40
S'SPATNAV_BACK'
p722
sg13
g30
sbag1
(g36
g3
NtRp723
(dp724
g19
Nsg27
S'0xE1'
p725
sg12
I198
sg40
S'ALTGR'
p726
sg13
g30
sbag1
(g36
g3
NtRp727
(dp728
g19
Nsg27
S'0xE6'
p729
sg12
I201
sg40
S'COMPOSE'
p730
sg13
g30
sbasg12
I13
sg13
g30
sbsg12
I12
sg40
S'KeyboardCode'
p731
sg13
g30
sbasg12
NsS'module'
p732
g1
(cmojom.parse.ast
Module
p733
g3
NtRp734
(dp735
S'mojom_namespace'
p736
(S'IDENTIFIER'
p737
S'ui.mojom'
tp738
sg12
I5
sg19
Nsg13
g30
sbsg13
Nsb.