ccopy_reg
_reconstructor
p1
(cmojom.parse.ast
Mojom
p2
c__builtin__
object
p3
NtRp4
(dp5
S'import_list'
p6
g1
(cmojom.parse.ast
ImportList
p7
g3
NtRp8
(dp9
S'items'
p10
(lp11
g1
(cmojom.parse.ast
Import
p12
g3
NtRp13
(dp14
S'attribute_list'
p15
NsS'lineno'
p16
I7
sS'import_filename'
p17
S'ui/events/mojo/event.mojom'
p18
sS'filename'
p19
S'../../services/ws/public/mojom/event_injector.mojom'
p20
sbasg16
I7
sg19
g20
sbsS'definition_list'
p21
(lp22
g1
(cmojom.parse.ast
Interface
p23
g3
NtRp24
(dp25
S'body'
p26
g1
(cmojom.parse.ast
InterfaceBody
p27
g3
NtRp28
(dp29
g10
(lp30
g1
(cmojom.parse.ast
Method
p31
g3
NtRp32
(dp33
S'ordinal'
p34
NsS'mojom_name'
p35
S'InjectEvent'
p36
sS'parameter_list'
p37
g1
(cmojom.parse.ast
ParameterList
p38
g3
NtRp39
(dp40
g10
(lp41
g1
(cmojom.parse.ast
Parameter
p42
g3
NtRp43
(dp44
g34
Nsg35
S'display_id'
p45
sg15
Nsg19
g20
sS'typename'
p46
S'int64'
p47
sg16
I19
sbag1
(g42
g3
NtRp48
(dp49
g34
Nsg35
S'event'
p50
sg15
Nsg19
g20
sg46
S'ui.mojom.Event'
p51
sg16
I19
sbasg16
I19
sg19
g20
sbsg15
Nsg19
Nsg16
NsS'response_parameter_list'
p52
g1
(g38
g3
NtRp53
(dp54
g10
(lp55
g1
(g42
g3
NtRp56
(dp57
g34
Nsg35
S'result'
p58
sg15
Nsg19
g20
sg46
S'bool'
p59
sg16
I19
sbasg16
I19
sg19
g20
sbsbag1
(g31
g3
NtRp60
(dp61
g34
Nsg35
S'InjectEventNoAck'
p62
sg37
g1
(g38
g3
NtRp63
(dp64
g10
(lp65
g1
(g42
g3
NtRp66
(dp67
g34
Nsg35
S'display_id'
p68
sg15
Nsg19
g20
sg46
S'int64'
p69
sg16
I23
sbag1
(g42
g3
NtRp70
(dp71
g34
Nsg35
S'event'
p72
sg15
Nsg19
g20
sg46
S'ui.mojom.Event'
p73
sg16
I23
sbasg16
I23
sg19
g20
sbsg15
Nsg19
Nsg16
Nsg52
Nsbag1
(g31
g3
NtRp74
(dp75
g34
Nsg35
S'InjectEventNoAckNoRewriters'
p76
sg37
g1
(g38
g3
NtRp77
(dp78
g10
(lp79
g1
(g42
g3
NtRp80
(dp81
g34
Nsg35
S'display_id'
p82
sg15
Nsg19
g20
sg46
S'int64'
p83
sg16
I26
sbag1
(g42
g3
NtRp84
(dp85
g34
Nsg35
S'event'
p86
sg15
Nsg19
g20
sg46
S'ui.mojom.Event'
p87
sg16
I26
sbasg16
I26
sg19
g20
sbsg15
Nsg19
Nsg16
Nsg52
Nsbasg16
Nsg19
Nsbsg15
Nsg16
Nsg35
S'EventInjector'
p88
sg19
Nsbasg16
NsS'module'
p89
g1
(cmojom.parse.ast
Module
p90
g3
NtRp91
(dp92
S'mojom_namespace'
p93
(S'IDENTIFIER'
p94
S'ws.mojom'
tp95
sg16
I5
sg15
Nsg19
g20
sbsg19
Nsb.