ccopy_reg
_reconstructor
p1
(cmojom.parse.ast
Mojom
p2
c__builtin__
object
p3
NtRp4
(dp5
S'import_list'
p6
g1
(cmojom.parse.ast
ImportList
p7
g3
NtRp8
(dp9
S'items'
p10
(lp11
g1
(cmojom.parse.ast
Import
p12
g3
NtRp13
(dp14
S'attribute_list'
p15
NsS'lineno'
p16
I7
sS'import_filename'
p17
S'gpu/ipc/common/gpu_feature_info.mojom'
p18
sS'filename'
p19
S'../../services/ws/public/mojom/gpu.mojom'
p20
sbag1
(g12
g3
NtRp21
(dp22
g15
Nsg16
I8
sg17
S'gpu/ipc/common/gpu_info.mojom'
p23
sg19
g20
sbag1
(g12
g3
NtRp24
(dp25
g15
Nsg16
I9
sg17
S'gpu/ipc/common/sync_token.mojom'
p26
sg19
g20
sbag1
(g12
g3
NtRp27
(dp28
g15
Nsg16
I12
sg17
S'media/mojo/interfaces/video_encode_accelerator.mojom'
p29
sg19
g20
sbag1
(g12
g3
NtRp30
(dp31
g15
Nsg16
I13
sg17
S'ui/gfx/geometry/mojo/geometry.mojom'
p32
sg19
g20
sbag1
(g12
g3
NtRp33
(dp34
g15
Nsg16
I14
sg17
S'ui/gfx/mojo/buffer_types.mojom'
p35
sg19
g20
sbasg16
I7
sg19
g20
sbsS'definition_list'
p36
(lp37
g1
(cmojom.parse.ast
Interface
p38
g3
NtRp39
(dp40
S'body'
p41
g1
(cmojom.parse.ast
InterfaceBody
p42
g3
NtRp43
(dp44
g10
(lp45
g1
(cmojom.parse.ast
Method
p46
g3
NtRp47
(dp48
S'ordinal'
p49
NsS'mojom_name'
p50
S'CreateGpuMemoryBuffer'
p51
sS'parameter_list'
p52
g1
(cmojom.parse.ast
ParameterList
p53
g3
NtRp54
(dp55
g10
(lp56
g1
(cmojom.parse.ast
Parameter
p57
g3
NtRp58
(dp59
g49
Nsg50
S'id'
p60
sg15
Nsg19
g20
sS'typename'
p61
S'gfx.mojom.GpuMemoryBufferId'
p62
sg16
I18
sbag1
(g57
g3
NtRp63
(dp64
g49
Nsg50
S'size'
p65
sg15
Nsg19
g20
sg61
S'gfx.mojom.Size'
p66
sg16
I19
sbag1
(g57
g3
NtRp67
(dp68
g49
Nsg50
S'format'
p69
sg15
Nsg19
g20
sg61
S'gfx.mojom.BufferFormat'
p70
sg16
I20
sbag1
(g57
g3
NtRp71
(dp72
g49
Nsg50
S'usage'
p73
sg15
Nsg19
g20
sg61
S'gfx.mojom.BufferUsage'
p74
sg16
I21
sbasg16
I18
sg19
g20
sbsg15
Nsg19
Nsg16
NsS'response_parameter_list'
p75
g1
(g53
g3
NtRp76
(dp77
g10
(lp78
g1
(g57
g3
NtRp79
(dp80
g49
Nsg50
S'buffer_handle'
p81
sg15
Nsg19
g20
sg61
S'gfx.mojom.GpuMemoryBufferHandle'
p82
sg16
I22
sbasg16
I22
sg19
g20
sbsbag1
(g46
g3
NtRp83
(dp84
g49
Nsg50
S'DestroyGpuMemoryBuffer'
p85
sg52
g1
(g53
g3
NtRp86
(dp87
g10
(lp88
g1
(g57
g3
NtRp89
(dp90
g49
Nsg50
S'id'
p91
sg15
Nsg19
g20
sg61
S'gfx.mojom.GpuMemoryBufferId'
p92
sg16
I25
sbag1
(g57
g3
NtRp93
(dp94
g49
Nsg50
S'sync_token'
p95
sg15
Nsg19
g20
sg61
S'gpu.mojom.SyncToken'
p96
sg16
I26
sbasg16
I25
sg19
g20
sbsg15
Nsg19
Nsg16
Nsg75
Nsbasg16
Nsg19
Nsbsg15
Nsg16
Nsg50
S'GpuMemoryBufferFactory'
p97
sg19
Nsbag1
(g38
g3
NtRp98
(dp99
g41
g1
(g42
g3
NtRp100
(dp101
g10
(lp102
g1
(g46
g3
NtRp103
(dp104
g49
Nsg50
S'CreateGpuMemoryBufferFactory'
p105
sg52
g1
(g53
g3
NtRp106
(dp107
g10
(lp108
g1
(g57
g3
NtRp109
(dp110
g49
Nsg50
S'request'
p111
sg15
Nsg19
g20
sg61
S'GpuMemoryBufferFactory&'
p112
sg16
I33
sbasg16
I33
sg19
g20
sbsg15
Nsg19
Nsg16
Nsg75
Nsbag1
(g46
g3
NtRp113
(dp114
g49
Nsg50
S'EstablishGpuChannel'
p115
sg52
g1
(g53
g3
NtRp116
(dp117
g10
(lp118
sg16
Nsg19
Nsbsg15
Nsg19
Nsg16
Nsg75
g1
(g53
g3
NtRp119
(dp120
g10
(lp121
g1
(g57
g3
NtRp122
(dp123
g49
Nsg50
S'client_id'
p124
sg15
Nsg19
g20
sg61
S'int32'
p125
sg16
I38
sbag1
(g57
g3
NtRp126
(dp127
g49
Nsg50
S'channel_handle'
p128
sg15
Nsg19
g20
sg61
S'handle<message_pipe>?'
p129
sg16
I39
sbag1
(g57
g3
NtRp130
(dp131
g49
Nsg50
S'gpu_info'
p132
sg15
Nsg19
g20
sg61
S'gpu.mojom.GpuInfo'
p133
sg16
I40
sbag1
(g57
g3
NtRp134
(dp135
g49
Nsg50
S'gpu_feature_info'
p136
sg15
Nsg19
g20
sg61
S'gpu.mojom.GpuFeatureInfo'
p137
sg16
I41
sbasg16
I38
sg19
g20
sbsbag1
(g46
g3
NtRp138
(dp139
g49
Nsg50
S'CreateVideoEncodeAcceleratorProvider'
p140
sg52
g1
(g53
g3
NtRp141
(dp142
g10
(lp143
g1
(g57
g3
NtRp144
(dp145
g49
Nsg50
S'vea_provider'
p146
sg15
Nsg19
g20
sg61
S'media.mojom.VideoEncodeAcceleratorProvider&'
p147
sg16
I50
sbasg16
I50
sg19
g20
sbsg15
Nsg19
Nsg16
Nsg75
Nsbasg16
Nsg19
Nsbsg15
Nsg16
Nsg50
S'Gpu'
p148
sg19
Nsbasg16
NsS'module'
p149
g1
(cmojom.parse.ast
Module
p150
g3
NtRp151
(dp152
S'mojom_namespace'
p153
(S'IDENTIFIER'
p154
S'ws.mojom'
tp155
sg16
I5
sg15
Nsg19
g20
sbsg19
Nsb.