ccopy_reg
_reconstructor
p1
(cmojom.parse.ast
Mojom
p2
c__builtin__
object
p3
NtRp4
(dp5
S'import_list'
p6
g1
(cmojom.parse.ast
ImportList
p7
g3
NtRp8
(dp9
S'items'
p10
(lp11
g1
(cmojom.parse.ast
Import
p12
g3
NtRp13
(dp14
S'attribute_list'
p15
NsS'lineno'
p16
I7
sS'import_filename'
p17
S'ui/gfx/geometry/mojo/geometry.mojom'
p18
sS'filename'
p19
S'../../services/ws/public/mojom/remoting_event_injector.mojom'
p20
sbasg16
I7
sg19
g20
sbsS'definition_list'
p21
(lp22
g1
(cmojom.parse.ast
Enum
p23
g3
NtRp24
(dp25
g15
NsS'enum_value_list'
p26
g1
(cmojom.parse.ast
EnumValueList
p27
g3
NtRp28
(dp29
g10
(lp30
g1
(cmojom.parse.ast
EnumValue
p31
g3
NtRp32
(dp33
g15
NsS'value'
p34
Nsg16
I10
sS'mojom_name'
p35
S'kLeft'
p36
sg19
g20
sbag1
(g31
g3
NtRp37
(dp38
g15
Nsg34
Nsg16
I11
sg35
S'kMiddle'
p39
sg19
g20
sbag1
(g31
g3
NtRp40
(dp41
g15
Nsg34
Nsg16
I12
sg35
S'kRight'
p42
sg19
g20
sbasg16
I10
sg19
g20
sbsg16
I9
sg35
S'InjectedMouseButtonType'
p43
sg19
g20
sbag1
(cmojom.parse.ast
Interface
p44
g3
NtRp45
(dp46
S'body'
p47
g1
(cmojom.parse.ast
InterfaceBody
p48
g3
NtRp49
(dp50
g10
(lp51
g1
(cmojom.parse.ast
Method
p52
g3
NtRp53
(dp54
S'ordinal'
p55
Nsg35
S'MoveCursorToLocationInPixels'
p56
sS'parameter_list'
p57
g1
(cmojom.parse.ast
ParameterList
p58
g3
NtRp59
(dp60
g10
(lp61
g1
(cmojom.parse.ast
Parameter
p62
g3
NtRp63
(dp64
g55
Nsg35
S'location'
p65
sg15
Nsg19
g20
sS'typename'
p66
S'gfx.mojom.PointF'
p67
sg16
I19
sbasg16
I19
sg19
g20
sbsg15
Nsg19
Nsg16
NsS'response_parameter_list'
p68
Nsbag1
(g52
g3
NtRp69
(dp70
g55
Nsg35
S'InjectMousePressOrRelease'
p71
sg57
g1
(g58
g3
NtRp72
(dp73
g10
(lp74
g1
(g62
g3
NtRp75
(dp76
g55
Nsg35
S'button'
p77
sg15
Nsg19
g20
sg66
S'InjectedMouseButtonType'
p78
sg16
I22
sbag1
(g62
g3
NtRp79
(dp80
g55
Nsg35
S'down'
p81
sg15
Nsg19
g20
sg66
S'bool'
p82
sg16
I22
sbasg16
I22
sg19
g20
sbsg15
Nsg19
Nsg16
Nsg68
Nsbag1
(g52
g3
NtRp83
(dp84
g55
Nsg35
S'InjectMouseWheelInPixels'
p85
sg57
g1
(g58
g3
NtRp86
(dp87
g10
(lp88
g1
(g62
g3
NtRp89
(dp90
g55
Nsg35
S'delta_x'
p91
sg15
Nsg19
g20
sg66
S'int32'
p92
sg16
I24
sbag1
(g62
g3
NtRp93
(dp94
g55
Nsg35
S'delta_y'
p95
sg15
Nsg19
g20
sg66
S'int32'
p96
sg16
I24
sbasg16
I24
sg19
g20
sbsg15
Nsg19
Nsg16
Nsg68
Nsbag1
(g52
g3
NtRp97
(dp98
g55
Nsg35
S'InjectKeyEvent'
p99
sg57
g1
(g58
g3
NtRp100
(dp101
g10
(lp102
g1
(g62
g3
NtRp103
(dp104
g55
Nsg35
S'native_key_code'
p105
sg15
Nsg19
g20
sg66
S'int32'
p106
sg16
I28
sbag1
(g62
g3
NtRp107
(dp108
g55
Nsg35
S'down'
p109
sg15
Nsg19
g20
sg66
S'bool'
p110
sg16
I28
sbag1
(g62
g3
NtRp111
(dp112
g55
Nsg35
S'suppress_auto_repeat'
p113
sg15
Nsg19
g20
sg66
S'bool'
p114
sg16
I28
sbasg16
I28
sg19
g20
sbsg15
Nsg19
Nsg16
Nsg68
Nsbasg16
Nsg19
Nsbsg15
Nsg16
Nsg35
S'RemotingEventInjector'
p115
sg19
Nsbasg16
NsS'module'
p116
g1
(cmojom.parse.ast
Module
p117
g3
NtRp118
(dp119
S'mojom_namespace'
p120
(S'IDENTIFIER'
p121
S'ws.mojom'
tp122
sg16
I5
sg15
Nsg19
g20
sbsg19
Nsb.