ccopy_reg
_reconstructor
p1
(cmojom.parse.ast
Mojom
p2
c__builtin__
object
p3
NtRp4
(dp5
S'import_list'
p6
g1
(cmojom.parse.ast
ImportList
p7
g3
NtRp8
(dp9
S'items'
p10
(lp11
sS'lineno'
p12
NsS'filename'
p13
NsbsS'definition_list'
p14
(lp15
g1
(cmojom.parse.ast
Interface
p16
g3
NtRp17
(dp18
S'body'
p19
g1
(cmojom.parse.ast
InterfaceBody
p20
g3
NtRp21
(dp22
g10
(lp23
g1
(cmojom.parse.ast
Method
p24
g3
NtRp25
(dp26
S'ordinal'
p27
NsS'mojom_name'
p28
S'OnUserActivity'
p29
sS'parameter_list'
p30
g1
(cmojom.parse.ast
ParameterList
p31
g3
NtRp32
(dp33
g10
(lp34
sg12
Nsg13
NsbsS'attribute_list'
p35
Nsg13
Nsg12
NsS'response_parameter_list'
p36
Nsbasg12
Nsg13
Nsbsg35
Nsg12
Nsg28
S'UserActivityObserver'
p37
sg13
Nsbag1
(g16
g3
NtRp38
(dp39
g19
g1
(g20
g3
NtRp40
(dp41
g10
(lp42
g1
(cmojom.parse.ast
Enum
p43
g3
NtRp44
(dp45
g35
NsS'enum_value_list'
p46
g1
(cmojom.parse.ast
EnumValueList
p47
g3
NtRp48
(dp49
g10
(lp50
g1
(cmojom.parse.ast
EnumValue
p51
g3
NtRp52
(dp53
g35
NsS'value'
p54
Nsg12
I13
sg28
S'ACTIVE'
p55
sg13
S'../../services/ws/public/mojom/user_activity_monitor.mojom'
p56
sbag1
(g51
g3
NtRp57
(dp58
g35
Nsg54
Nsg12
I14
sg28
S'IDLE'
p59
sg13
g56
sbasg12
I13
sg13
g56
sbsg12
I12
sg28
S'IdleState'
p60
sg13
g56
sbag1
(g24
g3
NtRp61
(dp62
g27
Nsg28
S'OnUserIdleStateChanged'
p63
sg30
g1
(g31
g3
NtRp64
(dp65
g10
(lp66
g1
(cmojom.parse.ast
Parameter
p67
g3
NtRp68
(dp69
g27
Nsg28
S'new_state'
p70
sg35
Nsg13
g56
sS'typename'
p71
S'IdleState'
p72
sg12
I16
sbasg12
I16
sg13
g56
sbsg35
Nsg13
Nsg12
Nsg36
Nsbasg12
I12
sg13
g56
sbsg35
Nsg12
Nsg28
S'UserIdleObserver'
p73
sg13
Nsbag1
(g16
g3
NtRp74
(dp75
g19
g1
(g20
g3
NtRp76
(dp77
g10
(lp78
g1
(g24
g3
NtRp79
(dp80
g27
Nsg28
S'AddUserActivityObserver'
p81
sg30
g1
(g31
g3
NtRp82
(dp83
g10
(lp84
g1
(g67
g3
NtRp85
(dp86
g27
Nsg28
S'delay_between_notify_secs'
p87
sg35
Nsg13
g56
sg71
S'uint32'
p88
sg12
I22
sbag1
(g67
g3
NtRp89
(dp90
g27
Nsg28
S'observer'
p91
sg35
Nsg13
g56
sg71
S'UserActivityObserver'
p92
sg12
I23
sbasg12
I22
sg13
g56
sbsg35
Nsg13
Nsg12
Nsg36
Nsbag1
(g24
g3
NtRp93
(dp94
g27
Nsg28
S'AddUserIdleObserver'
p95
sg30
g1
(g31
g3
NtRp96
(dp97
g10
(lp98
g1
(g67
g3
NtRp99
(dp100
g27
Nsg28
S'idle_time_in_minutes'
p101
sg35
Nsg13
g56
sg71
S'uint32'
p102
sg12
I30
sbag1
(g67
g3
NtRp103
(dp104
g27
Nsg28
S'observer'
p105
sg35
Nsg13
g56
sg71
S'UserIdleObserver'
p106
sg12
I30
sbasg12
I30
sg13
g56
sbsg35
Nsg13
Nsg12
Nsg36
Nsbasg12
Nsg13
Nsbsg35
Nsg12
Nsg28
S'UserActivityMonitor'
p107
sg13
Nsbasg12
NsS'module'
p108
g1
(cmojom.parse.ast
Module
p109
g3
NtRp110
(dp111
S'mojom_namespace'
p112
(S'IDENTIFIER'
p113
S'ws.mojom'
tp114
sg12
I5
sg35
Nsg13
g56
sbsg13
Nsb.