ccopy_reg
_reconstructor
p1
(cmojom.parse.ast
Mojom
p2
c__builtin__
object
p3
NtRp4
(dp5
S'import_list'
p6
g1
(cmojom.parse.ast
ImportList
p7
g3
NtRp8
(dp9
S'items'
p10
(lp11
sS'lineno'
p12
NsS'filename'
p13
NsbsS'definition_list'
p14
(lp15
g1
(cmojom.parse.ast
Interface
p16
g3
NtRp17
(dp18
S'body'
p19
g1
(cmojom.parse.ast
InterfaceBody
p20
g3
NtRp21
(dp22
g10
(lp23
g1
(cmojom.parse.ast
Const
p24
g3
NtRp25
(dp26
S'mojom_name'
p27
S'kFocusable_InitProperty'
p28
sS'attribute_list'
p29
NsS'value'
p30
S'"init:focusable"'
p31
sg13
NsS'typename'
p32
S'string'
p33
sg12
Nsbag1
(g24
g3
NtRp34
(dp35
g27
S'kTranslucent_InitProperty'
p36
sg29
Nsg30
S'"init:translucent"'
p37
sg13
Nsg32
S'string'
p38
sg12
Nsbag1
(g24
g3
NtRp39
(dp40
g27
S'kBounds_InitProperty'
p41
sg29
Nsg30
S'"init:bounds"'
p42
sg13
Nsg32
S'string'
p43
sg12
Nsbag1
(g24
g3
NtRp44
(dp45
g27
S'kContainerId_InitProperty'
p46
sg29
Nsg30
S'"init:container_id"'
p47
sg13
Nsg32
S'string'
p48
sg12
Nsbag1
(g24
g3
NtRp49
(dp50
g27
S'kDisplayId_InitProperty'
p51
sg29
Nsg30
S'"init:display_id"'
p52
sg13
Nsg32
S'string'
p53
sg12
Nsbag1
(g24
g3
NtRp54
(dp55
g27
S'kClientProvidesFrame_InitProperty'
p56
sg29
Nsg30
S'"init:client-provides-frame"'
p57
sg13
Nsg32
S'string'
p58
sg12
Nsbag1
(g24
g3
NtRp59
(dp60
g27
S'kWindowType_InitProperty'
p61
sg29
Nsg30
S'"init:window-type"'
p62
sg13
Nsg32
S'string'
p63
sg12
Nsbag1
(g24
g3
NtRp64
(dp65
g27
S'kAlwaysOnTop_Property'
p66
sg29
Nsg30
S'"prop:always_on_top"'
p67
sg13
Nsg32
S'string'
p68
sg12
Nsbag1
(g24
g3
NtRp69
(dp70
g27
S'kAnimationsDisabled_Property'
p71
sg29
Nsg30
S'"prop:animations-disabled"'
p72
sg13
Nsg32
S'string'
p73
sg12
Nsbag1
(g24
g3
NtRp74
(dp75
g27
S'kAvatarIcon_Property'
p76
sg29
Nsg30
S'"prop:avatar-icon"'
p77
sg13
Nsg32
S'string'
p78
sg12
Nsbag1
(g24
g3
NtRp79
(dp80
g27
S'kArcPackageName_Property'
p81
sg29
Nsg30
S'"prop:arc-package-name"'
p82
sg13
Nsg32
S'string'
p83
sg12
Nsbag1
(g24
g3
NtRp84
(dp85
g27
S'kAspectRatio_Property'
p86
sg29
Nsg30
S'"prop:aspect-ratio"'
p87
sg13
Nsg32
S'string'
p88
sg12
Nsbag1
(g24
g3
NtRp89
(dp90
g27
S'kChildAXTreeID_Property'
p91
sg29
Nsg30
S'"prop:child-ax-tree-id"'
p92
sg13
Nsg32
S'string'
p93
sg12
Nsbag1
(g24
g3
NtRp94
(dp95
g27
S'kChildModalParent_Property'
p96
sg29
Nsg30
S'"prop:child-modal-parent"'
p97
sg13
Nsg32
S'string'
p98
sg12
Nsbag1
(g24
g3
NtRp99
(dp100
g27
S'kWindowLayerDrawn_Property'
p101
sg29
Nsg30
S'"prop:window-layer-drawn"'
p102
sg13
Nsg32
S'string'
p103
sg12
Nsbag1
(g24
g3
NtRp104
(dp105
g27
S'kDrawAttention_Property'
p106
sg29
Nsg30
S'"prop:draw-attention"'
p107
sg13
Nsg32
S'string'
p108
sg12
Nsbag1
(g24
g3
NtRp109
(dp110
g27
S'kEmbeddedWindowEnsureNotInRect'
p111
sg29
Nsg30
S'"prop:embedded-window-ensure-not-in-rect"'
p112
sg13
Nsg32
S'string'
p113
sg12
Nsbag1
(g24
g3
NtRp114
(dp115
g27
S'kExcludeFromMru_Property'
p116
sg29
Nsg30
S'"prop:exclude_from_mru"'
p117
sg13
Nsg32
S'string'
p118
sg12
Nsbag1
(g24
g3
NtRp119
(dp120
g27
S'kFrameBackButtonState_Property'
p121
sg29
Nsg30
S'"prop:frame-back-button-state"'
p122
sg13
Nsg32
S'string'
p123
sg12
Nsbag1
(g24
g3
NtRp124
(dp125
g27
S'kFrameActiveColor_Property'
p126
sg29
Nsg30
S'"prop:frame-active-color"'
p127
sg13
Nsg32
S'string'
p128
sg12
Nsbag1
(g24
g3
NtRp129
(dp130
g27
S'kFrameInactiveColor_Property'
p131
sg29
Nsg30
S'"prop:frame-inactive-color"'
p132
sg13
Nsg32
S'string'
p133
sg12
Nsbag1
(g24
g3
NtRp134
(dp135
g27
S'kMaximumSize_Property'
p136
sg29
Nsg30
S'"prop:maximum-size"'
p137
sg13
Nsg32
S'string'
p138
sg12
Nsbag1
(g24
g3
NtRp139
(dp140
g27
S'kMinimumSize_Property'
p141
sg29
Nsg30
S'"prop:minimum-size"'
p142
sg13
Nsg32
S'string'
p143
sg12
Nsbag1
(g24
g3
NtRp144
(dp145
g27
S'kName_Property'
p146
sg29
Nsg30
S'"prop:name"'
p147
sg13
Nsg32
S'string'
p148
sg12
Nsbag1
(g24
g3
NtRp149
(dp150
g27
S'kPreferredSize_Property'
p151
sg29
Nsg30
S'"prop:preferred-size"'
p152
sg13
Nsg32
S'string'
p153
sg12
Nsbag1
(g24
g3
NtRp154
(dp155
g27
S'kRenderParentTitleArea_Property'
p156
sg29
Nsg30
S'"render-parent-non-client-area"'
p157
sg13
Nsg32
S'string'
p158
sg12
Nsbag1
(g24
g3
NtRp159
(dp160
g27
S'kResizeBehavior_Property'
p161
sg29
Nsg30
S'"prop:resize-behavior"'
p162
sg13
Nsg32
S'string'
p163
sg12
Nsbag1
(g24
g3
NtRp164
(dp165
g27
S'kRestoreBounds_Property'
p166
sg29
Nsg30
S'"prop:restore-bounds"'
p167
sg13
Nsg32
S'string'
p168
sg12
Nsbag1
(g24
g3
NtRp169
(dp170
g27
S'kShadowElevation_Property'
p171
sg29
Nsg30
S'"prop:shadow-elevation"'
p172
sg13
Nsg32
S'string'
p173
sg12
Nsbag1
(g24
g3
NtRp174
(dp175
g27
S'kShelfID_Property'
p176
sg29
Nsg30
S'"prop:shelf-id"'
p177
sg13
Nsg32
S'string'
p178
sg12
Nsbag1
(g24
g3
NtRp179
(dp180
g27
S'kShelfItemType_Property'
p181
sg29
Nsg30
S'"prop:shelf-item-type"'
p182
sg13
Nsg32
S'string'
p183
sg12
Nsbag1
(g24
g3
NtRp184
(dp185
g27
S'kShowState_Property'
p186
sg29
Nsg30
S'"prop:show-state"'
p187
sg13
Nsg32
S'string'
p188
sg12
Nsbag1
(g24
g3
NtRp189
(dp190
g27
S'kWindowCornerRadius_Property'
p191
sg29
Nsg30
S'"prop:window-corner-radius"'
p192
sg13
Nsg32
S'string'
p193
sg12
Nsbag1
(g24
g3
NtRp194
(dp195
g27
S'kWindowTitle_Property'
p196
sg29
Nsg30
S'"prop:window-title"'
p197
sg13
Nsg32
S'string'
p198
sg12
Nsbag1
(g24
g3
NtRp199
(dp200
g27
S'kWindowTitleShown_Property'
p201
sg29
Nsg30
S'"prop:window-title-shown"'
p202
sg13
Nsg32
S'string'
p203
sg12
Nsbag1
(g24
g3
NtRp204
(dp205
g27
S'kWindowVisibilityAnimationDuration_Property'
p206
sg29
Nsg30
S'"prop:window-visibility-animation-duration"'
p207
sg13
Nsg32
S'string'
p208
sg12
Nsbag1
(g24
g3
NtRp209
(dp210
g27
S'kWindowVisibilityAnimationTransition_Property'
p211
sg29
Nsg30
S'"prop:window-visibility-animation-transition"'
p212
sg13
Nsg32
S'string'
p213
sg12
Nsbag1
(g24
g3
NtRp214
(dp215
g27
S'kWindowVisibilityAnimationType_Property'
p216
sg29
Nsg30
S'"prop:window-visibility-animation-type"'
p217
sg13
Nsg32
S'string'
p218
sg12
Nsbag1
(g24
g3
NtRp219
(dp220
g27
S'kWindowVisibilityAnimationVerticalPosition_Property'
p221
sg29
Nsg30
S'"prop:window-visibility-animation-vertical-position"'
p222
sg13
Nsg32
S'string'
p223
sg12
Nsbasg12
Nsg13
Nsbsg29
Nsg12
Nsg27
S'WindowManager'
p224
sg13
Nsbasg12
NsS'module'
p225
g1
(cmojom.parse.ast
Module
p226
g3
NtRp227
(dp228
S'mojom_namespace'
p229
(S'IDENTIFIER'
p230
S'ws.mojom'
tp231
sg12
I5
sg29
Nsg13
S'../../services/ws/public/mojom/window_manager.mojom'
p232
sbsg13
Nsb.