ccopy_reg
_reconstructor
p1
(cmojom.parse.ast
Mojom
p2
c__builtin__
object
p3
NtRp4
(dp5
S'import_list'
p6
g1
(cmojom.parse.ast
ImportList
p7
g3
NtRp8
(dp9
S'items'
p10
(lp11
g1
(cmojom.parse.ast
Import
p12
g3
NtRp13
(dp14
S'attribute_list'
p15
NsS'lineno'
p16
I7
sS'import_filename'
p17
S'mojo/public/mojom/base/unguessable_token.mojom'
p18
sS'filename'
p19
S'../../services/ws/public/mojom/window_tree.mojom'
p20
sbag1
(g12
g3
NtRp21
(dp22
g15
Nsg16
I8
sg17
S'services/viz/public/interfaces/compositing/compositor_frame_sink.mojom'
p23
sg19
g20
sbag1
(g12
g3
NtRp24
(dp25
g15
Nsg16
I9
sg17
S'services/viz/public/interfaces/compositing/frame_sink_id.mojom'
p26
sg19
g20
sbag1
(g12
g3
NtRp27
(dp28
g15
Nsg16
I10
sg17
S'services/viz/public/interfaces/compositing/local_surface_id_allocation.mojom'
p29
sg19
g20
sbag1
(g12
g3
NtRp30
(dp31
g15
Nsg16
I11
sg17
S'services/viz/public/interfaces/compositing/surface_info.mojom'
p32
sg19
g20
sbag1
(g12
g3
NtRp33
(dp34
g15
Nsg16
I12
sg17
S'services/ws/public/mojom/window_manager.mojom'
p35
sg19
g20
sbag1
(g12
g3
NtRp36
(dp37
g15
Nsg16
I13
sg17
S'services/ws/public/mojom/screen_provider_observer.mojom'
p38
sg19
g20
sbag1
(g12
g3
NtRp39
(dp40
g15
Nsg16
I14
sg17
S'services/ws/public/mojom/window_tree_constants.mojom'
p41
sg19
g20
sbag1
(g12
g3
NtRp42
(dp43
g15
Nsg16
I15
sg17
S'ui/base/ime/mojo/ime.mojom'
p44
sg19
g20
sbag1
(g12
g3
NtRp45
(dp46
g15
Nsg16
I16
sg17
S'ui/base/mojo/cursor.mojom'
p47
sg19
g20
sbag1
(g12
g3
NtRp48
(dp49
g15
Nsg16
I17
sg17
S'ui/base/mojo/ui_base_types.mojom'
p50
sg19
g20
sbag1
(g12
g3
NtRp51
(dp52
g15
Nsg16
I18
sg17
S'ui/events/mojo/event.mojom'
p53
sg19
g20
sbag1
(g12
g3
NtRp54
(dp55
g15
Nsg16
I19
sg17
S'ui/events/mojo/event_constants.mojom'
p56
sg19
g20
sbag1
(g12
g3
NtRp57
(dp58
g15
Nsg16
I20
sg17
S'ui/gfx/geometry/mojo/geometry.mojom'
p59
sg19
g20
sbag1
(g12
g3
NtRp60
(dp61
g15
Nsg16
I21
sg17
S'ui/gfx/image/mojo/image.mojom'
p62
sg19
g20
sbag1
(g12
g3
NtRp63
(dp64
g15
Nsg16
I22
sg17
S'ui/gfx/mojo/transform.mojom'
p65
sg19
g20
sbag1
(g12
g3
NtRp66
(dp67
g15
Nsg16
I23
sg17
S'ui/platform_window/mojo/text_input_state.mojom'
p68
sg19
g20
sbasg16
I7
sg19
g20
sbsS'definition_list'
p69
(lp70
g1
(cmojom.parse.ast
Interface
p71
g3
NtRp72
(dp73
S'body'
p74
g1
(cmojom.parse.ast
InterfaceBody
p75
g3
NtRp76
(dp77
g10
(lp78
g1
(cmojom.parse.ast
Method
p79
g3
NtRp80
(dp81
S'ordinal'
p82
NsS'mojom_name'
p83
S'NewWindow'
p84
sS'parameter_list'
p85
g1
(cmojom.parse.ast
ParameterList
p86
g3
NtRp87
(dp88
g10
(lp89
g1
(cmojom.parse.ast
Parameter
p90
g3
NtRp91
(dp92
g82
Nsg83
S'change_id'
p93
sg15
Nsg19
g20
sS'typename'
p94
S'uint32'
p95
sg16
I63
sbag1
(g90
g3
NtRp96
(dp97
g82
Nsg83
S'window_id'
p98
sg15
Nsg19
g20
sg94
S'uint64'
p99
sg16
I64
sbag1
(g90
g3
NtRp100
(dp101
g82
Nsg83
S'properties'
p102
sg15
Nsg19
g20
sg94
S'uint8[]{string}?'
p103
sg16
I65
sbasg16
I63
sg19
g20
sbsg15
Nsg19
Nsg16
NsS'response_parameter_list'
p104
Nsbag1
(g79
g3
NtRp105
(dp106
g82
Nsg83
S'NewTopLevelWindow'
p107
sg85
g1
(g86
g3
NtRp108
(dp109
g10
(lp110
g1
(g90
g3
NtRp111
(dp112
g82
Nsg83
S'change_id'
p113
sg15
Nsg19
g20
sg94
S'uint32'
p114
sg16
I70
sbag1
(g90
g3
NtRp115
(dp116
g82
Nsg83
S'window_id'
p117
sg15
Nsg19
g20
sg94
S'uint64'
p118
sg16
I71
sbag1
(g90
g3
NtRp119
(dp120
g82
Nsg83
S'properties'
p121
sg15
Nsg19
g20
sg94
S'uint8[]{string}'
p122
sg16
I72
sbasg16
I70
sg19
g20
sbsg15
Nsg19
Nsg16
Nsg104
Nsbag1
(g79
g3
NtRp123
(dp124
g82
Nsg83
S'DeleteWindow'
p125
sg85
g1
(g86
g3
NtRp126
(dp127
g10
(lp128
g1
(g90
g3
NtRp129
(dp130
g82
Nsg83
S'change_id'
p131
sg15
Nsg19
g20
sg94
S'uint32'
p132
sg16
I80
sbag1
(g90
g3
NtRp133
(dp134
g82
Nsg83
S'window_id'
p135
sg15
Nsg19
g20
sg94
S'uint64'
p136
sg16
I80
sbasg16
I80
sg19
g20
sbsg15
Nsg19
Nsg16
Nsg104
Nsbag1
(g79
g3
NtRp137
(dp138
g82
Nsg83
S'SetCapture'
p139
sg85
g1
(g86
g3
NtRp140
(dp141
g10
(lp142
g1
(g90
g3
NtRp143
(dp144
g82
Nsg83
S'change_id'
p145
sg15
Nsg19
g20
sg94
S'uint32'
p146
sg16
I89
sbag1
(g90
g3
NtRp147
(dp148
g82
Nsg83
S'window_id'
p149
sg15
Nsg19
g20
sg94
S'uint64'
p150
sg16
I89
sbasg16
I89
sg19
g20
sbsg15
Nsg19
Nsg16
Nsg104
Nsbag1
(g79
g3
NtRp151
(dp152
g82
Nsg83
S'ReleaseCapture'
p153
sg85
g1
(g86
g3
NtRp154
(dp155
g10
(lp156
g1
(g90
g3
NtRp157
(dp158
g82
Nsg83
S'change_id'
p159
sg15
Nsg19
g20
sg94
S'uint32'
p160
sg16
I93
sbag1
(g90
g3
NtRp161
(dp162
g82
Nsg83
S'window_id'
p163
sg15
Nsg19
g20
sg94
S'uint64'
p164
sg16
I93
sbasg16
I93
sg19
g20
sbsg15
Nsg19
Nsg16
Nsg104
Nsbag1
(g79
g3
NtRp165
(dp166
g82
Nsg83
S'ObserveEventTypes'
p167
sg85
g1
(g86
g3
NtRp168
(dp169
g10
(lp170
g1
(g90
g3
NtRp171
(dp172
g82
Nsg83
S'types'
p173
sg15
Nsg19
g20
sg94
S'ui.mojom.EventType[]'
p174
sg16
I104
sbasg16
I104
sg19
g20
sbsg15
Nsg19
Nsg16
Nsg104
Nsbag1
(g79
g3
NtRp175
(dp176
g82
Nsg83
S'SetWindowBounds'
p177
sg85
g1
(g86
g3
NtRp178
(dp179
g10
(lp180
g1
(g90
g3
NtRp181
(dp182
g82
Nsg83
S'change_id'
p183
sg15
Nsg19
g20
sg94
S'uint32'
p184
sg16
I118
sbag1
(g90
g3
NtRp185
(dp186
g82
Nsg83
S'window_id'
p187
sg15
Nsg19
g20
sg94
S'uint64'
p188
sg16
I119
sbag1
(g90
g3
NtRp189
(dp190
g82
Nsg83
S'bounds'
p191
sg15
Nsg19
g20
sg94
S'gfx.mojom.Rect'
p192
sg16
I120
sbag1
(g90
g3
NtRp193
(dp194
g82
Nsg83
S'local_surface_id_allocation'
p195
sg15
Nsg19
g20
sg94
S'viz.mojom.LocalSurfaceIdAllocation?'
p196
sg16
I121
sbasg16
I118
sg19
g20
sbsg15
Nsg19
Nsg16
Nsg104
Nsbag1
(g79
g3
NtRp197
(dp198
g82
Nsg83
S'UpdateLocalSurfaceIdFromChild'
p199
sg85
g1
(g86
g3
NtRp200
(dp201
g10
(lp202
g1
(g90
g3
NtRp203
(dp204
g82
Nsg83
S'window_id'
p205
sg15
Nsg19
g20
sg94
S'uint64'
p206
sg16
I127
sbag1
(g90
g3
NtRp207
(dp208
g82
Nsg83
S'local_surface_id_allocation'
p209
sg15
Nsg19
g20
sg94
S'viz.mojom.LocalSurfaceIdAllocation'
p210
sg16
I128
sbasg16
I127
sg19
g20
sbsg15
Nsg19
Nsg16
Nsg104
Nsbag1
(g79
g3
NtRp211
(dp212
g82
Nsg83
S'AllocateLocalSurfaceId'
p213
sg85
g1
(g86
g3
NtRp214
(dp215
g10
(lp216
g1
(g90
g3
NtRp217
(dp218
g82
Nsg83
S'window_id'
p219
sg15
Nsg19
g20
sg94
S'uint64'
p220
sg16
I133
sbasg16
I133
sg19
g20
sbsg15
Nsg19
Nsg16
Nsg104
Nsbag1
(g79
g3
NtRp221
(dp222
g82
Nsg83
S'SetWindowTransform'
p223
sg85
g1
(g86
g3
NtRp224
(dp225
g10
(lp226
g1
(g90
g3
NtRp227
(dp228
g82
Nsg83
S'change_id'
p229
sg15
Nsg19
g20
sg94
S'uint32'
p230
sg16
I135
sbag1
(g90
g3
NtRp231
(dp232
g82
Nsg83
S'window_id'
p233
sg15
Nsg19
g20
sg94
S'uint64'
p234
sg16
I136
sbag1
(g90
g3
NtRp235
(dp236
g82
Nsg83
S'transform'
p237
sg15
Nsg19
g20
sg94
S'gfx.mojom.Transform'
p238
sg16
I137
sbasg16
I135
sg19
g20
sbsg15
Nsg19
Nsg16
Nsg104
Nsbag1
(g79
g3
NtRp239
(dp240
g82
Nsg83
S'SetClientArea'
p241
sg85
g1
(g86
g3
NtRp242
(dp243
g10
(lp244
g1
(g90
g3
NtRp245
(dp246
g82
Nsg83
S'window_id'
p247
sg15
Nsg19
g20
sg94
S'uint64'
p248
sg16
I143
sbag1
(g90
g3
NtRp249
(dp250
g82
Nsg83
S'insets'
p251
sg15
Nsg19
g20
sg94
S'gfx.mojom.Insets'
p252
sg16
I144
sbag1
(g90
g3
NtRp253
(dp254
g82
Nsg83
S'additional_client_areas'
p255
sg15
Nsg19
g20
sg94
S'gfx.mojom.Rect[]?'
p256
sg16
I145
sbasg16
I143
sg19
g20
sbsg15
Nsg19
Nsg16
Nsg104
Nsbag1
(g79
g3
NtRp257
(dp258
g82
Nsg83
S'SetHitTestInsets'
p259
sg85
g1
(g86
g3
NtRp260
(dp261
g10
(lp262
g1
(g90
g3
NtRp263
(dp264
g82
Nsg83
S'window_id'
p265
sg15
Nsg19
g20
sg94
S'uint64'
p266
sg16
I150
sbag1
(g90
g3
NtRp267
(dp268
g82
Nsg83
S'mouse'
p269
sg15
Nsg19
g20
sg94
S'gfx.mojom.Insets'
p270
sg16
I151
sbag1
(g90
g3
NtRp271
(dp272
g82
Nsg83
S'touch'
p273
sg15
Nsg19
g20
sg94
S'gfx.mojom.Insets'
p274
sg16
I152
sbasg16
I150
sg19
g20
sbsg15
Nsg19
Nsg16
Nsg104
Nsbag1
(g79
g3
NtRp275
(dp276
g82
Nsg83
S'SetShape'
p277
sg85
g1
(g86
g3
NtRp278
(dp279
g10
(lp280
g1
(g90
g3
NtRp281
(dp282
g82
Nsg83
S'window_id'
p283
sg15
Nsg19
g20
sg94
S'uint64'
p284
sg16
I159
sbag1
(g90
g3
NtRp285
(dp286
g82
Nsg83
S'shape'
p287
sg15
Nsg19
g20
sg94
S'gfx.mojom.Rect[]'
p288
sg16
I159
sbasg16
I159
sg19
g20
sbsg15
Nsg19
Nsg16
Nsg104
Nsbag1
(g79
g3
NtRp289
(dp290
g82
Nsg83
S'SetCanAcceptDrops'
p291
sg85
g1
(g86
g3
NtRp292
(dp293
g10
(lp294
g1
(g90
g3
NtRp295
(dp296
g82
Nsg83
S'window_id'
p297
sg15
Nsg19
g20
sg94
S'uint64'
p298
sg16
I164
sbag1
(g90
g3
NtRp299
(dp300
g82
Nsg83
S'accepts_drops'
p301
sg15
Nsg19
g20
sg94
S'bool'
p302
sg16
I164
sbasg16
I164
sg19
g20
sbsg15
Nsg19
Nsg16
Nsg104
Nsbag1
(g79
g3
NtRp303
(dp304
g82
Nsg83
S'SetWindowVisibility'
p305
sg85
g1
(g86
g3
NtRp306
(dp307
g10
(lp308
g1
(g90
g3
NtRp309
(dp310
g82
Nsg83
S'change_id'
p311
sg15
Nsg19
g20
sg94
S'uint32'
p312
sg16
I169
sbag1
(g90
g3
NtRp313
(dp314
g82
Nsg83
S'window_id'
p315
sg15
Nsg19
g20
sg94
S'uint64'
p316
sg16
I169
sbag1
(g90
g3
NtRp317
(dp318
g82
Nsg83
S'visible'
p319
sg15
Nsg19
g20
sg94
S'bool'
p320
sg16
I169
sbasg16
I169
sg19
g20
sbsg15
Nsg19
Nsg16
Nsg104
Nsbag1
(g79
g3
NtRp321
(dp322
g82
Nsg83
S'SetWindowProperty'
p323
sg85
g1
(g86
g3
NtRp324
(dp325
g10
(lp326
g1
(g90
g3
NtRp327
(dp328
g82
Nsg83
S'change_id'
p329
sg15
Nsg19
g20
sg94
S'uint32'
p330
sg16
I173
sbag1
(g90
g3
NtRp331
(dp332
g82
Nsg83
S'window_id'
p333
sg15
Nsg19
g20
sg94
S'uint64'
p334
sg16
I174
sbag1
(g90
g3
NtRp335
(dp336
g82
Nsg83
S'name'
p337
sg15
Nsg19
g20
sg94
S'string'
p338
sg16
I175
sbag1
(g90
g3
NtRp339
(dp340
g82
Nsg83
S'value'
p341
sg15
Nsg19
g20
sg94
S'uint8[]?'
p342
sg16
I176
sbasg16
I173
sg19
g20
sbsg15
Nsg19
Nsg16
Nsg104
Nsbag1
(g79
g3
NtRp343
(dp344
g82
Nsg83
S'SetWindowOpacity'
p345
sg85
g1
(g86
g3
NtRp346
(dp347
g10
(lp348
g1
(g90
g3
NtRp349
(dp350
g82
Nsg83
S'change_id'
p351
sg15
Nsg19
g20
sg94
S'uint32'
p352
sg16
I179
sbag1
(g90
g3
NtRp353
(dp354
g82
Nsg83
S'window_id'
p355
sg15
Nsg19
g20
sg94
S'uint64'
p356
sg16
I179
sbag1
(g90
g3
NtRp357
(dp358
g82
Nsg83
S'opacity'
p359
sg15
Nsg19
g20
sg94
S'float'
p360
sg16
I179
sbasg16
I179
sg19
g20
sbsg15
Nsg19
Nsg16
Nsg104
Nsbag1
(g79
g3
NtRp361
(dp362
g82
Nsg83
S'SetWindowTransparent'
p363
sg85
g1
(g86
g3
NtRp364
(dp365
g10
(lp366
g1
(g90
g3
NtRp367
(dp368
g82
Nsg83
S'change_id'
p369
sg15
Nsg19
g20
sg94
S'uint32'
p370
sg16
I182
sbag1
(g90
g3
NtRp371
(dp372
g82
Nsg83
S'window_id'
p373
sg15
Nsg19
g20
sg94
S'uint64'
p374
sg16
I182
sbag1
(g90
g3
NtRp375
(dp376
g82
Nsg83
S'transparent'
p377
sg15
Nsg19
g20
sg94
S'bool'
p378
sg16
I182
sbasg16
I182
sg19
g20
sbsg15
Nsg19
Nsg16
Nsg104
Nsbag1
(g79
g3
NtRp379
(dp380
g82
Nsg83
S'AttachCompositorFrameSink'
p381
sg85
g1
(g86
g3
NtRp382
(dp383
g10
(lp384
g1
(g90
g3
NtRp385
(dp386
g82
Nsg83
S'window_id'
p387
sg15
Nsg19
g20
sg94
S'uint64'
p388
sg16
I186
sbag1
(g90
g3
NtRp389
(dp390
g82
Nsg83
S'compositor_frame_sink'
p391
sg15
Nsg19
g20
sg94
S'viz.mojom.CompositorFrameSink&'
p392
sg16
I187
sbag1
(g90
g3
NtRp393
(dp394
g82
Nsg83
S'client'
p395
sg15
Nsg19
g20
sg94
S'viz.mojom.CompositorFrameSinkClient'
p396
sg16
I188
sbasg16
I186
sg19
g20
sbsg15
Nsg19
Nsg16
Nsg104
Nsbag1
(g79
g3
NtRp397
(dp398
g82
Nsg83
S'AddWindow'
p399
sg85
g1
(g86
g3
NtRp400
(dp401
g10
(lp402
g1
(g90
g3
NtRp403
(dp404
g82
Nsg83
S'change_id'
p405
sg15
Nsg19
g20
sg94
S'uint32'
p406
sg16
I198
sbag1
(g90
g3
NtRp407
(dp408
g82
Nsg83
S'parent'
p409
sg15
Nsg19
g20
sg94
S'uint64'
p410
sg16
I198
sbag1
(g90
g3
NtRp411
(dp412
g82
Nsg83
S'child'
p413
sg15
Nsg19
g20
sg94
S'uint64'
p414
sg16
I198
sbasg16
I198
sg19
g20
sbsg15
Nsg19
Nsg16
Nsg104
Nsbag1
(g79
g3
NtRp415
(dp416
g82
Nsg83
S'RemoveWindowFromParent'
p417
sg85
g1
(g86
g3
NtRp418
(dp419
g10
(lp420
g1
(g90
g3
NtRp421
(dp422
g82
Nsg83
S'change_id'
p423
sg15
Nsg19
g20
sg94
S'uint32'
p424
sg16
I208
sbag1
(g90
g3
NtRp425
(dp426
g82
Nsg83
S'window_id'
p427
sg15
Nsg19
g20
sg94
S'uint64'
p428
sg16
I208
sbasg16
I208
sg19
g20
sbsg15
Nsg19
Nsg16
Nsg104
Nsbag1
(g79
g3
NtRp429
(dp430
g82
Nsg83
S'AddTransientWindow'
p431
sg85
g1
(g86
g3
NtRp432
(dp433
g10
(lp434
g1
(g90
g3
NtRp435
(dp436
g82
Nsg83
S'change_id'
p437
sg15
Nsg19
g20
sg94
S'uint32'
p438
sg16
I216
sbag1
(g90
g3
NtRp439
(dp440
g82
Nsg83
S'window_id'
p441
sg15
Nsg19
g20
sg94
S'uint64'
p442
sg16
I217
sbag1
(g90
g3
NtRp443
(dp444
g82
Nsg83
S'transient_window_id'
p445
sg15
Nsg19
g20
sg94
S'uint64'
p446
sg16
I218
sbasg16
I216
sg19
g20
sbsg15
Nsg19
Nsg16
Nsg104
Nsbag1
(g79
g3
NtRp447
(dp448
g82
Nsg83
S'RemoveTransientWindowFromParent'
p449
sg85
g1
(g86
g3
NtRp450
(dp451
g10
(lp452
g1
(g90
g3
NtRp453
(dp454
g82
Nsg83
S'change_id'
p455
sg15
Nsg19
g20
sg94
S'uint32'
p456
sg16
I222
sbag1
(g90
g3
NtRp457
(dp458
g82
Nsg83
S'transient_window_id'
p459
sg15
Nsg19
g20
sg94
S'uint64'
p460
sg16
I222
sbasg16
I222
sg19
g20
sbsg15
Nsg19
Nsg16
Nsg104
Nsbag1
(g79
g3
NtRp461
(dp462
g82
Nsg83
S'SetModalType'
p463
sg85
g1
(g86
g3
NtRp464
(dp465
g10
(lp466
g1
(g90
g3
NtRp467
(dp468
g82
Nsg83
S'change_id'
p469
sg15
Nsg19
g20
sg94
S'uint32'
p470
sg16
I228
sbag1
(g90
g3
NtRp471
(dp472
g82
Nsg83
S'window_id'
p473
sg15
Nsg19
g20
sg94
S'uint64'
p474
sg16
I228
sbag1
(g90
g3
NtRp475
(dp476
g82
Nsg83
S'type'
p477
sg15
Nsg19
g20
sg94
S'ui.mojom.ModalType'
p478
sg16
I228
sbasg16
I228
sg19
g20
sbsg15
Nsg19
Nsg16
Nsg104
Nsbag1
(g79
g3
NtRp479
(dp480
g82
Nsg83
S'ReorderWindow'
p481
sg85
g1
(g86
g3
NtRp482
(dp483
g10
(lp484
g1
(g90
g3
NtRp485
(dp486
g82
Nsg83
S'change_id'
p487
sg15
Nsg19
g20
sg94
S'uint32'
p488
sg16
I233
sbag1
(g90
g3
NtRp489
(dp490
g82
Nsg83
S'window_id'
p491
sg15
Nsg19
g20
sg94
S'uint64'
p492
sg16
I234
sbag1
(g90
g3
NtRp493
(dp494
g82
Nsg83
S'relative_window_id'
p495
sg15
Nsg19
g20
sg94
S'uint64'
p496
sg16
I235
sbag1
(g90
g3
NtRp497
(dp498
g82
Nsg83
S'direction'
p499
sg15
Nsg19
g20
sg94
S'OrderDirection'
p500
sg16
I236
sbasg16
I233
sg19
g20
sbsg15
Nsg19
Nsg16
Nsg104
Nsbag1
(g79
g3
NtRp501
(dp502
g82
Nsg83
S'GetWindowTree'
p503
sg85
g1
(g86
g3
NtRp504
(dp505
g10
(lp506
g1
(g90
g3
NtRp507
(dp508
g82
Nsg83
S'window_id'
p509
sg15
Nsg19
g20
sg94
S'uint64'
p510
sg16
I242
sbasg16
I242
sg19
g20
sbsg15
Nsg19
Nsg16
Nsg104
g1
(g86
g3
NtRp511
(dp512
g10
(lp513
g1
(g90
g3
NtRp514
(dp515
g82
Nsg83
S'windows'
p516
sg15
Nsg19
g20
sg94
S'WindowData[]'
p517
sg16
I242
sbasg16
I242
sg19
g20
sbsbag1
(g79
g3
NtRp518
(dp519
g82
Nsg83
S'Embed'
p520
sg85
g1
(g86
g3
NtRp521
(dp522
g10
(lp523
g1
(g90
g3
NtRp524
(dp525
g82
Nsg83
S'window_id'
p526
sg15
Nsg19
g20
sg94
S'uint64'
p527
sg16
I271
sbag1
(g90
g3
NtRp528
(dp529
g82
Nsg83
S'client'
p530
sg15
Nsg19
g20
sg94
S'WindowTreeClient'
p531
sg16
I271
sbag1
(g90
g3
NtRp532
(dp533
g82
Nsg83
S'embed_flags'
p534
sg15
Nsg19
g20
sg94
S'uint32'
p535
sg16
I271
sbasg16
I271
sg19
g20
sbsg15
Nsg19
Nsg16
Nsg104
g1
(g86
g3
NtRp536
(dp537
g10
(lp538
g1
(g90
g3
NtRp539
(dp540
g82
Nsg83
S'success'
p541
sg15
Nsg19
g20
sg94
S'bool'
p542
sg16
I272
sbasg16
I272
sg19
g20
sbsbag1
(g79
g3
NtRp543
(dp544
g82
Nsg83
S'ScheduleEmbed'
p545
sg85
g1
(g86
g3
NtRp546
(dp547
g10
(lp548
g1
(g90
g3
NtRp549
(dp550
g82
Nsg83
S'client'
p551
sg15
Nsg19
g20
sg94
S'WindowTreeClient'
p552
sg16
I285
sbasg16
I285
sg19
g20
sbsg15
Nsg19
Nsg16
Nsg104
g1
(g86
g3
NtRp553
(dp554
g10
(lp555
g1
(g90
g3
NtRp556
(dp557
g82
Nsg83
S'token'
p558
sg15
Nsg19
g20
sg94
S'mojo_base.mojom.UnguessableToken'
p559
sg16
I286
sbasg16
I286
sg19
g20
sbsbag1
(g79
g3
NtRp560
(dp561
g82
Nsg83
S'ScheduleEmbedForExistingClient'
p562
sg85
g1
(g86
g3
NtRp563
(dp564
g10
(lp565
g1
(g90
g3
NtRp566
(dp567
g82
Nsg83
S'window_id'
p568
sg15
Nsg19
g20
sg94
S'uint32'
p569
sg16
I302
sbasg16
I302
sg19
g20
sbsg15
Nsg19
Nsg16
Nsg104
g1
(g86
g3
NtRp570
(dp571
g10
(lp572
g1
(g90
g3
NtRp573
(dp574
g82
Nsg83
S'token'
p575
sg15
Nsg19
g20
sg94
S'mojo_base.mojom.UnguessableToken'
p576
sg16
I303
sbasg16
I303
sg19
g20
sbsbag1
(g79
g3
NtRp577
(dp578
g82
Nsg83
S'EmbedUsingToken'
p579
sg85
g1
(g86
g3
NtRp580
(dp581
g10
(lp582
g1
(g90
g3
NtRp583
(dp584
g82
Nsg83
S'window_id'
p585
sg15
Nsg19
g20
sg94
S'uint64'
p586
sg16
I307
sbag1
(g90
g3
NtRp587
(dp588
g82
Nsg83
S'token'
p589
sg15
Nsg19
g20
sg94
S'mojo_base.mojom.UnguessableToken'
p590
sg16
I308
sbag1
(g90
g3
NtRp591
(dp592
g82
Nsg83
S'embed_flags'
p593
sg15
Nsg19
g20
sg94
S'uint32'
p594
sg16
I309
sbasg16
I307
sg19
g20
sbsg15
Nsg19
Nsg16
Nsg104
g1
(g86
g3
NtRp595
(dp596
g10
(lp597
g1
(g90
g3
NtRp598
(dp599
g82
Nsg83
S'success'
p600
sg15
Nsg19
g20
sg94
S'bool'
p601
sg16
I310
sbasg16
I310
sg19
g20
sbsbag1
(g79
g3
NtRp602
(dp603
g82
Nsg83
S'AttachFrameSinkId'
p604
sg85
g1
(g86
g3
NtRp605
(dp606
g10
(lp607
g1
(g90
g3
NtRp608
(dp609
g82
Nsg83
S'window_id'
p610
sg15
Nsg19
g20
sg94
S'uint64'
p611
sg16
I314
sbag1
(g90
g3
NtRp612
(dp613
g82
Nsg83
S'frame_sink_id'
p614
sg15
Nsg19
g20
sg94
S'viz.mojom.FrameSinkId'
p615
sg16
I315
sbasg16
I314
sg19
g20
sbsg15
Nsg19
Nsg16
Nsg104
Nsbag1
(g79
g3
NtRp616
(dp617
g82
Nsg83
S'UnattachFrameSinkId'
p618
sg85
g1
(g86
g3
NtRp619
(dp620
g10
(lp621
g1
(g90
g3
NtRp622
(dp623
g82
Nsg83
S'window_id'
p624
sg15
Nsg19
g20
sg94
S'uint64'
p625
sg16
I316
sbasg16
I316
sg19
g20
sbsg15
Nsg19
Nsg16
Nsg104
Nsbag1
(g79
g3
NtRp626
(dp627
g82
Nsg83
S'SetFocus'
p628
sg85
g1
(g86
g3
NtRp629
(dp630
g10
(lp631
g1
(g90
g3
NtRp632
(dp633
g82
Nsg83
S'change_id'
p634
sg15
Nsg19
g20
sg94
S'uint32'
p635
sg16
I323
sbag1
(g90
g3
NtRp636
(dp637
g82
Nsg83
S'window_id'
p638
sg15
Nsg19
g20
sg94
S'uint64'
p639
sg16
I323
sbasg16
I323
sg19
g20
sbsg15
Nsg19
Nsg16
Nsg104
Nsbag1
(g79
g3
NtRp640
(dp641
g82
Nsg83
S'SetCanFocus'
p642
sg85
g1
(g86
g3
NtRp643
(dp644
g10
(lp645
g1
(g90
g3
NtRp646
(dp647
g82
Nsg83
S'window_id'
p648
sg15
Nsg19
g20
sg94
S'uint64'
p649
sg16
I326
sbag1
(g90
g3
NtRp650
(dp651
g82
Nsg83
S'can_focus'
p652
sg15
Nsg19
g20
sg94
S'bool'
p653
sg16
I326
sbasg16
I326
sg19
g20
sbsg15
Nsg19
Nsg16
Nsg104
Nsbag1
(g79
g3
NtRp654
(dp655
g82
Nsg83
S'SetCursor'
p656
sg85
g1
(g86
g3
NtRp657
(dp658
g10
(lp659
g1
(g90
g3
NtRp660
(dp661
g82
Nsg83
S'change_id'
p662
sg15
Nsg19
g20
sg94
S'uint32'
p663
sg16
I329
sbag1
(g90
g3
NtRp664
(dp665
g82
Nsg83
S'window_id'
p666
sg15
Nsg19
g20
sg94
S'uint64'
p667
sg16
I329
sbag1
(g90
g3
NtRp668
(dp669
g82
Nsg83
S'cursor'
p670
sg15
Nsg19
g20
sg94
S'ui.mojom.Cursor'
p671
sg16
I329
sbasg16
I329
sg19
g20
sbsg15
Nsg19
Nsg16
Nsg104
Nsbag1
(g79
g3
NtRp672
(dp673
g82
Nsg83
S'SetWindowTextInputState'
p674
sg85
g1
(g86
g3
NtRp675
(dp676
g10
(lp677
g1
(g90
g3
NtRp678
(dp679
g82
Nsg83
S'window_id'
p680
sg15
Nsg19
g20
sg94
S'uint64'
p681
sg16
I332
sbag1
(g90
g3
NtRp682
(dp683
g82
Nsg83
S'state'
p684
sg15
Nsg19
g20
sg94
S'ui.mojom.TextInputState'
p685
sg16
I332
sbasg16
I332
sg19
g20
sbsg15
Nsg19
Nsg16
Nsg104
Nsbag1
(g79
g3
NtRp686
(dp687
g82
Nsg83
S'SetImeVisibility'
p688
sg85
g1
(g86
g3
NtRp689
(dp690
g10
(lp691
g1
(g90
g3
NtRp692
(dp693
g82
Nsg83
S'window_id'
p694
sg15
Nsg19
g20
sg94
S'uint64'
p695
sg16
I337
sbag1
(g90
g3
NtRp696
(dp697
g82
Nsg83
S'visible'
p698
sg15
Nsg19
g20
sg94
S'bool'
p699
sg16
I338
sbag1
(g90
g3
NtRp700
(dp701
g82
Nsg83
S'state'
p702
sg15
Nsg19
g20
sg94
S'ui.mojom.TextInputState?'
p703
sg16
I339
sbasg16
I337
sg19
g20
sbsg15
Nsg19
Nsg16
Nsg104
Nsbag1
(g79
g3
NtRp704
(dp705
g82
Nsg83
S'SetEventTargetingPolicy'
p706
sg85
g1
(g86
g3
NtRp707
(dp708
g10
(lp709
g1
(g90
g3
NtRp710
(dp711
g82
Nsg83
S'window_id'
p712
sg15
Nsg19
g20
sg94
S'uint64'
p713
sg16
I342
sbag1
(g90
g3
NtRp714
(dp715
g82
Nsg83
S'policy'
p716
sg15
Nsg19
g20
sg94
S'EventTargetingPolicy'
p717
sg16
I342
sbasg16
I342
sg19
g20
sbsg15
Nsg19
Nsg16
Nsg104
Nsbag1
(g79
g3
NtRp718
(dp719
g82
Nsg83
S'OnWindowInputEventAck'
p720
sg85
g1
(g86
g3
NtRp721
(dp722
g10
(lp723
g1
(g90
g3
NtRp724
(dp725
g82
Nsg83
S'event_id'
p726
sg15
Nsg19
g20
sg94
S'uint32'
p727
sg16
I345
sbag1
(g90
g3
NtRp728
(dp729
g82
Nsg83
S'result'
p730
sg15
Nsg19
g20
sg94
S'EventResult'
p731
sg16
I345
sbasg16
I345
sg19
g20
sbsg15
Nsg19
Nsg16
Nsg104
Nsbag1
(g79
g3
NtRp732
(dp733
g82
Nsg83
S'DeactivateWindow'
p734
sg85
g1
(g86
g3
NtRp735
(dp736
g10
(lp737
g1
(g90
g3
NtRp738
(dp739
g82
Nsg83
S'window_id'
p740
sg15
Nsg19
g20
sg94
S'uint64'
p741
sg16
I349
sbasg16
I349
sg19
g20
sbsg15
Nsg19
Nsg16
Nsg104
Nsbag1
(g79
g3
NtRp742
(dp743
g82
Nsg83
S'StackAbove'
p744
sg85
g1
(g86
g3
NtRp745
(dp746
g10
(lp747
g1
(g90
g3
NtRp748
(dp749
g82
Nsg83
S'change_id'
p750
sg15
Nsg19
g20
sg94
S'uint32'
p751
sg16
I355
sbag1
(g90
g3
NtRp752
(dp753
g82
Nsg83
S'above_id'
p754
sg15
Nsg19
g20
sg94
S'uint64'
p755
sg16
I355
sbag1
(g90
g3
NtRp756
(dp757
g82
Nsg83
S'below_id'
p758
sg15
Nsg19
g20
sg94
S'uint64'
p759
sg16
I355
sbasg16
I355
sg19
g20
sbsg15
Nsg19
Nsg16
Nsg104
Nsbag1
(g79
g3
NtRp760
(dp761
g82
Nsg83
S'StackAtTop'
p762
sg85
g1
(g86
g3
NtRp763
(dp764
g10
(lp765
g1
(g90
g3
NtRp766
(dp767
g82
Nsg83
S'change_id'
p768
sg15
Nsg19
g20
sg94
S'uint32'
p769
sg16
I358
sbag1
(g90
g3
NtRp770
(dp771
g82
Nsg83
S'window_id'
p772
sg15
Nsg19
g20
sg94
S'uint64'
p773
sg16
I358
sbasg16
I358
sg19
g20
sbsg15
Nsg19
Nsg16
Nsg104
Nsbag1
(g79
g3
NtRp774
(dp775
g82
Nsg83
S'BindWindowManagerInterface'
p776
sg85
g1
(g86
g3
NtRp777
(dp778
g10
(lp779
g1
(g90
g3
NtRp780
(dp781
g82
Nsg83
S'name'
p782
sg15
Nsg19
g20
sg94
S'string'
p783
sg16
I366
sbag1
(g90
g3
NtRp784
(dp785
g82
Nsg83
S'window_manager'
p786
sg15
Nsg19
g20
sg94
S'asso<WindowManager&>'
p787
sg16
I367
sbasg16
I366
sg19
g20
sbsg15
Nsg19
Nsg16
Nsg104
Nsbag1
(g79
g3
NtRp788
(dp789
g82
Nsg83
S'GetCursorLocationMemory'
p790
sg85
g1
(g86
g3
NtRp791
(dp792
g10
(lp793
sg16
Nsg19
Nsbsg15
Nsg19
Nsg16
Nsg104
g1
(g86
g3
NtRp794
(dp795
g10
(lp796
g1
(g90
g3
NtRp797
(dp798
g82
Nsg83
S'cursor_buffer'
p799
sg15
Nsg19
g20
sg94
S'handle<shared_buffer>'
p800
sg16
I372
sbasg16
I372
sg19
g20
sbsbag1
(g79
g3
NtRp801
(dp802
g82
Nsg83
S'PerformWindowMove'
p803
sg85
g1
(g86
g3
NtRp804
(dp805
g10
(lp806
g1
(g90
g3
NtRp807
(dp808
g82
Nsg83
S'change_id'
p809
sg15
Nsg19
g20
sg94
S'uint32'
p810
sg16
I380
sbag1
(g90
g3
NtRp811
(dp812
g82
Nsg83
S'window_id'
p813
sg15
Nsg19
g20
sg94
S'uint64'
p814
sg16
I380
sbag1
(g90
g3
NtRp815
(dp816
g82
Nsg83
S'source'
p817
sg15
Nsg19
g20
sg94
S'MoveLoopSource'
p818
sg16
I380
sbag1
(g90
g3
NtRp819
(dp820
g82
Nsg83
S'cursor'
p821
sg15
Nsg19
g20
sg94
S'gfx.mojom.Point'
p822
sg16
I381
sbag1
(g90
g3
NtRp823
(dp824
g82
Nsg83
S'hit_test'
p825
sg15
Nsg19
g20
sg94
S'ui.mojom.HitTest'
p826
sg16
I381
sbasg16
I380
sg19
g20
sbsg15
Nsg19
Nsg16
Nsg104
Nsbag1
(g79
g3
NtRp827
(dp828
g82
Nsg83
S'CancelWindowMove'
p829
sg85
g1
(g86
g3
NtRp830
(dp831
g10
(lp832
g1
(g90
g3
NtRp833
(dp834
g82
Nsg83
S'window_id'
p835
sg15
Nsg19
g20
sg94
S'uint64'
p836
sg16
I385
sbasg16
I385
sg19
g20
sbsg15
Nsg19
Nsg16
Nsg104
Nsbag1
(g79
g3
NtRp837
(dp838
g82
Nsg83
S'PerformDragDrop'
p839
sg85
g1
(g86
g3
NtRp840
(dp841
g10
(lp842
g1
(g90
g3
NtRp843
(dp844
g82
Nsg83
S'change_id'
p845
sg15
Nsg19
g20
sg94
S'uint32'
p846
sg16
I394
sbag1
(g90
g3
NtRp847
(dp848
g82
Nsg83
S'source_window_id'
p849
sg15
Nsg19
g20
sg94
S'uint64'
p850
sg16
I395
sbag1
(g90
g3
NtRp851
(dp852
g82
Nsg83
S'screen_location'
p853
sg15
Nsg19
g20
sg94
S'gfx.mojom.Point'
p854
sg16
I396
sbag1
(g90
g3
NtRp855
(dp856
g82
Nsg83
S'drag_data'
p857
sg15
Nsg19
g20
sg94
S'uint8[]{string}'
p858
sg16
I397
sbag1
(g90
g3
NtRp859
(dp860
g82
Nsg83
S'drag_image'
p861
sg15
Nsg19
g20
sg94
S'gfx.mojom.ImageSkia?'
p862
sg16
I398
sbag1
(g90
g3
NtRp863
(dp864
g82
Nsg83
S'drag_image_offset'
p865
sg15
Nsg19
g20
sg94
S'gfx.mojom.Vector2d'
p866
sg16
I399
sbag1
(g90
g3
NtRp867
(dp868
g82
Nsg83
S'drag_operation'
p869
sg15
Nsg19
g20
sg94
S'uint32'
p870
sg16
I400
sbag1
(g90
g3
NtRp871
(dp872
g82
Nsg83
S'source'
p873
sg15
Nsg19
g20
sg94
S'ui.mojom.PointerKind'
p874
sg16
I401
sbasg16
I394
sg19
g20
sbsg15
Nsg19
Nsg16
Nsg104
Nsbag1
(g79
g3
NtRp875
(dp876
g82
Nsg83
S'CancelDragDrop'
p877
sg85
g1
(g86
g3
NtRp878
(dp879
g10
(lp880
g1
(g90
g3
NtRp881
(dp882
g82
Nsg83
S'window_id'
p883
sg15
Nsg19
g20
sg94
S'uint64'
p884
sg16
I405
sbasg16
I405
sg19
g20
sbsg15
Nsg19
Nsg16
Nsg104
Nsbag1
(g79
g3
NtRp885
(dp886
g82
Nsg83
S'ObserveTopmostWindow'
p887
sg85
g1
(g86
g3
NtRp888
(dp889
g10
(lp890
g1
(g90
g3
NtRp891
(dp892
g82
Nsg83
S'source'
p893
sg15
Nsg19
g20
sg94
S'MoveLoopSource'
p894
sg16
I412
sbag1
(g90
g3
NtRp895
(dp896
g82
Nsg83
S'window_id'
p897
sg15
Nsg19
g20
sg94
S'uint64'
p898
sg16
I412
sbasg16
I412
sg19
g20
sbsg15
Nsg19
Nsg16
Nsg104
Nsbag1
(g79
g3
NtRp899
(dp900
g82
Nsg83
S'StopObservingTopmostWindow'
p901
sg85
g1
(g86
g3
NtRp902
(dp903
g10
(lp904
sg16
Nsg19
Nsbsg15
Nsg19
Nsg16
Nsg104
Nsbag1
(g79
g3
NtRp905
(dp906
g82
Nsg83
S'SetWindowResizeShadow'
p907
sg85
g1
(g86
g3
NtRp908
(dp909
g10
(lp910
g1
(g90
g3
NtRp911
(dp912
g82
Nsg83
S'window_id'
p913
sg15
Nsg19
g20
sg94
S'uint64'
p914
sg16
I420
sbag1
(g90
g3
NtRp915
(dp916
g82
Nsg83
S'hit_test'
p917
sg15
Nsg19
g20
sg94
S'ui.mojom.HitTest'
p918
sg16
I420
sbasg16
I420
sg19
g20
sbsg15
Nsg19
Nsg16
Nsg104
Nsbag1
(g79
g3
NtRp919
(dp920
g82
Nsg83
S'CancelActiveTouchesExcept'
p921
sg85
g1
(g86
g3
NtRp922
(dp923
g10
(lp924
g1
(g90
g3
NtRp925
(dp926
g82
Nsg83
S'not_cancelled_window_id'
p927
sg15
Nsg19
g20
sg94
S'uint64'
p928
sg16
I426
sbasg16
I426
sg19
g20
sbsg15
Nsg19
Nsg16
Nsg104
Nsbag1
(g79
g3
NtRp929
(dp930
g82
Nsg83
S'CancelActiveTouches'
p931
sg85
g1
(g86
g3
NtRp932
(dp933
g10
(lp934
g1
(g90
g3
NtRp935
(dp936
g82
Nsg83
S'window_id'
p937
sg15
Nsg19
g20
sg94
S'uint64'
p938
sg16
I429
sbasg16
I429
sg19
g20
sbsg15
Nsg19
Nsg16
Nsg104
Nsbag1
(g79
g3
NtRp939
(dp940
g82
Nsg83
S'TransferGestureEventsTo'
p941
sg85
g1
(g86
g3
NtRp942
(dp943
g10
(lp944
g1
(g90
g3
NtRp945
(dp946
g82
Nsg83
S'current_id'
p947
sg15
Nsg19
g20
sg94
S'uint64'
p948
sg16
I436
sbag1
(g90
g3
NtRp949
(dp950
g82
Nsg83
S'new_id'
p951
sg15
Nsg19
g20
sg94
S'uint64'
p952
sg16
I436
sbag1
(g90
g3
NtRp953
(dp954
g82
Nsg83
S'should_cancel'
p955
sg15
Nsg19
g20
sg94
S'bool'
p956
sg16
I436
sbasg16
I436
sg19
g20
sbsg15
Nsg19
Nsg16
Nsg104
Nsbag1
(g79
g3
NtRp957
(dp958
g82
Nsg83
S'TrackOcclusionState'
p959
sg85
g1
(g86
g3
NtRp960
(dp961
g10
(lp962
g1
(g90
g3
NtRp963
(dp964
g82
Nsg83
S'window_id'
p965
sg15
Nsg19
g20
sg94
S'uint64'
p966
sg16
I439
sbasg16
I439
sg19
g20
sbsg15
Nsg19
Nsg16
Nsg104
Nsbag1
(g79
g3
NtRp967
(dp968
g82
Nsg83
S'PauseWindowOcclusionTracking'
p969
sg85
g1
(g86
g3
NtRp970
(dp971
g10
(lp972
sg16
Nsg19
Nsbsg15
Nsg19
Nsg16
Nsg104
Nsbag1
(g79
g3
NtRp973
(dp974
g82
Nsg83
S'UnpauseWindowOcclusionTracking'
p975
sg85
g1
(g86
g3
NtRp976
(dp977
g10
(lp978
sg16
Nsg19
Nsbsg15
Nsg19
Nsg16
Nsg104
Nsbag1
(g79
g3
NtRp979
(dp980
g82
Nsg83
S'ConnectToImeEngine'
p981
sg85
g1
(g86
g3
NtRp982
(dp983
g10
(lp984
g1
(g90
g3
NtRp985
(dp986
g82
Nsg83
S'engine_request'
p987
sg15
Nsg19
g20
sg94
S'ime.mojom.ImeEngine&'
p988
sg16
I456
sbag1
(g90
g3
NtRp989
(dp990
g82
Nsg83
S'client'
p991
sg15
Nsg19
g20
sg94
S'ime.mojom.ImeEngineClient'
p992
sg16
I457
sbasg16
I456
sg19
g20
sbsg15
Nsg19
Nsg16
Nsg104
Nsbasg16
Nsg19
Nsbsg15
Nsg16
Nsg83
S'WindowTree'
p993
sg19
Nsbag1
(g71
g3
NtRp994
(dp995
g74
g1
(g75
g3
NtRp996
(dp997
g10
(lp998
g1
(g79
g3
NtRp999
(dp1000
g82
Nsg83
S'OnClientId'
p1001
sg85
g1
(g86
g3
NtRp1002
(dp1003
g10
(lp1004
g1
(g90
g3
NtRp1005
(dp1006
g82
Nsg83
S'client_id'
p1007
sg15
Nsg19
g20
sg94
S'uint32'
p1008
sg16
I468
sbasg16
I468
sg19
g20
sbsg15
Nsg19
Nsg16
Nsg104
Nsbag1
(g79
g3
NtRp1009
(dp1010
g82
Nsg83
S'OnEmbed'
p1011
sg85
g1
(g86
g3
NtRp1012
(dp1013
g10
(lp1014
g1
(g90
g3
NtRp1015
(dp1016
g82
Nsg83
S'root'
p1017
sg15
Nsg19
g20
sg94
S'WindowData'
p1018
sg16
I477
sbag1
(g90
g3
NtRp1019
(dp1020
g82
Nsg83
S'tree'
p1021
sg15
Nsg19
g20
sg94
S'WindowTree?'
p1022
sg16
I478
sbag1
(g90
g3
NtRp1023
(dp1024
g82
Nsg83
S'display_id'
p1025
sg15
Nsg19
g20
sg94
S'int64'
p1026
sg16
I479
sbag1
(g90
g3
NtRp1027
(dp1028
g82
Nsg83
S'focused_window'
p1029
sg15
Nsg19
g20
sg94
S'uint64'
p1030
sg16
I480
sbag1
(g90
g3
NtRp1031
(dp1032
g82
Nsg83
S'parent_drawn'
p1033
sg15
Nsg19
g20
sg94
S'bool'
p1034
sg16
I481
sbag1
(g90
g3
NtRp1035
(dp1036
g82
Nsg83
S'local_surface_id_allocation'
p1037
sg15
Nsg19
g20
sg94
S'viz.mojom.LocalSurfaceIdAllocation?'
p1038
sg16
I482
sbasg16
I477
sg19
g20
sbsg15
Nsg19
Nsg16
Nsg104
Nsbag1
(g79
g3
NtRp1039
(dp1040
g82
Nsg83
S'OnEmbedFromToken'
p1041
sg85
g1
(g86
g3
NtRp1042
(dp1043
g10
(lp1044
g1
(g90
g3
NtRp1045
(dp1046
g82
Nsg83
S'token'
p1047
sg15
Nsg19
g20
sg94
S'mojo_base.mojom.UnguessableToken'
p1048
sg16
I487
sbag1
(g90
g3
NtRp1049
(dp1050
g82
Nsg83
S'root'
p1051
sg15
Nsg19
g20
sg94
S'WindowData'
p1052
sg16
I488
sbag1
(g90
g3
NtRp1053
(dp1054
g82
Nsg83
S'display_id'
p1055
sg15
Nsg19
g20
sg94
S'int64'
p1056
sg16
I489
sbag1
(g90
g3
NtRp1057
(dp1058
g82
Nsg83
S'local_surface_id_allocation'
p1059
sg15
Nsg19
g20
sg94
S'viz.mojom.LocalSurfaceIdAllocation?'
p1060
sg16
I490
sbasg16
I487
sg19
g20
sbsg15
Nsg19
Nsg16
Nsg104
Nsbag1
(g79
g3
NtRp1061
(dp1062
g82
Nsg83
S'OnEmbeddedAppDisconnected'
p1063
sg85
g1
(g86
g3
NtRp1064
(dp1065
g10
(lp1066
g1
(g90
g3
NtRp1067
(dp1068
g82
Nsg83
S'window'
p1069
sg15
Nsg19
g20
sg94
S'uint64'
p1070
sg16
I496
sbasg16
I496
sg19
g20
sbsg15
Nsg19
Nsg16
Nsg104
Nsbag1
(g79
g3
NtRp1071
(dp1072
g82
Nsg83
S'OnUnembed'
p1073
sg85
g1
(g86
g3
NtRp1074
(dp1075
g10
(lp1076
g1
(g90
g3
NtRp1077
(dp1078
g82
Nsg83
S'window'
p1079
sg15
Nsg19
g20
sg94
S'uint64'
p1080
sg16
I500
sbasg16
I500
sg19
g20
sbsg15
Nsg19
Nsg16
Nsg104
Nsbag1
(g79
g3
NtRp1081
(dp1082
g82
Nsg83
S'OnCaptureChanged'
p1083
sg85
g1
(g86
g3
NtRp1084
(dp1085
g10
(lp1086
g1
(g90
g3
NtRp1087
(dp1088
g82
Nsg83
S'new_capture'
p1089
sg15
Nsg19
g20
sg94
S'uint64'
p1090
sg16
I504
sbag1
(g90
g3
NtRp1091
(dp1092
g82
Nsg83
S'old_capture'
p1093
sg15
Nsg19
g20
sg94
S'uint64'
p1094
sg16
I504
sbasg16
I504
sg19
g20
sbsg15
Nsg19
Nsg16
Nsg104
Nsbag1
(g79
g3
NtRp1095
(dp1096
g82
Nsg83
S'OnFrameSinkIdAllocated'
p1097
sg85
g1
(g86
g3
NtRp1098
(dp1099
g10
(lp1100
g1
(g90
g3
NtRp1101
(dp1102
g82
Nsg83
S'window'
p1103
sg15
Nsg19
g20
sg94
S'uint64'
p1104
sg16
I509
sbag1
(g90
g3
NtRp1105
(dp1106
g82
Nsg83
S'frame_sink_id'
p1107
sg15
Nsg19
g20
sg94
S'viz.mojom.FrameSinkId'
p1108
sg16
I509
sbasg16
I509
sg19
g20
sbsg15
Nsg19
Nsg16
Nsg104
Nsbag1
(g79
g3
NtRp1109
(dp1110
g82
Nsg83
S'OnTopLevelCreated'
p1111
sg85
g1
(g86
g3
NtRp1112
(dp1113
g10
(lp1114
g1
(g90
g3
NtRp1115
(dp1116
g82
Nsg83
S'change_id'
p1117
sg15
Nsg19
g20
sg94
S'uint32'
p1118
sg16
I516
sbag1
(g90
g3
NtRp1119
(dp1120
g82
Nsg83
S'data'
p1121
sg15
Nsg19
g20
sg94
S'WindowData'
p1122
sg16
I517
sbag1
(g90
g3
NtRp1123
(dp1124
g82
Nsg83
S'display_id'
p1125
sg15
Nsg19
g20
sg94
S'int64'
p1126
sg16
I518
sbag1
(g90
g3
NtRp1127
(dp1128
g82
Nsg83
S'parent_drawn'
p1129
sg15
Nsg19
g20
sg94
S'bool'
p1130
sg16
I519
sbag1
(g90
g3
NtRp1131
(dp1132
g82
Nsg83
S'local_surface_id_allocation'
p1133
sg15
Nsg19
g20
sg94
S'viz.mojom.LocalSurfaceIdAllocation'
p1134
sg16
I520
sbasg16
I516
sg19
g20
sbsg15
Nsg19
Nsg16
Nsg104
Nsbag1
(g79
g3
NtRp1135
(dp1136
g82
Nsg83
S'OnWindowBoundsChanged'
p1137
sg85
g1
(g86
g3
NtRp1138
(dp1139
g10
(lp1140
g1
(g90
g3
NtRp1141
(dp1142
g82
Nsg83
S'window'
p1143
sg15
Nsg19
g20
sg94
S'uint64'
p1144
sg16
I527
sbag1
(g90
g3
NtRp1145
(dp1146
g82
Nsg83
S'new_bounds'
p1147
sg15
Nsg19
g20
sg94
S'gfx.mojom.Rect'
p1148
sg16
I528
sbag1
(g90
g3
NtRp1149
(dp1150
g82
Nsg83
S'state'
p1151
sg15
Nsg19
g20
sg94
S'ui.mojom.WindowShowState'
p1152
sg16
I529
sbag1
(g90
g3
NtRp1153
(dp1154
g82
Nsg83
S'local_surface_id_allocation'
p1155
sg15
Nsg19
g20
sg94
S'viz.mojom.LocalSurfaceIdAllocation?'
p1156
sg16
I530
sbasg16
I527
sg19
g20
sbsg15
Nsg19
Nsg16
Nsg104
Nsbag1
(g79
g3
NtRp1157
(dp1158
g82
Nsg83
S'OnWindowTransformChanged'
p1159
sg85
g1
(g86
g3
NtRp1160
(dp1161
g10
(lp1162
g1
(g90
g3
NtRp1163
(dp1164
g82
Nsg83
S'window'
p1165
sg15
Nsg19
g20
sg94
S'uint64'
p1166
sg16
I532
sbag1
(g90
g3
NtRp1167
(dp1168
g82
Nsg83
S'new_transform'
p1169
sg15
Nsg19
g20
sg94
S'gfx.mojom.Transform'
p1170
sg16
I533
sbasg16
I532
sg19
g20
sbsg15
Nsg19
Nsg16
Nsg104
Nsbag1
(g79
g3
NtRp1171
(dp1172
g82
Nsg83
S'OnTransientWindowAdded'
p1173
sg85
g1
(g86
g3
NtRp1174
(dp1175
g10
(lp1176
g1
(g90
g3
NtRp1177
(dp1178
g82
Nsg83
S'window_id'
p1179
sg15
Nsg19
g20
sg94
S'uint64'
p1180
sg16
I535
sbag1
(g90
g3
NtRp1181
(dp1182
g82
Nsg83
S'transient_window_id'
p1183
sg15
Nsg19
g20
sg94
S'uint64'
p1184
sg16
I536
sbasg16
I535
sg19
g20
sbsg15
Nsg19
Nsg16
Nsg104
Nsbag1
(g79
g3
NtRp1185
(dp1186
g82
Nsg83
S'OnTransientWindowRemoved'
p1187
sg85
g1
(g86
g3
NtRp1188
(dp1189
g10
(lp1190
g1
(g90
g3
NtRp1191
(dp1192
g82
Nsg83
S'window_id'
p1193
sg15
Nsg19
g20
sg94
S'uint64'
p1194
sg16
I538
sbag1
(g90
g3
NtRp1195
(dp1196
g82
Nsg83
S'transient_window_id'
p1197
sg15
Nsg19
g20
sg94
S'uint64'
p1198
sg16
I539
sbasg16
I538
sg19
g20
sbsg15
Nsg19
Nsg16
Nsg104
Nsbag1
(g79
g3
NtRp1199
(dp1200
g82
Nsg83
S'OnWindowHierarchyChanged'
p1201
sg85
g1
(g86
g3
NtRp1202
(dp1203
g10
(lp1204
g1
(g90
g3
NtRp1205
(dp1206
g82
Nsg83
S'window'
p1207
sg15
Nsg19
g20
sg94
S'uint64'
p1208
sg16
I551
sbag1
(g90
g3
NtRp1209
(dp1210
g82
Nsg83
S'old_parent'
p1211
sg15
Nsg19
g20
sg94
S'uint64'
p1212
sg16
I552
sbag1
(g90
g3
NtRp1213
(dp1214
g82
Nsg83
S'new_parent'
p1215
sg15
Nsg19
g20
sg94
S'uint64'
p1216
sg16
I553
sbag1
(g90
g3
NtRp1217
(dp1218
g82
Nsg83
S'windows'
p1219
sg15
Nsg19
g20
sg94
S'WindowData[]'
p1220
sg16
I554
sbasg16
I551
sg19
g20
sbsg15
Nsg19
Nsg16
Nsg104
Nsbag1
(g79
g3
NtRp1221
(dp1222
g82
Nsg83
S'OnWindowReordered'
p1223
sg85
g1
(g86
g3
NtRp1224
(dp1225
g10
(lp1226
g1
(g90
g3
NtRp1227
(dp1228
g82
Nsg83
S'window_id'
p1229
sg15
Nsg19
g20
sg94
S'uint64'
p1230
sg16
I557
sbag1
(g90
g3
NtRp1231
(dp1232
g82
Nsg83
S'relative_window_id'
p1233
sg15
Nsg19
g20
sg94
S'uint64'
p1234
sg16
I558
sbag1
(g90
g3
NtRp1235
(dp1236
g82
Nsg83
S'direction'
p1237
sg15
Nsg19
g20
sg94
S'OrderDirection'
p1238
sg16
I559
sbasg16
I557
sg19
g20
sbsg15
Nsg19
Nsg16
Nsg104
Nsbag1
(g79
g3
NtRp1239
(dp1240
g82
Nsg83
S'OnWindowDeleted'
p1241
sg85
g1
(g86
g3
NtRp1242
(dp1243
g10
(lp1244
g1
(g90
g3
NtRp1245
(dp1246
g82
Nsg83
S'window'
p1247
sg15
Nsg19
g20
sg94
S'uint64'
p1248
sg16
I562
sbasg16
I562
sg19
g20
sbsg15
Nsg19
Nsg16
Nsg104
Nsbag1
(g79
g3
NtRp1249
(dp1250
g82
Nsg83
S'OnWindowVisibilityChanged'
p1251
sg85
g1
(g86
g3
NtRp1252
(dp1253
g10
(lp1254
g1
(g90
g3
NtRp1255
(dp1256
g82
Nsg83
S'window'
p1257
sg15
Nsg19
g20
sg94
S'uint64'
p1258
sg16
I565
sbag1
(g90
g3
NtRp1259
(dp1260
g82
Nsg83
S'visible'
p1261
sg15
Nsg19
g20
sg94
S'bool'
p1262
sg16
I565
sbasg16
I565
sg19
g20
sbsg15
Nsg19
Nsg16
Nsg104
Nsbag1
(g79
g3
NtRp1263
(dp1264
g82
Nsg83
S'OnWindowDisplayChanged'
p1265
sg85
g1
(g86
g3
NtRp1266
(dp1267
g10
(lp1268
g1
(g90
g3
NtRp1269
(dp1270
g82
Nsg83
S'window'
p1271
sg15
Nsg19
g20
sg94
S'uint64'
p1272
sg16
I569
sbag1
(g90
g3
NtRp1273
(dp1274
g82
Nsg83
S'display_id'
p1275
sg15
Nsg19
g20
sg94
S'int64'
p1276
sg16
I569
sbasg16
I569
sg19
g20
sbsg15
Nsg19
Nsg16
Nsg104
Nsbag1
(g79
g3
NtRp1277
(dp1278
g82
Nsg83
S'OnWindowParentDrawnStateChanged'
p1279
sg85
g1
(g86
g3
NtRp1280
(dp1281
g10
(lp1282
g1
(g90
g3
NtRp1283
(dp1284
g82
Nsg83
S'window'
p1285
sg15
Nsg19
g20
sg94
S'uint64'
p1286
sg16
I581
sbag1
(g90
g3
NtRp1287
(dp1288
g82
Nsg83
S'drawn'
p1289
sg15
Nsg19
g20
sg94
S'bool'
p1290
sg16
I581
sbasg16
I581
sg19
g20
sbsg15
Nsg19
Nsg16
Nsg104
Nsbag1
(g79
g3
NtRp1291
(dp1292
g82
Nsg83
S'OnWindowSharedPropertyChanged'
p1293
sg85
g1
(g86
g3
NtRp1294
(dp1295
g10
(lp1296
g1
(g90
g3
NtRp1297
(dp1298
g82
Nsg83
S'window'
p1299
sg15
Nsg19
g20
sg94
S'uint64'
p1300
sg16
I585
sbag1
(g90
g3
NtRp1301
(dp1302
g82
Nsg83
S'name'
p1303
sg15
Nsg19
g20
sg94
S'string'
p1304
sg16
I586
sbag1
(g90
g3
NtRp1305
(dp1306
g82
Nsg83
S'new_data'
p1307
sg15
Nsg19
g20
sg94
S'uint8[]?'
p1308
sg16
I587
sbasg16
I585
sg19
g20
sbsg15
Nsg19
Nsg16
Nsg104
Nsbag1
(g79
g3
NtRp1309
(dp1310
g82
Nsg83
S'OnWindowInputEvent'
p1311
sg85
g1
(g86
g3
NtRp1312
(dp1313
g10
(lp1314
g1
(g90
g3
NtRp1315
(dp1316
g82
Nsg83
S'event_id'
p1317
sg15
Nsg19
g20
sg94
S'uint32'
p1318
sg16
I595
sbag1
(g90
g3
NtRp1319
(dp1320
g82
Nsg83
S'window'
p1321
sg15
Nsg19
g20
sg94
S'uint64'
p1322
sg16
I596
sbag1
(g90
g3
NtRp1323
(dp1324
g82
Nsg83
S'display_id'
p1325
sg15
Nsg19
g20
sg94
S'int64'
p1326
sg16
I597
sbag1
(g90
g3
NtRp1327
(dp1328
g82
Nsg83
S'event'
p1329
sg15
Nsg19
g20
sg94
S'ui.mojom.Event'
p1330
sg16
I598
sbag1
(g90
g3
NtRp1331
(dp1332
g82
Nsg83
S'matches_event_observer'
p1333
sg15
Nsg19
g20
sg94
S'bool'
p1334
sg16
I599
sbasg16
I595
sg19
g20
sbsg15
Nsg19
Nsg16
Nsg104
Nsbag1
(g79
g3
NtRp1335
(dp1336
g82
Nsg83
S'OnObservedInputEvent'
p1337
sg85
g1
(g86
g3
NtRp1338
(dp1339
g10
(lp1340
g1
(g90
g3
NtRp1341
(dp1342
g82
Nsg83
S'event'
p1343
sg15
Nsg19
g20
sg94
S'ui.mojom.Event'
p1344
sg16
I605
sbasg16
I605
sg19
g20
sbsg15
Nsg19
Nsg16
Nsg104
Nsbag1
(g79
g3
NtRp1345
(dp1346
g82
Nsg83
S'OnWindowFocused'
p1347
sg85
g1
(g86
g3
NtRp1348
(dp1349
g10
(lp1350
g1
(g90
g3
NtRp1351
(dp1352
g82
Nsg83
S'focused_window_id'
p1353
sg15
Nsg19
g20
sg94
S'uint64'
p1354
sg16
I612
sbasg16
I612
sg19
g20
sbsg15
Nsg19
Nsg16
Nsg104
Nsbag1
(g79
g3
NtRp1355
(dp1356
g82
Nsg83
S'OnWindowCursorChanged'
p1357
sg85
g1
(g86
g3
NtRp1358
(dp1359
g10
(lp1360
g1
(g90
g3
NtRp1361
(dp1362
g82
Nsg83
S'window_id'
p1363
sg15
Nsg19
g20
sg94
S'uint64'
p1364
sg16
I614
sbag1
(g90
g3
NtRp1365
(dp1366
g82
Nsg83
S'cursor'
p1367
sg15
Nsg19
g20
sg94
S'ui.mojom.Cursor'
p1368
sg16
I614
sbasg16
I614
sg19
g20
sbsg15
Nsg19
Nsg16
Nsg104
Nsbag1
(g79
g3
NtRp1369
(dp1370
g82
Nsg83
S'OnDragDropStart'
p1371
sg85
g1
(g86
g3
NtRp1372
(dp1373
g10
(lp1374
g1
(g90
g3
NtRp1375
(dp1376
g82
Nsg83
S'drag_data'
p1377
sg15
Nsg19
g20
sg94
S'uint8[]{string}'
p1378
sg16
I620
sbasg16
I620
sg19
g20
sbsg15
Nsg19
Nsg16
Nsg104
Nsbag1
(g79
g3
NtRp1379
(dp1380
g82
Nsg83
S'OnDragEnter'
p1381
sg85
g1
(g86
g3
NtRp1382
(dp1383
g10
(lp1384
g1
(g90
g3
NtRp1385
(dp1386
g82
Nsg83
S'window'
p1387
sg15
Nsg19
g20
sg94
S'uint64'
p1388
sg16
I628
sbag1
(g90
g3
NtRp1389
(dp1390
g82
Nsg83
S'key_state'
p1391
sg15
Nsg19
g20
sg94
S'uint32'
p1392
sg16
I629
sbag1
(g90
g3
NtRp1393
(dp1394
g82
Nsg83
S'location_in_root'
p1395
sg15
Nsg19
g20
sg94
S'gfx.mojom.PointF'
p1396
sg16
I630
sbag1
(g90
g3
NtRp1397
(dp1398
g82
Nsg83
S'location'
p1399
sg15
Nsg19
g20
sg94
S'gfx.mojom.PointF'
p1400
sg16
I631
sbag1
(g90
g3
NtRp1401
(dp1402
g82
Nsg83
S'effect_bitmask'
p1403
sg15
Nsg19
g20
sg94
S'uint32'
p1404
sg16
I632
sbasg16
I628
sg19
g20
sbsg15
Nsg19
Nsg16
Nsg104
g1
(g86
g3
NtRp1405
(dp1406
g10
(lp1407
g1
(g90
g3
NtRp1408
(dp1409
g82
Nsg83
S'supported_op_bitmask'
p1410
sg15
Nsg19
g20
sg94
S'uint32'
p1411
sg16
I632
sbasg16
I632
sg19
g20
sbsbag1
(g79
g3
NtRp1412
(dp1413
g82
Nsg83
S'OnDragOver'
p1414
sg85
g1
(g86
g3
NtRp1415
(dp1416
g10
(lp1417
g1
(g90
g3
NtRp1418
(dp1419
g82
Nsg83
S'window'
p1420
sg15
Nsg19
g20
sg94
S'uint64'
p1421
sg16
I637
sbag1
(g90
g3
NtRp1422
(dp1423
g82
Nsg83
S'key_state'
p1424
sg15
Nsg19
g20
sg94
S'uint32'
p1425
sg16
I638
sbag1
(g90
g3
NtRp1426
(dp1427
g82
Nsg83
S'location_in_root'
p1428
sg15
Nsg19
g20
sg94
S'gfx.mojom.PointF'
p1429
sg16
I639
sbag1
(g90
g3
NtRp1430
(dp1431
g82
Nsg83
S'location'
p1432
sg15
Nsg19
g20
sg94
S'gfx.mojom.PointF'
p1433
sg16
I640
sbag1
(g90
g3
NtRp1434
(dp1435
g82
Nsg83
S'effect_bitmask'
p1436
sg15
Nsg19
g20
sg94
S'uint32'
p1437
sg16
I641
sbasg16
I637
sg19
g20
sbsg15
Nsg19
Nsg16
Nsg104
g1
(g86
g3
NtRp1438
(dp1439
g10
(lp1440
g1
(g90
g3
NtRp1441
(dp1442
g82
Nsg83
S'supported_op_bitmask'
p1443
sg15
Nsg19
g20
sg94
S'uint32'
p1444
sg16
I641
sbasg16
I641
sg19
g20
sbsbag1
(g79
g3
NtRp1445
(dp1446
g82
Nsg83
S'OnDragLeave'
p1447
sg85
g1
(g86
g3
NtRp1448
(dp1449
g10
(lp1450
g1
(g90
g3
NtRp1451
(dp1452
g82
Nsg83
S'window'
p1453
sg15
Nsg19
g20
sg94
S'uint64'
p1454
sg16
I644
sbasg16
I644
sg19
g20
sbsg15
Nsg19
Nsg16
Nsg104
Nsbag1
(g79
g3
NtRp1455
(dp1456
g82
Nsg83
S'OnCompleteDrop'
p1457
sg85
g1
(g86
g3
NtRp1458
(dp1459
g10
(lp1460
g1
(g90
g3
NtRp1461
(dp1462
g82
Nsg83
S'window'
p1463
sg15
Nsg19
g20
sg94
S'uint64'
p1464
sg16
I648
sbag1
(g90
g3
NtRp1465
(dp1466
g82
Nsg83
S'key_state'
p1467
sg15
Nsg19
g20
sg94
S'uint32'
p1468
sg16
I649
sbag1
(g90
g3
NtRp1469
(dp1470
g82
Nsg83
S'location_in_root'
p1471
sg15
Nsg19
g20
sg94
S'gfx.mojom.PointF'
p1472
sg16
I650
sbag1
(g90
g3
NtRp1473
(dp1474
g82
Nsg83
S'location'
p1475
sg15
Nsg19
g20
sg94
S'gfx.mojom.PointF'
p1476
sg16
I651
sbag1
(g90
g3
NtRp1477
(dp1478
g82
Nsg83
S'effect_bitmask'
p1479
sg15
Nsg19
g20
sg94
S'uint32'
p1480
sg16
I652
sbasg16
I648
sg19
g20
sbsg15
Nsg19
Nsg16
Nsg104
g1
(g86
g3
NtRp1481
(dp1482
g10
(lp1483
g1
(g90
g3
NtRp1484
(dp1485
g82
Nsg83
S'action_taken'
p1486
sg15
Nsg19
g20
sg94
S'uint32'
p1487
sg16
I652
sbasg16
I652
sg19
g20
sbsbag1
(g79
g3
NtRp1488
(dp1489
g82
Nsg83
S'OnPerformDragDropCompleted'
p1490
sg85
g1
(g86
g3
NtRp1491
(dp1492
g10
(lp1493
g1
(g90
g3
NtRp1494
(dp1495
g82
Nsg83
S'change_id'
p1496
sg15
Nsg19
g20
sg94
S'uint32'
p1497
sg16
I656
sbag1
(g90
g3
NtRp1498
(dp1499
g82
Nsg83
S'success'
p1500
sg15
Nsg19
g20
sg94
S'bool'
p1501
sg16
I657
sbag1
(g90
g3
NtRp1502
(dp1503
g82
Nsg83
S'action_taken'
p1504
sg15
Nsg19
g20
sg94
S'uint32'
p1505
sg16
I658
sbasg16
I656
sg19
g20
sbsg15
Nsg19
Nsg16
Nsg104
Nsbag1
(g79
g3
NtRp1506
(dp1507
g82
Nsg83
S'OnDragDropDone'
p1508
sg85
g1
(g86
g3
NtRp1509
(dp1510
g10
(lp1511
sg16
Nsg19
Nsbsg15
Nsg19
Nsg16
Nsg104
Nsbag1
(g79
g3
NtRp1512
(dp1513
g82
Nsg83
S'OnTopmostWindowChanged'
p1514
sg85
g1
(g86
g3
NtRp1515
(dp1516
g10
(lp1517
g1
(g90
g3
NtRp1518
(dp1519
g82
Nsg83
S'topmost_ids'
p1520
sg15
Nsg19
g20
sg94
S'uint64[]'
p1521
sg16
I671
sbasg16
I671
sg19
g20
sbsg15
Nsg19
Nsg16
Nsg104
Nsbag1
(g79
g3
NtRp1522
(dp1523
g82
Nsg83
S'OnChangeCompleted'
p1524
sg85
g1
(g86
g3
NtRp1525
(dp1526
g10
(lp1527
g1
(g90
g3
NtRp1528
(dp1529
g82
Nsg83
S'change_id'
p1530
sg15
Nsg19
g20
sg94
S'uint32'
p1531
sg16
I675
sbag1
(g90
g3
NtRp1532
(dp1533
g82
Nsg83
S'success'
p1534
sg15
Nsg19
g20
sg94
S'bool'
p1535
sg16
I675
sbasg16
I675
sg19
g20
sbsg15
Nsg19
Nsg16
Nsg104
Nsbag1
(g79
g3
NtRp1536
(dp1537
g82
Nsg83
S'RequestClose'
p1538
sg85
g1
(g86
g3
NtRp1539
(dp1540
g10
(lp1541
g1
(g90
g3
NtRp1542
(dp1543
g82
Nsg83
S'window_id'
p1544
sg15
Nsg19
g20
sg94
S'uint64'
p1545
sg16
I679
sbasg16
I679
sg19
g20
sbsg15
Nsg19
Nsg16
Nsg104
Nsbag1
(g79
g3
NtRp1546
(dp1547
g82
Nsg83
S'GetScreenProviderObserver'
p1548
sg85
g1
(g86
g3
NtRp1549
(dp1550
g10
(lp1551
g1
(g90
g3
NtRp1552
(dp1553
g82
Nsg83
S'observer'
p1554
sg15
Nsg19
g20
sg94
S'asso<ScreenProviderObserver&>'
p1555
sg16
I683
sbasg16
I683
sg19
g20
sbsg15
Nsg19
Nsg16
Nsg104
Nsbag1
(g79
g3
NtRp1556
(dp1557
g82
Nsg83
S'OnOcclusionStatesChanged'
p1558
sg85
g1
(g86
g3
NtRp1559
(dp1560
g10
(lp1561
g1
(g90
g3
NtRp1562
(dp1563
g82
Nsg83
S'occlusion_changes'
p1564
sg15
Nsg19
g20
sg94
S'OcclusionState{uint64}'
p1565
sg16
I688
sbasg16
I688
sg19
g20
sbsg15
Nsg19
Nsg16
Nsg104
Nsbag1
(g79
g3
NtRp1566
(dp1567
g82
Nsg83
S'CleanupGestureState'
p1568
sg85
g1
(g86
g3
NtRp1569
(dp1570
g10
(lp1571
g1
(g90
g3
NtRp1572
(dp1573
g82
Nsg83
S'window_id'
p1574
sg15
Nsg19
g20
sg94
S'uint64'
p1575
sg16
I692
sbasg16
I692
sg19
g20
sbsg15
Nsg19
Nsg16
Nsg104
Nsbag1
(g79
g3
NtRp1576
(dp1577
g82
Nsg83
S'OnWindowResizeLoopStarted'
p1578
sg85
g1
(g86
g3
NtRp1579
(dp1580
g10
(lp1581
g1
(g90
g3
NtRp1582
(dp1583
g82
Nsg83
S'window_id'
p1584
sg15
Nsg19
g20
sg94
S'uint64'
p1585
sg16
I700
sbasg16
I700
sg19
g20
sbsg15
Nsg19
Nsg16
Nsg104
Nsbag1
(g79
g3
NtRp1586
(dp1587
g82
Nsg83
S'OnWindowResizeLoopEnded'
p1588
sg85
g1
(g86
g3
NtRp1589
(dp1590
g10
(lp1591
g1
(g90
g3
NtRp1592
(dp1593
g82
Nsg83
S'window_id'
p1594
sg15
Nsg19
g20
sg94
S'uint64'
p1595
sg16
I701
sbasg16
I701
sg19
g20
sbsg15
Nsg19
Nsg16
Nsg104
Nsbasg16
Nsg19
Nsbsg15
Nsg16
Nsg83
S'WindowTreeClient'
p1596
sg19
Nsbag1
(g71
g3
NtRp1597
(dp1598
g74
g1
(g75
g3
NtRp1599
(dp1600
g10
(lp1601
g1
(g79
g3
NtRp1602
(dp1603
g82
Nsg83
S'CreateWindowTree'
p1604
sg85
g1
(g86
g3
NtRp1605
(dp1606
g10
(lp1607
g1
(g90
g3
NtRp1608
(dp1609
g82
Nsg83
S'tree_request'
p1610
sg15
Nsg19
g20
sg94
S'WindowTree&'
p1611
sg16
I708
sbag1
(g90
g3
NtRp1612
(dp1613
g82
Nsg83
S'client'
p1614
sg15
Nsg19
g20
sg94
S'WindowTreeClient'
p1615
sg16
I708
sbasg16
I708
sg19
g20
sbsg15
Nsg19
Nsg16
Nsg104
Nsbasg16
Nsg19
Nsbsg15
Nsg16
Nsg83
S'WindowTreeFactory'
p1616
sg19
Nsbasg16
NsS'module'
p1617
g1
(cmojom.parse.ast
Module
p1618
g3
NtRp1619
(dp1620
S'mojom_namespace'
p1621
(S'IDENTIFIER'
p1622
S'ws.mojom'
tp1623
sg16
I5
sg15
Nsg19
g20
sbsg19
Nsb.