ccopy_reg
_reconstructor
p1
(cmojom.parse.ast
Mojom
p2
c__builtin__
object
p3
NtRp4
(dp5
S'import_list'
p6
g1
(cmojom.parse.ast
ImportList
p7
g3
NtRp8
(dp9
S'items'
p10
(lp11
g1
(cmojom.parse.ast
Import
p12
g3
NtRp13
(dp14
S'attribute_list'
p15
NsS'lineno'
p16
I7
sS'import_filename'
p17
S'ui/base/mojo/ui_base_types.mojom'
p18
sS'filename'
p19
S'../../services/ws/public/mojom/window_tree_constants.mojom'
p20
sbag1
(g12
g3
NtRp21
(dp22
g15
Nsg16
I8
sg17
S'ui/display/mojo/display.mojom'
p23
sg19
g20
sbag1
(g12
g3
NtRp24
(dp25
g15
Nsg16
I9
sg17
S'ui/gfx/geometry/mojo/geometry.mojom'
p26
sg19
g20
sbasg16
I7
sg19
g20
sbsS'definition_list'
p27
(lp28
g1
(cmojom.parse.ast
Struct
p29
g3
NtRp30
(dp31
S'body'
p32
g1
(cmojom.parse.ast
StructBody
p33
g3
NtRp34
(dp35
g10
(lp36
g1
(cmojom.parse.ast
StructField
p37
g3
NtRp38
(dp39
S'ordinal'
p40
NsS'default_value'
p41
NsS'mojom_name'
p42
S'normal_client_area_insets'
p43
sg15
Nsg19
NsS'typename'
p44
S'gfx.mojom.Insets'
p45
sg16
Nsbag1
(g37
g3
NtRp46
(dp47
g40
Nsg41
Nsg42
S'maximized_client_area_insets'
p48
sg15
Nsg19
Nsg44
S'gfx.mojom.Insets'
p49
sg16
Nsbag1
(g37
g3
NtRp50
(dp51
g40
Nsg41
Nsg42
S'max_title_bar_button_width'
p52
sg15
Nsg19
Nsg44
S'uint32'
p53
sg16
Nsbasg16
Nsg19
Nsbsg15
Nsg16
Nsg42
S'FrameDecorationValues'
p54
sg19
Nsbag1
(g29
g3
NtRp55
(dp56
g32
g1
(g33
g3
NtRp57
(dp58
g10
(lp59
g1
(g37
g3
NtRp60
(dp61
g40
Nsg41
Nsg42
S'parent_id'
p62
sg15
Nsg19
Nsg44
S'uint64'
p63
sg16
Nsbag1
(g37
g3
NtRp64
(dp65
g40
Nsg41
Nsg42
S'window_id'
p66
sg15
Nsg19
Nsg44
S'uint64'
p67
sg16
Nsbag1
(g37
g3
NtRp68
(dp69
g40
Nsg41
Nsg42
S'transient_parent_id'
p70
sg15
Nsg19
Nsg44
S'uint64'
p71
sg16
Nsbag1
(g37
g3
NtRp72
(dp73
g40
Nsg41
Nsg42
S'bounds'
p74
sg15
Nsg19
Nsg44
S'gfx.mojom.Rect'
p75
sg16
Nsbag1
(g37
g3
NtRp76
(dp77
g40
Nsg41
(S'IDENTIFIER'
p78
S'ui.mojom.WindowShowState.kDefault'
tp79
sg42
S'state'
p80
sg15
Nsg19
Nsg44
S'ui.mojom.WindowShowState'
p81
sg16
Nsbag1
(g37
g3
NtRp82
(dp83
g40
Nsg41
Nsg42
S'properties'
p84
sg15
Nsg19
Nsg44
S'uint8[]{string}'
p85
sg16
Nsbag1
(g37
g3
NtRp86
(dp87
g40
Nsg41
Nsg42
S'visible'
p88
sg15
Nsg19
Nsg44
S'bool'
p89
sg16
Nsbasg16
Nsg19
Nsbsg15
Nsg16
Nsg42
S'WindowData'
p90
sg19
Nsbag1
(g29
g3
NtRp91
(dp92
g32
g1
(g33
g3
NtRp93
(dp94
g10
(lp95
g1
(g37
g3
NtRp96
(dp97
g40
Nsg41
Nsg42
S'display'
p98
sg15
Nsg19
Nsg44
S'display.mojom.Display'
p99
sg16
Nsbag1
(g37
g3
NtRp100
(dp101
g40
Nsg41
Nsg42
S'frame_decoration_values'
p102
sg15
Nsg19
Nsg44
S'FrameDecorationValues'
p103
sg16
Nsbasg16
Nsg19
Nsbsg15
Nsg16
Nsg42
S'WsDisplay'
p104
sg19
Nsbag1
(cmojom.parse.ast
Enum
p105
g3
NtRp106
(dp107
g15
NsS'enum_value_list'
p108
g1
(cmojom.parse.ast
EnumValueList
p109
g3
NtRp110
(dp111
g10
(lp112
g1
(cmojom.parse.ast
EnumValue
p113
g3
NtRp114
(dp115
g15
NsS'value'
p116
Nsg16
I52
sg42
S'HANDLED'
p117
sg19
g20
sbag1
(g113
g3
NtRp118
(dp119
g15
Nsg116
Nsg16
I53
sg42
S'UNHANDLED'
p120
sg19
g20
sbasg16
I52
sg19
g20
sbsg16
I51
sg42
S'EventResult'
p121
sg19
g20
sbag1
(g105
g3
NtRp122
(dp123
g15
Nsg108
g1
(g109
g3
NtRp124
(dp125
g10
(lp126
g1
(g113
g3
NtRp127
(dp128
g15
Nsg116
Nsg16
I59
sg42
S'TARGET_ONLY'
p129
sg19
g20
sbag1
(g113
g3
NtRp130
(dp131
g15
Nsg116
Nsg16
I62
sg42
S'TARGET_AND_DESCENDANTS'
p132
sg19
g20
sbag1
(g113
g3
NtRp133
(dp134
g15
Nsg116
Nsg16
I65
sg42
S'DESCENDANTS_ONLY'
p135
sg19
g20
sbag1
(g113
g3
NtRp136
(dp137
g15
Nsg116
Nsg16
I68
sg42
S'NONE'
p138
sg19
g20
sbasg16
I59
sg19
g20
sbsg16
I56
sg42
S'EventTargetingPolicy'
p139
sg19
g20
sbag1
(g105
g3
NtRp140
(dp141
g15
Nsg108
g1
(g109
g3
NtRp142
(dp143
g10
(lp144
g1
(g113
g3
NtRp145
(dp146
g15
Nsg116
Nsg16
I74
sg42
S'MOUSE'
p147
sg19
g20
sbag1
(g113
g3
NtRp148
(dp149
g15
Nsg116
Nsg16
I75
sg42
S'TOUCH'
p150
sg19
g20
sbasg16
I74
sg19
g20
sbsg16
I73
sg42
S'MoveLoopSource'
p151
sg19
g20
sbag1
(g105
g3
NtRp152
(dp153
g15
Nsg108
g1
(g109
g3
NtRp154
(dp155
g10
(lp156
g1
(g113
g3
NtRp157
(dp158
g15
Nsg116
S'1'
sg16
I79
sg42
S'ABOVE'
p159
sg19
g20
sbag1
(g113
g3
NtRp160
(dp161
g15
Nsg116
Nsg16
I80
sg42
S'BELOW'
p162
sg19
g20
sbasg16
I79
sg19
g20
sbsg16
I78
sg42
S'OrderDirection'
p163
sg19
g20
sbag1
(g105
g3
NtRp164
(dp165
g15
Nsg108
g1
(g109
g3
NtRp166
(dp167
g10
(lp168
g1
(g113
g3
NtRp169
(dp170
g15
Nsg116
Nsg16
I87
sg42
S'DEFAULT'
p171
sg19
g20
sbag1
(g113
g3
NtRp172
(dp173
g15
Nsg116
Nsg16
I88
sg42
S'NORMAL'
p174
sg19
g20
sbag1
(g113
g3
NtRp175
(dp176
g15
Nsg116
Nsg16
I89
sg42
S'MINIMIZED'
p177
sg19
g20
sbag1
(g113
g3
NtRp178
(dp179
g15
Nsg116
Nsg16
I90
sg42
S'MAXIMIZED'
p180
sg19
g20
sbag1
(g113
g3
NtRp181
(dp182
g15
Nsg116
Nsg16
I91
sg42
S'INACTIVE'
p183
sg19
g20
sbag1
(g113
g3
NtRp184
(dp185
g15
Nsg116
Nsg16
I92
sg42
S'FULLSCREEN'
p186
sg19
g20
sbasg16
I87
sg19
g20
sbsg16
I86
sg42
S'ShowState'
p187
sg19
g20
sbag1
(g105
g3
NtRp188
(dp189
g15
Nsg108
g1
(g109
g3
NtRp190
(dp191
g10
(lp192
g1
(g113
g3
NtRp193
(dp194
g15
Nsg116
Nsg16
I99
sg42
S'WINDOW'
p195
sg19
g20
sbag1
(g113
g3
NtRp196
(dp197
g15
Nsg116
Nsg16
I100
sg42
S'WINDOW_FRAMELESS'
p198
sg19
g20
sbag1
(g113
g3
NtRp199
(dp200
g15
Nsg116
Nsg16
I101
sg42
S'CONTROL'
p201
sg19
g20
sbag1
(g113
g3
NtRp202
(dp203
g15
Nsg116
Nsg16
I102
sg42
S'POPUP'
p204
sg19
g20
sbag1
(g113
g3
NtRp205
(dp206
g15
Nsg116
Nsg16
I103
sg42
S'MENU'
p207
sg19
g20
sbag1
(g113
g3
NtRp208
(dp209
g15
Nsg116
Nsg16
I104
sg42
S'TOOLTIP'
p210
sg19
g20
sbag1
(g113
g3
NtRp211
(dp212
g15
Nsg116
Nsg16
I105
sg42
S'BUBBLE'
p213
sg19
g20
sbag1
(g113
g3
NtRp214
(dp215
g15
Nsg116
Nsg16
I106
sg42
S'DRAG'
p216
sg19
g20
sbag1
(g113
g3
NtRp217
(dp218
g15
Nsg116
Nsg16
I107
sg42
S'UNKNOWN'
p219
sg19
g20
sbasg16
I99
sg19
g20
sbsg16
I95
sg42
S'WindowType'
p220
sg19
g20
sbag1
(g105
g3
NtRp221
(dp222
g15
Nsg108
g1
(g109
g3
NtRp223
(dp224
g10
(lp225
g1
(g113
g3
NtRp226
(dp227
g15
Nsg116
Nsg16
I112
sg42
S'kUnknown'
p228
sg19
g20
sbag1
(g113
g3
NtRp229
(dp230
g15
Nsg116
Nsg16
I113
sg42
S'kVisible'
p231
sg19
g20
sbag1
(g113
g3
NtRp232
(dp233
g15
Nsg116
Nsg16
I114
sg42
S'kOccluded'
p234
sg19
g20
sbag1
(g113
g3
NtRp235
(dp236
g15
Nsg116
Nsg16
I115
sg42
S'kHidden'
p237
sg19
g20
sbasg16
I112
sg19
g20
sbsg16
I110
sg42
S'OcclusionState'
p238
sg19
g20
sbag1
(cmojom.parse.ast
Const
p239
g3
NtRp240
(dp241
g42
S'kDropEffectNone'
p242
sg15
Nsg116
S'0'
sg19
Nsg44
S'uint32'
p243
sg16
Nsbag1
(g239
g3
NtRp244
(dp245
g42
S'kDropEffectMove'
p246
sg15
Nsg116
S'1'
sg19
Nsg44
S'uint32'
p247
sg16
Nsbag1
(g239
g3
NtRp248
(dp249
g42
S'kDropEffectCopy'
p250
sg15
Nsg116
S'2'
sg19
Nsg44
S'uint32'
p251
sg16
Nsbag1
(g239
g3
NtRp252
(dp253
g42
S'kDropEffectLink'
p254
sg15
Nsg116
S'4'
sg19
Nsg44
S'uint32'
p255
sg16
Nsbag1
(g239
g3
NtRp256
(dp257
g42
S'kEmbedFlagEmbedderInterceptsEvents'
p258
sg15
Nsg116
S'0x01'
p259
sg19
Nsg44
S'uint32'
p260
sg16
Nsbag1
(g239
g3
NtRp261
(dp262
g42
S'kEmbedFlagEmbedderControlsVisibility'
p263
sg15
Nsg116
S'0x02'
p264
sg19
Nsg44
S'uint32'
p265
sg16
Nsbag1
(g239
g3
NtRp266
(dp267
g42
S'kResizeBehaviorNone'
p268
sg15
Nsg116
S'0'
sg19
Nsg44
S'int32'
p269
sg16
Nsbag1
(g239
g3
NtRp270
(dp271
g42
S'kResizeBehaviorCanResize'
p272
sg15
Nsg116
S'1'
sg19
Nsg44
S'int32'
p273
sg16
Nsbag1
(g239
g3
NtRp274
(dp275
g42
S'kResizeBehaviorCanMaximize'
p276
sg15
Nsg116
S'2'
sg19
Nsg44
S'int32'
p277
sg16
Nsbag1
(g239
g3
NtRp278
(dp279
g42
S'kResizeBehaviorCanMinimize'
p280
sg15
Nsg116
S'4'
sg19
Nsg44
S'int32'
p281
sg16
Nsbasg16
NsS'module'
p282
g1
(cmojom.parse.ast
Module
p283
g3
NtRp284
(dp285
S'mojom_namespace'
p286
(g78
S'ws.mojom'
tp287
sg16
I5
sg15
Nsg19
g20
sbsg19
Nsb.