(dp1
S'KeyboardEvent'
p2
(dp3
S'include_path'
p4
S'cobalt/dom/KeyboardEvent.h'
p5
sS'dependencies_include_paths'
p6
(lp7
sS'parent'
p8
S'UIEvent'
p9
sS'conditional'
p10
NsS'unsupported'
p11
I00
sS'dependencies_full_paths'
p12
(lp13
sS'implements_interfaces'
p14
(lp15
sS'referenced_interfaces'
p16
(lp17
sS'dependencies_other_component_full_paths'
p18
(lp19
sS'relative_dir'
p20
S'cobalt/dom'
p21
sS'ancestors'
p22
(lp23
g9
aS'Event'
p24
asS'inherited_extended_attributes'
p25
(dp26
sS'is_dependency'
p27
I00
sS'dependencies_other_component_include_paths'
p28
(lp29
sS'implemented_as'
p30
NsS'is_dictionary'
p31
I00
sS'is_callback_interface'
p32
I00
sS'full_path'
p33
S'/home/avakimov_am/chromium/cobalt/src/cobalt/dom/keyboard_event.idl'
p34
ssS'SystemCaptionSettings'
p35
(dp36
g4
S'cobalt/dom/captions/SystemCaptionSettings.h'
p37
sg6
(lp38
sg8
S'EventTarget'
p39
sg10
Nsg11
I00
sg12
(lp40
sg14
(lp41
sg16
(lp42
sg18
(lp43
sg20
S'cobalt/dom/captions'
p44
sg22
(lp45
g39
asg25
(dp46
sg27
I00
sg28
(lp47
sg30
Nsg31
I00
sg32
I00
sg33
S'/home/avakimov_am/chromium/cobalt/src/cobalt/dom/captions/system_caption_settings.idl'
p48
ssS'CDATASection'
p49
(dp50
g4
S'cobalt/dom/CDATASection.h'
p51
sg6
(lp52
sg8
S'Text'
p53
sg10
Nsg11
I00
sg12
(lp54
sg14
(lp55
sg16
(lp56
sg18
(lp57
sg20
S'cobalt/dom'
p58
sg22
(lp59
g53
aS'CharacterData'
p60
aS'Node'
p61
aS'EventTarget'
p62
asg25
(dp63
sg27
I00
sg28
(lp64
sg30
Nsg31
I00
sg32
I00
sg33
S'/home/avakimov_am/chromium/cobalt/src/cobalt/dom/cdata_section.idl'
p65
ssS'HTMLMediaElement'
p66
(dp67
g4
S'cobalt/dom/HTMLMediaElement.h'
p68
sg6
(lp69
S'cobalt/dom/eme/HTMLMediaElement.h'
p70
asg8
S'HTMLElement'
p71
sg10
Nsg11
I00
sg12
(lp72
S'/home/avakimov_am/chromium/cobalt/src/cobalt/dom/eme/html_media_element.idl'
p73
asg14
(lp74
sS'cpp_includes'
p75
(dp76
S'cobalt'
p77
c__builtin__
set
p78
((lp79
g70
atRp80
ssg16
(lp81
sg18
(lp82
sg20
S'cobalt/dom'
p83
sg22
(lp84
g71
aS'Element'
p85
aS'Node'
p86
ag62
asg25
(dp87
sg27
I00
sg28
(lp88
sg30
Nsg31
I00
sg32
I00
sg33
S'/home/avakimov_am/chromium/cobalt/src/cobalt/dom/html_media_element.idl'
p89
ssS'all_interfaces'
p90
g78
((lp91
g2
ag35
ag49
ag66
aS'UIEvent'
p92
aS'CValKeyList'
p93
aS'DOMException'
p94
aS'ScriptExecutor'
p95
aS'MediaQueryList'
p96
aS'H5vccRuntimeEventTarget'
p97
aS'Console'
p98
aS'Document'
p99
aS'CSSRuleList'
p100
aS'SpeechSynthesisVoice'
p101
aS'XMLHttpRequestEventTarget'
p102
aS'H5vccSystem'
p103
aS'MimeTypeArray'
p104
aS'DebugBackend'
p105
aS'MediaSessionActionDetails'
p106
aS'PluginArray'
p107
aS'DocumentType'
p108
aS'DOMRectList'
p109
aS'VideoTrack'
p110
aS'CSSKeyframesRule'
p111
aS'HTMLMetaElement'
p112
aS'KeyframeEffectReadOnly'
p113
aS'PointerEvent'
p114
aS'URL'
p115
aS'DOMTokenList'
p116
aS'HTMLSpanElement'
p117
aS'XMLHttpRequestUpload'
p118
aS'AudioTrackList'
p119
aS'MessageEvent'
p120
aS'MediaSession'
p121
aS'MediaKeySession'
p122
aS'HTMLTitleElement'
p123
aS'MediaKeyStatusMap'
p124
aS'DialServer'
p125
aS'AnimationEffectReadOnly'
p126
aS'WheelEvent'
p127
aS'DOMRect'
p128
aS'HTMLVideoElement'
p129
aS'Event'
p130
aS'TimeRanges'
p131
aS'EventListener'
p132
aS'HTMLLinkElement'
p133
aS'MediaEncryptedEvent'
p134
aS'XMLDocument'
p135
aS'CSSFontFaceRule'
p136
aS'NodeList'
p137
aS'DOMParser'
p138
aS'HTMLHeadElement'
p139
aS'SpeechSynthesisErrorEvent'
p140
aS'Location'
p141
aS'CustomEvent'
p142
aS'Performance'
p143
aS'TrackDefault'
p144
aS'MutationObserver'
p145
aS'HTMLBodyElement'
p146
aS'TransitionEvent'
p147
aS'HTMLCollection'
p148
aS'H5vccCrashLog'
p149
aS'H5vccPlatformService'
p150
aS'CSSStyleSheet'
p151
aS'StorageEvent'
p152
aS'CSSStyleDeclaration'
p153
aS'ErrorEvent'
p154
aS'H5vccAudioConfigArray'
p155
aS'WebSocket'
p156
aS'Animatable'
p157
aS'AudioBuffer'
p158
aS'HTMLParagraphElement'
p159
aS'InputEvent'
p160
aS'Crypto'
p161
aS'OnErrorEventListener'
p162
aS'Element'
p163
aS'CSS'
p164
aS'MediaStream'
p165
aS'Comment'
p166
aS'Screenshot'
p167
aS'AudioBufferSourceNode'
p168
aS'MediaError'
p169
aS'FocusEvent'
p170
aS'DOMStringMap'
p171
aS'SpeechSynthesisEvent'
p172
aS'H5vccAccessibility'
p173
aS'DialHttpRequest'
p174
aS'DOMRectReadOnly'
p175
aS'CSSKeyframeRule'
p176
aS'MediaDeviceInfo'
p177
aS'ProgressEvent'
p178
aS'AnimationEffectTimingReadOnly'
p179
aS'DeviceOrientationEvent'
p180
aS'DebuggerEventTarget'
p181
aS'FetchInternal'
p182
aS'Node'
p183
aS'VideoPlaybackQuality'
p184
aS'MediaKeyMessageEvent'
p185
aS'SpeechRecognitionResultList'
p186
aS'Camera3D'
p187
aS'Screen'
p188
aS'SpeechRecognitionEvent'
p189
aS'CSSMediaRule'
p190
aS'HTMLHtmlElement'
p191
aS'HTMLScriptElement'
p192
aS'HTMLUnknownElement'
p193
aS'MediaList'
p194
aS'MediaKeySystemAccess'
p195
aS'TrackDefaultList'
p196
aS'Storage'
p197
aS'H5vccTraceEvent'
p198
aS'NamedNodeMap'
p199
aS'DebugHub'
p200
aS'Keyframe'
p201
aS'H5vccAudioConfig'
p202
aS'HTMLElement'
p203
aS'History'
p204
aS'MediaStreamTrack'
p205
aS'CSSGroupingRule'
p206
aS'MutationRecord'
p207
aS'Text'
p208
aS'CSSAgent'
p209
aS'Window'
p210
aS'TestRunner'
p211
aS'SpeechSynthesisUtterance'
p212
aS'StyleSheet'
p213
aS'VideoTrackList'
p214
aS'DocumentTimeline'
p215
aS'MediaMetadata'
p216
aS'H5vccStorage'
p217
aS'Blob'
p218
aS'HTMLBRElement'
p219
aS'SpeechRecognitionResult'
p220
aS'XMLHttpRequest'
p221
aS'CSSConditionRule'
p222
aS'CValView'
p223
aS'H5vccAccountManager'
p224
aS'AnimationEvent'
p225
aS'BlobEvent'
p226
aS'Animation'
p227
aS'HTMLAnchorElement'
p228
aS'MemoryInfo'
p229
aS'ScriptExecutorParams'
p230
aS'ScriptExecutorResult'
p231
aS'XMLSerializer'
p232
aS'DOMImplementation'
p233
aS'HTMLDivElement'
p234
aS'MediaDevices'
p235
aS'CSSRule'
p236
aS'H5vccAccountInfo'
p237
aS'TrackEvent'
p238
aS'CharacterData'
p239
aS'SpeechSynthesis'
p240
aS'CSSStyleRule'
p241
aS'H5vcc'
p242
aS'PerformanceTiming'
p243
aS'HTMLStyleElement'
p244
aS'DialHttpResponse'
p245
aS'MediaSource'
p246
aS'H5vccSettings'
p247
aS'Attr'
p248
aS'HTMLImageElement'
p249
aS'H5vccRuntime'
p250
aS'StyleSheetList'
p251
aS'SecurityPolicyViolationEvent'
p252
aS'EventTarget'
p253
aS'AudioContext'
p254
aS'Navigator'
p255
aS'SpeechRecognition'
p256
aS'HTMLHeadingElement'
p257
aS'H5vccSso'
p258
aS'MediaRecorder'
p259
aS'SpeechRecognitionError'
p260
aS'H5vccDeepLinkEventTarget'
p261
aS'AudioTrack'
p262
aS'CloseEvent'
p263
aS'SourceBufferList'
p264
aS'OnScreenKeyboard'
p265
aS'AnimationTimeline'
p266
aS'MouseEvent'
p267
aS'MediaKeys'
p268
aS'AudioDestinationNode'
p269
aS'AudioNode'
p270
aS'SpeechRecognitionAlternative'
p271
aS'SourceBuffer'
p272
atRp273
sS'MediaEncryptedEventInit'
p274
(dp275
g4
S'cobalt/dom/eme/MediaEncryptedEventInit.h'
p276
sg6
(lp277
sg8
S'EventInit'
p278
sg10
Nsg11
I00
sg12
(lp279
sg14
(lp280
sg16
Nsg18
(lp281
sg20
S'cobalt/dom/eme'
p282
sg22
(lp283
g278
asg25
(dp284
sg27
I01
sg28
(lp285
sg30
Nsg31
I01
sg32
I00
sg33
S'/home/avakimov_am/chromium/cobalt/src/cobalt/dom/eme/media_encrypted_event_init.idl'
p286
ssg93
(dp287
g4
S'cobalt/dom/CValKeyList.h'
p288
sg6
(lp289
sg8
Nsg10
Nsg11
I00
sg12
(lp290
sg14
(lp291
sg16
(lp292
sg18
(lp293
sg20
S'cobalt/dom'
p294
sg22
(lp295
sg25
(dp296
sg27
I00
sg28
(lp297
sg30
Nsg31
I00
sg32
I00
sg33
S'/home/avakimov_am/chromium/cobalt/src/cobalt/dom/c_val_key_list.idl'
p298
ssg173
(dp299
g4
S'cobalt/h5vcc/H5vccAccessibility.h'
p300
sg6
(lp301
sg8
Nsg10
Nsg11
I00
sg12
(lp302
sg14
(lp303
sg16
(lp304
sg18
(lp305
sg20
S'cobalt/h5vcc'
p306
sg22
(lp307
sg25
(dp308
sg27
I00
sg28
(lp309
sg30
Nsg31
I00
sg32
I00
sg33
S'/home/avakimov_am/chromium/cobalt/src/cobalt/h5vcc/h5vcc_accessibility.idl'
p310
ssg95
(dp311
g4
S'cobalt/webdriver/ScriptExecutor.h'
p312
sg6
(lp313
sg8
Nsg10
S'ENABLE_WEBDRIVER'
p314
sg11
I00
sg12
(lp315
sg14
(lp316
sg16
(lp317
sg18
(lp318
sg20
S'cobalt/webdriver'
p319
sg22
(lp320
sg25
(dp321
sg27
I00
sg28
(lp322
sg30
Nsg31
I00
sg32
I00
sg33
S'/home/avakimov_am/chromium/cobalt/src/cobalt/webdriver/script_executor.idl'
p323
ssg133
(dp324
g4
S'cobalt/dom/HTMLLinkElement.h'
p325
sg6
(lp326
sg8
S'HTMLElement'
p327
sg10
Nsg11
I00
sg12
(lp328
sg14
(lp329
sg16
(lp330
sg18
(lp331
sg20
S'cobalt/dom'
p332
sg22
(lp333
g327
ag85
ag86
ag62
asg25
(dp334
sg27
I00
sg28
(lp335
sg30
Nsg31
I00
sg32
I00
sg33
S'/home/avakimov_am/chromium/cobalt/src/cobalt/dom/html_link_element.idl'
p336
ssg97
(dp337
g4
S'cobalt/h5vcc/H5vccRuntimeEventTarget.h'
p338
sg6
(lp339
sg8
Nsg10
Nsg11
I00
sg12
(lp340
sg14
(lp341
sg16
(lp342
sg18
(lp343
sg20
S'cobalt/h5vcc'
p344
sg22
(lp345
sg25
(dp346
sg27
I00
sg28
(lp347
sg30
Nsg31
I00
sg32
I00
sg33
S'/home/avakimov_am/chromium/cobalt/src/cobalt/h5vcc/h5vcc_runtime_event_target.idl'
p348
ssg98
(dp349
g4
S'cobalt/dom/Console.h'
p350
sg6
(lp351
sg8
Nsg10
Nsg11
I00
sg12
(lp352
sg14
(lp353
sg16
(lp354
sg18
(lp355
sg20
S'cobalt/dom'
p356
sg22
(lp357
sg25
(dp358
sg27
I00
sg28
(lp359
sg30
Nsg31
I00
sg32
I00
sg33
S'/home/avakimov_am/chromium/cobalt/src/cobalt/dom/console.idl'
p360
ssg99
(dp361
g4
S'cobalt/dom/Document.h'
p362
sg6
(lp363
S'cobalt/dom/DocumentWebAnimationsApi.h'
p364
aS'cobalt/dom/DocumentCobalt.h'
p365
aS'cobalt/dom/DocumentCSSom.h'
p366
aS'cobalt/dom/DocumentHtml5.h'
p367
aS'cobalt/page_visibility/Document.h'
p368
asg8
S'Node'
p369
sg10
Nsg11
I00
sg12
(lp370
S'/home/avakimov_am/chromium/cobalt/src/cobalt/dom/global_event_handlers.idl'
p371
aS'/home/avakimov_am/chromium/cobalt/src/cobalt/dom/non_element_parent_node.idl'
p372
aS'/home/avakimov_am/chromium/cobalt/src/cobalt/dom/parent_node.idl'
p373
aS'/home/avakimov_am/chromium/cobalt/src/cobalt/dom/document__web_animations_api.idl'
p374
aS'/home/avakimov_am/chromium/cobalt/src/cobalt/dom/document_cobalt.idl'
p375
aS'/home/avakimov_am/chromium/cobalt/src/cobalt/dom/document_cssom.idl'
p376
aS'/home/avakimov_am/chromium/cobalt/src/cobalt/dom/document_html5.idl'
p377
aS'/home/avakimov_am/chromium/cobalt/src/cobalt/page_visibility/document.idl'
p378
asS'unforgeable_attributes'
p379
(dp380
S'cobalt'
p381
(lp382
ccopy_reg
_reconstructor
p383
(cidl_definitions
IdlAttribute
p384
c__builtin__
object
p385
NtRp386
(dp387
S'is_static'
p388
I00
sS'idl_type'
p389
g383
(cidl_types
IdlNullableType
p390
g385
NtRp391
(dp392
S'inner_type'
p393
g383
(cidl_types
IdlType
p394
g385
NtRp395
(dp396
S'base_type'
p397
S'Location'
p398
sbsbsS'is_read_only'
p399
I01
sS'name'
p400
S'location'
p401
sS'extended_attributes'
p402
(dp403
S'Unforgeable'
p404
NsS'PutForwards'
p405
S'href'
p406
sS'PartialInterfaceImplementedAs'
p407
S'DocumentHtml5'
p408
ssbassg75
(dp409
S'cobalt'
p410
g78
((lp411
g365
ag364
ag368
ag367
ag366
atRp412
ssg16
(lp413
g398
asg14
(lp414
S'GlobalEventHandlers'
p415
aS'NonElementParentNode'
p416
aS'ParentNode'
p417
asg18
(lp418
sg20
S'cobalt/dom'
p419
sg22
(lp420
g369
ag62
asg25
(dp421
sg27
I00
sg28
(lp422
sg30
Nsg31
I00
sg32
I00
sg33
S'/home/avakimov_am/chromium/cobalt/src/cobalt/dom/document.idl'
p423
ssg100
(dp424
g4
S'cobalt/cssom/CSSRuleList.h'
p425
sg6
(lp426
sg8
Nsg10
Nsg11
I00
sg12
(lp427
sg14
(lp428
sg16
(lp429
sg18
(lp430
sg20
S'cobalt/cssom'
p431
sg22
(lp432
sg25
(dp433
sg27
I00
sg28
(lp434
sg30
Nsg31
I00
sg32
I00
sg33
S'/home/avakimov_am/chromium/cobalt/src/cobalt/cssom/css_rule_list.idl'
p435
ssg101
(dp436
g4
S'cobalt/speech/SpeechSynthesisVoice.h'
p437
sg6
(lp438
sg8
Nsg10
Nsg11
I00
sg12
(lp439
sg14
(lp440
sg16
(lp441
sg18
(lp442
sg20
S'cobalt/speech'
p443
sg22
(lp444
sg25
(dp445
sg27
I00
sg28
(lp446
sg30
Nsg31
I00
sg32
I00
sg33
S'/home/avakimov_am/chromium/cobalt/src/cobalt/speech/speech_synthesis_voice.idl'
p447
ssg102
(dp448
g4
S'cobalt/xhr/XMLHttpRequestEventTarget.h'
p449
sg6
(lp450
sg8
S'EventTarget'
p451
sg10
Nsg11
I00
sg12
(lp452
sg14
(lp453
sg16
(lp454
sg18
(lp455
sg20
S'cobalt/xhr'
p456
sg22
(lp457
g451
asg25
(dp458
sg27
I00
sg28
(lp459
sg30
Nsg31
I00
sg32
I00
sg33
S'/home/avakimov_am/chromium/cobalt/src/cobalt/xhr/xml_http_request_event_target.idl'
p460
ssg103
(dp461
g4
S'cobalt/h5vcc/H5vccSystem.h'
p462
sg6
(lp463
sg8
Nsg10
Nsg11
I00
sg12
(lp464
sg14
(lp465
sg16
(lp466
sg18
(lp467
sg20
S'cobalt/h5vcc'
p468
sg22
(lp469
sg25
(dp470
sg27
I00
sg28
(lp471
sg30
Nsg31
I00
sg32
I00
sg33
S'/home/avakimov_am/chromium/cobalt/src/cobalt/h5vcc/h5vcc_system.idl'
p472
ssS'MutationObserverInit'
p473
(dp474
g4
S'cobalt/dom/MutationObserverInit.h'
p475
sg6
(lp476
sg8
Nsg10
Nsg11
I00
sg12
(lp477
sg14
(lp478
sg16
Nsg18
(lp479
sg20
S'cobalt/dom'
p480
sg22
(lp481
sg25
(dp482
sg27
I01
sg28
(lp483
sg30
Nsg31
I01
sg32
I00
sg33
S'/home/avakimov_am/chromium/cobalt/src/cobalt/dom/mutation_observer_init.idl'
p484
ssg104
(dp485
g4
S'cobalt/dom/MimeTypeArray.h'
p486
sg6
(lp487
sg8
Nsg10
Nsg11
I00
sg12
(lp488
sg14
(lp489
sg16
(lp490
sg18
(lp491
sg20
S'cobalt/dom'
p492
sg22
(lp493
sg25
(dp494
sg27
I00
sg28
(lp495
sg30
Nsg31
I00
sg32
I00
sg33
S'/home/avakimov_am/chromium/cobalt/src/cobalt/dom/mime_type_array.idl'
p496
ssg105
(dp497
g4
S'cobalt/debug/backend/DebugBackend.h'
p498
sg6
(lp499
sg8
Nsg10
S'ENABLE_DEBUGGER'
p500
sg11
I00
sg12
(lp501
sg14
(lp502
sg16
(lp503
sg18
(lp504
sg20
S'cobalt/debug/backend'
p505
sg22
(lp506
sg25
(dp507
sg27
I00
sg28
(lp508
sg30
Nsg31
I00
sg32
I00
sg33
S'/home/avakimov_am/chromium/cobalt/src/cobalt/debug/backend/debug_backend.idl'
p509
ssS'ConsoleCommand'
p510
(dp511
g4
S'cobalt/debug/console/ConsoleCommand.h'
p512
sg6
(lp513
sg8
Nsg10
S'ENABLE_DEBUGGER'
p514
sg11
I00
sg12
(lp515
sg14
(lp516
sg16
Nsg18
(lp517
sg20
S'cobalt/debug/console'
p518
sg22
(lp519
sg25
(dp520
sg27
I01
sg28
(lp521
sg30
Nsg31
I01
sg32
I00
sg33
S'/home/avakimov_am/chromium/cobalt/src/cobalt/debug/console/console_command.idl'
p522
ssg106
(dp523
g4
S'cobalt/media_session/MediaSessionActionDetails.h'
p524
sg6
(lp525
sg8
Nsg10
Nsg11
I00
sg12
(lp526
sg14
(lp527
sg16
(lp528
sg18
(lp529
sg20
S'cobalt/media_session'
p530
sg22
(lp531
sg25
(dp532
sg27
I00
sg28
(lp533
sg30
Nsg31
I00
sg32
I00
sg33
S'/home/avakimov_am/chromium/cobalt/src/cobalt/media_session/media_session_action_details.idl'
p534
ssS'MouseEventInit'
p535
(dp536
g4
S'cobalt/dom/MouseEventInit.h'
p537
sg6
(lp538
sg8
S'EventModifierInit'
p539
sg10
Nsg11
I00
sg12
(lp540
sg14
(lp541
sg16
Nsg18
(lp542
sg20
S'cobalt/dom'
p543
sg22
(lp544
g539
aS'UIEventInit'
p545
aS'EventInit'
p546
asg25
(dp547
sg27
I01
sg28
(lp548
sg30
Nsg31
I01
sg32
I00
sg33
S'/home/avakimov_am/chromium/cobalt/src/cobalt/dom/mouse_event_init.idl'
p549
ssg108
(dp550
g4
S'cobalt/dom/DocumentType.h'
p551
sg6
(lp552
sg8
S'Node'
p553
sg10
Nsg11
I00
sg12
(lp554
sg14
(lp555
sg16
(lp556
sg18
(lp557
sg20
S'cobalt/dom'
p558
sg22
(lp559
g553
ag62
asg25
(dp560
sg27
I00
sg28
(lp561
sg30
Nsg31
I00
sg32
I00
sg33
S'/home/avakimov_am/chromium/cobalt/src/cobalt/dom/document_type.idl'
p562
ssg109
(dp563
g4
S'cobalt/dom/DOMRectList.h'
p564
sg6
(lp565
sg8
Nsg10
Nsg11
I00
sg12
(lp566
sg14
(lp567
sg16
(lp568
sg18
(lp569
sg20
S'cobalt/dom'
p570
sg22
(lp571
sg25
(dp572
sg27
I00
sg28
(lp573
sg30
Nsg31
I00
sg32
I00
sg33
S'/home/avakimov_am/chromium/cobalt/src/cobalt/dom/dom_rect_list.idl'
p574
ssg258
(dp575
g4
S'cobalt/h5vcc/H5vccSso.h'
p576
sg6
(lp577
sg8
Nsg10
S'COBALT_ENABLE_SSO'
p578
sg11
I00
sg12
(lp579
sg14
(lp580
sg16
(lp581
sg18
(lp582
sg20
S'cobalt/h5vcc'
p583
sg22
(lp584
sg25
(dp585
sg27
I00
sg28
(lp586
sg30
Nsg31
I00
sg32
I00
sg33
S'/home/avakimov_am/chromium/cobalt/src/cobalt/h5vcc/h5vcc_sso.idl'
p587
ssg110
(dp588
g4
S'cobalt/dom/VideoTrack.h'
p589
sg6
(lp590
sg8
Nsg10
Nsg11
I00
sg12
(lp591
sg14
(lp592
sg16
(lp593
sg18
(lp594
sg20
S'cobalt/dom'
p595
sg22
(lp596
sg25
(dp597
sg27
I00
sg28
(lp598
sg30
Nsg31
I00
sg32
I00
sg33
S'/home/avakimov_am/chromium/cobalt/src/cobalt/dom/video_track.idl'
p599
ssg111
(dp600
g4
S'cobalt/cssom/CSSKeyframesRule.h'
p601
sg6
(lp602
sg8
S'CSSRule'
p603
sg10
Nsg11
I00
sg12
(lp604
sg14
(lp605
sg16
(lp606
sg18
(lp607
sg20
S'cobalt/cssom'
p608
sg22
(lp609
g603
asg25
(dp610
sg27
I00
sg28
(lp611
sg30
Nsg31
I00
sg32
I00
sg33
S'/home/avakimov_am/chromium/cobalt/src/cobalt/cssom/css_keyframes_rule.idl'
p612
ssg112
(dp613
g4
S'cobalt/dom/HTMLMetaElement.h'
p614
sg6
(lp615
sg8
S'HTMLElement'
p616
sg10
Nsg11
I00
sg12
(lp617
sg14
(lp618
sg16
(lp619
sg18
(lp620
sg20
S'cobalt/dom'
p621
sg22
(lp622
g616
ag85
ag86
ag62
asg25
(dp623
sg27
I00
sg28
(lp624
sg30
Nsg31
I00
sg32
I00
sg33
S'/home/avakimov_am/chromium/cobalt/src/cobalt/dom/html_meta_element.idl'
p625
ssg113
(dp626
g4
S'cobalt/web_animations/KeyframeEffectReadOnly.h'
p627
sg6
(lp628
sg8
S'AnimationEffectReadOnly'
p629
sg10
Nsg11
I00
sg12
(lp630
sg14
(lp631
sg16
(lp632
sg18
(lp633
sg20
S'cobalt/web_animations'
p634
sg22
(lp635
g629
asg25
(dp636
sg27
I00
sg28
(lp637
sg30
Nsg31
I00
sg32
I00
sg33
S'/home/avakimov_am/chromium/cobalt/src/cobalt/web_animations/keyframe_effect_read_only.idl'
p638
ssg114
(dp639
g4
S'cobalt/dom/PointerEvent.h'
p640
sg6
(lp641
sg8
S'MouseEvent'
p642
sg10
Nsg11
I00
sg12
(lp643
sg14
(lp644
sg16
(lp645
sg18
(lp646
sg20
S'cobalt/dom'
p647
sg22
(lp648
g642
aS'UIEvent'
p649
ag24
asg25
(dp650
sg27
I00
sg28
(lp651
sg30
Nsg31
I00
sg32
I00
sg33
S'/home/avakimov_am/chromium/cobalt/src/cobalt/dom/pointer_event.idl'
p652
ssg115
(dp653
g4
S'cobalt/dom/URL.h'
p654
sg6
(lp655
S'cobalt/dom/URLMse.h'
p656
asg8
Nsg10
Nsg11
I00
sg12
(lp657
S'/home/avakimov_am/chromium/cobalt/src/cobalt/dom/url_mse.idl'
p658
asg14
(lp659
sg75
(dp660
S'cobalt'
p661
g78
((lp662
g656
atRp663
ssg16
(lp664
sg18
(lp665
sg20
S'cobalt/dom'
p666
sg22
(lp667
sg25
(dp668
sg27
I00
sg28
(lp669
sg30
Nsg31
I00
sg32
I00
sg33
S'/home/avakimov_am/chromium/cobalt/src/cobalt/dom/url.idl'
p670
ssg116
(dp671
g4
S'cobalt/dom/DOMTokenList.h'
p672
sg6
(lp673
sg8
Nsg10
Nsg11
I00
sg12
(lp674
sg14
(lp675
sg16
(lp676
sg18
(lp677
sg20
S'cobalt/dom'
p678
sg22
(lp679
sg25
(dp680
sg27
I00
sg28
(lp681
sg30
Nsg31
I00
sg32
I00
sg33
S'/home/avakimov_am/chromium/cobalt/src/cobalt/dom/dom_token_list.idl'
p682
ssg117
(dp683
g4
S'cobalt/dom/HTMLSpanElement.h'
p684
sg6
(lp685
sg8
S'HTMLElement'
p686
sg10
Nsg11
I00
sg12
(lp687
sg14
(lp688
sg16
(lp689
sg18
(lp690
sg20
S'cobalt/dom'
p691
sg22
(lp692
g686
ag85
ag86
ag62
asg25
(dp693
sg27
I00
sg28
(lp694
sg30
Nsg31
I00
sg32
I00
sg33
S'/home/avakimov_am/chromium/cobalt/src/cobalt/dom/html_span_element.idl'
p695
ssg92
(dp696
g4
S'cobalt/dom/UIEvent.h'
p697
sg6
(lp698
sg8
g24
sg10
Nsg11
I00
sg12
(lp699
sg14
(lp700
sg16
(lp701
sg18
(lp702
sg20
S'cobalt/dom'
p703
sg22
(lp704
g24
asg25
(dp705
sg27
I00
sg28
(lp706
sg30
Nsg31
I00
sg32
I00
sg33
S'/home/avakimov_am/chromium/cobalt/src/cobalt/dom/ui_event.idl'
p707
ssg260
(dp708
g4
S'cobalt/speech/SpeechRecognitionError.h'
p709
sg6
(lp710
sg8
S'Event'
p711
sg10
Nsg11
I00
sg12
(lp712
sg14
(lp713
sg16
(lp714
sg18
(lp715
sg20
S'cobalt/speech'
p716
sg22
(lp717
g711
asg25
(dp718
sg27
I00
sg28
(lp719
sg30
Nsg31
I00
sg32
I00
sg33
S'/home/avakimov_am/chromium/cobalt/src/cobalt/speech/speech_recognition_error.idl'
p720
ssg118
(dp721
g4
S'cobalt/xhr/XMLHttpRequestUpload.h'
p722
sg6
(lp723
sg8
S'XMLHttpRequestEventTarget'
p724
sg10
Nsg11
I00
sg12
(lp725
sg14
(lp726
sg16
(lp727
sg18
(lp728
sg20
S'cobalt/xhr'
p729
sg22
(lp730
g724
ag451
asg25
(dp731
sg27
I00
sg28
(lp732
sg30
Nsg31
I00
sg32
I00
sg33
S'/home/avakimov_am/chromium/cobalt/src/cobalt/xhr/xml_http_request_upload.idl'
p733
ssS'DeviceOrientationEventInit'
p734
(dp735
g4
S'cobalt/dom/DeviceOrientationEventInit.h'
p736
sg6
(lp737
sg8
S'EventInit'
p738
sg10
Nsg11
I00
sg12
(lp739
sg14
(lp740
sg16
Nsg18
(lp741
sg20
S'cobalt/dom'
p742
sg22
(lp743
g738
asg25
(dp744
sg27
I01
sg28
(lp745
sg30
Nsg31
I01
sg32
I00
sg33
S'/home/avakimov_am/chromium/cobalt/src/cobalt/dom/device_orientation_event_init.idl'
p746
ssg119
(dp747
g4
S'cobalt/dom/AudioTrackList.h'
p748
sg6
(lp749
sg8
S'EventTarget'
p750
sg10
Nsg11
I00
sg12
(lp751
sg14
(lp752
sg16
(lp753
sg18
(lp754
sg20
S'cobalt/dom'
p755
sg22
(lp756
g750
asg25
(dp757
sg27
I00
sg28
(lp758
sg30
Nsg31
I00
sg32
I00
sg33
S'/home/avakimov_am/chromium/cobalt/src/cobalt/dom/audio_track_list.idl'
p759
ssS'component_dirs'
p760
(dp761
g2
S'cobalt'
p762
sg35
S'cobalt'
p763
sg49
S'cobalt'
p764
sg66
S'cobalt'
p765
sg274
S'cobalt'
p766
sg93
S'cobalt'
p767
sg94
S'cobalt'
p768
sg95
S'cobalt'
p769
sg96
S'cobalt'
p770
sg97
S'cobalt'
p771
sg98
S'cobalt'
p772
sg99
S'cobalt'
p773
sg100
S'cobalt'
p774
sg101
S'cobalt'
p775
sg102
S'cobalt'
p776
sg103
S'cobalt'
p777
sg473
S'cobalt'
p778
sg104
S'cobalt'
p779
sg105
S'cobalt'
p780
sg510
S'cobalt'
p781
sg106
S'cobalt'
p782
sg535
S'cobalt'
p783
sg108
S'cobalt'
p784
sg109
S'cobalt'
p785
sg110
S'cobalt'
p786
sg111
S'cobalt'
p787
sg112
S'cobalt'
p788
sg113
S'cobalt'
p789
sg114
S'cobalt'
p790
sg205
S'cobalt'
p791
sg115
S'cobalt'
p792
sg167
S'cobalt'
p793
sg116
S'cobalt'
p794
sg117
S'cobalt'
p795
sg92
S'cobalt'
p796
sg118
S'cobalt'
p797
sg734
S'cobalt'
p798
sg119
S'cobalt'
p799
sg120
S'cobalt'
p800
sg121
S'cobalt'
p801
sg122
S'cobalt'
p802
sg255
S'cobalt'
p803
sg128
S'cobalt'
p804
sg124
S'cobalt'
p805
sg125
S'cobalt'
p806
sg126
S'cobalt'
p807
sg127
S'cobalt'
p808
sg158
S'cobalt'
p809
sS'MediaKeyMessageEventInit'
p810
S'cobalt'
p811
sg130
S'cobalt'
p812
sg131
S'cobalt'
p813
sS'CustomEventInit'
p814
S'cobalt'
p815
sg133
S'cobalt'
p816
sg134
S'cobalt'
p817
sg135
S'cobalt'
p818
sg136
S'cobalt'
p819
sg137
S'cobalt'
p820
sS'NavigatorStorageUtils'
p821
S'cobalt'
p822
sg139
S'cobalt'
p823
sg140
S'cobalt'
p824
sg141
S'cobalt'
p825
sg142
S'cobalt'
p826
sg143
S'cobalt'
p827
sg144
S'cobalt'
p828
sS'NavigatorPlugins'
p829
S'cobalt'
p830
sg145
S'cobalt'
p831
sg146
S'cobalt'
p832
sS'InputEventInit'
p833
S'cobalt'
p834
sg148
S'cobalt'
p835
sS'BlobEventInit'
p836
S'cobalt'
p837
sg149
S'cobalt'
p838
sg150
S'cobalt'
p839
sg151
S'cobalt'
p840
sg152
S'cobalt'
p841
sg241
S'cobalt'
p842
sg153
S'cobalt'
p843
sg154
S'cobalt'
p844
sg155
S'cobalt'
p845
sg156
S'cobalt'
p846
sS'PointerEventInit'
p847
S'cobalt'
p848
sg157
S'cobalt'
p849
sS'ElementCSSInlineStyle'
p850
S'cobalt'
p851
sg159
S'cobalt'
p852
sg160
S'cobalt'
p853
sg161
S'cobalt'
p854
sS'MediaTrackSettings'
p855
S'cobalt'
p856
sS'WindowTimers'
p857
S'cobalt'
p858
sS'MediaMetadataInit'
p859
S'cobalt'
p860
sg123
S'cobalt'
p861
sg162
S'cobalt'
p862
sg163
S'cobalt'
p863
sg164
S'cobalt'
p864
sg165
S'cobalt'
p865
sg166
S'cobalt'
p866
sS'MediaKeySystemConfiguration'
p867
S'cobalt'
p868
sS'WindowLocalStorage'
p869
S'cobalt'
p870
sg168
S'cobalt'
p871
sg129
S'cobalt'
p872
sg170
S'cobalt'
p873
sg250
S'cobalt'
p874
sg187
S'cobalt'
p875
sS'LinkStyle'
p876
S'cobalt'
p877
sg171
S'cobalt'
p878
sg172
S'cobalt'
p879
sg173
S'cobalt'
p880
sS'UIEventInit'
p881
S'cobalt'
p882
sS'NavigatorSystemCaptionSettings'
p883
S'cobalt'
p884
sg174
S'cobalt'
p885
sg175
S'cobalt'
p886
sg176
S'cobalt'
p887
sg177
S'cobalt'
p888
sg178
S'cobalt'
p889
sg179
S'cobalt'
p890
sg180
S'cobalt'
p891
sg181
S'cobalt'
p892
sg182
S'cobalt'
p893
sg183
S'cobalt'
p894
sS'EventModifierInit'
p895
S'cobalt'
p896
sg184
S'cobalt'
p897
sg185
S'cobalt'
p898
sg186
S'cobalt'
p899
sS'NonDocumentTypeChildNode'
p900
S'cobalt'
p901
sg188
S'cobalt'
p902
sg189
S'cobalt'
p903
sg190
S'cobalt'
p904
sg107
S'cobalt'
p905
sg192
S'cobalt'
p906
sS'FocusEventInit'
p907
S'cobalt'
p908
sg193
S'cobalt'
p909
sg194
S'cobalt'
p910
sg132
S'cobalt'
p911
sg195
S'cobalt'
p912
sS'WheelEventInit'
p913
S'cobalt'
p914
sg196
S'cobalt'
p915
sg197
S'cobalt'
p916
sg198
S'cobalt'
p917
sS'NavigatorMediaSession'
p918
S'cobalt'
p919
sg199
S'cobalt'
p920
sg200
S'cobalt'
p921
sg201
S'cobalt'
p922
sg202
S'cobalt'
p923
sg203
S'cobalt'
p924
sg204
S'cobalt'
p925
sg138
S'cobalt'
p926
sg206
S'cobalt'
p927
sg207
S'cobalt'
p928
sg208
S'cobalt'
p929
sS'KeyboardEventInit'
p930
S'cobalt'
p931
sg209
S'cobalt'
p932
sg210
S'cobalt'
p933
sg211
S'cobalt'
p934
sg212
S'cobalt'
p935
sg213
S'cobalt'
p936
sg214
S'cobalt'
p937
sg215
S'cobalt'
p938
sg216
S'cobalt'
p939
sg217
S'cobalt'
p940
sS'NavigatorID'
p941
S'cobalt'
p942
sg218
S'cobalt'
p943
sg219
S'cobalt'
p944
sg220
S'cobalt'
p945
sg221
S'cobalt'
p946
sg261
S'cobalt'
p947
sS'MediaImage'
p948
S'cobalt'
p949
sg222
S'cobalt'
p950
sg223
S'cobalt'
p951
sg224
S'cobalt'
p952
sg225
S'cobalt'
p953
sg226
S'cobalt'
p954
sg227
S'cobalt'
p955
sg228
S'cobalt'
p956
sg417
S'cobalt'
p957
sg229
S'cobalt'
p958
sg230
S'cobalt'
p959
sg231
S'cobalt'
p960
sg232
S'cobalt'
p961
sg233
S'cobalt'
p962
sS'SpeechSynthesisGetter'
p963
S'cobalt'
p964
sS'CloseEventInit'
p965
S'cobalt'
p966
sg235
S'cobalt'
p967
sS'BlobPropertyBag'
p968
S'cobalt'
p969
sg236
S'cobalt'
p970
sg237
S'cobalt'
p971
sg238
S'cobalt'
p972
sg239
S'cobalt'
p973
sg240
S'cobalt'
p974
sg234
S'cobalt'
p975
sg242
S'cobalt'
p976
sg243
S'cobalt'
p977
sS'WindowEventHandlers'
p978
S'cobalt'
p979
sg244
S'cobalt'
p980
sS'MediaKeySystemMediaCapability'
p981
S'cobalt'
p982
sS'GlobalCrypto'
p983
S'cobalt'
p984
sg245
S'cobalt'
p985
sg246
S'cobalt'
p986
sg247
S'cobalt'
p987
sg248
S'cobalt'
p988
sg249
S'cobalt'
p989
sg416
S'cobalt'
p990
sS'GlobalEventHandlers'
p991
S'cobalt'
p992
sg251
S'cobalt'
p993
sg252
S'cobalt'
p994
sg253
S'cobalt'
p995
sg169
S'cobalt'
p996
sS'NavigatorLanguage'
p997
S'cobalt'
p998
sS'MediaStreamConstraints'
p999
S'cobalt'
p1000
sS'ErrorEventInit'
p1001
S'cobalt'
p1002
sS'WindowSessionStorage'
p1003
S'cobalt'
p1004
sg147
S'cobalt'
p1005
sg254
S'cobalt'
p1006
sg269
S'cobalt'
p1007
sg256
S'cobalt'
p1008
sg257
S'cobalt'
p1009
sg258
S'cobalt'
p1010
sg259
S'cobalt'
p1011
sg260
S'cobalt'
p1012
sS'URLUtils'
p1013
S'cobalt'
p1014
sS'MediaRecorderOptions'
p1015
S'cobalt'
p1016
sg262
S'cobalt'
p1017
sg191
S'cobalt'
p1018
sg263
S'cobalt'
p1019
sg264
S'cobalt'
p1020
sS'NavigatorLicenses'
p1021
S'cobalt'
p1022
sg265
S'cobalt'
p1023
sg266
S'cobalt'
p1024
sg267
S'cobalt'
p1025
sg268
S'cobalt'
p1026
sS'EventInit'
p1027
S'cobalt'
p1028
sg270
S'cobalt'
p1029
sg271
S'cobalt'
p1030
sg272
S'cobalt'
p1031
ssg120
(dp1032
g4
S'cobalt/dom/MessageEvent.h'
p1033
sg6
(lp1034
sg8
S'Event'
p1035
sg10
Nsg11
I00
sg12
(lp1036
sg14
(lp1037
sg16
(lp1038
sg18
(lp1039
sg20
S'cobalt/dom'
p1040
sg22
(lp1041
g1035
asg25
(dp1042
sg27
I00
sg28
(lp1043
sg30
Nsg31
I00
sg32
I00
sg33
S'/home/avakimov_am/chromium/cobalt/src/cobalt/dom/message_event.idl'
p1044
ssg121
(dp1045
g4
S'cobalt/media_session/MediaSession.h'
p1046
sg6
(lp1047
sg8
Nsg10
Nsg11
I00
sg12
(lp1048
sg14
(lp1049
sg16
(lp1050
sg18
(lp1051
sg20
S'cobalt/media_session'
p1052
sg22
(lp1053
sg25
(dp1054
sg27
I00
sg28
(lp1055
sg30
Nsg31
I00
sg32
I00
sg33
S'/home/avakimov_am/chromium/cobalt/src/cobalt/media_session/media_session.idl'
p1056
ssg122
(dp1057
g4
S'cobalt/dom/eme/MediaKeySession.h'
p1058
sg6
(lp1059
sg8
S'EventTarget'
p1060
sg10
Nsg11
I00
sg12
(lp1061
sg14
(lp1062
sg16
(lp1063
sg18
(lp1064
sg20
S'cobalt/dom/eme'
p1065
sg22
(lp1066
g1060
asg25
(dp1067
sg27
I00
sg28
(lp1068
sg30
Nsg31
I00
sg32
I00
sg33
S'/home/avakimov_am/chromium/cobalt/src/cobalt/dom/eme/media_key_session.idl'
p1069
ssg229
(dp1070
g4
S'cobalt/dom/MemoryInfo.h'
p1071
sg6
(lp1072
sg8
Nsg10
Nsg11
I00
sg12
(lp1073
sg14
(lp1074
sg16
(lp1075
sg18
(lp1076
sg20
S'cobalt/dom'
p1077
sg22
(lp1078
sg25
(dp1079
sg27
I00
sg28
(lp1080
sg30
Nsg31
I00
sg32
I00
sg33
S'/home/avakimov_am/chromium/cobalt/src/cobalt/dom/memory_info.idl'
p1081
ssg128
(dp1082
g4
S'cobalt/dom/DOMRect.h'
p1083
sg6
(lp1084
sg8
S'DOMRectReadOnly'
p1085
sg10
Nsg11
I00
sg12
(lp1086
sg14
(lp1087
sg16
(lp1088
sg18
(lp1089
sg20
S'cobalt/dom'
p1090
sg22
(lp1091
g1085
asg25
(dp1092
sg27
I00
sg28
(lp1093
sg30
Nsg31
I00
sg32
I00
sg33
S'/home/avakimov_am/chromium/cobalt/src/cobalt/dom/dom_rect.idl'
p1094
ssg124
(dp1095
g4
S'cobalt/dom/eme/MediaKeyStatusMap.h'
p1096
sg6
(lp1097
sg8
Nsg10
Nsg11
I00
sg12
(lp1098
sg14
(lp1099
sg16
(lp1100
sg18
(lp1101
sg20
S'cobalt/dom/eme'
p1102
sg22
(lp1103
sg25
(dp1104
sg27
I00
sg28
(lp1105
sg30
Nsg31
I00
sg32
I00
sg33
S'/home/avakimov_am/chromium/cobalt/src/cobalt/dom/eme/media_key_status_map.idl'
p1106
ssS'dictionaries'
p1107
(dp1108
g814
I01
sg965
I01
sg881
I01
sg274
I01
sg1027
I01
sg968
I01
sg833
I01
sg836
I01
sg473
I01
sg913
I01
sg510
I01
sg535
I01
sg907
I01
sg981
I01
sg948
I01
sg847
I01
sg999
I01
sg855
I01
sg859
I01
sg1001
I01
sg734
I01
sg895
I01
sg867
I01
sg1015
I01
sg930
I01
sg810
I01
ssg125
(dp1109
g4
S'cobalt/h5vcc/dial/DialServer.h'
p1110
sg6
(lp1111
sg8
Nsg10
S'DIAL_SERVER'
p1112
sg11
I00
sg12
(lp1113
sg14
(lp1114
sg16
(lp1115
sg18
(lp1116
sg20
S'cobalt/h5vcc/dial'
p1117
sg22
(lp1118
sg25
(dp1119
sg27
I00
sg28
(lp1120
sg30
Nsg31
I00
sg32
I00
sg33
S'/home/avakimov_am/chromium/cobalt/src/cobalt/h5vcc/dial/dial_server.idl'
p1121
ssS'callback_interfaces'
p1122
g78
((lp1123
g162
ag132
atRp1124
sg126
(dp1125
g4
S'cobalt/web_animations/AnimationEffectReadOnly.h'
p1126
sg6
(lp1127
sg8
Nsg10
Nsg11
I00
sg12
(lp1128
sg14
(lp1129
sg16
(lp1130
sg18
(lp1131
sg20
S'cobalt/web_animations'
p1132
sg22
(lp1133
sg25
(dp1134
sg27
I00
sg28
(lp1135
sg30
Nsg31
I00
sg32
I00
sg33
S'/home/avakimov_am/chromium/cobalt/src/cobalt/web_animations/animation_effect_read_only.idl'
p1136
ssg127
(dp1137
g4
S'cobalt/dom/WheelEvent.h'
p1138
sg6
(lp1139
sg8
S'MouseEvent'
p1140
sg10
Nsg11
I00
sg12
(lp1141
sg14
(lp1142
sg16
(lp1143
sg18
(lp1144
sg20
S'cobalt/dom'
p1145
sg22
(lp1146
g1140
ag649
ag24
asg25
(dp1147
sg27
I00
sg28
(lp1148
sg30
Nsg31
I00
sg32
I00
sg33
S'/home/avakimov_am/chromium/cobalt/src/cobalt/dom/wheel_event.idl'
p1149
ssg158
(dp1150
g4
S'cobalt/audio/AudioBuffer.h'
p1151
sg6
(lp1152
sg8
Nsg10
Nsg11
I00
sg12
(lp1153
sg14
(lp1154
sg16
(lp1155
sg18
(lp1156
sg20
S'cobalt/audio'
p1157
sg22
(lp1158
sg25
(dp1159
sg27
I00
sg28
(lp1160
sg30
Nsg31
I00
sg32
I00
sg33
S'/home/avakimov_am/chromium/cobalt/src/cobalt/audio/audio_buffer.idl'
p1161
ssS'garbage_collected_interfaces'
p1162
g78
((lp1163
g2
ag35
ag49
ag66
ag274
ag93
ag94
ag95
ag96
ag97
ag98
ag99
ag100
ag101
ag102
ag103
ag473
ag104
ag105
ag510
ag106
ag535
ag108
ag109
ag110
ag111
ag112
ag113
ag114
ag205
ag115
ag167
ag116
ag117
ag92
ag118
ag734
ag119
ag120
ag121
ag122
ag255
ag128
ag124
ag125
ag126
ag127
ag158
ag810
ag130
ag131
ag814
ag133
ag134
ag135
ag136
ag137
ag821
ag139
ag140
ag141
ag142
ag143
ag144
ag829
ag145
ag146
ag833
ag148
ag836
ag149
ag150
ag151
ag152
ag241
ag153
ag154
ag155
ag156
ag847
ag157
ag850
ag159
ag160
ag161
ag855
ag857
ag859
ag123
ag162
ag163
ag164
ag165
ag166
ag867
ag869
ag168
ag129
ag170
ag250
ag187
ag876
ag171
ag172
ag173
ag881
ag883
ag174
ag175
ag176
ag177
ag178
ag179
ag180
ag181
ag182
ag183
ag895
ag184
ag185
ag186
ag900
ag188
ag189
ag190
ag107
ag192
ag907
ag193
ag194
ag132
ag195
ag913
ag196
ag197
ag198
ag918
ag199
ag200
ag201
ag202
ag203
ag204
ag138
ag206
ag207
ag208
ag930
ag209
ag210
ag211
ag212
ag213
ag214
ag215
ag216
ag217
ag941
ag218
ag219
ag220
ag221
ag261
ag948
ag222
ag223
ag224
ag225
ag226
ag227
ag228
ag417
ag229
ag230
ag231
ag232
ag233
ag963
ag965
ag235
ag968
ag236
ag237
ag238
ag239
ag240
ag234
ag242
ag243
ag978
ag244
ag981
ag983
ag245
ag246
ag247
ag248
ag249
ag416
ag991
ag251
ag252
ag253
ag169
ag997
ag999
ag1001
ag1003
ag147
ag254
ag269
ag256
ag257
ag258
ag259
ag260
ag1013
ag1015
ag262
ag191
ag263
ag264
ag1021
ag265
ag266
ag267
ag268
ag1027
ag270
ag271
ag272
atRp1164
sg821
(dp1165
g4
S'cobalt/dom/NavigatorStorageUtils.h'
p1166
sg6
(lp1167
sg8
Nsg10
Nsg11
I00
sg12
(lp1168
sg14
(lp1169
sg16
(lp1170
sg18
(lp1171
sg20
S'cobalt/dom'
p1172
sg22
(lp1173
sg25
(dp1174
sg27
I01
sg28
(lp1175
sg30
Nsg31
I00
sg32
I00
sg33
S'/home/avakimov_am/chromium/cobalt/src/cobalt/dom/navigator_storage_utils.idl'
p1176
ssg810
(dp1177
g4
S'cobalt/dom/eme/MediaKeyMessageEventInit.h'
p1178
sg6
(lp1179
sg8
S'EventInit'
p1180
sg10
Nsg11
I00
sg12
(lp1181
sg14
(lp1182
sg16
Nsg18
(lp1183
sg20
S'cobalt/dom/eme'
p1184
sg22
(lp1185
g1180
asg25
(dp1186
sg27
I01
sg28
(lp1187
sg30
Nsg31
I01
sg32
I00
sg33
S'/home/avakimov_am/chromium/cobalt/src/cobalt/dom/eme/media_key_message_event_init.idl'
p1188
ssg130
(dp1189
g4
S'cobalt/dom/Event.h'
p1190
sg6
(lp1191
sg8
Nsg10
Nsg11
I00
sg12
(lp1192
sg14
(lp1193
sg16
(lp1194
sg18
(lp1195
sg20
S'cobalt/dom'
p1196
sg22
(lp1197
sg25
(dp1198
sg27
I00
sg28
(lp1199
sg30
Nsg31
I00
sg32
I00
sg33
S'/home/avakimov_am/chromium/cobalt/src/cobalt/dom/event.idl'
p1200
ssg131
(dp1201
g4
S'cobalt/dom/TimeRanges.h'
p1202
sg6
(lp1203
sg8
Nsg10
Nsg11
I00
sg12
(lp1204
sg14
(lp1205
sg16
(lp1206
sg18
(lp1207
sg20
S'cobalt/dom'
p1208
sg22
(lp1209
sg25
(dp1210
sg27
I00
sg28
(lp1211
sg30
Nsg31
I00
sg32
I00
sg33
S'/home/avakimov_am/chromium/cobalt/src/cobalt/dom/time_ranges.idl'
p1212
ssg814
(dp1213
g4
S'cobalt/dom/CustomEventInit.h'
p1214
sg6
(lp1215
sg8
S'EventInit'
p1216
sg10
Nsg11
I00
sg12
(lp1217
sg14
(lp1218
sg16
Nsg18
(lp1219
sg20
S'cobalt/dom'
p1220
sg22
(lp1221
g1216
asg25
(dp1222
sg27
I01
sg28
(lp1223
sg30
Nsg31
I01
sg32
I00
sg33
S'/home/avakimov_am/chromium/cobalt/src/cobalt/dom/custom_event_init.idl'
p1224
ssg96
(dp1225
g4
S'cobalt/dom/MediaQueryList.h'
p1226
sg6
(lp1227
sg8
Nsg10
Nsg11
I00
sg12
(lp1228
sg14
(lp1229
sg16
(lp1230
sg18
(lp1231
sg20
S'cobalt/dom'
p1232
sg22
(lp1233
sg25
(dp1234
sg27
I00
sg28
(lp1235
sg30
Nsg31
I00
sg32
I00
sg33
S'/home/avakimov_am/chromium/cobalt/src/cobalt/dom/media_query_list.idl'
p1236
ssg134
(dp1237
g4
S'cobalt/dom/eme/MediaEncryptedEvent.h'
p1238
sg6
(lp1239
sg8
S'Event'
p1240
sg10
Nsg11
I00
sg12
(lp1241
sg14
(lp1242
sg16
(lp1243
sg18
(lp1244
sg20
S'cobalt/dom/eme'
p1245
sg22
(lp1246
g1240
asg25
(dp1247
sg27
I00
sg28
(lp1248
sg30
Nsg31
I00
sg32
I00
sg33
S'/home/avakimov_am/chromium/cobalt/src/cobalt/dom/eme/media_encrypted_event.idl'
p1249
ssg135
(dp1250
g4
S'cobalt/dom/XMLDocument.h'
p1251
sg6
(lp1252
sg8
S'Document'
p1253
sg10
Nsg11
I00
sg12
(lp1254
sg14
(lp1255
sg16
(lp1256
sg18
(lp1257
sg20
S'cobalt/dom'
p1258
sg22
(lp1259
g1253
ag369
ag62
asg25
(dp1260
sg27
I00
sg28
(lp1261
sg30
Nsg31
I00
sg32
I00
sg33
S'/home/avakimov_am/chromium/cobalt/src/cobalt/dom/xml_document.idl'
p1262
ssg136
(dp1263
g4
S'cobalt/cssom/CSSFontFaceRule.h'
p1264
sg6
(lp1265
sg8
S'CSSRule'
p1266
sg10
Nsg11
I00
sg12
(lp1267
sg14
(lp1268
sg16
(lp1269
sg18
(lp1270
sg20
S'cobalt/cssom'
p1271
sg22
(lp1272
g1266
asg25
(dp1273
sg27
I00
sg28
(lp1274
sg30
Nsg31
I00
sg32
I00
sg33
S'/home/avakimov_am/chromium/cobalt/src/cobalt/cssom/css_font_face_rule.idl'
p1275
ssg137
(dp1276
g4
S'cobalt/dom/NodeList.h'
p1277
sg6
(lp1278
sg8
Nsg10
Nsg11
I00
sg12
(lp1279
sg14
(lp1280
sg16
(lp1281
sg18
(lp1282
sg20
S'cobalt/dom'
p1283
sg22
(lp1284
sg25
(dp1285
sg27
I00
sg28
(lp1286
sg30
Nsg31
I00
sg32
I00
sg33
S'/home/avakimov_am/chromium/cobalt/src/cobalt/dom/node_list.idl'
p1287
ssg138
(dp1288
g4
S'cobalt/dom/DOMParser.h'
p1289
sg6
(lp1290
sg8
Nsg10
Nsg11
I00
sg12
(lp1291
sg14
(lp1292
sg16
(lp1293
sg18
(lp1294
sg20
S'cobalt/dom'
p1295
sg22
(lp1296
sg25
(dp1297
sg27
I00
sg28
(lp1298
sg30
Nsg31
I00
sg32
I00
sg33
S'/home/avakimov_am/chromium/cobalt/src/cobalt/dom/dom_parser.idl'
p1299
ssg179
(dp1300
g4
S'cobalt/web_animations/AnimationEffectTimingReadOnly.h'
p1301
sg6
(lp1302
S'bindings/cobalt/v8/UnrestrictedDoubleOrString.h'
p1303
asg8
Nsg10
Nsg11
I00
sg12
(lp1304
sg14
(lp1305
sg16
(lp1306
sg18
(lp1307
sg20
S'cobalt/web_animations'
p1308
sg22
(lp1309
sg25
(dp1310
sg27
I00
sg28
(lp1311
sg30
Nsg31
I00
sg32
I00
sg33
S'/home/avakimov_am/chromium/cobalt/src/cobalt/web_animations/animation_effect_timing_read_only.idl'
p1312
ssg140
(dp1313
g4
S'cobalt/speech/SpeechSynthesisErrorEvent.h'
p1314
sg6
(lp1315
sg8
S'SpeechSynthesisEvent'
p1316
sg10
Nsg11
I00
sg12
(lp1317
sg14
(lp1318
sg16
(lp1319
sg18
(lp1320
sg20
S'cobalt/speech'
p1321
sg22
(lp1322
g1316
aS'Event'
p1323
asg25
(dp1324
sg27
I00
sg28
(lp1325
sg30
Nsg31
I00
sg32
I00
sg33
S'/home/avakimov_am/chromium/cobalt/src/cobalt/speech/speech_synthesis_error_event.idl'
p1326
ssg141
(dp1327
g4
S'cobalt/dom/Location.h'
p1328
sg6
(lp1329
sg8
Nsg10
Nsg11
I00
sg12
(lp1330
S'/home/avakimov_am/chromium/cobalt/src/cobalt/dom/url_utils.idl'
p1331
asg14
(lp1332
S'URLUtils'
p1333
asg16
(lp1334
sg18
(lp1335
sg20
S'cobalt/dom'
p1336
sg22
(lp1337
sg25
(dp1338
sg27
I00
sg28
(lp1339
sg30
Nsg31
I00
sg32
I00
sg33
S'/home/avakimov_am/chromium/cobalt/src/cobalt/dom/location.idl'
p1340
ssg142
(dp1341
g4
S'cobalt/dom/CustomEvent.h'
p1342
sg6
(lp1343
sg8
S'Event'
p1344
sg10
Nsg11
I00
sg12
(lp1345
sg14
(lp1346
sg16
(lp1347
sg18
(lp1348
sg20
S'cobalt/dom'
p1349
sg22
(lp1350
g1344
asg25
(dp1351
sg27
I00
sg28
(lp1352
sg30
Nsg31
I00
sg32
I00
sg33
S'/home/avakimov_am/chromium/cobalt/src/cobalt/dom/custom_event.idl'
p1353
ssg143
(dp1354
g4
S'cobalt/dom/Performance.h'
p1355
sg6
(lp1356
S'cobalt/dom/PerformanceHighResolutionTime.h'
p1357
asg8
Nsg10
Nsg11
I00
sg12
(lp1358
S'/home/avakimov_am/chromium/cobalt/src/cobalt/dom/performance__high_resolution_time.idl'
p1359
asg14
(lp1360
sg75
(dp1361
S'cobalt'
p1362
g78
((lp1363
g1357
atRp1364
ssg16
(lp1365
sg18
(lp1366
sg20
S'cobalt/dom'
p1367
sg22
(lp1368
sg25
(dp1369
sg27
I00
sg28
(lp1370
sg30
Nsg31
I00
sg32
I00
sg33
S'/home/avakimov_am/chromium/cobalt/src/cobalt/dom/performance.idl'
p1371
ssg144
(dp1372
g4
S'cobalt/dom/TrackDefault.h'
p1373
sg6
(lp1374
sg8
Nsg10
Nsg11
I00
sg12
(lp1375
sg14
(lp1376
sg16
(lp1377
sg18
(lp1378
sg20
S'cobalt/dom'
p1379
sg22
(lp1380
sg25
(dp1381
sg27
I00
sg28
(lp1382
sg30
Nsg31
I00
sg32
I00
sg33
S'/home/avakimov_am/chromium/cobalt/src/cobalt/dom/track_default.idl'
p1383
ssg829
(dp1384
g4
S'cobalt/dom/NavigatorPlugins.h'
p1385
sg6
(lp1386
sg8
Nsg10
Nsg11
I00
sg12
(lp1387
sg14
(lp1388
sg16
(lp1389
sg18
(lp1390
sg20
S'cobalt/dom'
p1391
sg22
(lp1392
sg25
(dp1393
sg27
I01
sg28
(lp1394
sg30
Nsg31
I00
sg32
I00
sg33
S'/home/avakimov_am/chromium/cobalt/src/cobalt/dom/navigator_plugins.idl'
p1395
ssg146
(dp1396
g4
S'cobalt/dom/HTMLBodyElement.h'
p1397
sg6
(lp1398
sg8
S'HTMLElement'
p1399
sg10
Nsg11
I00
sg12
(lp1400
sg14
(lp1401
sg16
(lp1402
sg18
(lp1403
sg20
S'cobalt/dom'
p1404
sg22
(lp1405
g1399
ag85
ag86
ag62
asg25
(dp1406
sg27
I00
sg28
(lp1407
sg30
Nsg31
I00
sg32
I00
sg33
S'/home/avakimov_am/chromium/cobalt/src/cobalt/dom/html_body_element.idl'
p1408
ssg833
(dp1409
g4
S'cobalt/dom/InputEventInit.h'
p1410
sg6
(lp1411
sg8
S'EventModifierInit'
p1412
sg10
Nsg11
I00
sg12
(lp1413
sg14
(lp1414
sg16
Nsg18
(lp1415
sg20
S'cobalt/dom'
p1416
sg22
(lp1417
g1412
ag545
ag546
asg25
(dp1418
sg27
I01
sg28
(lp1419
sg30
Nsg31
I01
sg32
I00
sg33
S'/home/avakimov_am/chromium/cobalt/src/cobalt/dom/input_event_init.idl'
p1420
ssg148
(dp1421
g4
S'cobalt/dom/HTMLCollection.h'
p1422
sg6
(lp1423
sg8
Nsg10
Nsg11
I00
sg12
(lp1424
sg14
(lp1425
sg16
(lp1426
sg18
(lp1427
sg20
S'cobalt/dom'
p1428
sg22
(lp1429
sg25
(dp1430
sg27
I00
sg28
(lp1431
sg30
Nsg31
I00
sg32
I00
sg33
S'/home/avakimov_am/chromium/cobalt/src/cobalt/dom/html_collection.idl'
p1432
ssg836
(dp1433
g4
S'cobalt/media_capture/BlobEventInit.h'
p1434
sg6
(lp1435
sg8
Nsg10
Nsg11
I00
sg12
(lp1436
sg14
(lp1437
sg16
Nsg18
(lp1438
sg20
S'cobalt/media_capture'
p1439
sg22
(lp1440
sg25
(dp1441
sg27
I01
sg28
(lp1442
sg30
Nsg31
I01
sg32
I00
sg33
S'/home/avakimov_am/chromium/cobalt/src/cobalt/media_capture/blob_event_init.idl'
p1443
ssg149
(dp1444
g4
S'cobalt/h5vcc/H5vccCrashLog.h'
p1445
sg6
(lp1446
sg8
Nsg10
S'COBALT_ENABLE_CRASH_LOG'
p1447
sg11
I00
sg12
(lp1448
sg14
(lp1449
sg16
(lp1450
sg18
(lp1451
sg20
S'cobalt/h5vcc'
p1452
sg22
(lp1453
sg25
(dp1454
sg27
I00
sg28
(lp1455
sg30
Nsg31
I00
sg32
I00
sg33
S'/home/avakimov_am/chromium/cobalt/src/cobalt/h5vcc/h5vcc_crash_log.idl'
p1456
ssg231
(dp1457
g4
S'cobalt/webdriver/ScriptExecutorResult.h'
p1458
sg6
(lp1459
sg8
Nsg10
S'ENABLE_WEBDRIVER'
p1460
sg11
I00
sg12
(lp1461
sg14
(lp1462
sg16
(lp1463
sg18
(lp1464
sg20
S'cobalt/webdriver'
p1465
sg22
(lp1466
sg25
(dp1467
sg27
I00
sg28
(lp1468
sg30
Nsg31
I00
sg32
I00
sg33
S'/home/avakimov_am/chromium/cobalt/src/cobalt/webdriver/script_executor_result.idl'
p1469
ssg150
(dp1470
g4
S'cobalt/h5vcc/H5vccPlatformService.h'
p1471
sg6
(lp1472
sg8
Nsg10
Nsg11
I00
sg12
(lp1473
sg14
(lp1474
sg16
(lp1475
sg18
(lp1476
sg20
S'cobalt/h5vcc'
p1477
sg22
(lp1478
sg25
(dp1479
sg27
I00
sg28
(lp1480
sg30
Nsg31
I00
sg32
I00
sg33
S'/home/avakimov_am/chromium/cobalt/src/cobalt/h5vcc/h5vcc_platform_service.idl'
p1481
ssg151
(dp1482
g4
S'cobalt/cssom/CSSStyleSheet.h'
p1483
sg6
(lp1484
sg8
S'StyleSheet'
p1485
sg10
Nsg11
I00
sg12
(lp1486
sg14
(lp1487
sg16
(lp1488
sg18
(lp1489
sg20
S'cobalt/cssom'
p1490
sg22
(lp1491
g1485
asg25
(dp1492
sg27
I00
sg28
(lp1493
sg30
Nsg31
I00
sg32
I00
sg33
S'/home/avakimov_am/chromium/cobalt/src/cobalt/cssom/css_style_sheet.idl'
p1494
ssg152
(dp1495
g4
S'cobalt/dom/StorageEvent.h'
p1496
sg6
(lp1497
sg8
S'Event'
p1498
sg10
Nsg11
I00
sg12
(lp1499
sg14
(lp1500
sg16
(lp1501
sg18
(lp1502
sg20
S'cobalt/dom'
p1503
sg22
(lp1504
g1498
asg25
(dp1505
sg27
I00
sg28
(lp1506
sg30
Nsg31
I00
sg32
I00
sg33
S'/home/avakimov_am/chromium/cobalt/src/cobalt/dom/storage_event.idl'
p1507
ssg153
(dp1508
g4
S'cobalt/cssom/CSSStyleDeclaration.h'
p1509
sg6
(lp1510
sg8
Nsg10
Nsg11
I00
sg12
(lp1511
sg14
(lp1512
sg16
(lp1513
sg18
(lp1514
sg20
S'cobalt/cssom'
p1515
sg22
(lp1516
sg25
(dp1517
sg27
I00
sg28
(lp1518
sg30
Nsg31
I00
sg32
I00
sg33
S'/home/avakimov_am/chromium/cobalt/src/cobalt/cssom/css_style_declaration.idl'
p1519
ssg154
(dp1520
g4
S'cobalt/dom/ErrorEvent.h'
p1521
sg6
(lp1522
sg8
S'Event'
p1523
sg10
Nsg11
I00
sg12
(lp1524
sg14
(lp1525
sg16
(lp1526
sg18
(lp1527
sg20
S'cobalt/dom'
p1528
sg22
(lp1529
g1523
asg25
(dp1530
sg27
I00
sg28
(lp1531
sg30
Nsg31
I00
sg32
I00
sg33
S'/home/avakimov_am/chromium/cobalt/src/cobalt/dom/error_event.idl'
p1532
ssg155
(dp1533
g4
S'cobalt/h5vcc/H5vccAudioConfigArray.h'
p1534
sg6
(lp1535
sg8
Nsg10
Nsg11
I00
sg12
(lp1536
sg14
(lp1537
sg16
(lp1538
sg18
(lp1539
sg20
S'cobalt/h5vcc'
p1540
sg22
(lp1541
sg25
(dp1542
sg27
I00
sg28
(lp1543
sg30
Nsg31
I00
sg32
I00
sg33
S'/home/avakimov_am/chromium/cobalt/src/cobalt/h5vcc/h5vcc_audio_config_array.idl'
p1544
ssg156
(dp1545
g4
S'cobalt/websocket/WebSocket.h'
p1546
sg6
(lp1547
sg8
S'EventTarget'
p1548
sg10
Nsg11
I00
sg12
(lp1549
sg14
(lp1550
sg16
(lp1551
sg18
(lp1552
sg20
S'cobalt/websocket'
p1553
sg22
(lp1554
g1548
asg25
(dp1555
sg27
I00
sg28
(lp1556
sg30
Nsg31
I00
sg32
I00
sg33
S'/home/avakimov_am/chromium/cobalt/src/cobalt/websocket/web_socket.idl'
p1557
ssg847
(dp1558
g4
S'cobalt/dom/PointerEventInit.h'
p1559
sg6
(lp1560
sg8
S'MouseEventInit'
p1561
sg10
Nsg11
I00
sg12
(lp1562
sg14
(lp1563
sg16
Nsg18
(lp1564
sg20
S'cobalt/dom'
p1565
sg22
(lp1566
g1561
ag539
ag545
ag546
asg25
(dp1567
sg27
I01
sg28
(lp1568
sg30
Nsg31
I01
sg32
I00
sg33
S'/home/avakimov_am/chromium/cobalt/src/cobalt/dom/pointer_event_init.idl'
p1569
ssg157
(dp1570
g4
S'cobalt/web_animations/Animatable.h'
p1571
sg6
(lp1572
sg8
Nsg10
Nsg11
I00
sg12
(lp1573
sg14
(lp1574
sg16
(lp1575
sg18
(lp1576
sg20
S'cobalt/web_animations'
p1577
sg22
(lp1578
sg25
(dp1579
sg27
I00
sg28
(lp1580
sg30
Nsg31
I00
sg32
I00
sg33
S'/home/avakimov_am/chromium/cobalt/src/cobalt/web_animations/animatable.idl'
p1581
ssg850
(dp1582
g4
S'cobalt/dom/ElementCSSInlineStyle.h'
p1583
sg6
(lp1584
sg8
Nsg10
Nsg11
I00
sg12
(lp1585
sg14
(lp1586
sg16
(lp1587
sg18
(lp1588
sg20
S'cobalt/dom'
p1589
sg22
(lp1590
sg25
(dp1591
sg27
I01
sg28
(lp1592
sg30
Nsg31
I00
sg32
I00
sg33
S'/home/avakimov_am/chromium/cobalt/src/cobalt/dom/element_css_inline_style.idl'
p1593
ssg159
(dp1594
g4
S'cobalt/dom/HTMLParagraphElement.h'
p1595
sg6
(lp1596
sg8
S'HTMLElement'
p1597
sg10
Nsg11
I00
sg12
(lp1598
sg14
(lp1599
sg16
(lp1600
sg18
(lp1601
sg20
S'cobalt/dom'
p1602
sg22
(lp1603
g1597
ag85
ag86
ag62
asg25
(dp1604
sg27
I00
sg28
(lp1605
sg30
Nsg31
I00
sg32
I00
sg33
S'/home/avakimov_am/chromium/cobalt/src/cobalt/dom/html_paragraph_element.idl'
p1606
ssg160
(dp1607
g4
S'cobalt/dom/InputEvent.h'
p1608
sg6
(lp1609
sg8
S'UIEvent'
p1610
sg10
Nsg11
I00
sg12
(lp1611
sg14
(lp1612
sg16
(lp1613
sg18
(lp1614
sg20
S'cobalt/dom'
p1615
sg22
(lp1616
g1610
ag24
asg25
(dp1617
sg27
I00
sg28
(lp1618
sg30
Nsg31
I00
sg32
I00
sg33
S'/home/avakimov_am/chromium/cobalt/src/cobalt/dom/input_event.idl'
p1619
ssg161
(dp1620
g4
S'cobalt/dom/Crypto.h'
p1621
sg6
(lp1622
sg8
Nsg10
Nsg11
I00
sg12
(lp1623
sg14
(lp1624
sg16
(lp1625
sg18
(lp1626
sg20
S'cobalt/dom'
p1627
sg22
(lp1628
sg25
(dp1629
sg27
I00
sg28
(lp1630
sg30
Nsg31
I00
sg32
I00
sg33
S'/home/avakimov_am/chromium/cobalt/src/cobalt/dom/crypto.idl'
p1631
ssg855
(dp1632
g4
S'cobalt/media_stream/MediaTrackSettings.h'
p1633
sg6
(lp1634
sg8
Nsg10
Nsg11
I00
sg12
(lp1635
sg14
(lp1636
sg16
Nsg18
(lp1637
sg20
S'cobalt/media_stream'
p1638
sg22
(lp1639
sg25
(dp1640
sg27
I01
sg28
(lp1641
sg30
Nsg31
I01
sg32
I00
sg33
S'/home/avakimov_am/chromium/cobalt/src/cobalt/media_stream/media_track_settings.idl'
p1642
ssg857
(dp1643
g4
S'cobalt/dom/WindowTimers.h'
p1644
sg6
(lp1645
sg8
Nsg10
Nsg11
I00
sg12
(lp1646
sg14
(lp1647
sg16
(lp1648
sg18
(lp1649
sg20
S'cobalt/dom'
p1650
sg22
(lp1651
sg25
(dp1652
sg27
I01
sg28
(lp1653
sg30
Nsg31
I00
sg32
I00
sg33
S'/home/avakimov_am/chromium/cobalt/src/cobalt/dom/window_timers.idl'
p1654
ssg859
(dp1655
g4
S'cobalt/media_session/MediaMetadataInit.h'
p1656
sg6
(lp1657
sg8
Nsg10
Nsg11
I00
sg12
(lp1658
sg14
(lp1659
sg16
Nsg18
(lp1660
sg20
S'cobalt/media_session'
p1661
sg22
(lp1662
sg25
(dp1663
sg27
I01
sg28
(lp1664
sg30
Nsg31
I01
sg32
I00
sg33
S'/home/avakimov_am/chromium/cobalt/src/cobalt/media_session/media_metadata_init.idl'
p1665
ssg123
(dp1666
g4
S'cobalt/dom/HTMLTitleElement.h'
p1667
sg6
(lp1668
sg8
S'HTMLElement'
p1669
sg10
Nsg11
I00
sg12
(lp1670
sg14
(lp1671
sg16
(lp1672
sg18
(lp1673
sg20
S'cobalt/dom'
p1674
sg22
(lp1675
g1669
ag85
ag86
ag62
asg25
(dp1676
sg27
I00
sg28
(lp1677
sg30
Nsg31
I00
sg32
I00
sg33
S'/home/avakimov_am/chromium/cobalt/src/cobalt/dom/html_title_element.idl'
p1678
ssg162
(dp1679
g4
S'cobalt/dom/OnErrorEventListener.h'
p1680
sg6
(lp1681
S'bindings/cobalt/v8/EventOrString.h'
p1682
asg8
Nsg10
Nsg11
I00
sg12
(lp1683
sg14
(lp1684
sg16
(lp1685
sg18
(lp1686
sg20
S'cobalt/dom'
p1687
sg22
(lp1688
sg25
(dp1689
sg27
I00
sg28
(lp1690
sg30
Nsg31
I00
sg32
I01
sg33
S'/home/avakimov_am/chromium/cobalt/src/cobalt/dom/on_error_event_listener.idl'
p1691
ssg252
(dp1692
g4
S'cobalt/dom/SecurityPolicyViolationEvent.h'
p1693
sg6
(lp1694
sg8
S'Event'
p1695
sg10
Nsg11
I00
sg12
(lp1696
sg14
(lp1697
sg16
(lp1698
sg18
(lp1699
sg20
S'cobalt/dom'
p1700
sg22
(lp1701
g1695
asg25
(dp1702
sg27
I00
sg28
(lp1703
sg30
Nsg31
I00
sg32
I00
sg33
S'/home/avakimov_am/chromium/cobalt/src/cobalt/dom/security_policy_violation_event.idl'
p1704
ssg164
(dp1705
g4
S'cobalt/cssom/CSS.h'
p1706
sg6
(lp1707
sg8
Nsg10
Nsg11
I00
sg12
(lp1708
sg14
(lp1709
sg16
(lp1710
sg18
(lp1711
sg20
S'cobalt/cssom'
p1712
sg22
(lp1713
sg25
(dp1714
sg27
I00
sg28
(lp1715
sg30
Nsg31
I00
sg32
I00
sg33
S'/home/avakimov_am/chromium/cobalt/src/cobalt/cssom/css.idl'
p1716
ssg165
(dp1717
g4
S'cobalt/media_stream/MediaStream.h'
p1718
sg6
(lp1719
sg8
S'EventTarget'
p1720
sg10
Nsg11
I00
sg12
(lp1721
sg14
(lp1722
sg16
(lp1723
sg18
(lp1724
sg20
S'cobalt/media_stream'
p1725
sg22
(lp1726
g1720
asg25
(dp1727
sg27
I00
sg28
(lp1728
sg30
Nsg31
I00
sg32
I00
sg33
S'/home/avakimov_am/chromium/cobalt/src/cobalt/media_stream/media_stream.idl'
p1729
ssg166
(dp1730
g4
S'cobalt/dom/Comment.h'
p1731
sg6
(lp1732
sg8
S'CharacterData'
p1733
sg10
Nsg11
I00
sg12
(lp1734
sg14
(lp1735
sg16
(lp1736
sg18
(lp1737
sg20
S'cobalt/dom'
p1738
sg22
(lp1739
g1733
ag61
ag62
asg25
(dp1740
sg27
I00
sg28
(lp1741
sg30
Nsg31
I00
sg32
I00
sg33
S'/home/avakimov_am/chromium/cobalt/src/cobalt/dom/comment.idl'
p1742
ssg266
(dp1743
g4
S'cobalt/web_animations/AnimationTimeline.h'
p1744
sg6
(lp1745
sg8
Nsg10
Nsg11
I00
sg12
(lp1746
sg14
(lp1747
sg16
(lp1748
sg18
(lp1749
sg20
S'cobalt/web_animations'
p1750
sg22
(lp1751
sg25
(dp1752
sg27
I00
sg28
(lp1753
sg30
Nsg31
I00
sg32
I00
sg33
S'/home/avakimov_am/chromium/cobalt/src/cobalt/web_animations/animation_timeline.idl'
p1754
ssg867
(dp1755
g4
S'cobalt/dom/eme/MediaKeySystemConfiguration.h'
p1756
sg6
(lp1757
sg8
Nsg10
Nsg11
I00
sg12
(lp1758
sg14
(lp1759
sg16
Nsg18
(lp1760
sg20
S'cobalt/dom/eme'
p1761
sg22
(lp1762
sg25
(dp1763
sg27
I01
sg28
(lp1764
sg30
Nsg31
I01
sg32
I00
sg33
S'/home/avakimov_am/chromium/cobalt/src/cobalt/dom/eme/media_key_system_configuration.idl'
p1765
ssg185
(dp1766
g4
S'cobalt/dom/eme/MediaKeyMessageEvent.h'
p1767
sg6
(lp1768
sg8
S'Event'
p1769
sg10
Nsg11
I00
sg12
(lp1770
sg14
(lp1771
sg16
(lp1772
sg18
(lp1773
sg20
S'cobalt/dom/eme'
p1774
sg22
(lp1775
g1769
asg25
(dp1776
sg27
I00
sg28
(lp1777
sg30
Nsg31
I00
sg32
I00
sg33
S'/home/avakimov_am/chromium/cobalt/src/cobalt/dom/eme/media_key_message_event.idl'
p1778
ssg168
(dp1779
g4
S'cobalt/audio/AudioBufferSourceNode.h'
p1780
sg6
(lp1781
sg8
S'AudioNode'
p1782
sg10
Nsg11
I00
sg12
(lp1783
sg14
(lp1784
sg16
(lp1785
sg18
(lp1786
sg20
S'cobalt/audio'
p1787
sg22
(lp1788
g1782
aS'EventTarget'
p1789
asg25
(dp1790
sg27
I00
sg28
(lp1791
sg30
Nsg31
I00
sg32
I00
sg33
S'/home/avakimov_am/chromium/cobalt/src/cobalt/audio/audio_buffer_source_node.idl'
p1792
ssg129
(dp1793
g4
S'cobalt/dom/HTMLVideoElement.h'
p1794
sg6
(lp1795
sg8
S'HTMLMediaElement'
p1796
sg10
Nsg11
I00
sg12
(lp1797
sg14
(lp1798
sg16
(lp1799
sg18
(lp1800
sg20
S'cobalt/dom'
p1801
sg22
(lp1802
g1796
ag71
ag85
ag86
ag62
asg25
(dp1803
sg27
I00
sg28
(lp1804
sg30
Nsg31
I00
sg32
I00
sg33
S'/home/avakimov_am/chromium/cobalt/src/cobalt/dom/html_video_element.idl'
p1805
ssg170
(dp1806
g4
S'cobalt/dom/FocusEvent.h'
p1807
sg6
(lp1808
sg8
S'UIEvent'
p1809
sg10
Nsg11
I00
sg12
(lp1810
sg14
(lp1811
sg16
(lp1812
sg18
(lp1813
sg20
S'cobalt/dom'
p1814
sg22
(lp1815
g1809
ag24
asg25
(dp1816
sg27
I00
sg28
(lp1817
sg30
Nsg31
I00
sg32
I00
sg33
S'/home/avakimov_am/chromium/cobalt/src/cobalt/dom/focus_event.idl'
p1818
ssg900
(dp1819
g4
S'cobalt/dom/NonDocumentTypeChildNode.h'
p1820
sg6
(lp1821
sg8
Nsg10
Nsg11
I00
sg12
(lp1822
sg14
(lp1823
sg16
(lp1824
sg18
(lp1825
sg20
S'cobalt/dom'
p1826
sg22
(lp1827
sg25
(dp1828
sg27
I01
sg28
(lp1829
sg30
Nsg31
I00
sg32
I00
sg33
S'/home/avakimov_am/chromium/cobalt/src/cobalt/dom/non_document_type_child_node.idl'
p1830
ssg997
(dp1831
g4
S'cobalt/dom/NavigatorLanguage.h'
p1832
sg6
(lp1833
sg8
Nsg10
Nsg11
I00
sg12
(lp1834
sg14
(lp1835
sg16
(lp1836
sg18
(lp1837
sg20
S'cobalt/dom'
p1838
sg22
(lp1839
sg25
(dp1840
sg27
I01
sg28
(lp1841
sg30
Nsg31
I00
sg32
I00
sg33
S'/home/avakimov_am/chromium/cobalt/src/cobalt/dom/navigator_language.idl'
p1842
ssg876
(dp1843
g4
S'cobalt/cssom/LinkStyle.h'
p1844
sg6
(lp1845
sg8
Nsg10
Nsg11
I00
sg12
(lp1846
sg14
(lp1847
sg16
(lp1848
sg18
(lp1849
sg20
S'cobalt/cssom'
p1850
sg22
(lp1851
sg25
(dp1852
sg27
I01
sg28
(lp1853
sg30
Nsg31
I00
sg32
I00
sg33
S'/home/avakimov_am/chromium/cobalt/src/cobalt/cssom/link_style.idl'
p1854
ssg171
(dp1855
g4
S'cobalt/dom/DOMStringMap.h'
p1856
sg6
(lp1857
sg8
Nsg10
Nsg11
I00
sg12
(lp1858
sg14
(lp1859
sg16
(lp1860
sg18
(lp1861
sg20
S'cobalt/dom'
p1862
sg22
(lp1863
sg25
(dp1864
sg27
I00
sg28
(lp1865
sg30
Nsg31
I00
sg32
I00
sg33
S'/home/avakimov_am/chromium/cobalt/src/cobalt/dom/dom_string_map.idl'
p1866
ssg172
(dp1867
g4
S'cobalt/speech/SpeechSynthesisEvent.h'
p1868
sg6
(lp1869
sg8
g1323
sg10
Nsg11
I00
sg12
(lp1870
sg14
(lp1871
sg16
(lp1872
sg18
(lp1873
sg20
S'cobalt/speech'
p1874
sg22
(lp1875
g1323
asg25
(dp1876
sg27
I00
sg28
(lp1877
sg30
Nsg31
I00
sg32
I00
sg33
S'/home/avakimov_am/chromium/cobalt/src/cobalt/speech/speech_synthesis_event.idl'
p1878
ssg94
(dp1879
g4
S'cobalt/dom/DOMException.h'
p1880
sg6
(lp1881
sg8
Nsg10
Nsg11
I00
sg12
(lp1882
sg14
(lp1883
sg16
(lp1884
sg18
(lp1885
sg20
S'cobalt/dom'
p1886
sg22
(lp1887
sg25
(dp1888
sg27
I00
sg28
(lp1889
sg30
Nsg31
I00
sg32
I00
sg33
S'/home/avakimov_am/chromium/cobalt/src/cobalt/dom/dom_exception.idl'
p1890
ssg881
(dp1891
g4
S'cobalt/dom/UIEventInit.h'
p1892
sg6
(lp1893
sg8
g546
sg10
Nsg11
I00
sg12
(lp1894
sg14
(lp1895
sg16
Nsg18
(lp1896
sg20
S'cobalt/dom'
p1897
sg22
(lp1898
g546
asg25
(dp1899
sg27
I01
sg28
(lp1900
sg30
Nsg31
I01
sg32
I00
sg33
S'/home/avakimov_am/chromium/cobalt/src/cobalt/dom/ui_event_init.idl'
p1901
ssg965
(dp1902
g4
S'cobalt/websocket/CloseEventInit.h'
p1903
sg6
(lp1904
sg8
S'EventInit'
p1905
sg10
Nsg11
I00
sg12
(lp1906
sg14
(lp1907
sg16
Nsg18
(lp1908
sg20
S'cobalt/websocket'
p1909
sg22
(lp1910
g1905
asg25
(dp1911
sg27
I01
sg28
(lp1912
sg30
Nsg31
I01
sg32
I00
sg33
S'/home/avakimov_am/chromium/cobalt/src/cobalt/websocket/close_event_init.idl'
p1913
ssg883
(dp1914
g4
S'cobalt/dom/captions/NavigatorSystemCaptionSettings.h'
p1915
sg6
(lp1916
sg8
Nsg10
Nsg11
I00
sg12
(lp1917
sg14
(lp1918
sg16
(lp1919
sg18
(lp1920
sg20
S'cobalt/dom/captions'
p1921
sg22
(lp1922
sg25
(dp1923
sg27
I01
sg28
(lp1924
sg30
Nsg31
I00
sg32
I00
sg33
S'/home/avakimov_am/chromium/cobalt/src/cobalt/dom/captions/navigator_system_caption_settings.idl'
p1925
ssg174
(dp1926
g4
S'cobalt/h5vcc/dial/DialHttpRequest.h'
p1927
sg6
(lp1928
sg8
Nsg10
S'DIAL_SERVER'
p1929
sg11
I00
sg12
(lp1930
sg14
(lp1931
sg16
(lp1932
sg18
(lp1933
sg20
S'cobalt/h5vcc/dial'
p1934
sg22
(lp1935
sg25
(dp1936
sg27
I00
sg28
(lp1937
sg30
Nsg31
I00
sg32
I00
sg33
S'/home/avakimov_am/chromium/cobalt/src/cobalt/h5vcc/dial/dial_http_request.idl'
p1938
ssg175
(dp1939
g4
S'cobalt/dom/DOMRectReadOnly.h'
p1940
sg6
(lp1941
sg8
Nsg10
Nsg11
I00
sg12
(lp1942
sg14
(lp1943
sg16
(lp1944
sg18
(lp1945
sg20
S'cobalt/dom'
p1946
sg22
(lp1947
sg25
(dp1948
sg27
I00
sg28
(lp1949
sg30
Nsg31
I00
sg32
I00
sg33
S'/home/avakimov_am/chromium/cobalt/src/cobalt/dom/dom_rect_read_only.idl'
p1950
ssg176
(dp1951
g4
S'cobalt/cssom/CSSKeyframeRule.h'
p1952
sg6
(lp1953
sg8
S'CSSRule'
p1954
sg10
Nsg11
I00
sg12
(lp1955
sg14
(lp1956
sg16
(lp1957
sg18
(lp1958
sg20
S'cobalt/cssom'
p1959
sg22
(lp1960
g1954
asg25
(dp1961
sg27
I00
sg28
(lp1962
sg30
Nsg31
I00
sg32
I00
sg33
S'/home/avakimov_am/chromium/cobalt/src/cobalt/cssom/css_keyframe_rule.idl'
p1963
ssg177
(dp1964
g4
S'cobalt/media_capture/MediaDeviceInfo.h'
p1965
sg6
(lp1966
sg8
Nsg10
Nsg11
I00
sg12
(lp1967
sg14
(lp1968
sg16
(lp1969
sg18
(lp1970
sg20
S'cobalt/media_capture'
p1971
sg22
(lp1972
sg25
(dp1973
sg27
I00
sg28
(lp1974
sg30
Nsg31
I00
sg32
I00
sg33
S'/home/avakimov_am/chromium/cobalt/src/cobalt/media_capture/media_device_info.idl'
p1975
ssg178
(dp1976
g4
S'cobalt/dom/ProgressEvent.h'
p1977
sg6
(lp1978
sg8
S'Event'
p1979
sg10
Nsg11
I00
sg12
(lp1980
sg14
(lp1981
sg16
(lp1982
sg18
(lp1983
sg20
S'cobalt/dom'
p1984
sg22
(lp1985
g1979
asg25
(dp1986
sg27
I00
sg28
(lp1987
sg30
Nsg31
I00
sg32
I00
sg33
S'/home/avakimov_am/chromium/cobalt/src/cobalt/dom/progress_event.idl'
p1988
ssg139
(dp1989
g4
S'cobalt/dom/HTMLHeadElement.h'
p1990
sg6
(lp1991
sg8
S'HTMLElement'
p1992
sg10
Nsg11
I00
sg12
(lp1993
sg14
(lp1994
sg16
(lp1995
sg18
(lp1996
sg20
S'cobalt/dom'
p1997
sg22
(lp1998
g1992
ag85
ag86
ag62
asg25
(dp1999
sg27
I00
sg28
(lp2000
sg30
Nsg31
I00
sg32
I00
sg33
S'/home/avakimov_am/chromium/cobalt/src/cobalt/dom/html_head_element.idl'
p2001
ssg180
(dp2002
g4
S'cobalt/dom/DeviceOrientationEvent.h'
p2003
sg6
(lp2004
sg8
S'Event'
p2005
sg10
Nsg11
I00
sg12
(lp2006
sg14
(lp2007
sg16
(lp2008
sg18
(lp2009
sg20
S'cobalt/dom'
p2010
sg22
(lp2011
g2005
asg25
(dp2012
sg27
I00
sg28
(lp2013
sg30
Nsg31
I00
sg32
I00
sg33
S'/home/avakimov_am/chromium/cobalt/src/cobalt/dom/device_orientation_event.idl'
p2014
ssg181
(dp2015
g4
S'cobalt/debug/console/DebuggerEventTarget.h'
p2016
sg6
(lp2017
sg8
Nsg10
S'ENABLE_DEBUGGER'
p2018
sg11
I00
sg12
(lp2019
sg14
(lp2020
sg16
(lp2021
sg18
(lp2022
sg20
S'cobalt/debug/console'
p2023
sg22
(lp2024
sg25
(dp2025
sg27
I00
sg28
(lp2026
sg30
Nsg31
I00
sg32
I00
sg33
S'/home/avakimov_am/chromium/cobalt/src/cobalt/debug/console/debugger_event_target.idl'
p2027
ssg182
(dp2028
g4
S'cobalt/fetch/FetchInternal.h'
p2029
sg6
(lp2030
sg8
Nsg10
Nsg11
I00
sg12
(lp2031
sg14
(lp2032
sg16
(lp2033
sg18
(lp2034
sg20
S'cobalt/fetch'
p2035
sg22
(lp2036
sg25
(dp2037
sg27
I00
sg28
(lp2038
sg30
Nsg31
I00
sg32
I00
sg33
S'/home/avakimov_am/chromium/cobalt/src/cobalt/fetch/fetch_internal.idl'
p2039
ssg183
(dp2040
g4
S'cobalt/dom/Node.h'
p2041
sg6
(lp2042
sg8
g62
sg10
Nsg11
I00
sg12
(lp2043
sg14
(lp2044
sg16
(lp2045
sg18
(lp2046
sg20
S'cobalt/dom'
p2047
sg22
(lp2048
g62
asg25
(dp2049
sg27
I00
sg28
(lp2050
sg30
Nsg31
I00
sg32
I00
sg33
S'/home/avakimov_am/chromium/cobalt/src/cobalt/dom/node.idl'
p2051
ssg895
(dp2052
g4
S'cobalt/dom/EventModifierInit.h'
p2053
sg6
(lp2054
sg8
g545
sg10
Nsg11
I00
sg12
(lp2055
sg14
(lp2056
sg16
Nsg18
(lp2057
sg20
S'cobalt/dom'
p2058
sg22
(lp2059
g545
ag546
asg25
(dp2060
sg27
I01
sg28
(lp2061
sg30
Nsg31
I01
sg32
I00
sg33
S'/home/avakimov_am/chromium/cobalt/src/cobalt/dom/event_modifier_init.idl'
p2062
ssg184
(dp2063
g4
S'cobalt/dom/VideoPlaybackQuality.h'
p2064
sg6
(lp2065
sg8
Nsg10
Nsg11
I00
sg12
(lp2066
sg14
(lp2067
sg16
(lp2068
sg18
(lp2069
sg20
S'cobalt/dom'
p2070
sg22
(lp2071
sg25
(dp2072
sg27
I00
sg28
(lp2073
sg30
Nsg31
I00
sg32
I00
sg33
S'/home/avakimov_am/chromium/cobalt/src/cobalt/dom/video_playback_quality.idl'
p2074
ssg869
(dp2075
g4
S'cobalt/dom/WindowLocalStorage.h'
p2076
sg6
(lp2077
sg8
Nsg10
Nsg11
I00
sg12
(lp2078
sg14
(lp2079
sg16
(lp2080
sg18
(lp2081
sg20
S'cobalt/dom'
p2082
sg22
(lp2083
sg25
(dp2084
sg27
I01
sg28
(lp2085
sg30
Nsg31
I00
sg32
I00
sg33
S'/home/avakimov_am/chromium/cobalt/src/cobalt/dom/window_local_storage.idl'
p2086
ssg186
(dp2087
g4
S'cobalt/speech/SpeechRecognitionResultList.h'
p2088
sg6
(lp2089
sg8
Nsg10
Nsg11
I00
sg12
(lp2090
sg14
(lp2091
sg16
(lp2092
sg18
(lp2093
sg20
S'cobalt/speech'
p2094
sg22
(lp2095
sg25
(dp2096
sg27
I00
sg28
(lp2097
sg30
Nsg31
I00
sg32
I00
sg33
S'/home/avakimov_am/chromium/cobalt/src/cobalt/speech/speech_recognition_result_list.idl'
p2098
ssg187
(dp2099
g4
S'cobalt/dom/Camera3D.h'
p2100
sg6
(lp2101
sg8
Nsg10
Nsg11
I00
sg12
(lp2102
sg14
(lp2103
sg16
(lp2104
sg18
(lp2105
sg20
S'cobalt/dom'
p2106
sg22
(lp2107
sg25
(dp2108
sg27
I00
sg28
(lp2109
sg30
Nsg31
I00
sg32
I00
sg33
S'/home/avakimov_am/chromium/cobalt/src/cobalt/dom/camera_3d.idl'
p2110
ssg188
(dp2111
g4
S'cobalt/dom/Screen.h'
p2112
sg6
(lp2113
sg8
Nsg10
Nsg11
I00
sg12
(lp2114
sg14
(lp2115
sg16
(lp2116
sg18
(lp2117
sg20
S'cobalt/dom'
p2118
sg22
(lp2119
sg25
(dp2120
sg27
I00
sg28
(lp2121
sg30
Nsg31
I00
sg32
I00
sg33
S'/home/avakimov_am/chromium/cobalt/src/cobalt/dom/screen.idl'
p2122
ssg189
(dp2123
g4
S'cobalt/speech/SpeechRecognitionEvent.h'
p2124
sg6
(lp2125
sg8
S'Event'
p2126
sg10
Nsg11
I00
sg12
(lp2127
sg14
(lp2128
sg16
(lp2129
sg18
(lp2130
sg20
S'cobalt/speech'
p2131
sg22
(lp2132
g2126
asg25
(dp2133
sg27
I00
sg28
(lp2134
sg30
Nsg31
I00
sg32
I00
sg33
S'/home/avakimov_am/chromium/cobalt/src/cobalt/speech/speech_recognition_event.idl'
p2135
ssg107
(dp2136
g4
S'cobalt/dom/PluginArray.h'
p2137
sg6
(lp2138
sg8
Nsg10
Nsg11
I00
sg12
(lp2139
sg14
(lp2140
sg16
(lp2141
sg18
(lp2142
sg20
S'cobalt/dom'
p2143
sg22
(lp2144
sg25
(dp2145
sg27
I00
sg28
(lp2146
sg30
Nsg31
I00
sg32
I00
sg33
S'/home/avakimov_am/chromium/cobalt/src/cobalt/dom/plugin_array.idl'
p2147
ssg192
(dp2148
g4
S'cobalt/dom/HTMLScriptElement.h'
p2149
sg6
(lp2150
sg8
S'HTMLElement'
p2151
sg10
Nsg11
I00
sg12
(lp2152
sg14
(lp2153
sg16
(lp2154
sg18
(lp2155
sg20
S'cobalt/dom'
p2156
sg22
(lp2157
g2151
ag85
ag86
ag62
asg25
(dp2158
sg27
I00
sg28
(lp2159
sg30
Nsg31
I00
sg32
I00
sg33
S'/home/avakimov_am/chromium/cobalt/src/cobalt/dom/html_script_element.idl'
p2160
ssg907
(dp2161
g4
S'cobalt/dom/FocusEventInit.h'
p2162
sg6
(lp2163
sg8
S'UIEventInit'
p2164
sg10
Nsg11
I00
sg12
(lp2165
sg14
(lp2166
sg16
Nsg18
(lp2167
sg20
S'cobalt/dom'
p2168
sg22
(lp2169
g2164
ag546
asg25
(dp2170
sg27
I01
sg28
(lp2171
sg30
Nsg31
I01
sg32
I00
sg33
S'/home/avakimov_am/chromium/cobalt/src/cobalt/dom/focus_event_init.idl'
p2172
ssg193
(dp2173
g4
S'cobalt/dom/HTMLUnknownElement.h'
p2174
sg6
(lp2175
sg8
S'HTMLElement'
p2176
sg10
Nsg11
I00
sg12
(lp2177
sg14
(lp2178
sg16
(lp2179
sg18
(lp2180
sg20
S'cobalt/dom'
p2181
sg22
(lp2182
g2176
ag85
ag86
ag62
asg25
(dp2183
sg27
I00
sg28
(lp2184
sg30
Nsg31
I00
sg32
I00
sg33
S'/home/avakimov_am/chromium/cobalt/src/cobalt/dom/html_unknown_element.idl'
p2185
ssg194
(dp2186
g4
S'cobalt/cssom/MediaList.h'
p2187
sg6
(lp2188
sg8
Nsg10
Nsg11
I00
sg12
(lp2189
sg14
(lp2190
sg16
(lp2191
sg18
(lp2192
sg20
S'cobalt/cssom'
p2193
sg22
(lp2194
sg25
(dp2195
sg27
I00
sg28
(lp2196
sg30
Nsg31
I00
sg32
I00
sg33
S'/home/avakimov_am/chromium/cobalt/src/cobalt/cssom/media_list.idl'
p2197
ssg195
(dp2198
g4
S'cobalt/dom/eme/MediaKeySystemAccess.h'
p2199
sg6
(lp2200
sg8
Nsg10
Nsg11
I00
sg12
(lp2201
sg14
(lp2202
sg16
(lp2203
sg18
(lp2204
sg20
S'cobalt/dom/eme'
p2205
sg22
(lp2206
sg25
(dp2207
sg27
I00
sg28
(lp2208
sg30
Nsg31
I00
sg32
I00
sg33
S'/home/avakimov_am/chromium/cobalt/src/cobalt/dom/eme/media_key_system_access.idl'
p2209
ssS'implemented_as_interfaces'
p2210
(dp2211
sg913
(dp2212
g4
S'cobalt/dom/WheelEventInit.h'
p2213
sg6
(lp2214
sg8
S'MouseEventInit'
p2215
sg10
Nsg11
I00
sg12
(lp2216
sg14
(lp2217
sg16
Nsg18
(lp2218
sg20
S'cobalt/dom'
p2219
sg22
(lp2220
g2215
ag539
ag545
ag546
asg25
(dp2221
sg27
I01
sg28
(lp2222
sg30
Nsg31
I01
sg32
I00
sg33
S'/home/avakimov_am/chromium/cobalt/src/cobalt/dom/wheel_event_init.idl'
p2223
ssg196
(dp2224
g4
S'cobalt/dom/TrackDefaultList.h'
p2225
sg6
(lp2226
sg8
Nsg10
Nsg11
I00
sg12
(lp2227
sg14
(lp2228
sg16
(lp2229
sg18
(lp2230
sg20
S'cobalt/dom'
p2231
sg22
(lp2232
sg25
(dp2233
sg27
I00
sg28
(lp2234
sg30
Nsg31
I00
sg32
I00
sg33
S'/home/avakimov_am/chromium/cobalt/src/cobalt/dom/track_default_list.idl'
p2235
ssg197
(dp2236
g4
S'cobalt/dom/Storage.h'
p2237
sg6
(lp2238
sg8
Nsg10
Nsg11
I00
sg12
(lp2239
sg14
(lp2240
sg16
(lp2241
sg18
(lp2242
sg20
S'cobalt/dom'
p2243
sg22
(lp2244
sg25
(dp2245
sg27
I00
sg28
(lp2246
sg30
Nsg31
I00
sg32
I00
sg33
S'/home/avakimov_am/chromium/cobalt/src/cobalt/dom/storage.idl'
p2247
ssg198
(dp2248
g4
S'cobalt/h5vcc/H5vccTraceEvent.h'
p2249
sg6
(lp2250
sg8
Nsg10
Nsg11
I00
sg12
(lp2251
sg14
(lp2252
sg16
(lp2253
sg18
(lp2254
sg20
S'cobalt/h5vcc'
p2255
sg22
(lp2256
sg25
(dp2257
sg27
I00
sg28
(lp2258
sg30
Nsg31
I00
sg32
I00
sg33
S'/home/avakimov_am/chromium/cobalt/src/cobalt/h5vcc/h5vcc_trace_event.idl'
p2259
ssg918
(dp2260
g4
S'cobalt/media_session/NavigatorMediaSession.h'
p2261
sg6
(lp2262
sg8
Nsg10
Nsg11
I00
sg12
(lp2263
sg14
(lp2264
sg16
(lp2265
sg18
(lp2266
sg20
S'cobalt/media_session'
p2267
sg22
(lp2268
sg25
(dp2269
sg27
I01
sg28
(lp2270
sg30
Nsg31
I00
sg32
I00
sg33
S'/home/avakimov_am/chromium/cobalt/src/cobalt/media_session/navigator_media_session.idl'
p2271
ssg199
(dp2272
g4
S'cobalt/dom/NamedNodeMap.h'
p2273
sg6
(lp2274
sg8
Nsg10
Nsg11
I00
sg12
(lp2275
sg14
(lp2276
sg16
(lp2277
sg18
(lp2278
sg20
S'cobalt/dom'
p2279
sg22
(lp2280
sg25
(dp2281
sg27
I00
sg28
(lp2282
sg30
Nsg31
I00
sg32
I00
sg33
S'/home/avakimov_am/chromium/cobalt/src/cobalt/dom/named_node_map.idl'
p2283
ssg200
(dp2284
g4
S'cobalt/debug/console/DebugHub.h'
p2285
sg6
(lp2286
sg8
Nsg10
S'ENABLE_DEBUGGER'
p2287
sg11
I00
sg12
(lp2288
sg14
(lp2289
sg16
(lp2290
sg18
(lp2291
sg20
S'cobalt/debug/console'
p2292
sg22
(lp2293
sg25
(dp2294
sg27
I00
sg28
(lp2295
sg30
Nsg31
I00
sg32
I00
sg33
S'/home/avakimov_am/chromium/cobalt/src/cobalt/debug/console/debug_hub.idl'
p2296
ssg201
(dp2297
g4
S'cobalt/web_animations/Keyframe.h'
p2298
sg6
(lp2299
sg8
Nsg10
Nsg11
I00
sg12
(lp2300
sg14
(lp2301
sg16
(lp2302
sg18
(lp2303
sg20
S'cobalt/web_animations'
p2304
sg22
(lp2305
sg25
(dp2306
sg27
I00
sg28
(lp2307
sg30
Nsg31
I00
sg32
I00
sg33
S'/home/avakimov_am/chromium/cobalt/src/cobalt/web_animations/keyframe.idl'
p2308
ssg202
(dp2309
g4
S'cobalt/h5vcc/H5vccAudioConfig.h'
p2310
sg6
(lp2311
sg8
Nsg10
Nsg11
I00
sg12
(lp2312
sg14
(lp2313
sg16
(lp2314
sg18
(lp2315
sg20
S'cobalt/h5vcc'
p2316
sg22
(lp2317
sg25
(dp2318
sg27
I00
sg28
(lp2319
sg30
Nsg31
I00
sg32
I00
sg33
S'/home/avakimov_am/chromium/cobalt/src/cobalt/h5vcc/h5vcc_audio_config.idl'
p2320
ssg203
(dp2321
g4
S'cobalt/dom/HTMLElement.h'
p2322
sg6
(lp2323
S'cobalt/dom/HTMLElementCSSomView.h'
p2324
asg8
g85
sg10
Nsg11
I00
sg12
(lp2325
g371
ag1593
aS'/home/avakimov_am/chromium/cobalt/src/cobalt/dom/html_element_cssom_view.idl'
p2326
asg14
(lp2327
S'GlobalEventHandlers'
p2328
ag850
asg75
(dp2329
S'cobalt'
p2330
g78
((lp2331
g2324
atRp2332
ssg16
(lp2333
sg18
(lp2334
sg20
S'cobalt/dom'
p2335
sg22
(lp2336
g85
ag86
ag62
asg25
(dp2337
sg27
I00
sg28
(lp2338
sg30
Nsg31
I00
sg32
I00
sg33
S'/home/avakimov_am/chromium/cobalt/src/cobalt/dom/html_element.idl'
p2339
ssg204
(dp2340
g4
S'cobalt/dom/History.h'
p2341
sg6
(lp2342
sg8
Nsg10
Nsg11
I00
sg12
(lp2343
sg14
(lp2344
sg16
(lp2345
sg18
(lp2346
sg20
S'cobalt/dom'
p2347
sg22
(lp2348
sg25
(dp2349
sg27
I00
sg28
(lp2350
sg30
Nsg31
I00
sg32
I00
sg33
S'/home/avakimov_am/chromium/cobalt/src/cobalt/dom/history.idl'
p2351
ssg205
(dp2352
g4
S'cobalt/media_stream/MediaStreamTrack.h'
p2353
sg6
(lp2354
sg8
S'EventTarget'
p2355
sg10
Nsg11
I00
sg12
(lp2356
sg14
(lp2357
sg16
(lp2358
sg18
(lp2359
sg20
S'cobalt/media_stream'
p2360
sg22
(lp2361
g2355
asg25
(dp2362
sg27
I00
sg28
(lp2363
sg30
Nsg31
I00
sg32
I00
sg33
S'/home/avakimov_am/chromium/cobalt/src/cobalt/media_stream/media_stream_track.idl'
p2364
ssg206
(dp2365
g4
S'cobalt/cssom/CSSGroupingRule.h'
p2366
sg6
(lp2367
sg8
S'CSSRule'
p2368
sg10
Nsg11
I00
sg12
(lp2369
sg14
(lp2370
sg16
(lp2371
sg18
(lp2372
sg20
S'cobalt/cssom'
p2373
sg22
(lp2374
g2368
asg25
(dp2375
sg27
I00
sg28
(lp2376
sg30
Nsg31
I00
sg32
I00
sg33
S'/home/avakimov_am/chromium/cobalt/src/cobalt/cssom/css_grouping_rule.idl'
p2377
ssg207
(dp2378
g4
S'cobalt/dom/MutationRecord.h'
p2379
sg6
(lp2380
sg8
Nsg10
Nsg11
I00
sg12
(lp2381
sg14
(lp2382
sg16
(lp2383
sg18
(lp2384
sg20
S'cobalt/dom'
p2385
sg22
(lp2386
sg25
(dp2387
sg27
I00
sg28
(lp2388
sg30
Nsg31
I00
sg32
I00
sg33
S'/home/avakimov_am/chromium/cobalt/src/cobalt/dom/mutation_record.idl'
p2389
ssg208
(dp2390
g4
S'cobalt/dom/Text.h'
p2391
sg6
(lp2392
sg8
g60
sg10
Nsg11
I00
sg12
(lp2393
sg14
(lp2394
sg16
(lp2395
sg18
(lp2396
sg20
S'cobalt/dom'
p2397
sg22
(lp2398
g60
ag61
ag62
asg25
(dp2399
sg27
I00
sg28
(lp2400
sg30
Nsg31
I00
sg32
I00
sg33
S'/home/avakimov_am/chromium/cobalt/src/cobalt/dom/text.idl'
p2401
ssg930
(dp2402
g4
S'cobalt/dom/KeyboardEventInit.h'
p2403
sg6
(lp2404
sg8
S'EventModifierInit'
p2405
sg10
Nsg11
I00
sg12
(lp2406
sg14
(lp2407
sg16
Nsg18
(lp2408
sg20
S'cobalt/dom'
p2409
sg22
(lp2410
g2405
ag545
ag546
asg25
(dp2411
sg27
I01
sg28
(lp2412
sg30
Nsg31
I01
sg32
I00
sg33
S'/home/avakimov_am/chromium/cobalt/src/cobalt/dom/keyboard_event_init.idl'
p2413
ssg209
(dp2414
g4
S'cobalt/debug/backend/CSSAgent.h'
p2415
sg6
(lp2416
sg8
Nsg10
S'ENABLE_DEBUGGER'
p2417
sg11
I00
sg12
(lp2418
sg14
(lp2419
sg16
(lp2420
sg18
(lp2421
sg20
S'cobalt/debug/backend'
p2422
sg22
(lp2423
sg25
(dp2424
sg27
I00
sg28
(lp2425
sg30
Nsg31
I00
sg32
I00
sg33
S'/home/avakimov_am/chromium/cobalt/src/cobalt/debug/backend/css_agent.idl'
p2426
ssg226
(dp2427
g4
S'cobalt/media_capture/BlobEvent.h'
p2428
sg6
(lp2429
sg8
S'Event'
p2430
sg10
Nsg11
I00
sg12
(lp2431
sg14
(lp2432
sg16
(lp2433
sg18
(lp2434
sg20
S'cobalt/media_capture'
p2435
sg22
(lp2436
g2430
asg25
(dp2437
sg27
I00
sg28
(lp2438
sg30
Nsg31
I00
sg32
I00
sg33
S'/home/avakimov_am/chromium/cobalt/src/cobalt/media_capture/blob_event.idl'
p2439
ssg211
(dp2440
g4
S'cobalt/dom/TestRunner.h'
p2441
sg6
(lp2442
sg8
Nsg10
S'ENABLE_TEST_RUNNER'
p2443
sg11
I00
sg12
(lp2444
sg14
(lp2445
sg16
(lp2446
sg18
(lp2447
sg20
S'cobalt/dom'
p2448
sg22
(lp2449
sg25
(dp2450
sg27
I00
sg28
(lp2451
sg30
Nsg31
I00
sg32
I00
sg33
S'/home/avakimov_am/chromium/cobalt/src/cobalt/dom/test_runner.idl'
p2452
ssg212
(dp2453
g4
S'cobalt/speech/SpeechSynthesisUtterance.h'
p2454
sg6
(lp2455
sg8
S'EventTarget'
p2456
sg10
Nsg11
I00
sg12
(lp2457
sg14
(lp2458
sg16
(lp2459
sg18
(lp2460
sg20
S'cobalt/speech'
p2461
sg22
(lp2462
g2456
asg25
(dp2463
sg27
I00
sg28
(lp2464
sg30
Nsg31
I00
sg32
I00
sg33
S'/home/avakimov_am/chromium/cobalt/src/cobalt/speech/speech_synthesis_utterance.idl'
p2465
ssg213
(dp2466
g4
S'cobalt/cssom/StyleSheet.h'
p2467
sg6
(lp2468
sg8
Nsg10
Nsg11
I00
sg12
(lp2469
sg14
(lp2470
sg16
(lp2471
sg18
(lp2472
sg20
S'cobalt/cssom'
p2473
sg22
(lp2474
sg25
(dp2475
sg27
I00
sg28
(lp2476
sg30
Nsg31
I00
sg32
I00
sg33
S'/home/avakimov_am/chromium/cobalt/src/cobalt/cssom/style_sheet.idl'
p2477
ssg214
(dp2478
g4
S'cobalt/dom/VideoTrackList.h'
p2479
sg6
(lp2480
sg8
S'EventTarget'
p2481
sg10
Nsg11
I00
sg12
(lp2482
sg14
(lp2483
sg16
(lp2484
sg18
(lp2485
sg20
S'cobalt/dom'
p2486
sg22
(lp2487
g2481
asg25
(dp2488
sg27
I00
sg28
(lp2489
sg30
Nsg31
I00
sg32
I00
sg33
S'/home/avakimov_am/chromium/cobalt/src/cobalt/dom/video_track_list.idl'
p2490
ssg215
(dp2491
g4
S'cobalt/dom/DocumentTimeline.h'
p2492
sg6
(lp2493
sg8
S'AnimationTimeline'
p2494
sg10
Nsg11
I00
sg12
(lp2495
sg14
(lp2496
sg16
(lp2497
sg18
(lp2498
sg20
S'cobalt/dom'
p2499
sg22
(lp2500
g2494
asg25
(dp2501
sg27
I00
sg28
(lp2502
sg30
Nsg31
I00
sg32
I00
sg33
S'/home/avakimov_am/chromium/cobalt/src/cobalt/dom/document_timeline.idl'
p2503
ssg216
(dp2504
g4
S'cobalt/media_session/MediaMetadata.h'
p2505
sg6
(lp2506
sg8
Nsg10
Nsg11
I00
sg12
(lp2507
sg14
(lp2508
sg16
(lp2509
sg18
(lp2510
sg20
S'cobalt/media_session'
p2511
sg22
(lp2512
sg25
(dp2513
sg27
I00
sg28
(lp2514
sg30
Nsg31
I00
sg32
I00
sg33
S'/home/avakimov_am/chromium/cobalt/src/cobalt/media_session/media_metadata.idl'
p2515
ssg941
(dp2516
g4
S'cobalt/dom/NavigatorID.h'
p2517
sg6
(lp2518
sg8
Nsg10
Nsg11
I00
sg12
(lp2519
sg14
(lp2520
sg16
(lp2521
sg18
(lp2522
sg20
S'cobalt/dom'
p2523
sg22
(lp2524
sg25
(dp2525
sg27
I01
sg28
(lp2526
sg30
Nsg31
I00
sg32
I00
sg33
S'/home/avakimov_am/chromium/cobalt/src/cobalt/dom/navigator_id.idl'
p2527
ssg228
(dp2528
g4
S'cobalt/dom/HTMLAnchorElement.h'
p2529
sg6
(lp2530
sg8
S'HTMLElement'
p2531
sg10
Nsg11
I00
sg12
(lp2532
g1331
asg14
(lp2533
S'URLUtils'
p2534
asg16
(lp2535
sg18
(lp2536
sg20
S'cobalt/dom'
p2537
sg22
(lp2538
g2531
ag85
ag86
ag62
asg25
(dp2539
sg27
I00
sg28
(lp2540
sg30
Nsg31
I00
sg32
I00
sg33
S'/home/avakimov_am/chromium/cobalt/src/cobalt/dom/html_anchor_element.idl'
p2541
ssg219
(dp2542
g4
S'cobalt/dom/HTMLBRElement.h'
p2543
sg6
(lp2544
sg8
S'HTMLElement'
p2545
sg10
Nsg11
I00
sg12
(lp2546
sg14
(lp2547
sg16
(lp2548
sg18
(lp2549
sg20
S'cobalt/dom'
p2550
sg22
(lp2551
g2545
ag85
ag86
ag62
asg25
(dp2552
sg27
I00
sg28
(lp2553
sg30
Nsg31
I00
sg32
I00
sg33
S'/home/avakimov_am/chromium/cobalt/src/cobalt/dom/html_br_element.idl'
p2554
ssg220
(dp2555
g4
S'cobalt/speech/SpeechRecognitionResult.h'
p2556
sg6
(lp2557
sg8
Nsg10
Nsg11
I00
sg12
(lp2558
sg14
(lp2559
sg16
(lp2560
sg18
(lp2561
sg20
S'cobalt/speech'
p2562
sg22
(lp2563
sg25
(dp2564
sg27
I00
sg28
(lp2565
sg30
Nsg31
I00
sg32
I00
sg33
S'/home/avakimov_am/chromium/cobalt/src/cobalt/speech/speech_recognition_result.idl'
p2566
ssg221
(dp2567
g4
S'cobalt/xhr/XMLHttpRequest.h'
p2568
sg6
(lp2569
S'bindings/cobalt/v8/StringOrArrayBufferViewOrArrayBuffer.h'
p2570
aS'bindings/cobalt/v8/StringOrArrayBuffer.h'
p2571
aS'bindings/cobalt/v8/StringOrArrayBufferViewOrArrayBuffer.h'
p2572
aS'bindings/cobalt/v8/StringOrArrayBufferViewOrArrayBuffer.h'
p2573
asg8
S'XMLHttpRequestEventTarget'
p2574
sg10
Nsg11
I00
sg12
(lp2575
sg14
(lp2576
sg16
(lp2577
sg18
(lp2578
sg20
S'cobalt/xhr'
p2579
sg22
(lp2580
g2574
ag451
asg25
(dp2581
sg27
I00
sg28
(lp2582
sg30
Nsg31
I00
sg32
I00
sg33
S'/home/avakimov_am/chromium/cobalt/src/cobalt/xhr/xml_http_request.idl'
p2583
ssg1015
(dp2584
g4
S'cobalt/media_capture/MediaRecorderOptions.h'
p2585
sg6
(lp2586
sg8
Nsg10
Nsg11
I00
sg12
(lp2587
sg14
(lp2588
sg16
Nsg18
(lp2589
sg20
S'cobalt/media_capture'
p2590
sg22
(lp2591
sg25
(dp2592
sg27
I01
sg28
(lp2593
sg30
Nsg31
I01
sg32
I00
sg33
S'/home/avakimov_am/chromium/cobalt/src/cobalt/media_capture/media_recorder_options.idl'
p2594
ssg948
(dp2595
g4
S'cobalt/media_session/MediaImage.h'
p2596
sg6
(lp2597
sg8
Nsg10
Nsg11
I00
sg12
(lp2598
sg14
(lp2599
sg16
Nsg18
(lp2600
sg20
S'cobalt/media_session'
p2601
sg22
(lp2602
sg25
(dp2603
sg27
I01
sg28
(lp2604
sg30
Nsg31
I01
sg32
I00
sg33
S'/home/avakimov_am/chromium/cobalt/src/cobalt/media_session/media_image.idl'
p2605
ssg222
(dp2606
g4
S'cobalt/cssom/CSSConditionRule.h'
p2607
sg6
(lp2608
sg8
S'CSSGroupingRule'
p2609
sg10
Nsg11
I00
sg12
(lp2610
sg14
(lp2611
sg16
(lp2612
sg18
(lp2613
sg20
S'cobalt/cssom'
p2614
sg22
(lp2615
g2609
ag2368
asg25
(dp2616
sg27
I00
sg28
(lp2617
sg30
Nsg31
I00
sg32
I00
sg33
S'/home/avakimov_am/chromium/cobalt/src/cobalt/cssom/css_condition_rule.idl'
p2618
ssg223
(dp2619
g4
S'cobalt/dom/CValView.h'
p2620
sg6
(lp2621
sg8
Nsg10
Nsg11
I00
sg12
(lp2622
sg14
(lp2623
sg16
(lp2624
sg18
(lp2625
sg20
S'cobalt/dom'
p2626
sg22
(lp2627
sg25
(dp2628
sg27
I00
sg28
(lp2629
sg30
Nsg31
I00
sg32
I00
sg33
S'/home/avakimov_am/chromium/cobalt/src/cobalt/dom/c_val_view.idl'
p2630
ssg991
(dp2631
g4
S'cobalt/dom/GlobalEventHandlers.h'
p2632
sg6
(lp2633
sg8
Nsg10
Nsg11
I00
sg12
(lp2634
sg14
(lp2635
sg16
(lp2636
sg18
(lp2637
sg20
S'cobalt/dom'
p2638
sg22
(lp2639
sg25
(dp2640
sg27
I01
sg28
(lp2641
sg30
Nsg31
I00
sg32
I00
sg33
g371
ssg224
(dp2642
g4
S'cobalt/h5vcc/H5vccAccountManager.h'
p2643
sg6
(lp2644
sg8
Nsg10
S'COBALT_ENABLE_ACCOUNT_MANAGER'
p2645
sg11
I00
sg12
(lp2646
sg14
(lp2647
sg16
(lp2648
sg18
(lp2649
sg20
S'cobalt/h5vcc'
p2650
sg22
(lp2651
sg25
(dp2652
sg27
I00
sg28
(lp2653
sg30
Nsg31
I00
sg32
I00
sg33
S'/home/avakimov_am/chromium/cobalt/src/cobalt/h5vcc/h5vcc_account_manager.idl'
p2654
ssg225
(dp2655
g4
S'cobalt/dom/AnimationEvent.h'
p2656
sg6
(lp2657
sg8
S'Event'
p2658
sg10
Nsg11
I00
sg12
(lp2659
sg14
(lp2660
sg16
(lp2661
sg18
(lp2662
sg20
S'cobalt/dom'
p2663
sg22
(lp2664
g2658
asg25
(dp2665
sg27
I00
sg28
(lp2666
sg30
Nsg31
I00
sg32
I00
sg33
S'/home/avakimov_am/chromium/cobalt/src/cobalt/dom/animation_event.idl'
p2667
ssg210
(dp2668
g4
S'cobalt/dom/Window.h'
p2669
sg6
(lp2670
S'cobalt/dom/WindowAnimationTiming.h'
p2671
aS'cobalt/dom/WindowPerformance.h'
p2672
aS'cobalt/dom/WindowCSSom.h'
p2673
aS'cobalt/dom/WindowCSSomView.h'
p2674
aS'cobalt/dom/WindowOnScreenKeyboard.h'
p2675
asg8
S'EventTarget'
p2676
sg10
Nsg11
I00
sg12
(lp2677
g371
aS'/home/avakimov_am/chromium/cobalt/src/cobalt/dom/window_event_handlers.idl'
p2678
ag1654
ag2086
aS'/home/avakimov_am/chromium/cobalt/src/cobalt/dom/speech_synthesis_getter.idl'
p2679
aS'/home/avakimov_am/chromium/cobalt/src/cobalt/dom/global_crypto.idl'
p2680
aS'/home/avakimov_am/chromium/cobalt/src/cobalt/dom/window_session_storage.idl'
p2681
aS'/home/avakimov_am/chromium/cobalt/src/cobalt/dom/window__animation_timing.idl'
p2682
aS'/home/avakimov_am/chromium/cobalt/src/cobalt/dom/window__performance.idl'
p2683
aS'/home/avakimov_am/chromium/cobalt/src/cobalt/dom/window_cssom.idl'
p2684
aS'/home/avakimov_am/chromium/cobalt/src/cobalt/dom/window_cssom_view.idl'
p2685
aS'/home/avakimov_am/chromium/cobalt/src/cobalt/dom/window_on_screen_keyboard.idl'
p2686
asg379
(dp2687
S'cobalt'
p2688
(lp2689
g383
(g384
g385
NtRp2690
(dp2691
g388
I00
sg389
g383
(g394
g385
NtRp2692
(dp2693
g397
S'Location'
p2694
sbsg399
I01
sg400
S'location'
p2695
sg402
(dp2696
S'Unforgeable'
p2697
NsS'PutForwards'
p2698
S'href'
p2699
ssbag383
(g384
g385
NtRp2700
(dp2701
g388
I00
sg389
g383
(g394
g385
NtRp2702
(dp2703
g397
S'Document'
p2704
sbsg399
I01
sg400
S'document'
p2705
sg402
(dp2706
S'Unforgeable'
p2707
Nssbag383
(g384
g385
NtRp2708
(dp2709
g388
I00
sg389
g383
(g394
g385
NtRp2710
(dp2711
g397
S'Window'
p2712
sbsg399
I01
sg400
S'window'
p2713
sg402
(dp2714
S'Unforgeable'
p2715
Nssbag383
(g384
g385
NtRp2716
(dp2717
g388
I00
sg389
g383
(g394
g385
NtRp2718
(dp2719
g397
S'Window'
p2720
sbsg399
I01
sg400
S'top'
p2721
sg402
(dp2722
S'Unforgeable'
p2723
Nssbassg75
(dp2724
S'gen'
p2725
g78
((lp2726
S'out/linux-x64x11_devel/gen/bindings/browser/idl/dom/WindowConstructors.h'
p2727
atRp2728
sS'cobalt'
p2729
g78
((lp2730
g2671
ag2673
ag2672
ag2675
ag2674
atRp2731
ssg16
(lp2732
g2694
asg14
(lp2733
S'GlobalEventHandlers'
p2734
aS'WindowEventHandlers'
p2735
ag857
ag869
ag963
ag983
ag1003
asg18
(lp2736
S'/home/avakimov_am/chromium/cobalt/src/out/linux-x64x11_devel/gen/bindings/browser/idl/dom/window_constructors.idl'
p2737
asg20
S'cobalt/dom'
p2738
sg22
(lp2739
g2676
asg25
(dp2740
sg27
I00
sg28
(lp2741
g2727
asg30
Nsg31
I00
sg32
I00
sg33
S'/home/avakimov_am/chromium/cobalt/src/cobalt/dom/window.idl'
p2742
ssg227
(dp2743
g4
S'cobalt/web_animations/Animation.h'
p2744
sg6
(lp2745
sg8
Nsg10
Nsg11
I00
sg12
(lp2746
sg14
(lp2747
sg16
(lp2748
sg18
(lp2749
sg20
S'cobalt/web_animations'
p2750
sg22
(lp2751
sg25
(dp2752
sg27
I00
sg28
(lp2753
sg30
Nsg31
I00
sg32
I00
sg33
S'/home/avakimov_am/chromium/cobalt/src/cobalt/web_animations/animation.idl'
p2754
ssg240
(dp2755
g4
S'cobalt/speech/SpeechSynthesis.h'
p2756
sg6
(lp2757
sg8
Nsg10
Nsg11
I00
sg12
(lp2758
sg14
(lp2759
sg16
(lp2760
sg18
(lp2761
sg20
S'cobalt/speech'
p2762
sg22
(lp2763
sg25
(dp2764
sg27
I00
sg28
(lp2765
sg30
Nsg31
I00
sg32
I00
sg33
S'/home/avakimov_am/chromium/cobalt/src/cobalt/speech/speech_synthesis.idl'
p2766
ssg218
(dp2767
g4
S'cobalt/dom/Blob.h'
p2768
sg6
(lp2769
S'bindings/cobalt/v8/ArrayBufferOrArrayBufferViewOrDataViewOrBlobOrUSVString.h'
p2770
asg8
Nsg10
Nsg11
I00
sg12
(lp2771
sg14
(lp2772
sg16
(lp2773
sg18
(lp2774
sg20
S'cobalt/dom'
p2775
sg22
(lp2776
sg25
(dp2777
sg27
I00
sg28
(lp2778
sg30
Nsg31
I00
sg32
I00
sg33
S'/home/avakimov_am/chromium/cobalt/src/cobalt/dom/blob.idl'
p2779
ssg1027
(dp2780
g4
S'cobalt/dom/EventInit.h'
p2781
sg6
(lp2782
sg8
Nsg10
Nsg11
I00
sg12
(lp2783
sg14
(lp2784
sg16
Nsg18
(lp2785
sg20
S'cobalt/dom'
p2786
sg22
(lp2787
sg25
(dp2788
sg27
I01
sg28
(lp2789
sg30
Nsg31
I01
sg32
I00
sg33
S'/home/avakimov_am/chromium/cobalt/src/cobalt/dom/event_init.idl'
p2790
ssg230
(dp2791
g4
S'cobalt/webdriver/ScriptExecutorParams.h'
p2792
sg6
(lp2793
sg8
Nsg10
S'ENABLE_WEBDRIVER'
p2794
sg11
I00
sg12
(lp2795
sg14
(lp2796
sg16
(lp2797
sg18
(lp2798
sg20
S'cobalt/webdriver'
p2799
sg22
(lp2800
sg25
(dp2801
sg27
I00
sg28
(lp2802
sg30
Nsg31
I00
sg32
I00
sg33
S'/home/avakimov_am/chromium/cobalt/src/cobalt/webdriver/script_executor_params.idl'
p2803
ssg190
(dp2804
g4
S'cobalt/cssom/CSSMediaRule.h'
p2805
sg6
(lp2806
sg8
S'CSSConditionRule'
p2807
sg10
Nsg11
I00
sg12
(lp2808
sg14
(lp2809
sg16
(lp2810
sg18
(lp2811
sg20
S'cobalt/cssom'
p2812
sg22
(lp2813
g2807
ag2609
ag2368
asg25
(dp2814
sg27
I00
sg28
(lp2815
sg30
Nsg31
I00
sg32
I00
sg33
S'/home/avakimov_am/chromium/cobalt/src/cobalt/cssom/css_media_rule.idl'
p2816
ssg232
(dp2817
g4
S'cobalt/dom/XMLSerializer.h'
p2818
sg6
(lp2819
sg8
Nsg10
Nsg11
I00
sg12
(lp2820
sg14
(lp2821
sg16
(lp2822
sg18
(lp2823
sg20
S'cobalt/dom'
p2824
sg22
(lp2825
sg25
(dp2826
sg27
I00
sg28
(lp2827
sg30
Nsg31
I00
sg32
I00
sg33
S'/home/avakimov_am/chromium/cobalt/src/cobalt/dom/xml_serializer.idl'
p2828
ssg233
(dp2829
g4
S'cobalt/dom/DOMImplementation.h'
p2830
sg6
(lp2831
sg8
Nsg10
Nsg11
I00
sg12
(lp2832
sg14
(lp2833
sg16
(lp2834
sg18
(lp2835
sg20
S'cobalt/dom'
p2836
sg22
(lp2837
sg25
(dp2838
sg27
I00
sg28
(lp2839
sg30
Nsg31
I00
sg32
I00
sg33
S'/home/avakimov_am/chromium/cobalt/src/cobalt/dom/dom_implementation.idl'
p2840
ssg963
(dp2841
g4
S'cobalt/dom/SpeechSynthesisGetter.h'
p2842
sg6
(lp2843
sg8
Nsg10
Nsg11
I00
sg12
(lp2844
sg14
(lp2845
sg16
(lp2846
sg18
(lp2847
sg20
S'cobalt/dom'
p2848
sg22
(lp2849
sg25
(dp2850
sg27
I01
sg28
(lp2851
sg30
Nsg31
I00
sg32
I00
sg33
g2679
ssg234
(dp2852
g4
S'cobalt/dom/HTMLDivElement.h'
p2853
sg6
(lp2854
sg8
S'HTMLElement'
p2855
sg10
Nsg11
I00
sg12
(lp2856
sg14
(lp2857
sg16
(lp2858
sg18
(lp2859
sg20
S'cobalt/dom'
p2860
sg22
(lp2861
g2855
ag85
ag86
ag62
asg25
(dp2862
sg27
I00
sg28
(lp2863
sg30
Nsg31
I00
sg32
I00
sg33
S'/home/avakimov_am/chromium/cobalt/src/cobalt/dom/html_div_element.idl'
p2864
ssg235
(dp2865
g4
S'cobalt/media_capture/MediaDevices.h'
p2866
sg6
(lp2867
sg8
S'EventTarget'
p2868
sg10
Nsg11
I00
sg12
(lp2869
sg14
(lp2870
sg16
(lp2871
sg18
(lp2872
sg20
S'cobalt/media_capture'
p2873
sg22
(lp2874
g2868
asg25
(dp2875
sg27
I00
sg28
(lp2876
sg30
Nsg31
I00
sg32
I00
sg33
S'/home/avakimov_am/chromium/cobalt/src/cobalt/media_capture/media_devices.idl'
p2877
ssg968
(dp2878
g4
S'cobalt/dom/BlobPropertyBag.h'
p2879
sg6
(lp2880
sg8
Nsg10
Nsg11
I00
sg12
(lp2881
sg14
(lp2882
sg16
Nsg18
(lp2883
sg20
S'cobalt/dom'
p2884
sg22
(lp2885
sg25
(dp2886
sg27
I01
sg28
(lp2887
sg30
Nsg31
I01
sg32
I00
sg33
S'/home/avakimov_am/chromium/cobalt/src/cobalt/dom/blob_property_bag.idl'
p2888
ssg236
(dp2889
g4
S'cobalt/cssom/CSSRule.h'
p2890
sg6
(lp2891
sg8
Nsg10
Nsg11
I00
sg12
(lp2892
sg14
(lp2893
sg16
(lp2894
sg18
(lp2895
sg20
S'cobalt/cssom'
p2896
sg22
(lp2897
sg25
(dp2898
sg27
I00
sg28
(lp2899
sg30
Nsg31
I00
sg32
I00
sg33
S'/home/avakimov_am/chromium/cobalt/src/cobalt/cssom/css_rule.idl'
p2900
ssg237
(dp2901
g4
S'cobalt/h5vcc/H5vccAccountInfo.h'
p2902
sg6
(lp2903
sg8
Nsg10
Nsg11
I00
sg12
(lp2904
sg14
(lp2905
sg16
(lp2906
sg18
(lp2907
sg20
S'cobalt/h5vcc'
p2908
sg22
(lp2909
sg25
(dp2910
sg27
I00
sg28
(lp2911
sg30
Nsg31
I00
sg32
I00
sg33
S'/home/avakimov_am/chromium/cobalt/src/cobalt/h5vcc/h5vcc_account_info.idl'
p2912
ssg238
(dp2913
g4
S'cobalt/dom/TrackEvent.h'
p2914
sg6
(lp2915
S'bindings/cobalt/v8/AudioTrackOrVideoTrack.h'
p2916
aS'bindings/cobalt/v8/AudioTrackOrVideoTrack.h'
p2917
asg8
S'Event'
p2918
sg10
Nsg11
I00
sg12
(lp2919
sg14
(lp2920
sg16
(lp2921
sg18
(lp2922
sg20
S'cobalt/dom'
p2923
sg22
(lp2924
g2918
asg25
(dp2925
sg27
I00
sg28
(lp2926
sg30
Nsg31
I00
sg32
I00
sg33
S'/home/avakimov_am/chromium/cobalt/src/cobalt/dom/track_event.idl'
p2927
ssg239
(dp2928
g4
S'cobalt/dom/CharacterData.h'
p2929
sg6
(lp2930
sg8
g61
sg10
Nsg11
I00
sg12
(lp2931
g1830
asg14
(lp2932
g900
asg16
(lp2933
sg18
(lp2934
sg20
S'cobalt/dom'
p2935
sg22
(lp2936
g61
ag62
asg25
(dp2937
sg27
I00
sg28
(lp2938
sg30
Nsg31
I00
sg32
I00
sg33
S'/home/avakimov_am/chromium/cobalt/src/cobalt/dom/character_data.idl'
p2939
ssg145
(dp2940
g4
S'cobalt/dom/MutationObserver.h'
p2941
sg6
(lp2942
sg8
Nsg10
Nsg11
I00
sg12
(lp2943
sg14
(lp2944
sg16
(lp2945
sg18
(lp2946
sg20
S'cobalt/dom'
p2947
sg22
(lp2948
sg25
(dp2949
sg27
I00
sg28
(lp2950
sg30
Nsg31
I00
sg32
I00
sg33
S'/home/avakimov_am/chromium/cobalt/src/cobalt/dom/mutation_observer.idl'
p2951
ssg241
(dp2952
g4
S'cobalt/cssom/CSSStyleRule.h'
p2953
sg6
(lp2954
sg8
S'CSSRule'
p2955
sg10
Nsg11
I00
sg12
(lp2956
sg14
(lp2957
sg16
(lp2958
sg18
(lp2959
sg20
S'cobalt/cssom'
p2960
sg22
(lp2961
g2955
asg25
(dp2962
sg27
I00
sg28
(lp2963
sg30
Nsg31
I00
sg32
I00
sg33
S'/home/avakimov_am/chromium/cobalt/src/cobalt/cssom/css_style_rule.idl'
p2964
ssg242
(dp2965
g4
S'cobalt/h5vcc/H5vcc.h'
p2966
sg6
(lp2967
sg8
Nsg10
Nsg11
I00
sg12
(lp2968
sg14
(lp2969
sg16
(lp2970
sg18
(lp2971
sg20
S'cobalt/h5vcc'
p2972
sg22
(lp2973
sg25
(dp2974
sg27
I00
sg28
(lp2975
sg30
Nsg31
I00
sg32
I00
sg33
S'/home/avakimov_am/chromium/cobalt/src/cobalt/h5vcc/h5vcc.idl'
p2976
ssg243
(dp2977
g4
S'cobalt/dom/PerformanceTiming.h'
p2978
sg6
(lp2979
sg8
Nsg10
Nsg11
I00
sg12
(lp2980
sg14
(lp2981
sg16
(lp2982
sg18
(lp2983
sg20
S'cobalt/dom'
p2984
sg22
(lp2985
sg25
(dp2986
sg27
I00
sg28
(lp2987
sg30
Nsg31
I00
sg32
I00
sg33
S'/home/avakimov_am/chromium/cobalt/src/cobalt/dom/performance_timing.idl'
p2988
ssg978
(dp2989
g4
S'cobalt/dom/WindowEventHandlers.h'
p2990
sg6
(lp2991
sg8
Nsg10
Nsg11
I00
sg12
(lp2992
sg14
(lp2993
sg16
(lp2994
sg18
(lp2995
sg20
S'cobalt/dom'
p2996
sg22
(lp2997
sg25
(dp2998
sg27
I01
sg28
(lp2999
sg30
Nsg31
I00
sg32
I00
sg33
g2678
ssg244
(dp3000
g4
S'cobalt/dom/HTMLStyleElement.h'
p3001
sg6
(lp3002
sg8
S'HTMLElement'
p3003
sg10
Nsg11
I00
sg12
(lp3004
g1854
asg14
(lp3005
S'LinkStyle'
p3006
asg16
(lp3007
sg18
(lp3008
sg20
S'cobalt/dom'
p3009
sg22
(lp3010
g3003
ag85
ag86
ag62
asg25
(dp3011
sg27
I00
sg28
(lp3012
sg30
Nsg31
I00
sg32
I00
sg33
S'/home/avakimov_am/chromium/cobalt/src/cobalt/dom/html_style_element.idl'
p3013
ssg981
(dp3014
g4
S'cobalt/dom/eme/MediaKeySystemMediaCapability.h'
p3015
sg6
(lp3016
sg8
Nsg10
Nsg11
I00
sg12
(lp3017
sg14
(lp3018
sg16
Nsg18
(lp3019
sg20
S'cobalt/dom/eme'
p3020
sg22
(lp3021
sg25
(dp3022
sg27
I01
sg28
(lp3023
sg30
Nsg31
I01
sg32
I00
sg33
S'/home/avakimov_am/chromium/cobalt/src/cobalt/dom/eme/media_key_system_media_capability.idl'
p3024
ssg983
(dp3025
g4
S'cobalt/dom/GlobalCrypto.h'
p3026
sg6
(lp3027
sg8
Nsg10
Nsg11
I00
sg12
(lp3028
sg14
(lp3029
sg16
(lp3030
sg18
(lp3031
sg20
S'cobalt/dom'
p3032
sg22
(lp3033
sg25
(dp3034
sg27
I01
sg28
(lp3035
sg30
Nsg31
I00
sg32
I00
sg33
g2680
ssg245
(dp3036
g4
S'cobalt/h5vcc/dial/DialHttpResponse.h'
p3037
sg6
(lp3038
sg8
Nsg10
S'DIAL_SERVER'
p3039
sg11
I00
sg12
(lp3040
sg14
(lp3041
sg16
(lp3042
sg18
(lp3043
sg20
S'cobalt/h5vcc/dial'
p3044
sg22
(lp3045
sg25
(dp3046
sg27
I00
sg28
(lp3047
sg30
Nsg31
I00
sg32
I00
sg33
S'/home/avakimov_am/chromium/cobalt/src/cobalt/h5vcc/dial/dial_http_response.idl'
p3048
ssg246
(dp3049
g4
S'cobalt/dom/MediaSource.h'
p3050
sg6
(lp3051
sg8
S'EventTarget'
p3052
sg10
Nsg11
I00
sg12
(lp3053
sg14
(lp3054
sg16
(lp3055
sg18
(lp3056
sg20
S'cobalt/dom'
p3057
sg22
(lp3058
g3052
asg25
(dp3059
sg27
I00
sg28
(lp3060
sg30
Nsg31
I00
sg32
I00
sg33
S'/home/avakimov_am/chromium/cobalt/src/cobalt/dom/media_source.idl'
p3061
ssg247
(dp3062
g4
S'cobalt/h5vcc/H5vccSettings.h'
p3063
sg6
(lp3064
sg8
Nsg10
Nsg11
I00
sg12
(lp3065
sg14
(lp3066
sg16
(lp3067
sg18
(lp3068
sg20
S'cobalt/h5vcc'
p3069
sg22
(lp3070
sg25
(dp3071
sg27
I00
sg28
(lp3072
sg30
Nsg31
I00
sg32
I00
sg33
S'/home/avakimov_am/chromium/cobalt/src/cobalt/h5vcc/h5vcc_settings.idl'
p3073
ssg248
(dp3074
g4
S'cobalt/dom/Attr.h'
p3075
sg6
(lp3076
sg8
Nsg10
Nsg11
I00
sg12
(lp3077
sg14
(lp3078
sg16
(lp3079
sg18
(lp3080
sg20
S'cobalt/dom'
p3081
sg22
(lp3082
sg25
(dp3083
sg27
I00
sg28
(lp3084
sg30
Nsg31
I00
sg32
I00
sg33
S'/home/avakimov_am/chromium/cobalt/src/cobalt/dom/attr.idl'
p3085
ssg249
(dp3086
g4
S'cobalt/dom/HTMLImageElement.h'
p3087
sg6
(lp3088
sg8
S'HTMLElement'
p3089
sg10
Nsg11
I00
sg12
(lp3090
sg14
(lp3091
sg16
(lp3092
sg18
(lp3093
sg20
S'cobalt/dom'
p3094
sg22
(lp3095
g3089
ag85
ag86
ag62
asg25
(dp3096
sg27
I00
sg28
(lp3097
sg30
Nsg31
I00
sg32
I00
sg33
S'/home/avakimov_am/chromium/cobalt/src/cobalt/dom/html_image_element.idl'
p3098
ssg416
(dp3099
g4
S'cobalt/dom/NonElementParentNode.h'
p3100
sg6
(lp3101
sg8
Nsg10
Nsg11
I00
sg12
(lp3102
sg14
(lp3103
sg16
(lp3104
sg18
(lp3105
sg20
S'cobalt/dom'
p3106
sg22
(lp3107
sg25
(dp3108
sg27
I01
sg28
(lp3109
sg30
Nsg31
I00
sg32
I00
sg33
g372
ssg250
(dp3110
g4
S'cobalt/h5vcc/H5vccRuntime.h'
p3111
sg6
(lp3112
sg8
Nsg10
Nsg11
I00
sg12
(lp3113
sg14
(lp3114
sg16
(lp3115
sg18
(lp3116
sg20
S'cobalt/h5vcc'
p3117
sg22
(lp3118
sg25
(dp3119
sg27
I00
sg28
(lp3120
sg30
Nsg31
I00
sg32
I00
sg33
S'/home/avakimov_am/chromium/cobalt/src/cobalt/h5vcc/h5vcc_runtime.idl'
p3121
ssg251
(dp3122
g4
S'cobalt/cssom/StyleSheetList.h'
p3123
sg6
(lp3124
sg8
Nsg10
Nsg11
I00
sg12
(lp3125
sg14
(lp3126
sg16
(lp3127
sg18
(lp3128
sg20
S'cobalt/cssom'
p3129
sg22
(lp3130
sg25
(dp3131
sg27
I00
sg28
(lp3132
sg30
Nsg31
I00
sg32
I00
sg33
S'/home/avakimov_am/chromium/cobalt/src/cobalt/cssom/style_sheet_list.idl'
p3133
ssg163
(dp3134
g4
S'cobalt/dom/Element.h'
p3135
sg6
(lp3136
S'cobalt/dom/ElementCSSomView.h'
p3137
aS'cobalt/dom/ElementDOMParsingAndSerialization.h'
p3138
aS'cobalt/dom/ElementPointerEvents.h'
p3139
asg8
g86
sg10
Nsg11
I00
sg12
(lp3140
g1830
ag373
aS'/home/avakimov_am/chromium/cobalt/src/cobalt/dom/element_cssom_view.idl'
p3141
aS'/home/avakimov_am/chromium/cobalt/src/cobalt/dom/element_dom_parsing_and_serialization.idl'
p3142
aS'/home/avakimov_am/chromium/cobalt/src/cobalt/dom/element_pointer_events.idl'
p3143
asg14
(lp3144
g900
ag417
asg75
(dp3145
S'cobalt'
p3146
g78
((lp3147
g3138
ag3139
ag3137
atRp3148
ssg16
(lp3149
sg18
(lp3150
sg20
S'cobalt/dom'
p3151
sg22
(lp3152
g86
ag62
asg25
(dp3153
sg27
I00
sg28
(lp3154
sg30
Nsg31
I00
sg32
I00
sg33
S'/home/avakimov_am/chromium/cobalt/src/cobalt/dom/element.idl'
p3155
ssg253
(dp3156
g4
S'cobalt/dom/EventTarget.h'
p3157
sg6
(lp3158
sg8
Nsg10
Nsg11
I00
sg12
(lp3159
sg14
(lp3160
sg16
(lp3161
sg18
(lp3162
sg20
S'cobalt/dom'
p3163
sg22
(lp3164
sg25
(dp3165
sg27
I00
sg28
(lp3166
sg30
Nsg31
I00
sg32
I00
sg33
S'/home/avakimov_am/chromium/cobalt/src/cobalt/dom/event_target.idl'
p3167
ssg169
(dp3168
g4
S'cobalt/dom/MediaError.h'
p3169
sg6
(lp3170
sg8
Nsg10
Nsg11
I00
sg12
(lp3171
sg14
(lp3172
sg16
(lp3173
sg18
(lp3174
sg20
S'cobalt/dom'
p3175
sg22
(lp3176
sg25
(dp3177
sg27
I00
sg28
(lp3178
sg30
Nsg31
I00
sg32
I00
sg33
S'/home/avakimov_am/chromium/cobalt/src/cobalt/dom/media_error.idl'
p3179
ssg22
(dp3180
g2
g23
sg35
g45
sg49
g59
sg66
g84
sg274
g283
sg133
g333
sg965
g1910
sg99
g420
sg102
g457
sg535
g544
sg108
g559
sg111
g609
sg112
g622
sg113
g635
sg114
g648
sg117
g692
sg92
g704
sg118
g730
sg734
g743
sg119
g756
sg120
g1041
sg122
g1066
sg128
g1091
sg127
g1146
sg123
g1675
sg129
g1802
sg814
g1221
sg134
g1246
sg135
g1259
sg136
g1272
sg140
g1322
sg142
g1350
sg146
g1405
sg833
g1417
sg151
g1491
sg152
g1504
sg154
g1529
sg156
g1554
sg847
g1566
sg159
g1603
sg160
g1616
sg163
g3152
sg165
g1726
sg166
g1739
sg168
g1788
sg810
g1185
sg170
g1815
sg172
g1875
sg881
g1898
sg176
g1960
sg178
g1985
sg139
g1998
sg180
g2011
sg183
g2048
sg895
g2059
sg185
g1775
sg189
g2132
sg192
g2157
sg907
g2169
sg193
g2182
sg913
g2220
sg203
g2336
sg205
g2361
sg206
g2374
sg208
g2398
sg930
g2410
sg210
g2739
sg212
g2462
sg214
g2487
sg215
g2500
sg219
g2551
sg221
g2580
sg222
g2615
sg225
g2664
sg226
g2436
sg228
g2538
sg190
g2813
sg234
g2861
sg235
g2874
sg267
(lp3181
g649
ag24
asg238
g2924
sg239
g2936
sg241
g2961
sg191
(lp3182
S'HTMLElement'
p3183
ag85
ag86
ag62
asg244
g3010
sg246
g3058
sg249
g3095
sg252
g1701
sg1001
(lp3184
S'EventInit'
p3185
asg147
(lp3186
S'Event'
p3187
asg254
(lp3188
S'EventTarget'
p3189
asg256
(lp3190
S'EventTarget'
p3191
asg257
(lp3192
S'HTMLElement'
p3193
ag85
ag86
ag62
asg259
(lp3194
S'EventTarget'
p3195
asg260
g717
sg263
(lp3196
S'Event'
p3197
asg264
(lp3198
S'EventTarget'
p3199
asg265
(lp3200
S'EventTarget'
p3201
asg269
(lp3202
S'AudioNode'
p3203
ag1789
asg270
(lp3204
g1789
asg272
(lp3205
S'EventTarget'
p3206
assg132
(dp3207
g4
S'cobalt/dom/EventListener.h'
p3208
sg6
(lp3209
sg8
Nsg10
Nsg11
I00
sg12
(lp3210
sg14
(lp3211
sg16
(lp3212
sg18
(lp3213
sg20
S'cobalt/dom'
p3214
sg22
(lp3215
sg25
(dp3216
sg27
I00
sg28
(lp3217
sg30
Nsg31
I00
sg32
I01
sg33
S'/home/avakimov_am/chromium/cobalt/src/cobalt/dom/event_listener.idl'
p3218
ssg999
(dp3219
g4
S'cobalt/media_stream/MediaStreamConstraints.h'
p3220
sg6
(lp3221
sg8
Nsg10
Nsg11
I00
sg12
(lp3222
sg14
(lp3223
sg16
Nsg18
(lp3224
sg20
S'cobalt/media_stream'
p3225
sg22
(lp3226
sg25
(dp3227
sg27
I01
sg28
(lp3228
sg30
Nsg31
I01
sg32
I00
sg33
S'/home/avakimov_am/chromium/cobalt/src/cobalt/media_stream/media_stream_constraints.idl'
p3229
ssg1001
(dp3230
g4
S'cobalt/dom/ErrorEventInit.h'
p3231
sg6
(lp3232
sg8
g3185
sg10
Nsg11
I00
sg12
(lp3233
sg14
(lp3234
sg16
Nsg18
(lp3235
sg20
S'cobalt/dom'
p3236
sg22
g3184
sg25
(dp3237
sg27
I01
sg28
(lp3238
sg30
Nsg31
I01
sg32
I00
sg33
S'/home/avakimov_am/chromium/cobalt/src/cobalt/dom/error_event_init.idl'
p3239
ssg1003
(dp3240
g4
S'cobalt/dom/WindowSessionStorage.h'
p3241
sg6
(lp3242
sg8
Nsg10
Nsg11
I00
sg12
(lp3243
sg14
(lp3244
sg16
(lp3245
sg18
(lp3246
sg20
S'cobalt/dom'
p3247
sg22
(lp3248
sg25
(dp3249
sg27
I01
sg28
(lp3250
sg30
Nsg31
I00
sg32
I00
sg33
g2681
ssg147
(dp3251
g4
S'cobalt/dom/TransitionEvent.h'
p3252
sg6
(lp3253
sg8
g3187
sg10
Nsg11
I00
sg12
(lp3254
sg14
(lp3255
sg16
(lp3256
sg18
(lp3257
sg20
S'cobalt/dom'
p3258
sg22
g3186
sg25
(dp3259
sg27
I00
sg28
(lp3260
sg30
Nsg31
I00
sg32
I00
sg33
S'/home/avakimov_am/chromium/cobalt/src/cobalt/dom/transition_event.idl'
p3261
ssg254
(dp3262
g4
S'cobalt/audio/AudioContext.h'
p3263
sg6
(lp3264
sg8
g3189
sg10
Nsg11
I00
sg12
(lp3265
sg14
(lp3266
sg16
(lp3267
sg18
(lp3268
sg20
S'cobalt/audio'
p3269
sg22
g3188
sg25
(dp3270
sg27
I00
sg28
(lp3271
sg30
Nsg31
I00
sg32
I00
sg33
S'/home/avakimov_am/chromium/cobalt/src/cobalt/audio/audio_context.idl'
p3272
ssg269
(dp3273
g4
S'cobalt/audio/AudioDestinationNode.h'
p3274
sg6
(lp3275
sg8
g3203
sg10
Nsg11
I00
sg12
(lp3276
sg14
(lp3277
sg16
(lp3278
sg18
(lp3279
sg20
S'cobalt/audio'
p3280
sg22
g3202
sg25
(dp3281
sg27
I00
sg28
(lp3282
sg30
Nsg31
I00
sg32
I00
sg33
S'/home/avakimov_am/chromium/cobalt/src/cobalt/audio/audio_destination_node.idl'
p3283
ssg256
(dp3284
g4
S'cobalt/speech/SpeechRecognition.h'
p3285
sg6
(lp3286
sg8
g3191
sg10
Nsg11
I00
sg12
(lp3287
sg14
(lp3288
sg16
(lp3289
sg18
(lp3290
sg20
S'cobalt/speech'
p3291
sg22
g3190
sg25
(dp3292
sg27
I00
sg28
(lp3293
sg30
Nsg31
I00
sg32
I00
sg33
S'/home/avakimov_am/chromium/cobalt/src/cobalt/speech/speech_recognition.idl'
p3294
ssg257
(dp3295
g4
S'cobalt/dom/HTMLHeadingElement.h'
p3296
sg6
(lp3297
sg8
g3193
sg10
Nsg11
I00
sg12
(lp3298
sg14
(lp3299
sg16
(lp3300
sg18
(lp3301
sg20
S'cobalt/dom'
p3302
sg22
g3192
sg25
(dp3303
sg27
I00
sg28
(lp3304
sg30
Nsg31
I00
sg32
I00
sg33
S'/home/avakimov_am/chromium/cobalt/src/cobalt/dom/html_heading_element.idl'
p3305
ssg167
(dp3306
g4
S'cobalt/dom/Screenshot.h'
p3307
sg6
(lp3308
sg8
Nsg10
Nsg11
I00
sg12
(lp3309
sg14
(lp3310
sg16
(lp3311
sg18
(lp3312
sg20
S'cobalt/dom'
p3313
sg22
(lp3314
sg25
(dp3315
sg27
I00
sg28
(lp3316
sg30
Nsg31
I00
sg32
I00
sg33
S'/home/avakimov_am/chromium/cobalt/src/cobalt/dom/screenshot.idl'
p3317
ssg259
(dp3318
g4
S'cobalt/media_capture/MediaRecorder.h'
p3319
sg6
(lp3320
sg8
g3195
sg10
Nsg11
I00
sg12
(lp3321
sg14
(lp3322
sg16
(lp3323
sg18
(lp3324
sg20
S'cobalt/media_capture'
p3325
sg22
g3194
sg25
(dp3326
sg27
I00
sg28
(lp3327
sg30
Nsg31
I00
sg32
I00
sg33
S'/home/avakimov_am/chromium/cobalt/src/cobalt/media_capture/media_recorder.idl'
p3328
ssg217
(dp3329
g4
S'cobalt/h5vcc/H5vccStorage.h'
p3330
sg6
(lp3331
sg8
Nsg10
Nsg11
I00
sg12
(lp3332
sg14
(lp3333
sg16
(lp3334
sg18
(lp3335
sg20
S'cobalt/h5vcc'
p3336
sg22
(lp3337
sg25
(dp3338
sg27
I00
sg28
(lp3339
sg30
Nsg31
I00
sg32
I00
sg33
S'/home/avakimov_am/chromium/cobalt/src/cobalt/h5vcc/h5vcc_storage.idl'
p3340
ssg1013
(dp3341
g4
S'cobalt/dom/URLUtils.h'
p3342
sg6
(lp3343
sg8
Nsg10
Nsg11
I00
sg12
(lp3344
sg14
(lp3345
sg16
(lp3346
sg18
(lp3347
sg20
S'cobalt/dom'
p3348
sg22
(lp3349
sg25
(dp3350
sg27
I01
sg28
(lp3351
sg30
Nsg31
I00
sg32
I00
sg33
g1331
ssg261
(dp3352
g4
S'cobalt/h5vcc/H5vccDeepLinkEventTarget.h'
p3353
sg6
(lp3354
sg8
Nsg10
Nsg11
I00
sg12
(lp3355
sg14
(lp3356
sg16
(lp3357
sg18
(lp3358
sg20
S'cobalt/h5vcc'
p3359
sg22
(lp3360
sg25
(dp3361
sg27
I00
sg28
(lp3362
sg30
Nsg31
I00
sg32
I00
sg33
S'/home/avakimov_am/chromium/cobalt/src/cobalt/h5vcc/h5vcc_deep_link_event_target.idl'
p3363
ssg262
(dp3364
g4
S'cobalt/dom/AudioTrack.h'
p3365
sg6
(lp3366
sg8
Nsg10
Nsg11
I00
sg12
(lp3367
sg14
(lp3368
sg16
(lp3369
sg18
(lp3370
sg20
S'cobalt/dom'
p3371
sg22
(lp3372
sg25
(dp3373
sg27
I00
sg28
(lp3374
sg30
Nsg31
I00
sg32
I00
sg33
S'/home/avakimov_am/chromium/cobalt/src/cobalt/dom/audio_track.idl'
p3375
ssg191
(dp3376
g4
S'cobalt/dom/HTMLHtmlElement.h'
p3377
sg6
(lp3378
sg8
g3183
sg10
Nsg11
I00
sg12
(lp3379
sg14
(lp3380
sg16
(lp3381
sg18
(lp3382
sg20
S'cobalt/dom'
p3383
sg22
g3182
sg25
(dp3384
sg27
I00
sg28
(lp3385
sg30
Nsg31
I00
sg32
I00
sg33
S'/home/avakimov_am/chromium/cobalt/src/cobalt/dom/html_html_element.idl'
p3386
ssg263
(dp3387
g4
S'cobalt/websocket/CloseEvent.h'
p3388
sg6
(lp3389
sg8
g3197
sg10
Nsg11
I00
sg12
(lp3390
sg14
(lp3391
sg16
(lp3392
sg18
(lp3393
sg20
S'cobalt/websocket'
p3394
sg22
g3196
sg25
(dp3395
sg27
I00
sg28
(lp3396
sg30
Nsg31
I00
sg32
I00
sg33
S'/home/avakimov_am/chromium/cobalt/src/cobalt/websocket/close_event.idl'
p3397
ssg264
(dp3398
g4
S'cobalt/dom/SourceBufferList.h'
p3399
sg6
(lp3400
sg8
g3199
sg10
Nsg11
I00
sg12
(lp3401
sg14
(lp3402
sg16
(lp3403
sg18
(lp3404
sg20
S'cobalt/dom'
p3405
sg22
g3198
sg25
(dp3406
sg27
I00
sg28
(lp3407
sg30
Nsg31
I00
sg32
I00
sg33
S'/home/avakimov_am/chromium/cobalt/src/cobalt/dom/source_buffer_list.idl'
p3408
ssg1021
(dp3409
g4
S'cobalt/dom/NavigatorLicenses.h'
p3410
sg6
(lp3411
sg8
Nsg10
Nsg11
I00
sg12
(lp3412
sg14
(lp3413
sg16
(lp3414
sg18
(lp3415
sg20
S'cobalt/dom'
p3416
sg22
(lp3417
sg25
(dp3418
sg27
I01
sg28
(lp3419
sg30
Nsg31
I00
sg32
I00
sg33
S'/home/avakimov_am/chromium/cobalt/src/cobalt/dom/navigator_licenses.idl'
p3420
ssg265
(dp3421
g4
S'cobalt/dom/OnScreenKeyboard.h'
p3422
sg6
(lp3423
sg8
g3201
sg10
S'COBALT_ENABLE_ON_SCREEN_KEYBOARD'
p3424
sg11
I00
sg12
(lp3425
sg14
(lp3426
sg16
(lp3427
sg18
(lp3428
sg20
S'cobalt/dom'
p3429
sg22
g3200
sg25
(dp3430
sg27
I00
sg28
(lp3431
sg30
Nsg31
I00
sg32
I00
sg33
S'/home/avakimov_am/chromium/cobalt/src/cobalt/dom/on_screen_keyboard.idl'
p3432
ssg417
(dp3433
g4
S'cobalt/dom/ParentNode.h'
p3434
sg6
(lp3435
sg8
Nsg10
Nsg11
I00
sg12
(lp3436
sg14
(lp3437
sg16
(lp3438
sg18
(lp3439
sg20
S'cobalt/dom'
p3440
sg22
(lp3441
sg25
(dp3442
sg27
I01
sg28
(lp3443
sg30
Nsg31
I00
sg32
I00
sg33
g373
ssg267
(dp3444
g4
S'cobalt/dom/MouseEvent.h'
p3445
sg6
(lp3446
S'cobalt/dom/MouseEventCSSomView.h'
p3447
asg8
g649
sg10
Nsg11
I00
sg12
(lp3448
S'/home/avakimov_am/chromium/cobalt/src/cobalt/dom/mouse_event_cssom_view.idl'
p3449
asg14
(lp3450
sg75
(dp3451
S'cobalt'
p3452
g78
((lp3453
g3447
atRp3454
ssg16
(lp3455
sg18
(lp3456
sg20
S'cobalt/dom'
p3457
sg22
g3181
sg25
(dp3458
sg27
I00
sg28
(lp3459
sg30
Nsg31
I00
sg32
I00
sg33
S'/home/avakimov_am/chromium/cobalt/src/cobalt/dom/mouse_event.idl'
p3460
ssg268
(dp3461
g4
S'cobalt/dom/eme/MediaKeys.h'
p3462
sg6
(lp3463
sg8
Nsg10
Nsg11
I00
sg12
(lp3464
sg14
(lp3465
sg16
(lp3466
sg18
(lp3467
sg20
S'cobalt/dom/eme'
p3468
sg22
(lp3469
sg25
(dp3470
sg27
I00
sg28
(lp3471
sg30
Nsg31
I00
sg32
I00
sg33
S'/home/avakimov_am/chromium/cobalt/src/cobalt/dom/eme/media_keys.idl'
p3472
ssg255
(dp3473
g4
S'cobalt/dom/Navigator.h'
p3474
sg6
(lp3475
S'cobalt/dom/eme/Navigator.h'
p3476
aS'cobalt/media_capture/Navigator.h'
p3477
asg8
Nsg10
Nsg11
I00
sg12
(lp3478
g2527
ag1842
ag1395
ag1176
ag2271
ag1925
ag3420
aS'/home/avakimov_am/chromium/cobalt/src/cobalt/dom/eme/navigator.idl'
p3479
aS'/home/avakimov_am/chromium/cobalt/src/cobalt/media_capture/navigator.idl'
p3480
asg14
(lp3481
S'NavigatorID'
p3482
aS'NavigatorLanguage'
p3483
aS'NavigatorPlugins'
p3484
aS'NavigatorStorageUtils'
p3485
aS'NavigatorMediaSession'
p3486
aS'NavigatorSystemCaptionSettings'
p3487
aS'NavigatorLicenses'
p3488
asg75
(dp3489
S'cobalt'
p3490
g78
((lp3491
g3476
ag3477
atRp3492
ssg16
(lp3493
sg18
(lp3494
sg20
S'cobalt/dom'
p3495
sg22
(lp3496
sg25
(dp3497
sg27
I00
sg28
(lp3498
sg30
Nsg31
I00
sg32
I00
sg33
S'/home/avakimov_am/chromium/cobalt/src/cobalt/dom/navigator.idl'
p3499
ssg270
(dp3500
g4
S'cobalt/audio/AudioNode.h'
p3501
sg6
(lp3502
sg8
g1789
sg10
Nsg11
I00
sg12
(lp3503
sg14
(lp3504
sg16
(lp3505
sg18
(lp3506
sg20
S'cobalt/audio'
p3507
sg22
g3204
sg25
(dp3508
sg27
I00
sg28
(lp3509
sg30
Nsg31
I00
sg32
I00
sg33
S'/home/avakimov_am/chromium/cobalt/src/cobalt/audio/audio_node.idl'
p3510
ssg271
(dp3511
g4
S'cobalt/speech/SpeechRecognitionAlternative.h'
p3512
sg6
(lp3513
sg8
Nsg10
Nsg11
I00
sg12
(lp3514
sg14
(lp3515
sg16
(lp3516
sg18
(lp3517
sg20
S'cobalt/speech'
p3518
sg22
(lp3519
sg25
(dp3520
sg27
I00
sg28
(lp3521
sg30
Nsg31
I00
sg32
I00
sg33
S'/home/avakimov_am/chromium/cobalt/src/cobalt/speech/speech_recognition_alternative.idl'
p3522
ssg272
(dp3523
g4
S'cobalt/dom/SourceBuffer.h'
p3524
sg6
(lp3525
sg8
g3206
sg10
Nsg11
I00
sg12
(lp3526
sg14
(lp3527
sg16
(lp3528
sg18
(lp3529
sg20
S'cobalt/dom'
p3530
sg22
g3205
sg25
(dp3531
sg27
I00
sg28
(lp3532
sg30
Nsg31
I00
sg32
I00
sg33
S'/home/avakimov_am/chromium/cobalt/src/cobalt/dom/source_buffer.idl'
p3533
ss.