(dp1
S'interfaces_info'
p2
(dp3
S'KeyboardEvent'
p4
(dp5
S'is_legacy_treat_as_partial_interface'
p6
I00
sS'relative_dir'
p7
S'cobalt/dom'
p8
sS'include_path'
p9
S'cobalt/dom/KeyboardEvent.h'
p10
sS'parent'
p11
S'UIEvent'
p12
sS'extended_attributes'
p13
(dp14
S'Constructor'
p15
NssS'conditional'
p16
NsS'unsupported'
p17
I00
sS'is_dependency'
p18
I00
sS'implements_interfaces'
p19
(lp20
sS'implemented_by_interfaces'
p21
(lp22
sS'referenced_interfaces'
p23
(lp24
sS'union_types'
p25
c__builtin__
set
p26
((ltRp27
sS'implemented_as'
p28
NsS'is_dictionary'
p29
I00
sS'is_callback_interface'
p30
I00
sS'full_path'
p31
S'/home/avakimov_am/chromium/cobalt/src/cobalt/dom/keyboard_event.idl'
p32
ssS'SystemCaptionSettings'
p33
(dp34
g6
I00
sg7
S'cobalt/dom/captions'
p35
sg9
S'cobalt/dom/captions/SystemCaptionSettings.h'
p36
sg11
S'EventTarget'
p37
sg13
(dp38
g15
Nssg16
Nsg17
I00
sg18
I00
sg19
(lp39
sg21
(lp40
sg23
(lp41
sg25
g26
((ltRp42
sg28
Nsg29
I00
sg30
I00
sg31
S'/home/avakimov_am/chromium/cobalt/src/cobalt/dom/captions/system_caption_settings.idl'
p43
ssS'CDATASection'
p44
(dp45
g6
I00
sg7
S'cobalt/dom'
p46
sg9
S'cobalt/dom/CDATASection.h'
p47
sg11
S'Text'
p48
sg13
(dp49
g15
NsS'ConstructorCallWith'
p50
S'EnvironmentSettings'
p51
ssg16
Nsg17
I00
sg18
I00
sg19
(lp52
sg21
(lp53
sg23
(lp54
sg25
g26
((ltRp55
sg28
Nsg29
I00
sg30
I00
sg31
S'/home/avakimov_am/chromium/cobalt/src/cobalt/dom/cdata_section.idl'
p56
ssS'HTMLMediaElement'
p57
(dp58
g6
I00
sg7
S'cobalt/dom'
p59
sg9
S'cobalt/dom/HTMLMediaElement.h'
p60
sg11
S'HTMLElement'
p61
sg13
(dp62
sg16
Nsg17
I00
sg18
I00
sg19
(lp63
sS'cpp_includes'
p64
(dp65
S'cobalt'
p66
g26
((lp67
S'cobalt/dom/eme/HTMLMediaElement.h'
p68
atRp69
ssg23
(lp70
sg25
g26
((ltRp71
sg28
Nsg21
(lp72
sg30
I00
sg29
I00
sg31
S'/home/avakimov_am/chromium/cobalt/src/cobalt/dom/html_media_element.idl'
p73
ssS'MediaEncryptedEventInit'
p74
(dp75
g6
I00
sg7
S'cobalt/dom/eme'
p76
sg9
S'cobalt/dom/eme/MediaEncryptedEventInit.h'
p77
sg11
S'EventInit'
p78
sg13
(dp79
sg16
Nsg17
I00
sg18
I01
sg19
(lp80
sg21
(lp81
sg23
Nsg25
g26
((ltRp82
sg28
Nsg29
I01
sg30
I00
sg31
S'/home/avakimov_am/chromium/cobalt/src/cobalt/dom/eme/media_encrypted_event_init.idl'
p83
ssS'CValKeyList'
p84
(dp85
g6
I00
sg7
S'cobalt/dom'
p86
sg9
S'cobalt/dom/CValKeyList.h'
p87
sg11
Nsg13
(dp88
S'ArrayClass'
p89
Nssg16
Nsg17
I00
sg18
I00
sg19
(lp90
sg21
(lp91
sg23
(lp92
sg25
g26
((ltRp93
sg28
Nsg29
I00
sg30
I00
sg31
S'/home/avakimov_am/chromium/cobalt/src/cobalt/dom/c_val_key_list.idl'
p94
ssS'H5vccAccessibility'
p95
(dp96
g6
I00
sg7
S'cobalt/h5vcc'
p97
sg9
S'cobalt/h5vcc/H5vccAccessibility.h'
p98
sg11
Nsg13
(dp99
sg16
Nsg17
I00
sg18
I00
sg19
(lp100
sg21
(lp101
sg23
(lp102
sg25
g26
((ltRp103
sg28
Nsg29
I00
sg30
I00
sg31
S'/home/avakimov_am/chromium/cobalt/src/cobalt/h5vcc/h5vcc_accessibility.idl'
p104
ssS'ScriptExecutor'
p105
(dp106
g6
I00
sg7
S'cobalt/webdriver'
p107
sg9
S'cobalt/webdriver/ScriptExecutor.h'
p108
sg11
Nsg13
(dp109
S'Conditional'
p110
S'ENABLE_WEBDRIVER'
p111
sS'NoInterfaceObject'
p112
Nssg16
g111
sg17
I00
sg18
I00
sg19
(lp113
sg21
(lp114
sg23
(lp115
sg25
g26
((ltRp116
sg28
Nsg29
I00
sg30
I00
sg31
S'/home/avakimov_am/chromium/cobalt/src/cobalt/webdriver/script_executor.idl'
p117
ssS'HTMLLinkElement'
p118
(dp119
g6
I00
sg7
S'cobalt/dom'
p120
sg9
S'cobalt/dom/HTMLLinkElement.h'
p121
sg11
S'HTMLElement'
p122
sg13
(dp123
sg16
Nsg17
I00
sg18
I00
sg19
(lp124
sg21
(lp125
sg23
(lp126
sg25
g26
((ltRp127
sg28
Nsg29
I00
sg30
I00
sg31
S'/home/avakimov_am/chromium/cobalt/src/cobalt/dom/html_link_element.idl'
p128
ssS'H5vccRuntimeEventTarget'
p129
(dp130
g6
I00
sg7
S'cobalt/h5vcc'
p131
sg9
S'cobalt/h5vcc/H5vccRuntimeEventTarget.h'
p132
sg11
Nsg13
(dp133
sg16
Nsg17
I00
sg18
I00
sg19
(lp134
sg21
(lp135
sg23
(lp136
sg25
g26
((ltRp137
sg28
Nsg29
I00
sg30
I00
sg31
S'/home/avakimov_am/chromium/cobalt/src/cobalt/h5vcc/h5vcc_runtime_event_target.idl'
p138
ssS'Console'
p139
(dp140
g6
I00
sg7
S'cobalt/dom'
p141
sg9
S'cobalt/dom/Console.h'
p142
sg11
Nsg13
(dp143
sg16
Nsg17
I00
sg18
I00
sg19
(lp144
sg21
(lp145
sg23
(lp146
sg25
g26
((ltRp147
sg28
Nsg29
I00
sg30
I00
sg31
S'/home/avakimov_am/chromium/cobalt/src/cobalt/dom/console.idl'
p148
ssS'Document'
p149
(dp150
g6
I00
sg7
S'cobalt/dom'
p151
sg9
S'cobalt/dom/Document.h'
p152
sg11
S'Node'
p153
sg13
(dp154
sS'unforgeable_attributes'
p155
(dp156
S'cobalt'
p157
(lp158
ccopy_reg
_reconstructor
p159
(cidl_definitions
IdlAttribute
p160
c__builtin__
object
p161
NtRp162
(dp163
S'is_static'
p164
I00
sS'idl_type'
p165
g159
(cidl_types
IdlNullableType
p166
g161
NtRp167
(dp168
S'inner_type'
p169
g159
(cidl_types
IdlType
p170
g161
NtRp171
(dp172
S'base_type'
p173
S'Location'
p174
sbsbsS'is_read_only'
p175
I01
sS'name'
p176
S'location'
p177
sg13
(dp178
S'Unforgeable'
p179
NsS'PutForwards'
p180
S'href'
p181
sS'PartialInterfaceImplementedAs'
p182
S'DocumentHtml5'
p183
ssbassg16
Nsg17
I00
sg18
I00
sg19
(lp184
S'GlobalEventHandlers'
p185
asg21
(lp186
sg23
(lp187
sg25
g26
((ltRp188
sg28
Nsg29
I00
sg30
I00
sg31
S'/home/avakimov_am/chromium/cobalt/src/cobalt/dom/document.idl'
p189
sg64
(dp190
S'cobalt'
p191
g26
((lp192
S'cobalt/dom/DocumentCobalt.h'
p193
aS'cobalt/dom/DocumentWebAnimationsApi.h'
p194
aS'cobalt/page_visibility/Document.h'
p195
aS'cobalt/dom/DocumentHtml5.h'
p196
aS'cobalt/dom/DocumentCSSom.h'
p197
atRp198
sssS'CSSRuleList'
p199
(dp200
g6
I00
sg7
S'cobalt/cssom'
p201
sg9
S'cobalt/cssom/CSSRuleList.h'
p202
sg11
Nsg13
(dp203
sg16
Nsg17
I00
sg18
I00
sg19
(lp204
sg21
(lp205
sg23
(lp206
sg25
g26
((ltRp207
sg28
Nsg29
I00
sg30
I00
sg31
S'/home/avakimov_am/chromium/cobalt/src/cobalt/cssom/css_rule_list.idl'
p208
ssS'SpeechSynthesisVoice'
p209
(dp210
g6
I00
sg7
S'cobalt/speech'
p211
sg9
S'cobalt/speech/SpeechSynthesisVoice.h'
p212
sg11
Nsg13
(dp213
sg16
Nsg17
I00
sg18
I00
sg19
(lp214
sg21
(lp215
sg23
(lp216
sg25
g26
((ltRp217
sg28
Nsg29
I00
sg30
I00
sg31
S'/home/avakimov_am/chromium/cobalt/src/cobalt/speech/speech_synthesis_voice.idl'
p218
ssS'XMLHttpRequestEventTarget'
p219
(dp220
g6
I00
sg7
S'cobalt/xhr'
p221
sg9
S'cobalt/xhr/XMLHttpRequestEventTarget.h'
p222
sg11
S'EventTarget'
p223
sg13
(dp224
sg16
Nsg17
I00
sg18
I00
sg19
(lp225
sg21
(lp226
sg23
(lp227
sg25
g26
((ltRp228
sg28
Nsg29
I00
sg30
I00
sg31
S'/home/avakimov_am/chromium/cobalt/src/cobalt/xhr/xml_http_request_event_target.idl'
p229
ssS'H5vccSystem'
p230
(dp231
g6
I00
sg7
S'cobalt/h5vcc'
p232
sg9
S'cobalt/h5vcc/H5vccSystem.h'
p233
sg11
Nsg13
(dp234
sg16
Nsg17
I00
sg18
I00
sg19
(lp235
sg21
(lp236
sg23
(lp237
sg25
g26
((ltRp238
sg28
Nsg29
I00
sg30
I00
sg31
S'/home/avakimov_am/chromium/cobalt/src/cobalt/h5vcc/h5vcc_system.idl'
p239
ssS'MutationObserverInit'
p240
(dp241
g6
I00
sg7
S'cobalt/dom'
p242
sg9
S'cobalt/dom/MutationObserverInit.h'
p243
sg11
Nsg13
(dp244
sg16
Nsg17
I00
sg18
I01
sg19
(lp245
sg21
(lp246
sg23
Nsg25
g26
((ltRp247
sg28
Nsg29
I01
sg30
I00
sg31
S'/home/avakimov_am/chromium/cobalt/src/cobalt/dom/mutation_observer_init.idl'
p248
ssS'MimeTypeArray'
p249
(dp250
g6
I00
sg7
S'cobalt/dom'
p251
sg9
S'cobalt/dom/MimeTypeArray.h'
p252
sg11
Nsg13
(dp253
sg16
Nsg17
I00
sg18
I00
sg19
(lp254
sg21
(lp255
sg23
(lp256
sg25
g26
((ltRp257
sg28
Nsg29
I00
sg30
I00
sg31
S'/home/avakimov_am/chromium/cobalt/src/cobalt/dom/mime_type_array.idl'
p258
ssS'DebugBackend'
p259
(dp260
g6
I00
sg7
S'cobalt/debug/backend'
p261
sg9
S'cobalt/debug/backend/DebugBackend.h'
p262
sg11
Nsg13
(dp263
S'Conditional'
p264
S'ENABLE_DEBUGGER'
p265
ssg16
g265
sg17
I00
sg18
I00
sg19
(lp266
sg21
(lp267
sg23
(lp268
sg25
g26
((ltRp269
sg28
Nsg29
I00
sg30
I00
sg31
S'/home/avakimov_am/chromium/cobalt/src/cobalt/debug/backend/debug_backend.idl'
p270
ssS'ConsoleCommand'
p271
(dp272
g6
I00
sg7
S'cobalt/debug/console'
p273
sg9
S'cobalt/debug/console/ConsoleCommand.h'
p274
sg11
Nsg13
(dp275
S'Conditional'
p276
S'ENABLE_DEBUGGER'
p277
ssg16
g277
sg17
I00
sg18
I01
sg19
(lp278
sg21
(lp279
sg23
Nsg25
g26
((ltRp280
sg28
Nsg29
I01
sg30
I00
sg31
S'/home/avakimov_am/chromium/cobalt/src/cobalt/debug/console/console_command.idl'
p281
ssS'MediaSessionActionDetails'
p282
(dp283
g6
I00
sg7
S'cobalt/media_session'
p284
sg9
S'cobalt/media_session/MediaSessionActionDetails.h'
p285
sg11
Nsg13
(dp286
sg16
Nsg17
I00
sg18
I00
sg19
(lp287
sg21
(lp288
sg23
(lp289
sg25
g26
((ltRp290
sg28
Nsg29
I00
sg30
I00
sg31
S'/home/avakimov_am/chromium/cobalt/src/cobalt/media_session/media_session_action_details.idl'
p291
ssS'MouseEventInit'
p292
(dp293
g6
I00
sg7
S'cobalt/dom'
p294
sg9
S'cobalt/dom/MouseEventInit.h'
p295
sg11
S'EventModifierInit'
p296
sg13
(dp297
sg16
Nsg17
I00
sg18
I01
sg19
(lp298
sg21
(lp299
sg23
Nsg25
g26
((ltRp300
sg28
Nsg29
I01
sg30
I00
sg31
S'/home/avakimov_am/chromium/cobalt/src/cobalt/dom/mouse_event_init.idl'
p301
ssS'DocumentType'
p302
(dp303
g6
I00
sg7
S'cobalt/dom'
p304
sg9
S'cobalt/dom/DocumentType.h'
p305
sg11
S'Node'
p306
sg13
(dp307
sg16
Nsg17
I00
sg18
I00
sg19
(lp308
sg21
(lp309
sg23
(lp310
sg25
g26
((ltRp311
sg28
Nsg29
I00
sg30
I00
sg31
S'/home/avakimov_am/chromium/cobalt/src/cobalt/dom/document_type.idl'
p312
ssS'DOMRectList'
p313
(dp314
g6
I00
sg7
S'cobalt/dom'
p315
sg9
S'cobalt/dom/DOMRectList.h'
p316
sg11
Nsg13
(dp317
S'NoInterfaceObject'
p318
NsS'ArrayClass'
p319
Nssg16
Nsg17
I00
sg18
I00
sg19
(lp320
sg21
(lp321
sg23
(lp322
sg25
g26
((ltRp323
sg28
Nsg29
I00
sg30
I00
sg31
S'/home/avakimov_am/chromium/cobalt/src/cobalt/dom/dom_rect_list.idl'
p324
ssS'VideoTrack'
p325
(dp326
g6
I00
sg7
S'cobalt/dom'
p327
sg9
S'cobalt/dom/VideoTrack.h'
p328
sg11
Nsg13
(dp329
sg16
Nsg17
I00
sg18
I00
sg19
(lp330
sg21
(lp331
sg23
(lp332
sg25
g26
((ltRp333
sg28
Nsg29
I00
sg30
I00
sg31
S'/home/avakimov_am/chromium/cobalt/src/cobalt/dom/video_track.idl'
p334
ssS'CSSKeyframesRule'
p335
(dp336
g6
I00
sg7
S'cobalt/cssom'
p337
sg9
S'cobalt/cssom/CSSKeyframesRule.h'
p338
sg11
S'CSSRule'
p339
sg13
(dp340
sg16
Nsg17
I00
sg18
I00
sg19
(lp341
sg21
(lp342
sg23
(lp343
sg25
g26
((ltRp344
sg28
Nsg29
I00
sg30
I00
sg31
S'/home/avakimov_am/chromium/cobalt/src/cobalt/cssom/css_keyframes_rule.idl'
p345
ssS'HTMLMetaElement'
p346
(dp347
g6
I00
sg7
S'cobalt/dom'
p348
sg9
S'cobalt/dom/HTMLMetaElement.h'
p349
sg11
S'HTMLElement'
p350
sg13
(dp351
sg16
Nsg17
I00
sg18
I00
sg19
(lp352
sg21
(lp353
sg23
(lp354
sg25
g26
((ltRp355
sg28
Nsg29
I00
sg30
I00
sg31
S'/home/avakimov_am/chromium/cobalt/src/cobalt/dom/html_meta_element.idl'
p356
ssS'KeyframeEffectReadOnly'
p357
(dp358
g6
I00
sg7
S'cobalt/web_animations'
p359
sg9
S'cobalt/web_animations/KeyframeEffectReadOnly.h'
p360
sg11
S'AnimationEffectReadOnly'
p361
sg13
(dp362
sg16
Nsg17
I00
sg18
I00
sg19
(lp363
sg21
(lp364
sg23
(lp365
sg25
g26
((ltRp366
sg28
Nsg29
I00
sg30
I00
sg31
S'/home/avakimov_am/chromium/cobalt/src/cobalt/web_animations/keyframe_effect_read_only.idl'
p367
ssS'PointerEvent'
p368
(dp369
g6
I00
sg7
S'cobalt/dom'
p370
sg9
S'cobalt/dom/PointerEvent.h'
p371
sg11
S'MouseEvent'
p372
sg13
(dp373
g15
Nssg16
Nsg17
I00
sg18
I00
sg19
(lp374
sg21
(lp375
sg23
(lp376
sg25
g26
((ltRp377
sg28
Nsg29
I00
sg30
I00
sg31
S'/home/avakimov_am/chromium/cobalt/src/cobalt/dom/pointer_event.idl'
p378
ssS'MediaStreamTrack'
p379
(dp380
g6
I00
sg7
S'cobalt/media_stream'
p381
sg9
S'cobalt/media_stream/MediaStreamTrack.h'
p382
sg11
S'EventTarget'
p383
sg13
(dp384
S'Exposed'
p385
(lp386
(iidl_definitions
Exposure
p387
(dp388
S'runtime_enabled'
p389
NsS'exposed'
p390
S'Window'
p391
sbassg16
Nsg17
I00
sg18
I00
sg19
(lp392
sg21
(lp393
sg23
(lp394
sg25
g26
((ltRp395
sg28
Nsg29
I00
sg30
I00
sg31
S'/home/avakimov_am/chromium/cobalt/src/cobalt/media_stream/media_stream_track.idl'
p396
ssS'URL'
p397
(dp398
g6
I00
sg7
S'cobalt/dom'
p399
sg9
S'cobalt/dom/URL.h'
p400
sg11
Nsg13
(dp401
sg16
Nsg17
I00
sg18
I00
sg19
(lp402
sg21
(lp403
sg23
(lp404
sg25
g26
((ltRp405
sg28
Nsg29
I00
sg30
I00
sg31
S'/home/avakimov_am/chromium/cobalt/src/cobalt/dom/url.idl'
p406
sg64
(dp407
S'cobalt'
p408
g26
((lp409
S'cobalt/dom/URLMse.h'
p410
atRp411
sssS'DOMTokenList'
p412
(dp413
g6
I00
sg7
S'cobalt/dom'
p414
sg9
S'cobalt/dom/DOMTokenList.h'
p415
sg11
Nsg13
(dp416
sg16
Nsg17
I00
sg18
I00
sg19
(lp417
sg21
(lp418
sg23
(lp419
sg25
g26
((ltRp420
sg28
Nsg29
I00
sg30
I00
sg31
S'/home/avakimov_am/chromium/cobalt/src/cobalt/dom/dom_token_list.idl'
p421
ssS'HTMLSpanElement'
p422
(dp423
g6
I00
sg7
S'cobalt/dom'
p424
sg9
S'cobalt/dom/HTMLSpanElement.h'
p425
sg11
S'HTMLElement'
p426
sg13
(dp427
sg16
Nsg17
I00
sg18
I00
sg19
(lp428
sg21
(lp429
sg23
(lp430
sg25
g26
((ltRp431
sg28
Nsg29
I00
sg30
I00
sg31
S'/home/avakimov_am/chromium/cobalt/src/cobalt/dom/html_span_element.idl'
p432
ssS'UIEvent'
p433
(dp434
g6
I00
sg7
S'cobalt/dom'
p435
sg9
S'cobalt/dom/UIEvent.h'
p436
sg11
S'Event'
p437
sg13
(dp438
g15
Nssg16
Nsg17
I00
sg18
I00
sg19
(lp439
sg21
(lp440
sg23
(lp441
sg25
g26
((ltRp442
sg28
Nsg29
I00
sg30
I00
sg31
S'/home/avakimov_am/chromium/cobalt/src/cobalt/dom/ui_event.idl'
p443
ssS'H5vccAccountInfo'
p444
(dp445
g6
I00
sg7
S'cobalt/h5vcc'
p446
sg9
S'cobalt/h5vcc/H5vccAccountInfo.h'
p447
sg11
Nsg13
(dp448
sg16
Nsg17
I00
sg18
I00
sg19
(lp449
sg21
(lp450
sg23
(lp451
sg25
g26
((ltRp452
sg28
Nsg29
I00
sg30
I00
sg31
S'/home/avakimov_am/chromium/cobalt/src/cobalt/h5vcc/h5vcc_account_info.idl'
p453
ssS'XMLHttpRequestUpload'
p454
(dp455
g6
I00
sg7
S'cobalt/xhr'
p456
sg9
S'cobalt/xhr/XMLHttpRequestUpload.h'
p457
sg11
S'XMLHttpRequestEventTarget'
p458
sg13
(dp459
sg16
Nsg17
I00
sg18
I00
sg19
(lp460
sg21
(lp461
sg23
(lp462
sg25
g26
((ltRp463
sg28
Nsg29
I00
sg30
I00
sg31
S'/home/avakimov_am/chromium/cobalt/src/cobalt/xhr/xml_http_request_upload.idl'
p464
ssS'SourceBuffer'
p465
(dp466
g6
I00
sg7
S'cobalt/dom'
p467
sg9
S'cobalt/dom/SourceBuffer.h'
p468
sg11
S'EventTarget'
p469
sg13
(dp470
sg16
Nsg17
I00
sg18
I00
sg19
(lp471
sg21
(lp472
sg23
(lp473
sg25
g26
((ltRp474
sg28
Nsg29
I00
sg30
I00
sg31
S'/home/avakimov_am/chromium/cobalt/src/cobalt/dom/source_buffer.idl'
p475
ssS'DeviceOrientationEventInit'
p476
(dp477
g6
I00
sg7
S'cobalt/dom'
p478
sg9
S'cobalt/dom/DeviceOrientationEventInit.h'
p479
sg11
S'EventInit'
p480
sg13
(dp481
sg16
Nsg17
I00
sg18
I01
sg19
(lp482
sg21
(lp483
sg23
Nsg25
g26
((ltRp484
sg28
Nsg29
I01
sg30
I00
sg31
S'/home/avakimov_am/chromium/cobalt/src/cobalt/dom/device_orientation_event_init.idl'
p485
ssS'AudioTrackList'
p486
(dp487
g6
I00
sg7
S'cobalt/dom'
p488
sg9
S'cobalt/dom/AudioTrackList.h'
p489
sg11
S'EventTarget'
p490
sg13
(dp491
sg16
Nsg17
I00
sg18
I00
sg19
(lp492
sg21
(lp493
sg23
(lp494
sg25
g26
((ltRp495
sg28
Nsg29
I00
sg30
I00
sg31
S'/home/avakimov_am/chromium/cobalt/src/cobalt/dom/audio_track_list.idl'
p496
ssS'MessageEvent'
p497
(dp498
g6
I00
sg7
S'cobalt/dom'
p499
sg9
S'cobalt/dom/MessageEvent.h'
p500
sg11
S'Event'
p501
sg13
(dp502
sg16
Nsg17
I00
sg18
I00
sg19
(lp503
sg21
(lp504
sg23
(lp505
sg25
g26
((ltRp506
sg28
Nsg29
I00
sg30
I00
sg31
S'/home/avakimov_am/chromium/cobalt/src/cobalt/dom/message_event.idl'
p507
ssS'MediaSession'
p508
(dp509
g6
I00
sg7
S'cobalt/media_session'
p510
sg9
S'cobalt/media_session/MediaSession.h'
p511
sg11
Nsg13
(dp512
sg16
Nsg17
I00
sg18
I00
sg19
(lp513
sg21
(lp514
sg23
(lp515
sg25
g26
((ltRp516
sg28
Nsg29
I00
sg30
I00
sg31
S'/home/avakimov_am/chromium/cobalt/src/cobalt/media_session/media_session.idl'
p517
ssS'Text'
p518
(dp519
g6
I00
sg7
S'cobalt/dom'
p520
sg9
S'cobalt/dom/Text.h'
p521
sg11
S'CharacterData'
p522
sg13
(dp523
g15
NsS'ConstructorCallWith'
p524
S'EnvironmentSettings'
p525
ssg16
Nsg17
I00
sg18
I00
sg19
(lp526
sg21
(lp527
sg23
(lp528
sg25
g26
((ltRp529
sg28
Nsg29
I00
sg30
I00
sg31
S'/home/avakimov_am/chromium/cobalt/src/cobalt/dom/text.idl'
p530
ssS'MediaKeySession'
p531
(dp532
g6
I00
sg7
S'cobalt/dom/eme'
p533
sg9
S'cobalt/dom/eme/MediaKeySession.h'
p534
sg11
S'EventTarget'
p535
sg13
(dp536
sg16
Nsg17
I00
sg18
I00
sg19
(lp537
sg21
(lp538
sg23
(lp539
sg25
g26
((ltRp540
sg28
Nsg29
I00
sg30
I00
sg31
S'/home/avakimov_am/chromium/cobalt/src/cobalt/dom/eme/media_key_session.idl'
p541
ssS'H5vccTraceEvent'
p542
(dp543
g6
I00
sg7
S'cobalt/h5vcc'
p544
sg9
S'cobalt/h5vcc/H5vccTraceEvent.h'
p545
sg11
Nsg13
(dp546
sg16
Nsg17
I00
sg18
I00
sg19
(lp547
sg21
(lp548
sg23
(lp549
sg25
g26
((ltRp550
sg28
Nsg29
I00
sg30
I00
sg31
S'/home/avakimov_am/chromium/cobalt/src/cobalt/h5vcc/h5vcc_trace_event.idl'
p551
ssS'DOMRect'
p552
(dp553
g6
I00
sg7
S'cobalt/dom'
p554
sg9
S'cobalt/dom/DOMRect.h'
p555
sg11
S'DOMRectReadOnly'
p556
sg13
(dp557
g15
Nssg16
Nsg17
I00
sg18
I00
sg19
(lp558
sg21
(lp559
sg23
(lp560
sg25
g26
((ltRp561
sg28
Nsg29
I00
sg30
I00
sg31
S'/home/avakimov_am/chromium/cobalt/src/cobalt/dom/dom_rect.idl'
p562
ssS'MediaKeyStatusMap'
p563
(dp564
g6
I00
sg7
S'cobalt/dom/eme'
p565
sg9
S'cobalt/dom/eme/MediaKeyStatusMap.h'
p566
sg11
Nsg13
(dp567
sg16
Nsg17
I00
sg18
I00
sg19
(lp568
sg21
(lp569
sg23
(lp570
sg25
g26
((ltRp571
sg28
Nsg29
I00
sg30
I00
sg31
S'/home/avakimov_am/chromium/cobalt/src/cobalt/dom/eme/media_key_status_map.idl'
p572
ssS'DialServer'
p573
(dp574
g6
I00
sg7
S'cobalt/h5vcc/dial'
p575
sg9
S'cobalt/h5vcc/dial/DialServer.h'
p576
sg11
Nsg13
(dp577
S'Conditional'
p578
S'DIAL_SERVER'
p579
sg15
NsS'ConstructorCallWith'
p580
S'EnvironmentSettings'
p581
ssg16
g579
sg17
I00
sg18
I00
sg19
(lp582
sg21
(lp583
sg23
(lp584
sg25
g26
((ltRp585
sg28
Nsg29
I00
sg30
I00
sg31
S'/home/avakimov_am/chromium/cobalt/src/cobalt/h5vcc/dial/dial_server.idl'
p586
ssS'AnimationEffectReadOnly'
p587
(dp588
g6
I00
sg7
S'cobalt/web_animations'
p589
sg9
S'cobalt/web_animations/AnimationEffectReadOnly.h'
p590
sg11
Nsg13
(dp591
sg16
Nsg17
I00
sg18
I00
sg19
(lp592
sg21
(lp593
sg23
(lp594
sg25
g26
((ltRp595
sg28
Nsg29
I00
sg30
I00
sg31
S'/home/avakimov_am/chromium/cobalt/src/cobalt/web_animations/animation_effect_read_only.idl'
p596
ssS'WheelEvent'
p597
(dp598
g6
I00
sg7
S'cobalt/dom'
p599
sg9
S'cobalt/dom/WheelEvent.h'
p600
sg11
S'MouseEvent'
p601
sg13
(dp602
g15
Nssg16
Nsg17
I00
sg18
I00
sg19
(lp603
sg21
(lp604
sg23
(lp605
sg25
g26
((ltRp606
sg28
Nsg29
I00
sg30
I00
sg31
S'/home/avakimov_am/chromium/cobalt/src/cobalt/dom/wheel_event.idl'
p607
ssS'AudioBuffer'
p608
(dp609
g6
I00
sg7
S'cobalt/audio'
p610
sg9
S'cobalt/audio/AudioBuffer.h'
p611
sg11
Nsg13
(dp612
sg16
Nsg17
I00
sg18
I00
sg19
(lp613
sg21
(lp614
sg23
(lp615
sg25
g26
((ltRp616
sg28
Nsg29
I00
sg30
I00
sg31
S'/home/avakimov_am/chromium/cobalt/src/cobalt/audio/audio_buffer.idl'
p617
ssS'MediaKeyMessageEventInit'
p618
(dp619
g6
I00
sg7
S'cobalt/dom/eme'
p620
sg9
S'cobalt/dom/eme/MediaKeyMessageEventInit.h'
p621
sg11
S'EventInit'
p622
sg13
(dp623
sg16
Nsg17
I00
sg18
I01
sg19
(lp624
sg21
(lp625
sg23
Nsg25
g26
((ltRp626
sg28
Nsg29
I01
sg30
I00
sg31
S'/home/avakimov_am/chromium/cobalt/src/cobalt/dom/eme/media_key_message_event_init.idl'
p627
ssS'Event'
p628
(dp629
g6
I00
sg7
S'cobalt/dom'
p630
sg9
S'cobalt/dom/Event.h'
p631
sg11
Nsg13
(dp632
g15
Nssg16
Nsg17
I00
sg18
I00
sg19
(lp633
sg21
(lp634
sg23
(lp635
sg25
g26
((ltRp636
sg28
Nsg29
I00
sg30
I00
sg31
S'/home/avakimov_am/chromium/cobalt/src/cobalt/dom/event.idl'
p637
ssS'TimeRanges'
p638
(dp639
g6
I00
sg7
S'cobalt/dom'
p640
sg9
S'cobalt/dom/TimeRanges.h'
p641
sg11
Nsg13
(dp642
sg16
Nsg17
I00
sg18
I00
sg19
(lp643
sg21
(lp644
sg23
(lp645
sg25
g26
((ltRp646
sg28
Nsg29
I00
sg30
I00
sg31
S'/home/avakimov_am/chromium/cobalt/src/cobalt/dom/time_ranges.idl'
p647
ssS'CustomEventInit'
p648
(dp649
g6
I00
sg7
S'cobalt/dom'
p650
sg9
S'cobalt/dom/CustomEventInit.h'
p651
sg11
S'EventInit'
p652
sg13
(dp653
sg16
Nsg17
I00
sg18
I01
sg19
(lp654
sg21
(lp655
sg23
Nsg25
g26
((ltRp656
sg28
Nsg29
I01
sg30
I00
sg31
S'/home/avakimov_am/chromium/cobalt/src/cobalt/dom/custom_event_init.idl'
p657
ssS'MediaQueryList'
p658
(dp659
g6
I00
sg7
S'cobalt/dom'
p660
sg9
S'cobalt/dom/MediaQueryList.h'
p661
sg11
Nsg13
(dp662
sg16
Nsg17
I00
sg18
I00
sg19
(lp663
sg21
(lp664
sg23
(lp665
sg25
g26
((ltRp666
sg28
Nsg29
I00
sg30
I00
sg31
S'/home/avakimov_am/chromium/cobalt/src/cobalt/dom/media_query_list.idl'
p667
ssS'MediaEncryptedEvent'
p668
(dp669
g6
I00
sg7
S'cobalt/dom/eme'
p670
sg9
S'cobalt/dom/eme/MediaEncryptedEvent.h'
p671
sg11
S'Event'
p672
sg13
(dp673
g15
Nssg16
Nsg17
I00
sg18
I00
sg19
(lp674
sg21
(lp675
sg23
(lp676
sg25
g26
((ltRp677
sg28
Nsg29
I00
sg30
I00
sg31
S'/home/avakimov_am/chromium/cobalt/src/cobalt/dom/eme/media_encrypted_event.idl'
p678
ssS'XMLDocument'
p679
(dp680
g6
I00
sg7
S'cobalt/dom'
p681
sg9
S'cobalt/dom/XMLDocument.h'
p682
sg11
S'Document'
p683
sg13
(dp684
sg16
Nsg17
I00
sg18
I00
sg19
(lp685
sg21
(lp686
sg23
(lp687
sg25
g26
((ltRp688
sg28
Nsg29
I00
sg30
I00
sg31
S'/home/avakimov_am/chromium/cobalt/src/cobalt/dom/xml_document.idl'
p689
ssS'CSSFontFaceRule'
p690
(dp691
g6
I00
sg7
S'cobalt/cssom'
p692
sg9
S'cobalt/cssom/CSSFontFaceRule.h'
p693
sg11
S'CSSRule'
p694
sg13
(dp695
sg16
Nsg17
I00
sg18
I00
sg19
(lp696
sg21
(lp697
sg23
(lp698
sg25
g26
((ltRp699
sg28
Nsg29
I00
sg30
I00
sg31
S'/home/avakimov_am/chromium/cobalt/src/cobalt/cssom/css_font_face_rule.idl'
p700
ssS'NodeList'
p701
(dp702
g6
I00
sg7
S'cobalt/dom'
p703
sg9
S'cobalt/dom/NodeList.h'
p704
sg11
Nsg13
(dp705
S'ArrayClass'
p706
Nssg16
Nsg17
I00
sg18
I00
sg19
(lp707
sg21
(lp708
sg23
(lp709
sg25
g26
((ltRp710
sg28
Nsg29
I00
sg30
I00
sg31
S'/home/avakimov_am/chromium/cobalt/src/cobalt/dom/node_list.idl'
p711
ssS'DOMParser'
p712
(dp713
g6
I00
sg7
S'cobalt/dom'
p714
sg9
S'cobalt/dom/DOMParser.h'
p715
sg11
Nsg13
(dp716
g15
NsS'ConstructorCallWith'
p717
S'EnvironmentSettings'
p718
ssg16
Nsg17
I00
sg18
I00
sg19
(lp719
sg21
(lp720
sg23
(lp721
sg25
g26
((ltRp722
sg28
Nsg29
I00
sg30
I00
sg31
S'/home/avakimov_am/chromium/cobalt/src/cobalt/dom/dom_parser.idl'
p723
ssS'AnimationEffectTimingReadOnly'
p724
(dp725
g6
I00
sg7
S'cobalt/web_animations'
p726
sg9
S'cobalt/web_animations/AnimationEffectTimingReadOnly.h'
p727
sg11
Nsg13
(dp728
sg16
Nsg17
I00
sg18
I00
sg19
(lp729
sg21
(lp730
sg23
(lp731
sg25
g26
((lp732
g159
(cidl_types
IdlUnionType
p733
g161
NtRp734
(dp735
S'member_types'
p736
(lp737
g159
(g170
g161
NtRp738
(dp739
g173
S'unrestricted double'
p740
sbag159
(g170
g161
NtRp741
(dp742
g173
S'DOMString'
p743
sbasbatRp744
sg28
Nsg29
I00
sg30
I00
sg31
S'/home/avakimov_am/chromium/cobalt/src/cobalt/web_animations/animation_effect_timing_read_only.idl'
p745
ssS'Keyframe'
p746
(dp747
g6
I00
sg7
S'cobalt/web_animations'
p748
sg9
S'cobalt/web_animations/Keyframe.h'
p749
sg11
Nsg13
(dp750
sg16
Nsg17
I00
sg18
I00
sg19
(lp751
sg21
(lp752
sg23
(lp753
sg25
g26
((ltRp754
sg28
Nsg29
I00
sg30
I00
sg31
S'/home/avakimov_am/chromium/cobalt/src/cobalt/web_animations/keyframe.idl'
p755
ssS'SpeechSynthesisErrorEvent'
p756
(dp757
g6
I00
sg7
S'cobalt/speech'
p758
sg9
S'cobalt/speech/SpeechSynthesisErrorEvent.h'
p759
sg11
S'SpeechSynthesisEvent'
p760
sg13
(dp761
sg16
Nsg17
I00
sg18
I00
sg19
(lp762
sg21
(lp763
sg23
(lp764
sg25
g26
((ltRp765
sg28
Nsg29
I00
sg30
I00
sg31
S'/home/avakimov_am/chromium/cobalt/src/cobalt/speech/speech_synthesis_error_event.idl'
p766
ssS'Location'
p767
(dp768
g6
I00
sg7
S'cobalt/dom'
p769
sg9
S'cobalt/dom/Location.h'
p770
sg11
Nsg13
(dp771
S'Unforgeable'
p772
Nssg16
Nsg17
I00
sg18
I00
sg19
(lp773
S'URLUtils'
p774
asg21
(lp775
sg23
(lp776
sg25
g26
((ltRp777
sg28
Nsg29
I00
sg30
I00
sg31
S'/home/avakimov_am/chromium/cobalt/src/cobalt/dom/location.idl'
p778
ssS'CustomEvent'
p779
(dp780
g6
I00
sg7
S'cobalt/dom'
p781
sg9
S'cobalt/dom/CustomEvent.h'
p782
sg11
S'Event'
p783
sg13
(dp784
g15
Nssg16
Nsg17
I00
sg18
I00
sg19
(lp785
sg21
(lp786
sg23
(lp787
sg25
g26
((ltRp788
sg28
Nsg29
I00
sg30
I00
sg31
S'/home/avakimov_am/chromium/cobalt/src/cobalt/dom/custom_event.idl'
p789
ssS'Performance'
p790
(dp791
g6
I00
sg7
S'cobalt/dom'
p792
sg9
S'cobalt/dom/Performance.h'
p793
sg11
Nsg13
(dp794
sg16
Nsg17
I00
sg18
I00
sg19
(lp795
sg21
(lp796
sg23
(lp797
sg25
g26
((ltRp798
sg28
Nsg29
I00
sg30
I00
sg31
S'/home/avakimov_am/chromium/cobalt/src/cobalt/dom/performance.idl'
p799
sg64
(dp800
S'cobalt'
p801
g26
((lp802
S'cobalt/dom/PerformanceHighResolutionTime.h'
p803
atRp804
sssS'TrackDefault'
p805
(dp806
g6
I00
sg7
S'cobalt/dom'
p807
sg9
S'cobalt/dom/TrackDefault.h'
p808
sg11
Nsg13
(dp809
S'RaisesException'
p810
S'Constructor'
p811
sg15
Nssg16
Nsg17
I00
sg18
I00
sg19
(lp812
sg21
(lp813
sg23
(lp814
sg25
g26
((ltRp815
sg28
Nsg29
I00
sg30
I00
sg31
S'/home/avakimov_am/chromium/cobalt/src/cobalt/dom/track_default.idl'
p816
ssS'NavigatorPlugins'
p817
(dp818
g6
I00
sg7
S'cobalt/dom'
p819
sg9
S'cobalt/dom/NavigatorPlugins.h'
p820
sg11
Nsg13
(dp821
S'NoInterfaceObject'
p822
Nssg16
Nsg17
I00
sg18
I01
sg19
(lp823
sg21
(lp824
sg23
(lp825
sg25
g26
((ltRp826
sg28
Nsg29
I00
sg30
I00
sg31
S'/home/avakimov_am/chromium/cobalt/src/cobalt/dom/navigator_plugins.idl'
p827
ssS'HTMLBodyElement'
p828
(dp829
g6
I00
sg7
S'cobalt/dom'
p830
sg9
S'cobalt/dom/HTMLBodyElement.h'
p831
sg11
S'HTMLElement'
p832
sg13
(dp833
sg16
Nsg17
I00
sg18
I00
sg19
(lp834
sg21
(lp835
sg23
(lp836
sg25
g26
((ltRp837
sg28
Nsg29
I00
sg30
I00
sg31
S'/home/avakimov_am/chromium/cobalt/src/cobalt/dom/html_body_element.idl'
p838
ssS'InputEventInit'
p839
(dp840
g6
I00
sg7
S'cobalt/dom'
p841
sg9
S'cobalt/dom/InputEventInit.h'
p842
sg11
S'EventModifierInit'
p843
sg13
(dp844
sg16
Nsg17
I00
sg18
I01
sg19
(lp845
sg21
(lp846
sg23
Nsg25
g26
((ltRp847
sg28
Nsg29
I01
sg30
I00
sg31
S'/home/avakimov_am/chromium/cobalt/src/cobalt/dom/input_event_init.idl'
p848
ssS'HTMLCollection'
p849
(dp850
g6
I00
sg7
S'cobalt/dom'
p851
sg9
S'cobalt/dom/HTMLCollection.h'
p852
sg11
Nsg13
(dp853
sg16
Nsg17
I00
sg18
I00
sg19
(lp854
sg21
(lp855
sg23
(lp856
sg25
g26
((ltRp857
sg28
Nsg29
I00
sg30
I00
sg31
S'/home/avakimov_am/chromium/cobalt/src/cobalt/dom/html_collection.idl'
p858
ssS'SpeechSynthesisUtterance'
p859
(dp860
g6
I00
sg7
S'cobalt/speech'
p861
sg9
S'cobalt/speech/SpeechSynthesisUtterance.h'
p862
sg11
S'EventTarget'
p863
sg13
(dp864
g15
Nssg16
Nsg17
I00
sg18
I00
sg19
(lp865
sg21
(lp866
sg23
(lp867
sg25
g26
((ltRp868
sg28
Nsg29
I00
sg30
I00
sg31
S'/home/avakimov_am/chromium/cobalt/src/cobalt/speech/speech_synthesis_utterance.idl'
p869
ssS'BlobEventInit'
p870
(dp871
g6
I00
sg7
S'cobalt/media_capture'
p872
sg9
S'cobalt/media_capture/BlobEventInit.h'
p873
sg11
Nsg13
(dp874
sg16
Nsg17
I00
sg18
I01
sg19
(lp875
sg21
(lp876
sg23
Nsg25
g26
((ltRp877
sg28
Nsg29
I01
sg30
I00
sg31
S'/home/avakimov_am/chromium/cobalt/src/cobalt/media_capture/blob_event_init.idl'
p878
ssS'H5vccCrashLog'
p879
(dp880
g6
I00
sg7
S'cobalt/h5vcc'
p881
sg9
S'cobalt/h5vcc/H5vccCrashLog.h'
p882
sg11
Nsg13
(dp883
S'Conditional'
p884
S'COBALT_ENABLE_CRASH_LOG'
p885
ssg16
g885
sg17
I00
sg18
I00
sg19
(lp886
sg21
(lp887
sg23
(lp888
sg25
g26
((ltRp889
sg28
Nsg29
I00
sg30
I00
sg31
S'/home/avakimov_am/chromium/cobalt/src/cobalt/h5vcc/h5vcc_crash_log.idl'
p890
ssS'ScriptExecutorResult'
p891
(dp892
g6
I00
sg7
S'cobalt/webdriver'
p893
sg9
S'cobalt/webdriver/ScriptExecutorResult.h'
p894
sg11
Nsg13
(dp895
S'Conditional'
p896
S'ENABLE_WEBDRIVER'
p897
sS'NoInterfaceObject'
p898
Nssg16
g897
sg17
I00
sg18
I00
sg19
(lp899
sg21
(lp900
sg23
(lp901
sg25
g26
((ltRp902
sg28
Nsg29
I00
sg30
I00
sg31
S'/home/avakimov_am/chromium/cobalt/src/cobalt/webdriver/script_executor_result.idl'
p903
ssS'H5vccPlatformService'
p904
(dp905
g6
I00
sg7
S'cobalt/h5vcc'
p906
sg9
S'cobalt/h5vcc/H5vccPlatformService.h'
p907
sg11
Nsg13
(dp908
S'ConstructorCallWith'
p909
S'EnvironmentSettings'
p910
ssg16
Nsg17
I00
sg18
I00
sg19
(lp911
sg21
(lp912
sg23
(lp913
sg25
g26
((ltRp914
sg28
Nsg29
I00
sg30
I00
sg31
S'/home/avakimov_am/chromium/cobalt/src/cobalt/h5vcc/h5vcc_platform_service.idl'
p915
ssS'CSSStyleSheet'
p916
(dp917
g6
I00
sg7
S'cobalt/cssom'
p918
sg9
S'cobalt/cssom/CSSStyleSheet.h'
p919
sg11
S'StyleSheet'
p920
sg13
(dp921
sg16
Nsg17
I00
sg18
I00
sg19
(lp922
sg21
(lp923
sg23
(lp924
sg25
g26
((ltRp925
sg28
Nsg29
I00
sg30
I00
sg31
S'/home/avakimov_am/chromium/cobalt/src/cobalt/cssom/css_style_sheet.idl'
p926
ssS'StorageEvent'
p927
(dp928
g6
I00
sg7
S'cobalt/dom'
p929
sg9
S'cobalt/dom/StorageEvent.h'
p930
sg11
S'Event'
p931
sg13
(dp932
g15
Nssg16
Nsg17
I00
sg18
I00
sg19
(lp933
sg21
(lp934
sg23
(lp935
sg25
g26
((ltRp936
sg28
Nsg29
I00
sg30
I00
sg31
S'/home/avakimov_am/chromium/cobalt/src/cobalt/dom/storage_event.idl'
p937
ssS'CSSStyleDeclaration'
p938
(dp939
g6
I00
sg7
S'cobalt/cssom'
p940
sg9
S'cobalt/cssom/CSSStyleDeclaration.h'
p941
sg11
Nsg13
(dp942
sg16
Nsg17
I00
sg18
I00
sg19
(lp943
sg21
(lp944
sg23
(lp945
sg25
g26
((ltRp946
sg28
Nsg29
I00
sg30
I00
sg31
S'/home/avakimov_am/chromium/cobalt/src/cobalt/cssom/css_style_declaration.idl'
p947
ssS'ErrorEvent'
p948
(dp949
g6
I00
sg7
S'cobalt/dom'
p950
sg9
S'cobalt/dom/ErrorEvent.h'
p951
sg11
S'Event'
p952
sg13
(dp953
g15
Nssg16
Nsg17
I00
sg18
I00
sg19
(lp954
sg21
(lp955
sg23
(lp956
sg25
g26
((ltRp957
sg28
Nsg29
I00
sg30
I00
sg31
S'/home/avakimov_am/chromium/cobalt/src/cobalt/dom/error_event.idl'
p958
ssS'H5vccAudioConfigArray'
p959
(dp960
g6
I00
sg7
S'cobalt/h5vcc'
p961
sg9
S'cobalt/h5vcc/H5vccAudioConfigArray.h'
p962
sg11
Nsg13
(dp963
sg16
Nsg17
I00
sg18
I00
sg19
(lp964
sg21
(lp965
sg23
(lp966
sg25
g26
((ltRp967
sg28
Nsg29
I00
sg30
I00
sg31
S'/home/avakimov_am/chromium/cobalt/src/cobalt/h5vcc/h5vcc_audio_config_array.idl'
p968
ssS'WebSocket'
p969
(dp970
g6
I00
sg7
S'cobalt/websocket'
p971
sg9
S'cobalt/websocket/WebSocket.h'
p972
sg11
S'EventTarget'
p973
sg13
(dp974
S'RaisesException'
p975
S'Constructor'
p976
sg15
NsS'ConstructorCallWith'
p977
S'EnvironmentSettings'
p978
ssg16
Nsg17
I00
sg18
I00
sg19
(lp979
sg21
(lp980
sg23
(lp981
sg25
g26
((ltRp982
sg28
Nsg29
I00
sg30
I00
sg31
S'/home/avakimov_am/chromium/cobalt/src/cobalt/websocket/web_socket.idl'
p983
ssS'PointerEventInit'
p984
(dp985
g6
I00
sg7
S'cobalt/dom'
p986
sg9
S'cobalt/dom/PointerEventInit.h'
p987
sg11
S'MouseEventInit'
p988
sg13
(dp989
sg16
Nsg17
I00
sg18
I01
sg19
(lp990
sg21
(lp991
sg23
Nsg25
g26
((ltRp992
sg28
Nsg29
I01
sg30
I00
sg31
S'/home/avakimov_am/chromium/cobalt/src/cobalt/dom/pointer_event_init.idl'
p993
ssS'Animatable'
p994
(dp995
g6
I00
sg7
S'cobalt/web_animations'
p996
sg9
S'cobalt/web_animations/Animatable.h'
p997
sg11
Nsg13
(dp998
sg16
Nsg17
I00
sg18
I00
sg19
(lp999
sg21
(lp1000
sg23
(lp1001
sg25
g26
((ltRp1002
sg28
Nsg29
I00
sg30
I00
sg31
S'/home/avakimov_am/chromium/cobalt/src/cobalt/web_animations/animatable.idl'
p1003
ssS'ElementCSSInlineStyle'
p1004
(dp1005
g6
I00
sg7
S'cobalt/dom'
p1006
sg9
S'cobalt/dom/ElementCSSInlineStyle.h'
p1007
sg11
Nsg13
(dp1008
S'NoInterfaceObject'
p1009
Nssg16
Nsg17
I00
sg18
I01
sg19
(lp1010
sg21
(lp1011
S'HTMLElement'
p1012
asg23
(lp1013
sg25
g26
((ltRp1014
sg28
Nsg29
I00
sg30
I00
sg31
S'/home/avakimov_am/chromium/cobalt/src/cobalt/dom/element_css_inline_style.idl'
p1015
ssS'Crypto'
p1016
(dp1017
g6
I00
sg7
S'cobalt/dom'
p1018
sg9
S'cobalt/dom/Crypto.h'
p1019
sg11
Nsg13
(dp1020
sg16
Nsg17
I00
sg18
I00
sg19
(lp1021
sg21
(lp1022
sg23
(lp1023
sg25
g26
((ltRp1024
sg28
Nsg29
I00
sg30
I00
sg31
S'/home/avakimov_am/chromium/cobalt/src/cobalt/dom/crypto.idl'
p1025
ssS'InputEvent'
p1026
(dp1027
g6
I00
sg7
S'cobalt/dom'
p1028
sg9
S'cobalt/dom/InputEvent.h'
p1029
sg11
S'UIEvent'
p1030
sg13
(dp1031
g15
Nssg16
Nsg17
I00
sg18
I00
sg19
(lp1032
sg21
(lp1033
sg23
(lp1034
sg25
g26
((ltRp1035
sg28
Nsg29
I00
sg30
I00
sg31
S'/home/avakimov_am/chromium/cobalt/src/cobalt/dom/input_event.idl'
p1036
ssS'HTMLParagraphElement'
p1037
(dp1038
g6
I00
sg7
S'cobalt/dom'
p1039
sg9
S'cobalt/dom/HTMLParagraphElement.h'
p1040
sg11
S'HTMLElement'
p1041
sg13
(dp1042
sg16
Nsg17
I00
sg18
I00
sg19
(lp1043
sg21
(lp1044
sg23
(lp1045
sg25
g26
((ltRp1046
sg28
Nsg29
I00
sg30
I00
sg31
S'/home/avakimov_am/chromium/cobalt/src/cobalt/dom/html_paragraph_element.idl'
p1047
ssS'MediaTrackSettings'
p1048
(dp1049
g6
I00
sg7
S'cobalt/media_stream'
p1050
sg9
S'cobalt/media_stream/MediaTrackSettings.h'
p1051
sg11
Nsg13
(dp1052
sg16
Nsg17
I00
sg18
I01
sg19
(lp1053
sg21
(lp1054
sg23
Nsg25
g26
((ltRp1055
sg28
Nsg29
I01
sg30
I00
sg31
S'/home/avakimov_am/chromium/cobalt/src/cobalt/media_stream/media_track_settings.idl'
p1056
ssS'Storage'
p1057
(dp1058
g6
I00
sg7
S'cobalt/dom'
p1059
sg9
S'cobalt/dom/Storage.h'
p1060
sg11
Nsg13
(dp1061
sg16
Nsg17
I00
sg18
I00
sg19
(lp1062
sg21
(lp1063
sg23
(lp1064
sg25
g26
((ltRp1065
sg28
Nsg29
I00
sg30
I00
sg31
S'/home/avakimov_am/chromium/cobalt/src/cobalt/dom/storage.idl'
p1066
ssS'MediaMetadataInit'
p1067
(dp1068
g6
I00
sg7
S'cobalt/media_session'
p1069
sg9
S'cobalt/media_session/MediaMetadataInit.h'
p1070
sg11
Nsg13
(dp1071
sg16
Nsg17
I00
sg18
I01
sg19
(lp1072
sg21
(lp1073
sg23
Nsg25
g26
((ltRp1074
sg28
Nsg29
I01
sg30
I00
sg31
S'/home/avakimov_am/chromium/cobalt/src/cobalt/media_session/media_metadata_init.idl'
p1075
ssS'HTMLTitleElement'
p1076
(dp1077
g6
I00
sg7
S'cobalt/dom'
p1078
sg9
S'cobalt/dom/HTMLTitleElement.h'
p1079
sg11
S'HTMLElement'
p1080
sg13
(dp1081
sg16
Nsg17
I00
sg18
I00
sg19
(lp1082
sg21
(lp1083
sg23
(lp1084
sg25
g26
((ltRp1085
sg28
Nsg29
I00
sg30
I00
sg31
S'/home/avakimov_am/chromium/cobalt/src/cobalt/dom/html_title_element.idl'
p1086
ssS'OnErrorEventListener'
p1087
(dp1088
g6
I00
sg7
S'cobalt/dom'
p1089
sg9
S'cobalt/dom/OnErrorEventListener.h'
p1090
sg11
Nsg13
(dp1091
sg16
Nsg17
I00
sg18
I00
sg19
(lp1092
sg21
(lp1093
sg23
(lp1094
sg25
g26
((lp1095
g159
(g733
g161
NtRp1096
(dp1097
g736
(lp1098
g159
(g170
g161
NtRp1099
(dp1100
g173
S'Event'
p1101
sbag159
(g170
g161
NtRp1102
(dp1103
g173
S'DOMString'
p1104
sbasbatRp1105
sg28
Nsg29
I00
sg30
I01
sg31
S'/home/avakimov_am/chromium/cobalt/src/cobalt/dom/on_error_event_listener.idl'
p1106
ssS'SecurityPolicyViolationEvent'
p1107
(dp1108
g6
I00
sg7
S'cobalt/dom'
p1109
sg9
S'cobalt/dom/SecurityPolicyViolationEvent.h'
p1110
sg11
S'Event'
p1111
sg13
(dp1112
g15
Nssg16
Nsg17
I00
sg18
I00
sg19
(lp1113
sg21
(lp1114
sg23
(lp1115
sg25
g26
((ltRp1116
sg28
Nsg29
I00
sg30
I00
sg31
S'/home/avakimov_am/chromium/cobalt/src/cobalt/dom/security_policy_violation_event.idl'
p1117
ssS'PluginArray'
p1118
(dp1119
g6
I00
sg7
S'cobalt/dom'
p1120
sg9
S'cobalt/dom/PluginArray.h'
p1121
sg11
Nsg13
(dp1122
sg16
Nsg17
I00
sg18
I00
sg19
(lp1123
sg21
(lp1124
sg23
(lp1125
sg25
g26
((ltRp1126
sg28
Nsg29
I00
sg30
I00
sg31
S'/home/avakimov_am/chromium/cobalt/src/cobalt/dom/plugin_array.idl'
p1127
ssS'CSS'
p1128
(dp1129
g6
I00
sg7
S'cobalt/cssom'
p1130
sg9
S'cobalt/cssom/CSS.h'
p1131
sg11
Nsg13
(dp1132
sg16
Nsg17
I00
sg18
I00
sg19
(lp1133
sg21
(lp1134
sg23
(lp1135
sg25
g26
((ltRp1136
sg28
Nsg29
I00
sg30
I00
sg31
S'/home/avakimov_am/chromium/cobalt/src/cobalt/cssom/css.idl'
p1137
ssS'MediaStream'
p1138
(dp1139
g6
I00
sg7
S'cobalt/media_stream'
p1140
sg9
S'cobalt/media_stream/MediaStream.h'
p1141
sg11
S'EventTarget'
p1142
sg13
(dp1143
g15
NsS'Exposed'
p1144
(lp1145
(iidl_definitions
Exposure
p1146
(dp1147
g389
Nsg390
S'Window'
p1148
sbassg16
Nsg17
I00
sg18
I00
sg19
(lp1149
sg21
(lp1150
sg23
(lp1151
sg25
g26
((ltRp1152
sg28
Nsg29
I00
sg30
I00
sg31
S'/home/avakimov_am/chromium/cobalt/src/cobalt/media_stream/media_stream.idl'
p1153
ssS'Comment'
p1154
(dp1155
g6
I00
sg7
S'cobalt/dom'
p1156
sg9
S'cobalt/dom/Comment.h'
p1157
sg11
S'CharacterData'
p1158
sg13
(dp1159
g15
NsS'ConstructorCallWith'
p1160
S'EnvironmentSettings'
p1161
ssg16
Nsg17
I00
sg18
I00
sg19
(lp1162
sg21
(lp1163
sg23
(lp1164
sg25
g26
((ltRp1165
sg28
Nsg29
I00
sg30
I00
sg31
S'/home/avakimov_am/chromium/cobalt/src/cobalt/dom/comment.idl'
p1166
ssS'MediaKeySystemConfiguration'
p1167
(dp1168
g6
I00
sg7
S'cobalt/dom/eme'
p1169
sg9
S'cobalt/dom/eme/MediaKeySystemConfiguration.h'
p1170
sg11
Nsg13
(dp1171
sg16
Nsg17
I00
sg18
I01
sg19
(lp1172
sg21
(lp1173
sg23
Nsg25
g26
((ltRp1174
sg28
Nsg29
I01
sg30
I00
sg31
S'/home/avakimov_am/chromium/cobalt/src/cobalt/dom/eme/media_key_system_configuration.idl'
p1175
ssS'Screenshot'
p1176
(dp1177
g6
I00
sg7
S'cobalt/dom'
p1178
sg9
S'cobalt/dom/Screenshot.h'
p1179
sg11
Nsg13
(dp1180
sg16
Nsg17
I00
sg18
I00
sg19
(lp1181
sg21
(lp1182
sg23
(lp1183
sg25
g26
((ltRp1184
sg28
Nsg29
I00
sg30
I00
sg31
S'/home/avakimov_am/chromium/cobalt/src/cobalt/dom/screenshot.idl'
p1185
ssS'AudioBufferSourceNode'
p1186
(dp1187
g6
I00
sg7
S'cobalt/audio'
p1188
sg9
S'cobalt/audio/AudioBufferSourceNode.h'
p1189
sg11
S'AudioNode'
p1190
sg13
(dp1191
sg16
Nsg17
I00
sg18
I00
sg19
(lp1192
sg21
(lp1193
sg23
(lp1194
sg25
g26
((ltRp1195
sg28
Nsg29
I00
sg30
I00
sg31
S'/home/avakimov_am/chromium/cobalt/src/cobalt/audio/audio_buffer_source_node.idl'
p1196
ssS'HTMLVideoElement'
p1197
(dp1198
g6
I00
sg7
S'cobalt/dom'
p1199
sg9
S'cobalt/dom/HTMLVideoElement.h'
p1200
sg11
S'HTMLMediaElement'
p1201
sg13
(dp1202
sg16
Nsg17
I00
sg18
I00
sg19
(lp1203
sg21
(lp1204
sg23
(lp1205
sg25
g26
((ltRp1206
sg28
Nsg29
I00
sg30
I00
sg31
S'/home/avakimov_am/chromium/cobalt/src/cobalt/dom/html_video_element.idl'
p1207
ssS'FocusEvent'
p1208
(dp1209
g6
I00
sg7
S'cobalt/dom'
p1210
sg9
S'cobalt/dom/FocusEvent.h'
p1211
sg11
S'UIEvent'
p1212
sg13
(dp1213
g15
Nssg16
Nsg17
I00
sg18
I00
sg19
(lp1214
sg21
(lp1215
sg23
(lp1216
sg25
g26
((ltRp1217
sg28
Nsg29
I00
sg30
I00
sg31
S'/home/avakimov_am/chromium/cobalt/src/cobalt/dom/focus_event.idl'
p1218
ssS'WindowTimers'
p1219
(dp1220
g6
I00
sg7
S'cobalt/dom'
p1221
sg9
S'cobalt/dom/WindowTimers.h'
p1222
sg11
Nsg13
(dp1223
S'NoInterfaceObject'
p1224
Nssg16
Nsg17
I00
sg18
I01
sg19
(lp1225
sg21
(lp1226
S'Window'
p1227
asg23
(lp1228
sg25
g26
((ltRp1229
sg28
Nsg29
I00
sg30
I00
sg31
S'/home/avakimov_am/chromium/cobalt/src/cobalt/dom/window_timers.idl'
p1230
ssS'NonDocumentTypeChildNode'
p1231
(dp1232
g6
I00
sg7
S'cobalt/dom'
p1233
sg9
S'cobalt/dom/NonDocumentTypeChildNode.h'
p1234
sg11
Nsg13
(dp1235
S'NoInterfaceObject'
p1236
Nssg16
Nsg17
I00
sg18
I01
sg19
(lp1237
sg21
(lp1238
S'Element'
p1239
aS'CharacterData'
p1240
asg23
(lp1241
sg25
g26
((ltRp1242
sg28
Nsg29
I00
sg30
I00
sg31
S'/home/avakimov_am/chromium/cobalt/src/cobalt/dom/non_document_type_child_node.idl'
p1243
ssS'LinkStyle'
p1244
(dp1245
g6
I00
sg7
S'cobalt/cssom'
p1246
sg9
S'cobalt/cssom/LinkStyle.h'
p1247
sg11
Nsg13
(dp1248
S'NoInterfaceObject'
p1249
Nssg16
Nsg17
I00
sg18
I01
sg19
(lp1250
sg21
(lp1251
sg23
(lp1252
sg25
g26
((ltRp1253
sg28
Nsg29
I00
sg30
I00
sg31
S'/home/avakimov_am/chromium/cobalt/src/cobalt/cssom/link_style.idl'
p1254
ssS'DOMStringMap'
p1255
(dp1256
g6
I00
sg7
S'cobalt/dom'
p1257
sg9
S'cobalt/dom/DOMStringMap.h'
p1258
sg11
Nsg13
(dp1259
S'OverrideBuiltins'
p1260
Nssg16
Nsg17
I00
sg18
I00
sg19
(lp1261
sg21
(lp1262
sg23
(lp1263
sg25
g26
((ltRp1264
sg28
Nsg29
I00
sg30
I00
sg31
S'/home/avakimov_am/chromium/cobalt/src/cobalt/dom/dom_string_map.idl'
p1265
ssS'SpeechSynthesisEvent'
p1266
(dp1267
g6
I00
sg7
S'cobalt/speech'
p1268
sg9
S'cobalt/speech/SpeechSynthesisEvent.h'
p1269
sg11
S'Event'
p1270
sg13
(dp1271
sg16
Nsg17
I00
sg18
I00
sg19
(lp1272
sg21
(lp1273
sg23
(lp1274
sg25
g26
((ltRp1275
sg28
Nsg29
I00
sg30
I00
sg31
S'/home/avakimov_am/chromium/cobalt/src/cobalt/speech/speech_synthesis_event.idl'
p1276
ssS'DOMException'
p1277
(dp1278
g6
I00
sg7
S'cobalt/dom'
p1279
sg9
S'cobalt/dom/DOMException.h'
p1280
sg11
Nsg13
(dp1281
sg16
Nsg17
I00
sg18
I00
sg19
(lp1282
sg21
(lp1283
sg23
(lp1284
sg25
g26
((ltRp1285
sg28
Nsg29
I00
sg30
I00
sg31
S'/home/avakimov_am/chromium/cobalt/src/cobalt/dom/dom_exception.idl'
p1286
ssS'UIEventInit'
p1287
(dp1288
g6
I00
sg7
S'cobalt/dom'
p1289
sg9
S'cobalt/dom/UIEventInit.h'
p1290
sg11
S'EventInit'
p1291
sg13
(dp1292
sg16
Nsg17
I00
sg18
I01
sg19
(lp1293
sg21
(lp1294
sg23
Nsg25
g26
((ltRp1295
sg28
Nsg29
I01
sg30
I00
sg31
S'/home/avakimov_am/chromium/cobalt/src/cobalt/dom/ui_event_init.idl'
p1296
ssS'CloseEventInit'
p1297
(dp1298
g6
I00
sg7
S'cobalt/websocket'
p1299
sg9
S'cobalt/websocket/CloseEventInit.h'
p1300
sg11
S'EventInit'
p1301
sg13
(dp1302
sg16
Nsg17
I00
sg18
I01
sg19
(lp1303
sg21
(lp1304
sg23
Nsg25
g26
((ltRp1305
sg28
Nsg29
I01
sg30
I00
sg31
S'/home/avakimov_am/chromium/cobalt/src/cobalt/websocket/close_event_init.idl'
p1306
ssS'NavigatorSystemCaptionSettings'
p1307
(dp1308
g6
I00
sg7
S'cobalt/dom/captions'
p1309
sg9
S'cobalt/dom/captions/NavigatorSystemCaptionSettings.h'
p1310
sg11
Nsg13
(dp1311
S'NoInterfaceObject'
p1312
Nssg16
Nsg17
I00
sg18
I01
sg19
(lp1313
sg21
(lp1314
sg23
(lp1315
sg25
g26
((ltRp1316
sg28
Nsg29
I00
sg30
I00
sg31
S'/home/avakimov_am/chromium/cobalt/src/cobalt/dom/captions/navigator_system_caption_settings.idl'
p1317
ssS'DialHttpRequest'
p1318
(dp1319
g6
I00
sg7
S'cobalt/h5vcc/dial'
p1320
sg9
S'cobalt/h5vcc/dial/DialHttpRequest.h'
p1321
sg11
Nsg13
(dp1322
S'Conditional'
p1323
S'DIAL_SERVER'
p1324
ssg16
g1324
sg17
I00
sg18
I00
sg19
(lp1325
sg21
(lp1326
sg23
(lp1327
sg25
g26
((ltRp1328
sg28
Nsg29
I00
sg30
I00
sg31
S'/home/avakimov_am/chromium/cobalt/src/cobalt/h5vcc/dial/dial_http_request.idl'
p1329
ssS'DOMRectReadOnly'
p1330
(dp1331
g6
I00
sg7
S'cobalt/dom'
p1332
sg9
S'cobalt/dom/DOMRectReadOnly.h'
p1333
sg11
Nsg13
(dp1334
g15
Nssg16
Nsg17
I00
sg18
I00
sg19
(lp1335
sg21
(lp1336
sg23
(lp1337
sg25
g26
((ltRp1338
sg28
Nsg29
I00
sg30
I00
sg31
S'/home/avakimov_am/chromium/cobalt/src/cobalt/dom/dom_rect_read_only.idl'
p1339
ssS'CSSKeyframeRule'
p1340
(dp1341
g6
I00
sg7
S'cobalt/cssom'
p1342
sg9
S'cobalt/cssom/CSSKeyframeRule.h'
p1343
sg11
S'CSSRule'
p1344
sg13
(dp1345
sg16
Nsg17
I00
sg18
I00
sg19
(lp1346
sg21
(lp1347
sg23
(lp1348
sg25
g26
((ltRp1349
sg28
Nsg29
I00
sg30
I00
sg31
S'/home/avakimov_am/chromium/cobalt/src/cobalt/cssom/css_keyframe_rule.idl'
p1350
ssS'MediaDeviceInfo'
p1351
(dp1352
g6
I00
sg7
S'cobalt/media_capture'
p1353
sg9
S'cobalt/media_capture/MediaDeviceInfo.h'
p1354
sg11
Nsg13
(dp1355
S'Exposed'
p1356
(lp1357
(iidl_definitions
Exposure
p1358
(dp1359
g389
Nsg390
S'Window'
p1360
sbassg16
Nsg17
I00
sg18
I00
sg19
(lp1361
sg21
(lp1362
sg23
(lp1363
sg25
g26
((ltRp1364
sg28
Nsg29
I00
sg30
I00
sg31
S'/home/avakimov_am/chromium/cobalt/src/cobalt/media_capture/media_device_info.idl'
p1365
ssS'ProgressEvent'
p1366
(dp1367
g6
I00
sg7
S'cobalt/dom'
p1368
sg9
S'cobalt/dom/ProgressEvent.h'
p1369
sg11
S'Event'
p1370
sg13
(dp1371
g15
Nssg16
Nsg17
I00
sg18
I00
sg19
(lp1372
sg21
(lp1373
sg23
(lp1374
sg25
g26
((ltRp1375
sg28
Nsg29
I00
sg30
I00
sg31
S'/home/avakimov_am/chromium/cobalt/src/cobalt/dom/progress_event.idl'
p1376
ssS'HTMLHeadElement'
p1377
(dp1378
g6
I00
sg7
S'cobalt/dom'
p1379
sg9
S'cobalt/dom/HTMLHeadElement.h'
p1380
sg11
S'HTMLElement'
p1381
sg13
(dp1382
sg16
Nsg17
I00
sg18
I00
sg19
(lp1383
sg21
(lp1384
sg23
(lp1385
sg25
g26
((ltRp1386
sg28
Nsg29
I00
sg30
I00
sg31
S'/home/avakimov_am/chromium/cobalt/src/cobalt/dom/html_head_element.idl'
p1387
ssS'DeviceOrientationEvent'
p1388
(dp1389
g6
I00
sg7
S'cobalt/dom'
p1390
sg9
S'cobalt/dom/DeviceOrientationEvent.h'
p1391
sg11
S'Event'
p1392
sg13
(dp1393
g15
Nssg16
Nsg17
I00
sg18
I00
sg19
(lp1394
sg21
(lp1395
sg23
(lp1396
sg25
g26
((ltRp1397
sg28
Nsg29
I00
sg30
I00
sg31
S'/home/avakimov_am/chromium/cobalt/src/cobalt/dom/device_orientation_event.idl'
p1398
ssS'DebuggerEventTarget'
p1399
(dp1400
g6
I00
sg7
S'cobalt/debug/console'
p1401
sg9
S'cobalt/debug/console/DebuggerEventTarget.h'
p1402
sg11
Nsg13
(dp1403
S'Conditional'
p1404
S'ENABLE_DEBUGGER'
p1405
ssg16
g1405
sg17
I00
sg18
I00
sg19
(lp1406
sg21
(lp1407
sg23
(lp1408
sg25
g26
((ltRp1409
sg28
Nsg29
I00
sg30
I00
sg31
S'/home/avakimov_am/chromium/cobalt/src/cobalt/debug/console/debugger_event_target.idl'
p1410
ssS'FetchInternal'
p1411
(dp1412
g6
I00
sg7
S'cobalt/fetch'
p1413
sg9
S'cobalt/fetch/FetchInternal.h'
p1414
sg11
Nsg13
(dp1415
sg16
Nsg17
I00
sg18
I00
sg19
(lp1416
sg21
(lp1417
sg23
(lp1418
sg25
g26
((ltRp1419
sg28
Nsg29
I00
sg30
I00
sg31
S'/home/avakimov_am/chromium/cobalt/src/cobalt/fetch/fetch_internal.idl'
p1420
ssS'Node'
p1421
(dp1422
g6
I00
sg7
S'cobalt/dom'
p1423
sg9
S'cobalt/dom/Node.h'
p1424
sg11
S'EventTarget'
p1425
sg13
(dp1426
sg16
Nsg17
I00
sg18
I00
sg19
(lp1427
sg21
(lp1428
sg23
(lp1429
sg25
g26
((ltRp1430
sg28
Nsg29
I00
sg30
I00
sg31
S'/home/avakimov_am/chromium/cobalt/src/cobalt/dom/node.idl'
p1431
ssS'EventModifierInit'
p1432
(dp1433
g6
I00
sg7
S'cobalt/dom'
p1434
sg9
S'cobalt/dom/EventModifierInit.h'
p1435
sg11
S'UIEventInit'
p1436
sg13
(dp1437
sg16
Nsg17
I00
sg18
I01
sg19
(lp1438
sg21
(lp1439
sg23
Nsg25
g26
((ltRp1440
sg28
Nsg29
I01
sg30
I00
sg31
S'/home/avakimov_am/chromium/cobalt/src/cobalt/dom/event_modifier_init.idl'
p1441
ssS'VideoPlaybackQuality'
p1442
(dp1443
g6
I00
sg7
S'cobalt/dom'
p1444
sg9
S'cobalt/dom/VideoPlaybackQuality.h'
p1445
sg11
Nsg13
(dp1446
sg16
Nsg17
I00
sg18
I00
sg19
(lp1447
sg21
(lp1448
sg23
(lp1449
sg25
g26
((ltRp1450
sg28
Nsg29
I00
sg30
I00
sg31
S'/home/avakimov_am/chromium/cobalt/src/cobalt/dom/video_playback_quality.idl'
p1451
ssS'MediaKeyMessageEvent'
p1452
(dp1453
g6
I00
sg7
S'cobalt/dom/eme'
p1454
sg9
S'cobalt/dom/eme/MediaKeyMessageEvent.h'
p1455
sg11
S'Event'
p1456
sg13
(dp1457
g15
Nssg16
Nsg17
I00
sg18
I00
sg19
(lp1458
sg21
(lp1459
sg23
(lp1460
sg25
g26
((ltRp1461
sg28
Nsg29
I00
sg30
I00
sg31
S'/home/avakimov_am/chromium/cobalt/src/cobalt/dom/eme/media_key_message_event.idl'
p1462
ssS'SpeechRecognitionResultList'
p1463
(dp1464
g6
I00
sg7
S'cobalt/speech'
p1465
sg9
S'cobalt/speech/SpeechRecognitionResultList.h'
p1466
sg11
Nsg13
(dp1467
sg16
Nsg17
I00
sg18
I00
sg19
(lp1468
sg21
(lp1469
sg23
(lp1470
sg25
g26
((ltRp1471
sg28
Nsg29
I00
sg30
I00
sg31
S'/home/avakimov_am/chromium/cobalt/src/cobalt/speech/speech_recognition_result_list.idl'
p1472
ssS'Camera3D'
p1473
(dp1474
g6
I00
sg7
S'cobalt/dom'
p1475
sg9
S'cobalt/dom/Camera3D.h'
p1476
sg11
Nsg13
(dp1477
sg16
Nsg17
I00
sg18
I00
sg19
(lp1478
sg21
(lp1479
sg23
(lp1480
sg25
g26
((ltRp1481
sg28
Nsg29
I00
sg30
I00
sg31
S'/home/avakimov_am/chromium/cobalt/src/cobalt/dom/camera_3d.idl'
p1482
ssS'Screen'
p1483
(dp1484
g6
I00
sg7
S'cobalt/dom'
p1485
sg9
S'cobalt/dom/Screen.h'
p1486
sg11
Nsg13
(dp1487
sg16
Nsg17
I00
sg18
I00
sg19
(lp1488
sg21
(lp1489
sg23
(lp1490
sg25
g26
((ltRp1491
sg28
Nsg29
I00
sg30
I00
sg31
S'/home/avakimov_am/chromium/cobalt/src/cobalt/dom/screen.idl'
p1492
ssS'SpeechRecognitionEvent'
p1493
(dp1494
g6
I00
sg7
S'cobalt/speech'
p1495
sg9
S'cobalt/speech/SpeechRecognitionEvent.h'
p1496
sg11
S'Event'
p1497
sg13
(dp1498
sg16
Nsg17
I00
sg18
I00
sg19
(lp1499
sg21
(lp1500
sg23
(lp1501
sg25
g26
((ltRp1502
sg28
Nsg29
I00
sg30
I00
sg31
S'/home/avakimov_am/chromium/cobalt/src/cobalt/speech/speech_recognition_event.idl'
p1503
ssS'GlobalEventHandlers'
p1504
(dp1505
g6
I00
sg7
S'cobalt/dom'
p1506
sg9
S'cobalt/dom/GlobalEventHandlers.h'
p1507
sg11
Nsg13
(dp1508
S'NoInterfaceObject'
p1509
Nssg16
Nsg17
I00
sg18
I01
sg19
(lp1510
sg21
(lp1511
sg23
(lp1512
sg25
g26
((ltRp1513
sg28
Nsg29
I00
sg30
I00
sg31
S'/home/avakimov_am/chromium/cobalt/src/cobalt/dom/global_event_handlers.idl'
p1514
ssS'HTMLScriptElement'
p1515
(dp1516
g6
I00
sg7
S'cobalt/dom'
p1517
sg9
S'cobalt/dom/HTMLScriptElement.h'
p1518
sg11
S'HTMLElement'
p1519
sg13
(dp1520
sg16
Nsg17
I00
sg18
I00
sg19
(lp1521
sg21
(lp1522
sg23
(lp1523
sg25
g26
((ltRp1524
sg28
Nsg29
I00
sg30
I00
sg31
S'/home/avakimov_am/chromium/cobalt/src/cobalt/dom/html_script_element.idl'
p1525
ssS'FocusEventInit'
p1526
(dp1527
g6
I00
sg7
S'cobalt/dom'
p1528
sg9
S'cobalt/dom/FocusEventInit.h'
p1529
sg11
S'UIEventInit'
p1530
sg13
(dp1531
sg16
Nsg17
I00
sg18
I01
sg19
(lp1532
sg21
(lp1533
sg23
Nsg25
g26
((ltRp1534
sg28
Nsg29
I01
sg30
I00
sg31
S'/home/avakimov_am/chromium/cobalt/src/cobalt/dom/focus_event_init.idl'
p1535
ssS'HTMLUnknownElement'
p1536
(dp1537
g6
I00
sg7
S'cobalt/dom'
p1538
sg9
S'cobalt/dom/HTMLUnknownElement.h'
p1539
sg11
S'HTMLElement'
p1540
sg13
(dp1541
sg16
Nsg17
I00
sg18
I00
sg19
(lp1542
sg21
(lp1543
sg23
(lp1544
sg25
g26
((ltRp1545
sg28
Nsg29
I00
sg30
I00
sg31
S'/home/avakimov_am/chromium/cobalt/src/cobalt/dom/html_unknown_element.idl'
p1546
ssS'MediaList'
p1547
(dp1548
g6
I00
sg7
S'cobalt/cssom'
p1549
sg9
S'cobalt/cssom/MediaList.h'
p1550
sg11
Nsg13
(dp1551
S'ArrayClass'
p1552
Nssg16
Nsg17
I00
sg18
I00
sg19
(lp1553
sg21
(lp1554
sg23
(lp1555
sg25
g26
((ltRp1556
sg28
Nsg29
I00
sg30
I00
sg31
S'/home/avakimov_am/chromium/cobalt/src/cobalt/cssom/media_list.idl'
p1557
ssS'MediaKeySystemAccess'
p1558
(dp1559
g6
I00
sg7
S'cobalt/dom/eme'
p1560
sg9
S'cobalt/dom/eme/MediaKeySystemAccess.h'
p1561
sg11
Nsg13
(dp1562
sg16
Nsg17
I00
sg18
I00
sg19
(lp1563
sg21
(lp1564
sg23
(lp1565
sg25
g26
((ltRp1566
sg28
Nsg29
I00
sg30
I00
sg31
S'/home/avakimov_am/chromium/cobalt/src/cobalt/dom/eme/media_key_system_access.idl'
p1567
ssS'WheelEventInit'
p1568
(dp1569
g6
I00
sg7
S'cobalt/dom'
p1570
sg9
S'cobalt/dom/WheelEventInit.h'
p1571
sg11
S'MouseEventInit'
p1572
sg13
(dp1573
sg16
Nsg17
I00
sg18
I01
sg19
(lp1574
sg21
(lp1575
sg23
Nsg25
g26
((ltRp1576
sg28
Nsg29
I01
sg30
I00
sg31
S'/home/avakimov_am/chromium/cobalt/src/cobalt/dom/wheel_event_init.idl'
p1577
ssS'TrackDefaultList'
p1578
(dp1579
g6
I00
sg7
S'cobalt/dom'
p1580
sg9
S'cobalt/dom/TrackDefaultList.h'
p1581
sg11
Nsg13
(dp1582
S'RaisesException'
p1583
S'Constructor'
p1584
sg15
Nssg16
Nsg17
I00
sg18
I00
sg19
(lp1585
sg21
(lp1586
sg23
(lp1587
sg25
g26
((ltRp1588
sg28
Nsg29
I00
sg30
I00
sg31
S'/home/avakimov_am/chromium/cobalt/src/cobalt/dom/track_default_list.idl'
p1589
ssS'PerformanceTiming'
p1590
(dp1591
g6
I00
sg7
S'cobalt/dom'
p1592
sg9
S'cobalt/dom/PerformanceTiming.h'
p1593
sg11
Nsg13
(dp1594
sg16
Nsg17
I00
sg18
I00
sg19
(lp1595
sg21
(lp1596
sg23
(lp1597
sg25
g26
((ltRp1598
sg28
Nsg29
I00
sg30
I00
sg31
S'/home/avakimov_am/chromium/cobalt/src/cobalt/dom/performance_timing.idl'
p1599
ssS'EventListener'
p1600
(dp1601
g6
I00
sg7
S'cobalt/dom'
p1602
sg9
S'cobalt/dom/EventListener.h'
p1603
sg11
Nsg13
(dp1604
sg16
Nsg17
I00
sg18
I00
sg19
(lp1605
sg21
(lp1606
sg23
(lp1607
sg25
g26
((ltRp1608
sg28
Nsg29
I00
sg30
I01
sg31
S'/home/avakimov_am/chromium/cobalt/src/cobalt/dom/event_listener.idl'
p1609
ssS'NavigatorMediaSession'
p1610
(dp1611
g6
I00
sg7
S'cobalt/media_session'
p1612
sg9
S'cobalt/media_session/NavigatorMediaSession.h'
p1613
sg11
Nsg13
(dp1614
S'NoInterfaceObject'
p1615
Nssg16
Nsg17
I00
sg18
I01
sg19
(lp1616
sg21
(lp1617
sg23
(lp1618
sg25
g26
((ltRp1619
sg28
Nsg29
I00
sg30
I00
sg31
S'/home/avakimov_am/chromium/cobalt/src/cobalt/media_session/navigator_media_session.idl'
p1620
ssS'NamedNodeMap'
p1621
(dp1622
g6
I00
sg7
S'cobalt/dom'
p1623
sg9
S'cobalt/dom/NamedNodeMap.h'
p1624
sg11
Nsg13
(dp1625
sg16
Nsg17
I00
sg18
I00
sg19
(lp1626
sg21
(lp1627
sg23
(lp1628
sg25
g26
((ltRp1629
sg28
Nsg29
I00
sg30
I00
sg31
S'/home/avakimov_am/chromium/cobalt/src/cobalt/dom/named_node_map.idl'
p1630
ssS'DebugHub'
p1631
(dp1632
g6
I00
sg7
S'cobalt/debug/console'
p1633
sg9
S'cobalt/debug/console/DebugHub.h'
p1634
sg11
Nsg13
(dp1635
S'Conditional'
p1636
S'ENABLE_DEBUGGER'
p1637
ssg16
g1637
sg17
I00
sg18
I00
sg19
(lp1638
sg21
(lp1639
sg23
(lp1640
sg25
g26
((ltRp1641
sg28
Nsg29
I00
sg30
I00
sg31
S'/home/avakimov_am/chromium/cobalt/src/cobalt/debug/console/debug_hub.idl'
p1642
ssS'MemoryInfo'
p1643
(dp1644
g6
I00
sg7
S'cobalt/dom'
p1645
sg9
S'cobalt/dom/MemoryInfo.h'
p1646
sg11
Nsg13
(dp1647
S'NoInterfaceObject'
p1648
Nssg16
Nsg17
I00
sg18
I00
sg19
(lp1649
sg21
(lp1650
sg23
(lp1651
sg25
g26
((ltRp1652
sg28
Nsg29
I00
sg30
I00
sg31
S'/home/avakimov_am/chromium/cobalt/src/cobalt/dom/memory_info.idl'
p1653
ssS'ParentNode'
p1654
(dp1655
g6
I00
sg7
S'cobalt/dom'
p1656
sg9
S'cobalt/dom/ParentNode.h'
p1657
sg11
Nsg13
(dp1658
S'NoInterfaceObject'
p1659
Nssg16
Nsg17
I00
sg18
I01
sg19
(lp1660
sg21
(lp1661
S'Document'
p1662
aS'Element'
p1663
asg23
(lp1664
sg25
g26
((ltRp1665
sg28
Nsg29
I00
sg30
I00
sg31
S'/home/avakimov_am/chromium/cobalt/src/cobalt/dom/parent_node.idl'
p1666
ssS'HTMLElement'
p1667
(dp1668
g6
I00
sg7
S'cobalt/dom'
p1669
sg9
S'cobalt/dom/HTMLElement.h'
p1670
sg11
S'Element'
p1671
sg13
(dp1672
sg16
Nsg17
I00
sg18
I00
sg19
(lp1673
S'GlobalEventHandlers'
p1674
asg21
(lp1675
sg23
(lp1676
sg25
g26
((ltRp1677
sg28
Nsg29
I00
sg30
I00
sg31
S'/home/avakimov_am/chromium/cobalt/src/cobalt/dom/html_element.idl'
p1678
sg64
(dp1679
S'cobalt'
p1680
g26
((lp1681
S'cobalt/dom/HTMLElementCSSomView.h'
p1682
atRp1683
sssS'History'
p1684
(dp1685
g6
I00
sg7
S'cobalt/dom'
p1686
sg9
S'cobalt/dom/History.h'
p1687
sg11
Nsg13
(dp1688
sg16
Nsg17
I00
sg18
I00
sg19
(lp1689
sg21
(lp1690
sg23
(lp1691
sg25
g26
((ltRp1692
sg28
Nsg29
I00
sg30
I00
sg31
S'/home/avakimov_am/chromium/cobalt/src/cobalt/dom/history.idl'
p1693
ssS'NavigatorStorageUtils'
p1694
(dp1695
g6
I00
sg7
S'cobalt/dom'
p1696
sg9
S'cobalt/dom/NavigatorStorageUtils.h'
p1697
sg11
Nsg13
(dp1698
S'NoInterfaceObject'
p1699
Nssg16
Nsg17
I00
sg18
I01
sg19
(lp1700
sg21
(lp1701
sg23
(lp1702
sg25
g26
((ltRp1703
sg28
Nsg29
I00
sg30
I00
sg31
S'/home/avakimov_am/chromium/cobalt/src/cobalt/dom/navigator_storage_utils.idl'
p1704
ssS'CSSGroupingRule'
p1705
(dp1706
g6
I00
sg7
S'cobalt/cssom'
p1707
sg9
S'cobalt/cssom/CSSGroupingRule.h'
p1708
sg11
S'CSSRule'
p1709
sg13
(dp1710
sg16
Nsg17
I00
sg18
I00
sg19
(lp1711
sg21
(lp1712
sg23
(lp1713
sg25
g26
((ltRp1714
sg28
Nsg29
I00
sg30
I00
sg31
S'/home/avakimov_am/chromium/cobalt/src/cobalt/cssom/css_grouping_rule.idl'
p1715
ssS'MutationRecord'
p1716
(dp1717
g6
I00
sg7
S'cobalt/dom'
p1718
sg9
S'cobalt/dom/MutationRecord.h'
p1719
sg11
Nsg13
(dp1720
S'Exposed'
p1721
(lp1722
(iidl_definitions
Exposure
p1723
(dp1724
g389
Nsg390
S'Window'
p1725
sbassg16
Nsg17
I00
sg18
I00
sg19
(lp1726
sg21
(lp1727
sg23
(lp1728
sg25
g26
((ltRp1729
sg28
Nsg29
I00
sg30
I00
sg31
S'/home/avakimov_am/chromium/cobalt/src/cobalt/dom/mutation_record.idl'
p1730
ssS'NonElementParentNode'
p1731
(dp1732
g6
I00
sg7
S'cobalt/dom'
p1733
sg9
S'cobalt/dom/NonElementParentNode.h'
p1734
sg11
Nsg13
(dp1735
S'NoInterfaceObject'
p1736
Nssg16
Nsg17
I00
sg18
I01
sg19
(lp1737
sg21
(lp1738
S'Document'
p1739
asg23
(lp1740
sg25
g26
((ltRp1741
sg28
Nsg29
I00
sg30
I00
sg31
S'/home/avakimov_am/chromium/cobalt/src/cobalt/dom/non_element_parent_node.idl'
p1742
ssS'KeyboardEventInit'
p1743
(dp1744
g6
I00
sg7
S'cobalt/dom'
p1745
sg9
S'cobalt/dom/KeyboardEventInit.h'
p1746
sg11
S'EventModifierInit'
p1747
sg13
(dp1748
sg16
Nsg17
I00
sg18
I01
sg19
(lp1749
sg21
(lp1750
sg23
Nsg25
g26
((ltRp1751
sg28
Nsg29
I01
sg30
I00
sg31
S'/home/avakimov_am/chromium/cobalt/src/cobalt/dom/keyboard_event_init.idl'
p1752
ssS'CSSAgent'
p1753
(dp1754
g6
I00
sg7
S'cobalt/debug/backend'
p1755
sg9
S'cobalt/debug/backend/CSSAgent.h'
p1756
sg11
Nsg13
(dp1757
S'Conditional'
p1758
S'ENABLE_DEBUGGER'
p1759
ssg16
g1759
sg17
I00
sg18
I00
sg19
(lp1760
sg21
(lp1761
sg23
(lp1762
sg25
g26
((ltRp1763
sg28
Nsg29
I00
sg30
I00
sg31
S'/home/avakimov_am/chromium/cobalt/src/cobalt/debug/backend/css_agent.idl'
p1764
ssS'BlobEvent'
p1765
(dp1766
g6
I00
sg7
S'cobalt/media_capture'
p1767
sg9
S'cobalt/media_capture/BlobEvent.h'
p1768
sg11
S'Event'
p1769
sg13
(dp1770
g15
NsS'Exposed'
p1771
(lp1772
(iidl_definitions
Exposure
p1773
(dp1774
g389
Nsg390
S'Window'
p1775
sbassg16
Nsg17
I00
sg18
I00
sg19
(lp1776
sg21
(lp1777
sg23
(lp1778
sg25
g26
((ltRp1779
sg28
Nsg29
I00
sg30
I00
sg31
S'/home/avakimov_am/chromium/cobalt/src/cobalt/media_capture/blob_event.idl'
p1780
ssS'TestRunner'
p1781
(dp1782
g6
I00
sg7
S'cobalt/dom'
p1783
sg9
S'cobalt/dom/TestRunner.h'
p1784
sg11
Nsg13
(dp1785
S'Conditional'
p1786
S'ENABLE_TEST_RUNNER'
p1787
ssg16
g1787
sg17
I00
sg18
I00
sg19
(lp1788
sg21
(lp1789
sg23
(lp1790
sg25
g26
((ltRp1791
sg28
Nsg29
I00
sg30
I00
sg31
S'/home/avakimov_am/chromium/cobalt/src/cobalt/dom/test_runner.idl'
p1792
ssS'MediaRecorderOptions'
p1793
(dp1794
g6
I00
sg7
S'cobalt/media_capture'
p1795
sg9
S'cobalt/media_capture/MediaRecorderOptions.h'
p1796
sg11
Nsg13
(dp1797
sg16
Nsg17
I00
sg18
I01
sg19
(lp1798
sg21
(lp1799
sg23
Nsg25
g26
((ltRp1800
sg28
Nsg29
I01
sg30
I00
sg31
S'/home/avakimov_am/chromium/cobalt/src/cobalt/media_capture/media_recorder_options.idl'
p1801
ssS'StyleSheet'
p1802
(dp1803
g6
I00
sg7
S'cobalt/cssom'
p1804
sg9
S'cobalt/cssom/StyleSheet.h'
p1805
sg11
Nsg13
(dp1806
sg16
Nsg17
I00
sg18
I00
sg19
(lp1807
sg21
(lp1808
sg23
(lp1809
sg25
g26
((ltRp1810
sg28
Nsg29
I00
sg30
I00
sg31
S'/home/avakimov_am/chromium/cobalt/src/cobalt/cssom/style_sheet.idl'
p1811
ssS'Animation'
p1812
(dp1813
g6
I00
sg7
S'cobalt/web_animations'
p1814
sg9
S'cobalt/web_animations/Animation.h'
p1815
sg11
Nsg13
(dp1816
g15
Nssg16
Nsg17
I00
sg18
I00
sg19
(lp1817
sg21
(lp1818
sg23
(lp1819
sg25
g26
((ltRp1820
sg28
Nsg29
I00
sg30
I00
sg31
S'/home/avakimov_am/chromium/cobalt/src/cobalt/web_animations/animation.idl'
p1821
ssS'VideoTrackList'
p1822
(dp1823
g6
I00
sg7
S'cobalt/dom'
p1824
sg9
S'cobalt/dom/VideoTrackList.h'
p1825
sg11
S'EventTarget'
p1826
sg13
(dp1827
sg16
Nsg17
I00
sg18
I00
sg19
(lp1828
sg21
(lp1829
sg23
(lp1830
sg25
g26
((ltRp1831
sg28
Nsg29
I00
sg30
I00
sg31
S'/home/avakimov_am/chromium/cobalt/src/cobalt/dom/video_track_list.idl'
p1832
ssS'DocumentTimeline'
p1833
(dp1834
g6
I00
sg7
S'cobalt/dom'
p1835
sg9
S'cobalt/dom/DocumentTimeline.h'
p1836
sg11
S'AnimationTimeline'
p1837
sg13
(dp1838
g15
NsS'ConstructorCallWith'
p1839
S'EnvironmentSettings'
p1840
ssg16
Nsg17
I00
sg18
I00
sg19
(lp1841
sg21
(lp1842
sg23
(lp1843
sg25
g26
((ltRp1844
sg28
Nsg29
I00
sg30
I00
sg31
S'/home/avakimov_am/chromium/cobalt/src/cobalt/dom/document_timeline.idl'
p1845
ssS'MediaMetadata'
p1846
(dp1847
g6
I00
sg7
S'cobalt/media_session'
p1848
sg9
S'cobalt/media_session/MediaMetadata.h'
p1849
sg11
Nsg13
(dp1850
g15
NsS'Exposed'
p1851
(lp1852
(iidl_definitions
Exposure
p1853
(dp1854
g389
Nsg390
S'Window'
p1855
sbassg16
Nsg17
I00
sg18
I00
sg19
(lp1856
sg21
(lp1857
sg23
(lp1858
sg25
g26
((ltRp1859
sg28
Nsg29
I00
sg30
I00
sg31
S'/home/avakimov_am/chromium/cobalt/src/cobalt/media_session/media_metadata.idl'
p1860
ssS'NavigatorID'
p1861
(dp1862
g6
I00
sg7
S'cobalt/dom'
p1863
sg9
S'cobalt/dom/NavigatorID.h'
p1864
sg11
Nsg13
(dp1865
S'NoInterfaceObject'
p1866
Nssg16
Nsg17
I00
sg18
I01
sg19
(lp1867
sg21
(lp1868
sg23
(lp1869
sg25
g26
((ltRp1870
sg28
Nsg29
I00
sg30
I00
sg31
S'/home/avakimov_am/chromium/cobalt/src/cobalt/dom/navigator_id.idl'
p1871
ssS'HTMLAnchorElement'
p1872
(dp1873
g6
I00
sg7
S'cobalt/dom'
p1874
sg9
S'cobalt/dom/HTMLAnchorElement.h'
p1875
sg11
S'HTMLElement'
p1876
sg13
(dp1877
sg16
Nsg17
I00
sg18
I00
sg19
(lp1878
S'URLUtils'
p1879
asg21
(lp1880
sg23
(lp1881
sg25
g26
((ltRp1882
sg28
Nsg29
I00
sg30
I00
sg31
S'/home/avakimov_am/chromium/cobalt/src/cobalt/dom/html_anchor_element.idl'
p1883
ssS'HTMLBRElement'
p1884
(dp1885
g6
I00
sg7
S'cobalt/dom'
p1886
sg9
S'cobalt/dom/HTMLBRElement.h'
p1887
sg11
S'HTMLElement'
p1888
sg13
(dp1889
sg16
Nsg17
I00
sg18
I00
sg19
(lp1890
sg21
(lp1891
sg23
(lp1892
sg25
g26
((ltRp1893
sg28
Nsg29
I00
sg30
I00
sg31
S'/home/avakimov_am/chromium/cobalt/src/cobalt/dom/html_br_element.idl'
p1894
ssS'SpeechRecognitionResult'
p1895
(dp1896
g6
I00
sg7
S'cobalt/speech'
p1897
sg9
S'cobalt/speech/SpeechRecognitionResult.h'
p1898
sg11
Nsg13
(dp1899
sg16
Nsg17
I00
sg18
I00
sg19
(lp1900
sg21
(lp1901
sg23
(lp1902
sg25
g26
((ltRp1903
sg28
Nsg29
I00
sg30
I00
sg31
S'/home/avakimov_am/chromium/cobalt/src/cobalt/speech/speech_recognition_result.idl'
p1904
ssS'XMLHttpRequest'
p1905
(dp1906
g6
I00
sg7
S'cobalt/xhr'
p1907
sg9
S'cobalt/xhr/XMLHttpRequest.h'
p1908
sg11
S'XMLHttpRequestEventTarget'
p1909
sg13
(dp1910
g15
NsS'ConstructorCallWith'
p1911
S'EnvironmentSettings'
p1912
ssg16
Nsg17
I00
sg18
I00
sg19
(lp1913
sg21
(lp1914
sg23
(lp1915
sg25
g26
((lp1916
g159
(g166
g161
NtRp1917
(dp1918
g169
g159
(g733
g161
NtRp1919
(dp1920
g736
(lp1921
g159
(g170
g161
NtRp1922
(dp1923
g173
S'DOMString'
p1924
sbag159
(g170
g161
NtRp1925
(dp1926
g173
S'ArrayBufferView'
p1927
sbag159
(g170
g161
NtRp1928
(dp1929
g173
S'ArrayBuffer'
p1930
sbasbsbag159
(g733
g161
NtRp1931
(dp1932
g736
(lp1933
g159
(g170
g161
NtRp1934
(dp1935
g173
S'DOMString'
p1936
sbag159
(g170
g161
NtRp1937
(dp1938
g173
S'ArrayBuffer'
p1939
sbasbag1919
ag159
(g166
g161
NtRp1940
(dp1941
g169
g159
(g733
g161
NtRp1942
(dp1943
g736
(lp1944
g159
(g170
g161
NtRp1945
(dp1946
g173
S'DOMString'
p1947
sbag159
(g170
g161
NtRp1948
(dp1949
g173
S'ArrayBufferView'
p1950
sbag159
(g170
g161
NtRp1951
(dp1952
g173
S'ArrayBuffer'
p1953
sbasbsbatRp1954
sg28
Nsg29
I00
sg30
I00
sg31
S'/home/avakimov_am/chromium/cobalt/src/cobalt/xhr/xml_http_request.idl'
p1955
ssS'MediaImage'
p1956
(dp1957
g6
I00
sg7
S'cobalt/media_session'
p1958
sg9
S'cobalt/media_session/MediaImage.h'
p1959
sg11
Nsg13
(dp1960
sg16
Nsg17
I00
sg18
I01
sg19
(lp1961
sg21
(lp1962
sg23
Nsg25
g26
((ltRp1963
sg28
Nsg29
I01
sg30
I00
sg31
S'/home/avakimov_am/chromium/cobalt/src/cobalt/media_session/media_image.idl'
p1964
ssS'CSSConditionRule'
p1965
(dp1966
g6
I00
sg7
S'cobalt/cssom'
p1967
sg9
S'cobalt/cssom/CSSConditionRule.h'
p1968
sg11
S'CSSGroupingRule'
p1969
sg13
(dp1970
sg16
Nsg17
I00
sg18
I00
sg19
(lp1971
sg21
(lp1972
sg23
(lp1973
sg25
g26
((ltRp1974
sg28
Nsg29
I00
sg30
I00
sg31
S'/home/avakimov_am/chromium/cobalt/src/cobalt/cssom/css_condition_rule.idl'
p1975
ssS'CValView'
p1976
(dp1977
g6
I00
sg7
S'cobalt/dom'
p1978
sg9
S'cobalt/dom/CValView.h'
p1979
sg11
Nsg13
(dp1980
sg16
Nsg17
I00
sg18
I00
sg19
(lp1981
sg21
(lp1982
sg23
(lp1983
sg25
g26
((ltRp1984
sg28
Nsg29
I00
sg30
I00
sg31
S'/home/avakimov_am/chromium/cobalt/src/cobalt/dom/c_val_view.idl'
p1985
ssS'H5vccAccountManager'
p1986
(dp1987
g6
I00
sg7
S'cobalt/h5vcc'
p1988
sg9
S'cobalt/h5vcc/H5vccAccountManager.h'
p1989
sg11
Nsg13
(dp1990
S'Conditional'
p1991
S'COBALT_ENABLE_ACCOUNT_MANAGER'
p1992
sg15
Nssg16
g1992
sg17
I00
sg18
I00
sg19
(lp1993
sg21
(lp1994
sg23
(lp1995
sg25
g26
((ltRp1996
sg28
Nsg29
I00
sg30
I00
sg31
S'/home/avakimov_am/chromium/cobalt/src/cobalt/h5vcc/h5vcc_account_manager.idl'
p1997
ssS'AnimationEvent'
p1998
(dp1999
g6
I00
sg7
S'cobalt/dom'
p2000
sg9
S'cobalt/dom/AnimationEvent.h'
p2001
sg11
S'Event'
p2002
sg13
(dp2003
g15
Nssg16
Nsg17
I00
sg18
I00
sg19
(lp2004
sg21
(lp2005
sg23
(lp2006
sg25
g26
((ltRp2007
sg28
Nsg29
I00
sg30
I00
sg31
S'/home/avakimov_am/chromium/cobalt/src/cobalt/dom/animation_event.idl'
p2008
ssS'Window'
p2009
(dp2010
g6
I00
sg7
S'cobalt/dom'
p2011
sg9
S'cobalt/dom/Window.h'
p2012
sg11
S'EventTarget'
p2013
sg13
(dp2014
S'PrimaryGlobal'
p2015
Nssg16
Nsg23
(lp2016
S'Location'
p2017
asg17
I00
sg18
I00
sg155
(dp2018
S'cobalt'
p2019
(lp2020
g159
(g160
g161
NtRp2021
(dp2022
g164
I00
sg165
g159
(g170
g161
NtRp2023
(dp2024
g173
g2017
sbsg175
I01
sg176
S'location'
p2025
sg13
(dp2026
S'Unforgeable'
p2027
NsS'PutForwards'
p2028
S'href'
p2029
ssbag159
(g160
g161
NtRp2030
(dp2031
g164
I00
sg165
g159
(g170
g161
NtRp2032
(dp2033
g173
S'Document'
p2034
sbsg175
I01
sg176
S'document'
p2035
sg13
(dp2036
S'Unforgeable'
p2037
Nssbag159
(g160
g161
NtRp2038
(dp2039
g164
I00
sg165
g159
(g170
g161
NtRp2040
(dp2041
g173
S'Window'
p2042
sbsg175
I01
sg176
S'window'
p2043
sg13
(dp2044
S'Unforgeable'
p2045
Nssbag159
(g160
g161
NtRp2046
(dp2047
g164
I00
sg165
g159
(g170
g161
NtRp2048
(dp2049
g173
S'Window'
p2050
sbsg175
I01
sg176
S'top'
p2051
sg13
(dp2052
S'Unforgeable'
p2053
Nssbassg21
(lp2054
sg28
Nsg25
g26
((ltRp2055
sg19
(lp2056
S'GlobalEventHandlers'
p2057
aS'WindowEventHandlers'
p2058
asg29
I00
sg30
I00
sg31
S'/home/avakimov_am/chromium/cobalt/src/cobalt/dom/window.idl'
p2059
sg64
(dp2060
S'gen'
p2061
g26
((lp2062
S'out/linux-x64x11_devel/gen/bindings/browser/idl/dom/WindowConstructors.h'
p2063
atRp2064
sS'cobalt'
p2065
g26
((lp2066
S'cobalt/dom/WindowAnimationTiming.h'
p2067
aS'cobalt/dom/WindowCSSom.h'
p2068
aS'cobalt/dom/WindowCSSomView.h'
p2069
aS'cobalt/dom/WindowOnScreenKeyboard.h'
p2070
aS'cobalt/dom/WindowPerformance.h'
p2071
atRp2072
sssS'WindowLocalStorage'
p2073
(dp2074
g6
I00
sg7
S'cobalt/dom'
p2075
sg9
S'cobalt/dom/WindowLocalStorage.h'
p2076
sg11
Nsg13
(dp2077
S'NoInterfaceObject'
p2078
Nssg16
Nsg17
I00
sg18
I01
sg19
(lp2079
sg21
(lp2080
S'Window'
p2081
asg23
(lp2082
sg25
g26
((ltRp2083
sg28
Nsg29
I00
sg30
I00
sg31
S'/home/avakimov_am/chromium/cobalt/src/cobalt/dom/window_local_storage.idl'
p2084
ssS'SpeechSynthesis'
p2085
(dp2086
g6
I00
sg7
S'cobalt/speech'
p2087
sg9
S'cobalt/speech/SpeechSynthesis.h'
p2088
sg11
Nsg13
(dp2089
sg16
Nsg17
I00
sg18
I00
sg19
(lp2090
sg21
(lp2091
sg23
(lp2092
sg25
g26
((ltRp2093
sg28
Nsg29
I00
sg30
I00
sg31
S'/home/avakimov_am/chromium/cobalt/src/cobalt/speech/speech_synthesis.idl'
p2094
ssS'Blob'
p2095
(dp2096
g6
I00
sg7
S'cobalt/dom'
p2097
sg9
S'cobalt/dom/Blob.h'
p2098
sg11
Nsg13
(dp2099
g15
NsS'ConstructorCallWith'
p2100
S'EnvironmentSettings'
p2101
ssg16
Nsg17
I00
sg18
I00
sg19
(lp2102
sg21
(lp2103
sg23
(lp2104
sg25
g26
((lp2105
g159
(g733
g161
NtRp2106
(dp2107
g736
(lp2108
g159
(g170
g161
NtRp2109
(dp2110
g173
S'ArrayBuffer'
p2111
sbag159
(g170
g161
NtRp2112
(dp2113
g173
S'ArrayBufferView'
p2114
sbag159
(g170
g161
NtRp2115
(dp2116
g173
S'DataView'
p2117
sbag159
(g170
g161
NtRp2118
(dp2119
g173
S'Blob'
p2120
sbag159
(g170
g161
NtRp2121
(dp2122
g173
S'USVString'
p2123
sbasbatRp2124
sg28
Nsg29
I00
sg30
I00
sg31
S'/home/avakimov_am/chromium/cobalt/src/cobalt/dom/blob.idl'
p2125
ssS'EventInit'
p2126
(dp2127
g6
I00
sg7
S'cobalt/dom'
p2128
sg9
S'cobalt/dom/EventInit.h'
p2129
sg11
Nsg13
(dp2130
sg16
Nsg17
I00
sg18
I01
sg19
(lp2131
sg21
(lp2132
sg23
Nsg25
g26
((ltRp2133
sg28
Nsg29
I01
sg30
I00
sg31
S'/home/avakimov_am/chromium/cobalt/src/cobalt/dom/event_init.idl'
p2134
ssS'ScriptExecutorParams'
p2135
(dp2136
g6
I00
sg7
S'cobalt/webdriver'
p2137
sg9
S'cobalt/webdriver/ScriptExecutorParams.h'
p2138
sg11
Nsg13
(dp2139
S'Conditional'
p2140
S'ENABLE_WEBDRIVER'
p2141
sS'NoInterfaceObject'
p2142
Nssg16
g2141
sg17
I00
sg18
I00
sg19
(lp2143
sg21
(lp2144
sg23
(lp2145
sg25
g26
((ltRp2146
sg28
Nsg29
I00
sg30
I00
sg31
S'/home/avakimov_am/chromium/cobalt/src/cobalt/webdriver/script_executor_params.idl'
p2147
ssS'CSSMediaRule'
p2148
(dp2149
g6
I00
sg7
S'cobalt/cssom'
p2150
sg9
S'cobalt/cssom/CSSMediaRule.h'
p2151
sg11
S'CSSConditionRule'
p2152
sg13
(dp2153
sg16
Nsg17
I00
sg18
I00
sg19
(lp2154
sg21
(lp2155
sg23
(lp2156
sg25
g26
((ltRp2157
sg28
Nsg29
I00
sg30
I00
sg31
S'/home/avakimov_am/chromium/cobalt/src/cobalt/cssom/css_media_rule.idl'
p2158
ssS'XMLSerializer'
p2159
(dp2160
g6
I00
sg7
S'cobalt/dom'
p2161
sg9
S'cobalt/dom/XMLSerializer.h'
p2162
sg11
Nsg13
(dp2163
g15
Nssg16
Nsg17
I00
sg18
I00
sg19
(lp2164
sg21
(lp2165
sg23
(lp2166
sg25
g26
((ltRp2167
sg28
Nsg29
I00
sg30
I00
sg31
S'/home/avakimov_am/chromium/cobalt/src/cobalt/dom/xml_serializer.idl'
p2168
ssS'DOMImplementation'
p2169
(dp2170
g6
I00
sg7
S'cobalt/dom'
p2171
sg9
S'cobalt/dom/DOMImplementation.h'
p2172
sg11
Nsg13
(dp2173
S'ConstructorCallWith'
p2174
S'EnvironmentSettings'
p2175
ssg16
Nsg17
I00
sg18
I00
sg19
(lp2176
sg21
(lp2177
sg23
(lp2178
sg25
g26
((ltRp2179
sg28
Nsg29
I00
sg30
I00
sg31
S'/home/avakimov_am/chromium/cobalt/src/cobalt/dom/dom_implementation.idl'
p2180
ssS'SpeechSynthesisGetter'
p2181
(dp2182
g6
I00
sg7
S'cobalt/dom'
p2183
sg9
S'cobalt/dom/SpeechSynthesisGetter.h'
p2184
sg11
Nsg13
(dp2185
S'NoInterfaceObject'
p2186
Nssg16
Nsg17
I00
sg18
I01
sg19
(lp2187
sg21
(lp2188
S'Window'
p2189
asg23
(lp2190
sg25
g26
((ltRp2191
sg28
Nsg29
I00
sg30
I00
sg31
S'/home/avakimov_am/chromium/cobalt/src/cobalt/dom/speech_synthesis_getter.idl'
p2192
ssS'CSSStyleRule'
p2193
(dp2194
g6
I00
sg7
S'cobalt/cssom'
p2195
sg9
S'cobalt/cssom/CSSStyleRule.h'
p2196
sg11
S'CSSRule'
p2197
sg13
(dp2198
sg16
Nsg17
I00
sg18
I00
sg19
(lp2199
sg21
(lp2200
sg23
(lp2201
sg25
g26
((ltRp2202
sg28
Nsg29
I00
sg30
I00
sg31
S'/home/avakimov_am/chromium/cobalt/src/cobalt/cssom/css_style_rule.idl'
p2203
ssS'MediaDevices'
p2204
(dp2205
g6
I00
sg7
S'cobalt/media_capture'
p2206
sg9
S'cobalt/media_capture/MediaDevices.h'
p2207
sg11
S'EventTarget'
p2208
sg13
(dp2209
S'Exposed'
p2210
(lp2211
(iidl_definitions
Exposure
p2212
(dp2213
g389
Nsg390
S'Window'
p2214
sbassg16
Nsg17
I00
sg18
I00
sg19
(lp2215
sg21
(lp2216
sg23
(lp2217
sg25
g26
((ltRp2218
sg28
Nsg29
I00
sg30
I00
sg31
S'/home/avakimov_am/chromium/cobalt/src/cobalt/media_capture/media_devices.idl'
p2219
ssS'BlobPropertyBag'
p2220
(dp2221
g6
I00
sg7
S'cobalt/dom'
p2222
sg9
S'cobalt/dom/BlobPropertyBag.h'
p2223
sg11
Nsg13
(dp2224
sg16
Nsg17
I00
sg18
I01
sg19
(lp2225
sg21
(lp2226
sg23
Nsg25
g26
((ltRp2227
sg28
Nsg29
I01
sg30
I00
sg31
S'/home/avakimov_am/chromium/cobalt/src/cobalt/dom/blob_property_bag.idl'
p2228
ssS'CSSRule'
p2229
(dp2230
g6
I00
sg7
S'cobalt/cssom'
p2231
sg9
S'cobalt/cssom/CSSRule.h'
p2232
sg11
Nsg13
(dp2233
sg16
Nsg17
I00
sg18
I00
sg19
(lp2234
sg21
(lp2235
sg23
(lp2236
sg25
g26
((ltRp2237
sg28
Nsg29
I00
sg30
I00
sg31
S'/home/avakimov_am/chromium/cobalt/src/cobalt/cssom/css_rule.idl'
p2238
ssS'SpeechRecognitionError'
p2239
(dp2240
g6
I00
sg7
S'cobalt/speech'
p2241
sg9
S'cobalt/speech/SpeechRecognitionError.h'
p2242
sg11
S'Event'
p2243
sg13
(dp2244
sg16
Nsg17
I00
sg18
I00
sg19
(lp2245
sg21
(lp2246
sg23
(lp2247
sg25
g26
((ltRp2248
sg28
Nsg29
I00
sg30
I00
sg31
S'/home/avakimov_am/chromium/cobalt/src/cobalt/speech/speech_recognition_error.idl'
p2249
ssS'MouseEvent'
p2250
(dp2251
g6
I00
sg7
S'cobalt/dom'
p2252
sg9
S'cobalt/dom/MouseEvent.h'
p2253
sg11
S'UIEvent'
p2254
sg13
(dp2255
g15
Nssg16
Nsg17
I00
sg18
I00
sg19
(lp2256
sg21
(lp2257
sg23
(lp2258
sg25
g26
((ltRp2259
sg28
Nsg29
I00
sg30
I00
sg31
S'/home/avakimov_am/chromium/cobalt/src/cobalt/dom/mouse_event.idl'
p2260
sg64
(dp2261
S'cobalt'
p2262
g26
((lp2263
S'cobalt/dom/MouseEventCSSomView.h'
p2264
atRp2265
sssS'TrackEvent'
p2266
(dp2267
g6
I00
sg7
S'cobalt/dom'
p2268
sg9
S'cobalt/dom/TrackEvent.h'
p2269
sg11
S'Event'
p2270
sg13
(dp2271
g15
Nssg16
Nsg17
I00
sg18
I00
sg19
(lp2272
sg21
(lp2273
sg23
(lp2274
sg25
g26
((lp2275
g159
(g733
g161
NtRp2276
(dp2277
g736
(lp2278
g159
(g170
g161
NtRp2279
(dp2280
g173
S'AudioTrack'
p2281
sbag159
(g170
g161
NtRp2282
(dp2283
g173
S'VideoTrack'
p2284
sbasbag159
(g166
g161
NtRp2285
(dp2286
g169
g2276
sbatRp2287
sg28
Nsg29
I00
sg30
I00
sg31
S'/home/avakimov_am/chromium/cobalt/src/cobalt/dom/track_event.idl'
p2288
ssS'CharacterData'
p2289
(dp2290
g6
I00
sg7
S'cobalt/dom'
p2291
sg9
S'cobalt/dom/CharacterData.h'
p2292
sg11
S'Node'
p2293
sg13
(dp2294
sg16
Nsg17
I00
sg18
I00
sg19
(lp2295
sg21
(lp2296
sg23
(lp2297
sg25
g26
((ltRp2298
sg28
Nsg29
I00
sg30
I00
sg31
S'/home/avakimov_am/chromium/cobalt/src/cobalt/dom/character_data.idl'
p2299
ssS'MutationObserver'
p2300
(dp2301
g6
I00
sg7
S'cobalt/dom'
p2302
sg9
S'cobalt/dom/MutationObserver.h'
p2303
sg11
Nsg13
(dp2304
g15
NsS'ConstructorCallWith'
p2305
S'EnvironmentSettings'
p2306
ssg16
Nsg17
I00
sg18
I00
sg19
(lp2307
sg21
(lp2308
sg23
(lp2309
sg25
g26
((ltRp2310
sg28
Nsg29
I00
sg30
I00
sg31
S'/home/avakimov_am/chromium/cobalt/src/cobalt/dom/mutation_observer.idl'
p2311
ssS'HTMLDivElement'
p2312
(dp2313
g6
I00
sg7
S'cobalt/dom'
p2314
sg9
S'cobalt/dom/HTMLDivElement.h'
p2315
sg11
S'HTMLElement'
p2316
sg13
(dp2317
sg16
Nsg17
I00
sg18
I00
sg19
(lp2318
sg21
(lp2319
sg23
(lp2320
sg25
g26
((ltRp2321
sg28
Nsg29
I00
sg30
I00
sg31
S'/home/avakimov_am/chromium/cobalt/src/cobalt/dom/html_div_element.idl'
p2322
ssS'H5vcc'
p2323
(dp2324
g6
I00
sg7
S'cobalt/h5vcc'
p2325
sg9
S'cobalt/h5vcc/H5vcc.h'
p2326
sg11
Nsg13
(dp2327
sg16
Nsg17
I00
sg18
I00
sg19
(lp2328
sg21
(lp2329
sg23
(lp2330
sg25
g26
((ltRp2331
sg28
Nsg29
I00
sg30
I00
sg31
S'/home/avakimov_am/chromium/cobalt/src/cobalt/h5vcc/h5vcc.idl'
p2332
ssS'HTMLHtmlElement'
p2333
(dp2334
g6
I00
sg7
S'cobalt/dom'
p2335
sg9
S'cobalt/dom/HTMLHtmlElement.h'
p2336
sg11
S'HTMLElement'
p2337
sg13
(dp2338
sg16
Nsg17
I00
sg18
I00
sg19
(lp2339
sg21
(lp2340
sg23
(lp2341
sg25
g26
((ltRp2342
sg28
Nsg29
I00
sg30
I00
sg31
S'/home/avakimov_am/chromium/cobalt/src/cobalt/dom/html_html_element.idl'
p2343
ssS'WindowEventHandlers'
p2344
(dp2345
g6
I00
sg7
S'cobalt/dom'
p2346
sg9
S'cobalt/dom/WindowEventHandlers.h'
p2347
sg11
Nsg13
(dp2348
S'NoInterfaceObject'
p2349
Nssg16
Nsg17
I00
sg18
I01
sg19
(lp2350
sg21
(lp2351
sg23
(lp2352
sg25
g26
((ltRp2353
sg28
Nsg29
I00
sg30
I00
sg31
S'/home/avakimov_am/chromium/cobalt/src/cobalt/dom/window_event_handlers.idl'
p2354
ssS'HTMLStyleElement'
p2355
(dp2356
g6
I00
sg7
S'cobalt/dom'
p2357
sg9
S'cobalt/dom/HTMLStyleElement.h'
p2358
sg11
S'HTMLElement'
p2359
sg13
(dp2360
sg16
Nsg17
I00
sg18
I00
sg19
(lp2361
S'LinkStyle'
p2362
asg21
(lp2363
sg23
(lp2364
sg25
g26
((ltRp2365
sg28
Nsg29
I00
sg30
I00
sg31
S'/home/avakimov_am/chromium/cobalt/src/cobalt/dom/html_style_element.idl'
p2366
ssS'MediaKeySystemMediaCapability'
p2367
(dp2368
g6
I00
sg7
S'cobalt/dom/eme'
p2369
sg9
S'cobalt/dom/eme/MediaKeySystemMediaCapability.h'
p2370
sg11
Nsg13
(dp2371
sg16
Nsg17
I00
sg18
I01
sg19
(lp2372
sg21
(lp2373
sg23
Nsg25
g26
((ltRp2374
sg28
Nsg29
I01
sg30
I00
sg31
S'/home/avakimov_am/chromium/cobalt/src/cobalt/dom/eme/media_key_system_media_capability.idl'
p2375
ssS'GlobalCrypto'
p2376
(dp2377
g6
I00
sg7
S'cobalt/dom'
p2378
sg9
S'cobalt/dom/GlobalCrypto.h'
p2379
sg11
Nsg13
(dp2380
S'NoInterfaceObject'
p2381
Nssg16
Nsg17
I00
sg18
I01
sg19
(lp2382
sg21
(lp2383
S'Window'
p2384
asg23
(lp2385
sg25
g26
((ltRp2386
sg28
Nsg29
I00
sg30
I00
sg31
S'/home/avakimov_am/chromium/cobalt/src/cobalt/dom/global_crypto.idl'
p2387
ssS'DialHttpResponse'
p2388
(dp2389
g6
I00
sg7
S'cobalt/h5vcc/dial'
p2390
sg9
S'cobalt/h5vcc/dial/DialHttpResponse.h'
p2391
sg11
Nsg13
(dp2392
S'Conditional'
p2393
S'DIAL_SERVER'
p2394
ssg16
g2394
sg17
I00
sg18
I00
sg19
(lp2395
sg21
(lp2396
sg23
(lp2397
sg25
g26
((ltRp2398
sg28
Nsg29
I00
sg30
I00
sg31
S'/home/avakimov_am/chromium/cobalt/src/cobalt/h5vcc/dial/dial_http_response.idl'
p2399
ssS'MediaSource'
p2400
(dp2401
g6
I00
sg7
S'cobalt/dom'
p2402
sg9
S'cobalt/dom/MediaSource.h'
p2403
sg11
S'EventTarget'
p2404
sg13
(dp2405
g15
Nssg16
Nsg17
I00
sg18
I00
sg19
(lp2406
sg21
(lp2407
sg23
(lp2408
sg25
g26
((ltRp2409
sg28
Nsg29
I00
sg30
I00
sg31
S'/home/avakimov_am/chromium/cobalt/src/cobalt/dom/media_source.idl'
p2410
ssS'H5vccSettings'
p2411
(dp2412
g6
I00
sg7
S'cobalt/h5vcc'
p2413
sg9
S'cobalt/h5vcc/H5vccSettings.h'
p2414
sg11
Nsg13
(dp2415
sg16
Nsg17
I00
sg18
I00
sg19
(lp2416
sg21
(lp2417
sg23
(lp2418
sg25
g26
((ltRp2419
sg28
Nsg29
I00
sg30
I00
sg31
S'/home/avakimov_am/chromium/cobalt/src/cobalt/h5vcc/h5vcc_settings.idl'
p2420
ssS'Attr'
p2421
(dp2422
g6
I00
sg7
S'cobalt/dom'
p2423
sg9
S'cobalt/dom/Attr.h'
p2424
sg11
Nsg13
(dp2425
sg16
Nsg17
I00
sg18
I00
sg19
(lp2426
sg21
(lp2427
sg23
(lp2428
sg25
g26
((ltRp2429
sg28
Nsg29
I00
sg30
I00
sg31
S'/home/avakimov_am/chromium/cobalt/src/cobalt/dom/attr.idl'
p2430
ssS'HTMLImageElement'
p2431
(dp2432
g6
I00
sg7
S'cobalt/dom'
p2433
sg9
S'cobalt/dom/HTMLImageElement.h'
p2434
sg11
S'HTMLElement'
p2435
sg13
(dp2436
S'NamedConstructor'
p2437
S'Image'
p2438
sS'ConstructorCallWith'
p2439
S'EnvironmentSettings'
p2440
ssg16
Nsg17
I00
sg18
I00
sg19
(lp2441
sg21
(lp2442
sg23
(lp2443
sg25
g26
((ltRp2444
sg28
Nsg29
I00
sg30
I00
sg31
S'/home/avakimov_am/chromium/cobalt/src/cobalt/dom/html_image_element.idl'
p2445
ssS'H5vccRuntime'
p2446
(dp2447
g6
I00
sg7
S'cobalt/h5vcc'
p2448
sg9
S'cobalt/h5vcc/H5vccRuntime.h'
p2449
sg11
Nsg13
(dp2450
sg16
Nsg17
I00
sg18
I00
sg19
(lp2451
sg21
(lp2452
sg23
(lp2453
sg25
g26
((ltRp2454
sg28
Nsg29
I00
sg30
I00
sg31
S'/home/avakimov_am/chromium/cobalt/src/cobalt/h5vcc/h5vcc_runtime.idl'
p2455
ssS'StyleSheetList'
p2456
(dp2457
g6
I00
sg7
S'cobalt/cssom'
p2458
sg9
S'cobalt/cssom/StyleSheetList.h'
p2459
sg11
Nsg13
(dp2460
sg16
Nsg17
I00
sg18
I00
sg19
(lp2461
sg21
(lp2462
sg23
(lp2463
sg25
g26
((ltRp2464
sg28
Nsg29
I00
sg30
I00
sg31
S'/home/avakimov_am/chromium/cobalt/src/cobalt/cssom/style_sheet_list.idl'
p2465
ssS'Element'
p2466
(dp2467
g6
I00
sg7
S'cobalt/dom'
p2468
sg9
S'cobalt/dom/Element.h'
p2469
sg11
S'Node'
p2470
sg13
(dp2471
sg16
Nsg17
I00
sg18
I00
sg19
(lp2472
sg21
(lp2473
sg23
(lp2474
sg25
g26
((ltRp2475
sg28
Nsg29
I00
sg30
I00
sg31
S'/home/avakimov_am/chromium/cobalt/src/cobalt/dom/element.idl'
p2476
sg64
(dp2477
S'cobalt'
p2478
g26
((lp2479
S'cobalt/dom/ElementDOMParsingAndSerialization.h'
p2480
aS'cobalt/dom/ElementPointerEvents.h'
p2481
aS'cobalt/dom/ElementCSSomView.h'
p2482
atRp2483
sssS'EventTarget'
p2484
(dp2485
g6
I00
sg7
S'cobalt/dom'
p2486
sg9
S'cobalt/dom/EventTarget.h'
p2487
sg11
Nsg13
(dp2488
sg16
Nsg17
I00
sg18
I00
sg19
(lp2489
sg21
(lp2490
sg23
(lp2491
sg25
g26
((ltRp2492
sg28
Nsg29
I00
sg30
I00
sg31
S'/home/avakimov_am/chromium/cobalt/src/cobalt/dom/event_target.idl'
p2493
ssS'MediaError'
p2494
(dp2495
g6
I00
sg7
S'cobalt/dom'
p2496
sg9
S'cobalt/dom/MediaError.h'
p2497
sg11
Nsg13
(dp2498
sg16
Nsg17
I00
sg18
I00
sg19
(lp2499
sg21
(lp2500
sg23
(lp2501
sg25
g26
((ltRp2502
sg28
Nsg29
I00
sg30
I00
sg31
S'/home/avakimov_am/chromium/cobalt/src/cobalt/dom/media_error.idl'
p2503
ssS'NavigatorLanguage'
p2504
(dp2505
g6
I00
sg7
S'cobalt/dom'
p2506
sg9
S'cobalt/dom/NavigatorLanguage.h'
p2507
sg11
Nsg13
(dp2508
S'NoInterfaceObject'
p2509
Nssg16
Nsg17
I00
sg18
I01
sg19
(lp2510
sg21
(lp2511
sg23
(lp2512
sg25
g26
((ltRp2513
sg28
Nsg29
I00
sg30
I00
sg31
S'/home/avakimov_am/chromium/cobalt/src/cobalt/dom/navigator_language.idl'
p2514
ssS'MediaStreamConstraints'
p2515
(dp2516
g6
I00
sg7
S'cobalt/media_stream'
p2517
sg9
S'cobalt/media_stream/MediaStreamConstraints.h'
p2518
sg11
Nsg13
(dp2519
sg16
Nsg17
I00
sg18
I01
sg19
(lp2520
sg21
(lp2521
sg23
Nsg25
g26
((ltRp2522
sg28
Nsg29
I01
sg30
I00
sg31
S'/home/avakimov_am/chromium/cobalt/src/cobalt/media_stream/media_stream_constraints.idl'
p2523
ssS'ErrorEventInit'
p2524
(dp2525
g6
I00
sg7
S'cobalt/dom'
p2526
sg9
S'cobalt/dom/ErrorEventInit.h'
p2527
sg11
S'EventInit'
p2528
sg13
(dp2529
sg16
Nsg17
I00
sg18
I01
sg19
(lp2530
sg21
(lp2531
sg23
Nsg25
g26
((ltRp2532
sg28
Nsg29
I01
sg30
I00
sg31
S'/home/avakimov_am/chromium/cobalt/src/cobalt/dom/error_event_init.idl'
p2533
ssS'WindowSessionStorage'
p2534
(dp2535
g6
I00
sg7
S'cobalt/dom'
p2536
sg9
S'cobalt/dom/WindowSessionStorage.h'
p2537
sg11
Nsg13
(dp2538
S'NoInterfaceObject'
p2539
Nssg16
Nsg17
I00
sg18
I01
sg19
(lp2540
sg21
(lp2541
S'Window'
p2542
asg23
(lp2543
sg25
g26
((ltRp2544
sg28
Nsg29
I00
sg30
I00
sg31
S'/home/avakimov_am/chromium/cobalt/src/cobalt/dom/window_session_storage.idl'
p2545
ssS'TransitionEvent'
p2546
(dp2547
g6
I00
sg7
S'cobalt/dom'
p2548
sg9
S'cobalt/dom/TransitionEvent.h'
p2549
sg11
S'Event'
p2550
sg13
(dp2551
g15
Nssg16
Nsg17
I00
sg18
I00
sg19
(lp2552
sg21
(lp2553
sg23
(lp2554
sg25
g26
((ltRp2555
sg28
Nsg29
I00
sg30
I00
sg31
S'/home/avakimov_am/chromium/cobalt/src/cobalt/dom/transition_event.idl'
p2556
ssS'AudioContext'
p2557
(dp2558
g6
I00
sg7
S'cobalt/audio'
p2559
sg9
S'cobalt/audio/AudioContext.h'
p2560
sg11
S'EventTarget'
p2561
sg13
(dp2562
g15
NsS'ConstructorCallWith'
p2563
S'EnvironmentSettings'
p2564
ssg16
Nsg17
I00
sg18
I00
sg19
(lp2565
sg21
(lp2566
sg23
(lp2567
sg25
g26
((ltRp2568
sg28
Nsg29
I00
sg30
I00
sg31
S'/home/avakimov_am/chromium/cobalt/src/cobalt/audio/audio_context.idl'
p2569
ssS'AudioDestinationNode'
p2570
(dp2571
g6
I00
sg7
S'cobalt/audio'
p2572
sg9
S'cobalt/audio/AudioDestinationNode.h'
p2573
sg11
S'AudioNode'
p2574
sg13
(dp2575
sg16
Nsg17
I00
sg18
I00
sg19
(lp2576
sg21
(lp2577
sg23
(lp2578
sg25
g26
((ltRp2579
sg28
Nsg29
I00
sg30
I00
sg31
S'/home/avakimov_am/chromium/cobalt/src/cobalt/audio/audio_destination_node.idl'
p2580
ssS'SpeechRecognition'
p2581
(dp2582
g6
I00
sg7
S'cobalt/speech'
p2583
sg9
S'cobalt/speech/SpeechRecognition.h'
p2584
sg11
S'EventTarget'
p2585
sg13
(dp2586
g15
NsS'ConstructorCallWith'
p2587
S'EnvironmentSettings'
p2588
ssg16
Nsg17
I00
sg18
I00
sg19
(lp2589
sg21
(lp2590
sg23
(lp2591
sg25
g26
((ltRp2592
sg28
Nsg29
I00
sg30
I00
sg31
S'/home/avakimov_am/chromium/cobalt/src/cobalt/speech/speech_recognition.idl'
p2593
ssS'HTMLHeadingElement'
p2594
(dp2595
g6
I00
sg7
S'cobalt/dom'
p2596
sg9
S'cobalt/dom/HTMLHeadingElement.h'
p2597
sg11
S'HTMLElement'
p2598
sg13
(dp2599
sg16
Nsg17
I00
sg18
I00
sg19
(lp2600
sg21
(lp2601
sg23
(lp2602
sg25
g26
((ltRp2603
sg28
Nsg29
I00
sg30
I00
sg31
S'/home/avakimov_am/chromium/cobalt/src/cobalt/dom/html_heading_element.idl'
p2604
ssS'H5vccSso'
p2605
(dp2606
g6
I00
sg7
S'cobalt/h5vcc'
p2607
sg9
S'cobalt/h5vcc/H5vccSso.h'
p2608
sg11
Nsg13
(dp2609
S'Conditional'
p2610
S'COBALT_ENABLE_SSO'
p2611
ssg16
g2611
sg17
I00
sg18
I00
sg19
(lp2612
sg21
(lp2613
sg23
(lp2614
sg25
g26
((ltRp2615
sg28
Nsg29
I00
sg30
I00
sg31
S'/home/avakimov_am/chromium/cobalt/src/cobalt/h5vcc/h5vcc_sso.idl'
p2616
ssS'MediaRecorder'
p2617
(dp2618
g6
I00
sg7
S'cobalt/media_capture'
p2619
sg9
S'cobalt/media_capture/MediaRecorder.h'
p2620
sg11
S'EventTarget'
p2621
sg13
(dp2622
S'RaisesException'
p2623
S'Constructor'
p2624
sg15
NsS'ConstructorCallWith'
p2625
S'EnvironmentSettings'
p2626
ssg16
Nsg17
I00
sg18
I00
sg19
(lp2627
sg21
(lp2628
sg23
(lp2629
sg25
g26
((ltRp2630
sg28
Nsg29
I00
sg30
I00
sg31
S'/home/avakimov_am/chromium/cobalt/src/cobalt/media_capture/media_recorder.idl'
p2631
ssS'H5vccStorage'
p2632
(dp2633
g6
I00
sg7
S'cobalt/h5vcc'
p2634
sg9
S'cobalt/h5vcc/H5vccStorage.h'
p2635
sg11
Nsg13
(dp2636
sg16
Nsg17
I00
sg18
I00
sg19
(lp2637
sg21
(lp2638
sg23
(lp2639
sg25
g26
((ltRp2640
sg28
Nsg29
I00
sg30
I00
sg31
S'/home/avakimov_am/chromium/cobalt/src/cobalt/h5vcc/h5vcc_storage.idl'
p2641
ssS'URLUtils'
p2642
(dp2643
g6
I00
sg7
S'cobalt/dom'
p2644
sg9
S'cobalt/dom/URLUtils.h'
p2645
sg11
Nsg13
(dp2646
S'NoInterfaceObject'
p2647
Nssg16
Nsg17
I00
sg18
I01
sg19
(lp2648
sg21
(lp2649
sg23
(lp2650
sg25
g26
((ltRp2651
sg28
Nsg29
I00
sg30
I00
sg31
S'/home/avakimov_am/chromium/cobalt/src/cobalt/dom/url_utils.idl'
p2652
ssS'H5vccDeepLinkEventTarget'
p2653
(dp2654
g6
I00
sg7
S'cobalt/h5vcc'
p2655
sg9
S'cobalt/h5vcc/H5vccDeepLinkEventTarget.h'
p2656
sg11
Nsg13
(dp2657
sg16
Nsg17
I00
sg18
I00
sg19
(lp2658
sg21
(lp2659
sg23
(lp2660
sg25
g26
((ltRp2661
sg28
Nsg29
I00
sg30
I00
sg31
S'/home/avakimov_am/chromium/cobalt/src/cobalt/h5vcc/h5vcc_deep_link_event_target.idl'
p2662
ssS'AudioTrack'
p2663
(dp2664
g6
I00
sg7
S'cobalt/dom'
p2665
sg9
S'cobalt/dom/AudioTrack.h'
p2666
sg11
Nsg13
(dp2667
sg16
Nsg17
I00
sg18
I00
sg19
(lp2668
sg21
(lp2669
sg23
(lp2670
sg25
g26
((ltRp2671
sg28
Nsg29
I00
sg30
I00
sg31
S'/home/avakimov_am/chromium/cobalt/src/cobalt/dom/audio_track.idl'
p2672
ssS'CloseEvent'
p2673
(dp2674
g6
I00
sg7
S'cobalt/websocket'
p2675
sg9
S'cobalt/websocket/CloseEvent.h'
p2676
sg11
S'Event'
p2677
sg13
(dp2678
g15
Nssg16
Nsg17
I00
sg18
I00
sg19
(lp2679
sg21
(lp2680
sg23
(lp2681
sg25
g26
((ltRp2682
sg28
Nsg29
I00
sg30
I00
sg31
S'/home/avakimov_am/chromium/cobalt/src/cobalt/websocket/close_event.idl'
p2683
ssS'SourceBufferList'
p2684
(dp2685
g6
I00
sg7
S'cobalt/dom'
p2686
sg9
S'cobalt/dom/SourceBufferList.h'
p2687
sg11
S'EventTarget'
p2688
sg13
(dp2689
sg16
Nsg17
I00
sg18
I00
sg19
(lp2690
sg21
(lp2691
sg23
(lp2692
sg25
g26
((ltRp2693
sg28
Nsg29
I00
sg30
I00
sg31
S'/home/avakimov_am/chromium/cobalt/src/cobalt/dom/source_buffer_list.idl'
p2694
ssS'NavigatorLicenses'
p2695
(dp2696
g6
I00
sg7
S'cobalt/dom'
p2697
sg9
S'cobalt/dom/NavigatorLicenses.h'
p2698
sg11
Nsg13
(dp2699
S'NoInterfaceObject'
p2700
Nssg16
Nsg17
I00
sg18
I01
sg19
(lp2701
sg21
(lp2702
sg23
(lp2703
sg25
g26
((ltRp2704
sg28
Nsg29
I00
sg30
I00
sg31
S'/home/avakimov_am/chromium/cobalt/src/cobalt/dom/navigator_licenses.idl'
p2705
ssS'OnScreenKeyboard'
p2706
(dp2707
g6
I00
sg7
S'cobalt/dom'
p2708
sg9
S'cobalt/dom/OnScreenKeyboard.h'
p2709
sg11
S'EventTarget'
p2710
sg13
(dp2711
S'Conditional'
p2712
S'COBALT_ENABLE_ON_SCREEN_KEYBOARD'
p2713
ssg16
g2713
sg17
I00
sg18
I00
sg19
(lp2714
sg21
(lp2715
sg23
(lp2716
sg25
g26
((ltRp2717
sg28
Nsg29
I00
sg30
I00
sg31
S'/home/avakimov_am/chromium/cobalt/src/cobalt/dom/on_screen_keyboard.idl'
p2718
ssS'AnimationTimeline'
p2719
(dp2720
g6
I00
sg7
S'cobalt/web_animations'
p2721
sg9
S'cobalt/web_animations/AnimationTimeline.h'
p2722
sg11
Nsg13
(dp2723
sg16
Nsg17
I00
sg18
I00
sg19
(lp2724
sg21
(lp2725
sg23
(lp2726
sg25
g26
((ltRp2727
sg28
Nsg29
I00
sg30
I00
sg31
S'/home/avakimov_am/chromium/cobalt/src/cobalt/web_animations/animation_timeline.idl'
p2728
ssS'MediaKeys'
p2729
(dp2730
g6
I00
sg7
S'cobalt/dom/eme'
p2731
sg9
S'cobalt/dom/eme/MediaKeys.h'
p2732
sg11
Nsg13
(dp2733
sg16
Nsg17
I00
sg18
I00
sg19
(lp2734
sg21
(lp2735
sg23
(lp2736
sg25
g26
((ltRp2737
sg28
Nsg29
I00
sg30
I00
sg31
S'/home/avakimov_am/chromium/cobalt/src/cobalt/dom/eme/media_keys.idl'
p2738
ssS'Navigator'
p2739
(dp2740
g6
I00
sg7
S'cobalt/dom'
p2741
sg9
S'cobalt/dom/Navigator.h'
p2742
sg11
Nsg13
(dp2743
sg16
Nsg17
I00
sg18
I00
sg19
(lp2744
S'NavigatorID'
p2745
aS'NavigatorLanguage'
p2746
aS'NavigatorPlugins'
p2747
aS'NavigatorStorageUtils'
p2748
aS'NavigatorMediaSession'
p2749
aS'NavigatorSystemCaptionSettings'
p2750
aS'NavigatorLicenses'
p2751
asg64
(dp2752
S'cobalt'
p2753
g26
((lp2754
S'cobalt/dom/eme/Navigator.h'
p2755
aS'cobalt/media_capture/Navigator.h'
p2756
atRp2757
ssg23
(lp2758
sg25
g26
((ltRp2759
sg28
Nsg21
(lp2760
sg30
I00
sg29
I00
sg31
S'/home/avakimov_am/chromium/cobalt/src/cobalt/dom/navigator.idl'
p2761
ssS'AudioNode'
p2762
(dp2763
g6
I00
sg7
S'cobalt/audio'
p2764
sg9
S'cobalt/audio/AudioNode.h'
p2765
sg11
S'EventTarget'
p2766
sg13
(dp2767
sg16
Nsg17
I00
sg18
I00
sg19
(lp2768
sg21
(lp2769
sg23
(lp2770
sg25
g26
((ltRp2771
sg28
Nsg29
I00
sg30
I00
sg31
S'/home/avakimov_am/chromium/cobalt/src/cobalt/audio/audio_node.idl'
p2772
ssS'SpeechRecognitionAlternative'
p2773
(dp2774
g6
I00
sg7
S'cobalt/speech'
p2775
sg9
S'cobalt/speech/SpeechRecognitionAlternative.h'
p2776
sg11
Nsg13
(dp2777
sg16
Nsg17
I00
sg18
I00
sg19
(lp2778
sg21
(lp2779
sg23
(lp2780
sg25
g26
((ltRp2781
sg28
Nsg29
I00
sg30
I00
sg31
S'/home/avakimov_am/chromium/cobalt/src/cobalt/speech/speech_recognition_alternative.idl'
p2782
ssS'H5vccAudioConfig'
p2783
(dp2784
g6
I00
sg7
S'cobalt/h5vcc'
p2785
sg9
S'cobalt/h5vcc/H5vccAudioConfig.h'
p2786
sg11
Nsg13
(dp2787
sg16
Nsg17
I00
sg18
I00
sg19
(lp2788
sg21
(lp2789
sg23
(lp2790
sg25
g26
((ltRp2791
sg28
Nsg29
I00
sg30
I00
sg31
S'/home/avakimov_am/chromium/cobalt/src/cobalt/h5vcc/h5vcc_audio_config.idl'
p2792
sssS'partial_interface_files'
p2793
(dp2794
g57
(dp2795
S'include_paths'
p2796
(lp2797
g68
asS'full_paths'
p2798
(lp2799
S'/home/avakimov_am/chromium/cobalt/src/cobalt/dom/eme/html_media_element.idl'
p2800
assS'URL'
p2801
(dp2802
g2796
(lp2803
g410
asg2798
(lp2804
S'/home/avakimov_am/chromium/cobalt/src/cobalt/dom/url_mse.idl'
p2805
assS'MouseEvent'
p2806
(dp2807
g2796
(lp2808
g2264
asg2798
(lp2809
S'/home/avakimov_am/chromium/cobalt/src/cobalt/dom/mouse_event_cssom_view.idl'
p2810
assS'Element'
p2811
(dp2812
g2796
(lp2813
g2482
ag2480
ag2481
asg2798
(lp2814
S'/home/avakimov_am/chromium/cobalt/src/cobalt/dom/element_cssom_view.idl'
p2815
aS'/home/avakimov_am/chromium/cobalt/src/cobalt/dom/element_dom_parsing_and_serialization.idl'
p2816
aS'/home/avakimov_am/chromium/cobalt/src/cobalt/dom/element_pointer_events.idl'
p2817
assS'Window'
p2818
(dp2819
g2796
(lp2820
g2067
ag2071
ag2068
ag2069
ag2070
ag2063
asg2798
(lp2821
S'/home/avakimov_am/chromium/cobalt/src/cobalt/dom/window__animation_timing.idl'
p2822
aS'/home/avakimov_am/chromium/cobalt/src/cobalt/dom/window__performance.idl'
p2823
aS'/home/avakimov_am/chromium/cobalt/src/cobalt/dom/window_cssom.idl'
p2824
aS'/home/avakimov_am/chromium/cobalt/src/cobalt/dom/window_cssom_view.idl'
p2825
aS'/home/avakimov_am/chromium/cobalt/src/cobalt/dom/window_on_screen_keyboard.idl'
p2826
aS'/home/avakimov_am/chromium/cobalt/src/out/linux-x64x11_devel/gen/bindings/browser/idl/dom/window_constructors.idl'
p2827
assS'HTMLElement'
p2828
(dp2829
g2796
(lp2830
g1682
asg2798
(lp2831
S'/home/avakimov_am/chromium/cobalt/src/cobalt/dom/html_element_cssom_view.idl'
p2832
assS'Performance'
p2833
(dp2834
g2796
(lp2835
g803
asg2798
(lp2836
S'/home/avakimov_am/chromium/cobalt/src/cobalt/dom/performance__high_resolution_time.idl'
p2837
assg2739
(dp2838
g2796
(lp2839
g2755
ag2756
asg2798
(lp2840
S'/home/avakimov_am/chromium/cobalt/src/cobalt/dom/eme/navigator.idl'
p2841
aS'/home/avakimov_am/chromium/cobalt/src/cobalt/media_capture/navigator.idl'
p2842
assS'Document'
p2843
(dp2844
g2796
(lp2845
g194
ag193
ag197
ag196
ag195
asg2798
(lp2846
S'/home/avakimov_am/chromium/cobalt/src/cobalt/dom/document__web_animations_api.idl'
p2847
aS'/home/avakimov_am/chromium/cobalt/src/cobalt/dom/document_cobalt.idl'
p2848
aS'/home/avakimov_am/chromium/cobalt/src/cobalt/dom/document_cssom.idl'
p2849
aS'/home/avakimov_am/chromium/cobalt/src/cobalt/dom/document_html5.idl'
p2850
aS'/home/avakimov_am/chromium/cobalt/src/cobalt/page_visibility/document.idl'
p2851
asssS'partial_interface_referenced_interfaces'
p2852
(dp2853
g57
g26
((ltRp2854
sg2801
g26
((ltRp2855
sg2806
g26
((ltRp2856
sg2811
g26
((ltRp2857
sg2818
g26
((ltRp2858
sg2828
g26
((ltRp2859
sg2833
g26
((ltRp2860
sg2739
g26
((ltRp2861
sg2843
g26
((lp2862
g174
atRp2863
ss.