ccopy_reg
_reconstructor
p1
(cmojom.parse.ast
Mojom
p2
c__builtin__
object
p3
NtRp4
(dp5
S'import_list'
p6
g1
(cmojom.parse.ast
ImportList
p7
g3
NtRp8
(dp9
S'items'
p10
(lp11
g1
(cmojom.parse.ast
Import
p12
g3
NtRp13
(dp14
S'attribute_list'
p15
NsS'lineno'
p16
I7
sS'import_filename'
p17
S'components/services/filesystem/public/interfaces/directory.mojom'
p18
sS'filename'
p19
S'../../components/services/leveldb/public/interfaces/leveldb.mojom'
p20
sbag1
(g12
g3
NtRp21
(dp22
g15
Nsg16
I8
sg17
S'mojo/public/mojom/base/memory_allocator_dump_cross_process_uid.mojom'
p23
sg19
g20
sbag1
(g12
g3
NtRp24
(dp25
g15
Nsg16
I9
sg17
S'mojo/public/mojom/base/unguessable_token.mojom'
p26
sg19
g20
sbasg16
I7
sg19
g20
sbsS'definition_list'
p27
(lp28
g1
(cmojom.parse.ast
Enum
p29
g3
NtRp30
(dp31
g15
NsS'enum_value_list'
p32
g1
(cmojom.parse.ast
EnumValueList
p33
g3
NtRp34
(dp35
g10
(lp36
g1
(cmojom.parse.ast
EnumValue
p37
g3
NtRp38
(dp39
g15
NsS'value'
p40
Nsg16
I12
sS'mojom_name'
p41
S'OK'
p42
sg19
g20
sbag1
(g37
g3
NtRp43
(dp44
g15
Nsg40
Nsg16
I13
sg41
S'NOT_FOUND'
p45
sg19
g20
sbag1
(g37
g3
NtRp46
(dp47
g15
Nsg40
Nsg16
I14
sg41
S'CORRUPTION'
p48
sg19
g20
sbag1
(g37
g3
NtRp49
(dp50
g15
Nsg40
Nsg16
I15
sg41
S'NOT_SUPPORTED'
p51
sg19
g20
sbag1
(g37
g3
NtRp52
(dp53
g15
Nsg40
Nsg16
I16
sg41
S'INVALID_ARGUMENT'
p54
sg19
g20
sbag1
(g37
g3
NtRp55
(dp56
g15
Nsg40
Nsg16
I17
sg41
S'IO_ERROR'
p57
sg19
g20
sbasg16
I12
sg19
g20
sbsg16
I11
sg41
S'DatabaseError'
p58
sg19
g20
sbag1
(g29
g3
NtRp59
(dp60
g15
Nsg32
g1
(g33
g3
NtRp61
(dp62
g10
(lp63
g1
(g37
g3
NtRp64
(dp65
g15
Nsg40
Nsg16
I21
sg41
S'PUT_KEY'
p66
sg19
g20
sbag1
(g37
g3
NtRp67
(dp68
g15
Nsg40
Nsg16
I22
sg41
S'DELETE_KEY'
p69
sg19
g20
sbag1
(g37
g3
NtRp70
(dp71
g15
Nsg40
Nsg16
I23
sg41
S'DELETE_PREFIXED_KEY'
p72
sg19
g20
sbag1
(g37
g3
NtRp73
(dp74
g15
Nsg40
Nsg16
I25
sg41
S'COPY_PREFIXED_KEY'
p75
sg19
g20
sbasg16
I21
sg19
g20
sbsg16
I20
sg41
S'BatchOperationType'
p76
sg19
g20
sbag1
(cmojom.parse.ast
Struct
p77
g3
NtRp78
(dp79
S'body'
p80
g1
(cmojom.parse.ast
StructBody
p81
g3
NtRp82
(dp83
g10
(lp84
g1
(cmojom.parse.ast
StructField
p85
g3
NtRp86
(dp87
S'ordinal'
p88
NsS'default_value'
p89
Nsg41
S'type'
p90
sg15
Nsg19
NsS'typename'
p91
S'BatchOperationType'
p92
sg16
Nsbag1
(g85
g3
NtRp93
(dp94
g88
Nsg89
Nsg41
S'key'
p95
sg15
Nsg19
Nsg91
S'uint8[]'
p96
sg16
Nsbag1
(g85
g3
NtRp97
(dp98
g88
Nsg89
Nsg41
S'value'
p99
sg15
Nsg19
Nsg91
S'uint8[]?'
p100
sg16
Nsbasg16
Nsg19
Nsbsg15
Nsg16
Nsg41
S'BatchedOperation'
p101
sg19
Nsbag1
(g77
g3
NtRp102
(dp103
g80
g1
(g81
g3
NtRp104
(dp105
g10
(lp106
g1
(g85
g3
NtRp107
(dp108
g88
Nsg89
Nsg41
S'key'
p109
sg15
Nsg19
Nsg91
S'uint8[]'
p110
sg16
Nsbag1
(g85
g3
NtRp111
(dp112
g88
Nsg89
Nsg41
S'value'
p113
sg15
Nsg19
Nsg91
S'uint8[]'
p114
sg16
Nsbasg16
Nsg19
Nsbsg15
Nsg16
Nsg41
S'KeyValue'
p115
sg19
Nsbag1
(g29
g3
NtRp116
(dp117
g15
Nsg32
g1
(g33
g3
NtRp118
(dp119
g10
(lp120
g1
(g37
g3
NtRp121
(dp122
g15
Nsg40
Nsg16
I42
sg41
S'Default'
p123
sg19
g20
sbag1
(g37
g3
NtRp124
(dp125
g15
Nsg40
Nsg16
I43
sg41
S'Web'
p126
sg19
g20
sbasg16
I42
sg19
g20
sbsg16
I41
sg41
S'SharedReadCache'
p127
sg19
g20
sbag1
(g77
g3
NtRp128
(dp129
g80
g1
(g81
g3
NtRp130
(dp131
g10
(lp132
g1
(g85
g3
NtRp133
(dp134
g88
Nsg89
Nsg41
S'create_if_missing'
p135
sg15
Nsg19
Nsg91
S'bool'
p136
sg16
Nsbag1
(g85
g3
NtRp137
(dp138
g88
Nsg89
Nsg41
S'error_if_exists'
p139
sg15
Nsg19
Nsg91
S'bool'
p140
sg16
Nsbag1
(g85
g3
NtRp141
(dp142
g88
Nsg89
Nsg41
S'paranoid_checks'
p143
sg15
Nsg19
Nsg91
S'bool'
p144
sg16
Nsbag1
(g85
g3
NtRp145
(dp146
g88
Nsg89
Nsg41
S'write_buffer_size'
p147
sg15
Nsg19
Nsg91
S'uint64'
p148
sg16
Nsbag1
(g85
g3
NtRp149
(dp150
g88
Nsg89
Nsg41
S'max_open_files'
p151
sg15
Nsg19
Nsg91
S'int32'
p152
sg16
Nsbag1
(g85
g3
NtRp153
(dp154
g88
Nsg89
(S'IDENTIFIER'
p155
S'SharedReadCache.Default'
tp156
sg41
S'shared_block_read_cache'
p157
sg15
Nsg19
Nsg91
S'SharedReadCache'
p158
sg16
Nsbasg16
Nsg19
Nsbsg15
Nsg16
Nsg41
S'OpenOptions'
p159
sg19
Nsbag1
(cmojom.parse.ast
Interface
p160
g3
NtRp161
(dp162
g80
g1
(cmojom.parse.ast
InterfaceBody
p163
g3
NtRp164
(dp165
g10
(lp166
g1
(cmojom.parse.ast
Method
p167
g3
NtRp168
(dp169
g88
Nsg41
S'Open'
p170
sS'parameter_list'
p171
g1
(cmojom.parse.ast
ParameterList
p172
g3
NtRp173
(dp174
g10
(lp175
g1
(cmojom.parse.ast
Parameter
p176
g3
NtRp177
(dp178
g88
Nsg41
S'directory'
p179
sg15
Nsg19
g20
sg91
S'filesystem.mojom.Directory'
p180
sg16
I80
sbag1
(g176
g3
NtRp181
(dp182
g88
Nsg41
S'dbname'
p183
sg15
Nsg19
g20
sg91
S'string'
p184
sg16
I81
sbag1
(g176
g3
NtRp185
(dp186
g88
Nsg41
S'memory_dump_id'
p187
sg15
Nsg19
g20
sg91
S'mojo_base.mojom.MemoryAllocatorDumpCrossProcessUid?'
p188
sg16
I82
sbag1
(g176
g3
NtRp189
(dp190
g88
Nsg41
S'database'
p191
sg15
Nsg19
g20
sg91
S'asso<LevelDBDatabase&>'
p192
sg16
I83
sbasg16
I80
sg19
g20
sbsg15
Nsg19
Nsg16
NsS'response_parameter_list'
p193
g1
(g172
g3
NtRp194
(dp195
g10
(lp196
g1
(g176
g3
NtRp197
(dp198
g88
Nsg41
S'status'
p199
sg15
Nsg19
g20
sg91
S'DatabaseError'
p200
sg16
I83
sbasg16
I83
sg19
g20
sbsbag1
(g167
g3
NtRp201
(dp202
g88
Nsg41
S'OpenWithOptions'
p203
sg171
g1
(g172
g3
NtRp204
(dp205
g10
(lp206
g1
(g176
g3
NtRp207
(dp208
g88
Nsg41
S'options'
p209
sg15
Nsg19
g20
sg91
S'OpenOptions'
p210
sg16
I86
sbag1
(g176
g3
NtRp211
(dp212
g88
Nsg41
S'directory'
p213
sg15
Nsg19
g20
sg91
S'filesystem.mojom.Directory'
p214
sg16
I87
sbag1
(g176
g3
NtRp215
(dp216
g88
Nsg41
S'dbname'
p217
sg15
Nsg19
g20
sg91
S'string'
p218
sg16
I88
sbag1
(g176
g3
NtRp219
(dp220
g88
Nsg41
S'memory_dump_id'
p221
sg15
Nsg19
g20
sg91
S'mojo_base.mojom.MemoryAllocatorDumpCrossProcessUid?'
p222
sg16
I90
sbag1
(g176
g3
NtRp223
(dp224
g88
Nsg41
S'database'
p225
sg15
Nsg19
g20
sg91
S'asso<LevelDBDatabase&>'
p226
sg16
I91
sbasg16
I86
sg19
g20
sbsg15
Nsg19
Nsg16
Nsg193
g1
(g172
g3
NtRp227
(dp228
g10
(lp229
g1
(g176
g3
NtRp230
(dp231
g88
Nsg41
S'status'
p232
sg15
Nsg19
g20
sg91
S'DatabaseError'
p233
sg16
I91
sbasg16
I91
sg19
g20
sbsbag1
(g167
g3
NtRp234
(dp235
g88
Nsg41
S'OpenInMemory'
p236
sg171
g1
(g172
g3
NtRp237
(dp238
g10
(lp239
g1
(g176
g3
NtRp240
(dp241
g88
Nsg41
S'memory_dump_id'
p242
sg15
Nsg19
g20
sg91
S'mojo_base.mojom.MemoryAllocatorDumpCrossProcessUid?'
p243
sg16
I97
sbag1
(g176
g3
NtRp244
(dp245
g88
Nsg41
S'tracking_name'
p246
sg15
Nsg19
g20
sg91
S'string'
p247
sg16
I97
sbag1
(g176
g3
NtRp248
(dp249
g88
Nsg41
S'database'
p250
sg15
Nsg19
g20
sg91
S'asso<LevelDBDatabase&>'
p251
sg16
I98
sbasg16
I97
sg19
g20
sbsg15
Nsg19
Nsg16
Nsg193
g1
(g172
g3
NtRp252
(dp253
g10
(lp254
g1
(g176
g3
NtRp255
(dp256
g88
Nsg41
S'status'
p257
sg15
Nsg19
g20
sg91
S'DatabaseError'
p258
sg16
I98
sbasg16
I98
sg19
g20
sbsbag1
(g167
g3
NtRp259
(dp260
g88
Nsg41
S'Destroy'
p261
sg171
g1
(g172
g3
NtRp262
(dp263
g10
(lp264
g1
(g176
g3
NtRp265
(dp266
g88
Nsg41
S'directory'
p267
sg15
Nsg19
g20
sg91
S'filesystem.mojom.Directory'
p268
sg16
I102
sbag1
(g176
g3
NtRp269
(dp270
g88
Nsg41
S'dbname'
p271
sg15
Nsg19
g20
sg91
S'string'
p272
sg16
I103
sbasg16
I102
sg19
g20
sbsg15
Nsg19
Nsg16
Nsg193
g1
(g172
g3
NtRp273
(dp274
g10
(lp275
g1
(g176
g3
NtRp276
(dp277
g88
Nsg41
S'status'
p278
sg15
Nsg19
g20
sg91
S'DatabaseError'
p279
sg16
I103
sbasg16
I103
sg19
g20
sbsbasg16
Nsg19
Nsbsg15
Nsg16
Nsg41
S'LevelDBService'
p280
sg19
Nsbag1
(g160
g3
NtRp281
(dp282
g80
g1
(g163
g3
NtRp283
(dp284
g10
(lp285
g1
(g167
g3
NtRp286
(dp287
g88
Nsg41
S'Put'
p288
sg171
g1
(g172
g3
NtRp289
(dp290
g10
(lp291
g1
(g176
g3
NtRp292
(dp293
g88
Nsg41
S'key'
p294
sg15
Nsg19
g20
sg91
S'uint8[]'
p295
sg16
I111
sbag1
(g176
g3
NtRp296
(dp297
g88
Nsg41
S'value'
p298
sg15
Nsg19
g20
sg91
S'uint8[]'
p299
sg16
I111
sbasg16
I111
sg19
g20
sbsg15
Nsg19
Nsg16
Nsg193
g1
(g172
g3
NtRp300
(dp301
g10
(lp302
g1
(g176
g3
NtRp303
(dp304
g88
Nsg41
S'status'
p305
sg15
Nsg19
g20
sg91
S'DatabaseError'
p306
sg16
I111
sbasg16
I111
sg19
g20
sbsbag1
(g167
g3
NtRp307
(dp308
g88
Nsg41
S'Delete'
p309
sg171
g1
(g172
g3
NtRp310
(dp311
g10
(lp312
g1
(g176
g3
NtRp313
(dp314
g88
Nsg41
S'key'
p315
sg15
Nsg19
g20
sg91
S'uint8[]'
p316
sg16
I116
sbasg16
I116
sg19
g20
sbsg15
Nsg19
Nsg16
Nsg193
g1
(g172
g3
NtRp317
(dp318
g10
(lp319
g1
(g176
g3
NtRp320
(dp321
g88
Nsg41
S'status'
p322
sg15
Nsg19
g20
sg91
S'DatabaseError'
p323
sg16
I116
sbasg16
I116
sg19
g20
sbsbag1
(g167
g3
NtRp324
(dp325
g88
Nsg41
S'DeletePrefixed'
p326
sg171
g1
(g172
g3
NtRp327
(dp328
g10
(lp329
g1
(g176
g3
NtRp330
(dp331
g88
Nsg41
S'key_prefix'
p332
sg15
Nsg19
g20
sg91
S'uint8[]'
p333
sg16
I118
sbasg16
I118
sg19
g20
sbsg15
Nsg19
Nsg16
Nsg193
g1
(g172
g3
NtRp334
(dp335
g10
(lp336
g1
(g176
g3
NtRp337
(dp338
g88
Nsg41
S'status'
p339
sg15
Nsg19
g20
sg91
S'DatabaseError'
p340
sg16
I118
sbasg16
I118
sg19
g20
sbsbag1
(g167
g3
NtRp341
(dp342
g88
Nsg41
S'RewriteDB'
p343
sg171
g1
(g172
g3
NtRp344
(dp345
g10
(lp346
sg16
Nsg19
Nsbsg15
Nsg19
Nsg16
Nsg193
g1
(g172
g3
NtRp347
(dp348
g10
(lp349
g1
(g176
g3
NtRp350
(dp351
g88
Nsg41
S'status'
p352
sg15
Nsg19
g20
sg91
S'DatabaseError'
p353
sg16
I124
sbasg16
I124
sg19
g20
sbsbag1
(g167
g3
NtRp354
(dp355
g88
Nsg41
S'Write'
p356
sg171
g1
(g172
g3
NtRp357
(dp358
g10
(lp359
g1
(g176
g3
NtRp360
(dp361
g88
Nsg41
S'operations'
p362
sg15
Nsg19
g20
sg91
S'BatchedOperation[]'
p363
sg16
I133
sbasg16
I133
sg19
g20
sbsg15
Nsg19
Nsg16
Nsg193
g1
(g172
g3
NtRp364
(dp365
g10
(lp366
g1
(g176
g3
NtRp367
(dp368
g88
Nsg41
S'status'
p369
sg15
Nsg19
g20
sg91
S'DatabaseError'
p370
sg16
I133
sbasg16
I133
sg19
g20
sbsbag1
(g167
g3
NtRp371
(dp372
g88
Nsg41
S'Get'
p373
sg171
g1
(g172
g3
NtRp374
(dp375
g10
(lp376
g1
(g176
g3
NtRp377
(dp378
g88
Nsg41
S'key'
p379
sg15
Nsg19
g20
sg91
S'uint8[]'
p380
sg16
I135
sbasg16
I135
sg19
g20
sbsg15
Nsg19
Nsg16
Nsg193
g1
(g172
g3
NtRp381
(dp382
g10
(lp383
g1
(g176
g3
NtRp384
(dp385
g88
Nsg41
S'status'
p386
sg15
Nsg19
g20
sg91
S'DatabaseError'
p387
sg16
I135
sbag1
(g176
g3
NtRp388
(dp389
g88
Nsg41
S'value'
p390
sg15
Nsg19
g20
sg91
S'uint8[]'
p391
sg16
I135
sbasg16
I135
sg19
g20
sbsbag1
(g167
g3
NtRp392
(dp393
g88
Nsg41
S'GetPrefixed'
p394
sg171
g1
(g172
g3
NtRp395
(dp396
g10
(lp397
g1
(g176
g3
NtRp398
(dp399
g88
Nsg41
S'key_prefix'
p400
sg15
Nsg19
g20
sg91
S'uint8[]'
p401
sg16
I137
sbasg16
I137
sg19
g20
sbsg15
Nsg19
Nsg16
Nsg193
g1
(g172
g3
NtRp402
(dp403
g10
(lp404
g1
(g176
g3
NtRp405
(dp406
g88
Nsg41
S'status'
p407
sg15
Nsg19
g20
sg91
S'DatabaseError'
p408
sg16
I138
sbag1
(g176
g3
NtRp409
(dp410
g88
Nsg41
S'data'
p411
sg15
Nsg19
g20
sg91
S'KeyValue[]'
p412
sg16
I138
sbasg16
I138
sg19
g20
sbsbag1
(g167
g3
NtRp413
(dp414
g88
Nsg41
S'CopyPrefixed'
p415
sg171
g1
(g172
g3
NtRp416
(dp417
g10
(lp418
g1
(g176
g3
NtRp419
(dp420
g88
Nsg41
S'source_key_prefix'
p421
sg15
Nsg19
g20
sg91
S'uint8[]'
p422
sg16
I142
sbag1
(g176
g3
NtRp423
(dp424
g88
Nsg41
S'destination_key_prefix'
p425
sg15
Nsg19
g20
sg91
S'uint8[]'
p426
sg16
I143
sbasg16
I142
sg19
g20
sbsg15
Nsg19
Nsg16
Nsg193
g1
(g172
g3
NtRp427
(dp428
g10
(lp429
g1
(g176
g3
NtRp430
(dp431
g88
Nsg41
S'status'
p432
sg15
Nsg19
g20
sg91
S'DatabaseError'
p433
sg16
I144
sbasg16
I144
sg19
g20
sbsbag1
(g167
g3
NtRp434
(dp435
g88
Nsg41
S'GetSnapshot'
p436
sg171
g1
(g172
g3
NtRp437
(dp438
g10
(lp439
sg16
Nsg19
Nsbsg15
Nsg19
Nsg16
Nsg193
g1
(g172
g3
NtRp440
(dp441
g10
(lp442
g1
(g176
g3
NtRp443
(dp444
g88
Nsg41
S'snapshot'
p445
sg15
Nsg19
g20
sg91
S'mojo_base.mojom.UnguessableToken'
p446
sg16
I149
sbasg16
I149
sg19
g20
sbsbag1
(g167
g3
NtRp447
(dp448
g88
Nsg41
S'ReleaseSnapshot'
p449
sg171
g1
(g172
g3
NtRp450
(dp451
g10
(lp452
g1
(g176
g3
NtRp453
(dp454
g88
Nsg41
S'snapshot'
p455
sg15
Nsg19
g20
sg91
S'mojo_base.mojom.UnguessableToken'
p456
sg16
I152
sbasg16
I152
sg19
g20
sbsg15
Nsg19
Nsg16
Nsg193
Nsbag1
(g167
g3
NtRp457
(dp458
g88
Nsg41
S'GetFromSnapshot'
p459
sg171
g1
(g172
g3
NtRp460
(dp461
g10
(lp462
g1
(g176
g3
NtRp463
(dp464
g88
Nsg41
S'snapshot'
p465
sg15
Nsg19
g20
sg91
S'mojo_base.mojom.UnguessableToken'
p466
sg16
I156
sbag1
(g176
g3
NtRp467
(dp468
g88
Nsg41
S'key'
p469
sg15
Nsg19
g20
sg91
S'uint8[]'
p470
sg16
I157
sbasg16
I156
sg19
g20
sbsg15
Nsg19
Nsg16
Nsg193
g1
(g172
g3
NtRp471
(dp472
g10
(lp473
g1
(g176
g3
NtRp474
(dp475
g88
Nsg41
S'status'
p476
sg15
Nsg19
g20
sg91
S'DatabaseError'
p477
sg16
I158
sbag1
(g176
g3
NtRp478
(dp479
g88
Nsg41
S'value'
p480
sg15
Nsg19
g20
sg91
S'uint8[]'
p481
sg16
I158
sbasg16
I158
sg19
g20
sbsbag1
(g167
g3
NtRp482
(dp483
g88
Nsg41
S'NewIterator'
p484
sg171
g1
(g172
g3
NtRp485
(dp486
g10
(lp487
sg16
Nsg19
Nsbsg15
Nsg19
Nsg16
Nsg193
g1
(g172
g3
NtRp488
(dp489
g10
(lp490
g1
(g176
g3
NtRp491
(dp492
g88
Nsg41
S'iterator'
p493
sg15
Nsg19
g20
sg91
S'mojo_base.mojom.UnguessableToken'
p494
sg16
I163
sbasg16
I163
sg19
g20
sbsbag1
(g167
g3
NtRp495
(dp496
g88
Nsg41
S'NewIteratorFromSnapshot'
p497
sg171
g1
(g172
g3
NtRp498
(dp499
g10
(lp500
g1
(g176
g3
NtRp501
(dp502
g88
Nsg41
S'snapshot'
p503
sg15
Nsg19
g20
sg91
S'mojo_base.mojom.UnguessableToken'
p504
sg16
I164
sbasg16
I164
sg19
g20
sbsg15
Nsg19
Nsg16
Nsg193
g1
(g172
g3
NtRp505
(dp506
g10
(lp507
g1
(g176
g3
NtRp508
(dp509
g88
Nsg41
S'iterator'
p510
sg15
Nsg19
g20
sg91
S'mojo_base.mojom.UnguessableToken?'
p511
sg16
I165
sbasg16
I165
sg19
g20
sbsbag1
(g167
g3
NtRp512
(dp513
g88
Nsg41
S'ReleaseIterator'
p514
sg171
g1
(g172
g3
NtRp515
(dp516
g10
(lp517
g1
(g176
g3
NtRp518
(dp519
g88
Nsg41
S'iterator'
p520
sg15
Nsg19
g20
sg91
S'mojo_base.mojom.UnguessableToken'
p521
sg16
I167
sbasg16
I167
sg19
g20
sbsg15
Nsg19
Nsg16
Nsg193
Nsbag1
(g167
g3
NtRp522
(dp523
g88
Nsg41
S'IteratorSeekToFirst'
p524
sg171
g1
(g172
g3
NtRp525
(dp526
g10
(lp527
g1
(g176
g3
NtRp528
(dp529
g88
Nsg41
S'iterator'
p530
sg15
Nsg19
g20
sg91
S'mojo_base.mojom.UnguessableToken'
p531
sg16
I172
sbasg16
I172
sg19
g20
sbsg15
g1
(cmojom.parse.ast
AttributeList
p532
g3
NtRp533
(dp534
g10
(lp535
g1
(cmojom.parse.ast
Attribute
p536
g3
NtRp537
(dp538
g40
I01
sg16
I171
sS'key'
p539
S'Sync'
p540
sg19
g20
sbasg16
I171
sg19
g20
sbsg19
Nsg16
Nsg193
g1
(g172
g3
NtRp541
(dp542
g10
(lp543
g1
(g176
g3
NtRp544
(dp545
g88
Nsg41
S'valid'
p546
sg15
Nsg19
g20
sg91
S'bool'
p547
sg16
I173
sbag1
(g176
g3
NtRp548
(dp549
g88
Nsg41
S'status'
p550
sg15
Nsg19
g20
sg91
S'DatabaseError'
p551
sg16
I173
sbag1
(g176
g3
NtRp552
(dp553
g88
Nsg41
S'key'
p554
sg15
Nsg19
g20
sg91
S'uint8[]?'
p555
sg16
I173
sbag1
(g176
g3
NtRp556
(dp557
g88
Nsg41
S'value'
p558
sg15
Nsg19
g20
sg91
S'uint8[]?'
p559
sg16
I174
sbasg16
I173
sg19
g20
sbsbag1
(g167
g3
NtRp560
(dp561
g88
Nsg41
S'IteratorSeekToLast'
p562
sg171
g1
(g172
g3
NtRp563
(dp564
g10
(lp565
g1
(g176
g3
NtRp566
(dp567
g88
Nsg41
S'iterator'
p568
sg15
Nsg19
g20
sg91
S'mojo_base.mojom.UnguessableToken'
p569
sg16
I176
sbasg16
I176
sg19
g20
sbsg15
g1
(g532
g3
NtRp570
(dp571
g10
(lp572
g1
(g536
g3
NtRp573
(dp574
g40
I01
sg16
I175
sg539
S'Sync'
p575
sg19
g20
sbasg16
I175
sg19
g20
sbsg19
Nsg16
Nsg193
g1
(g172
g3
NtRp576
(dp577
g10
(lp578
g1
(g176
g3
NtRp579
(dp580
g88
Nsg41
S'valid'
p581
sg15
Nsg19
g20
sg91
S'bool'
p582
sg16
I177
sbag1
(g176
g3
NtRp583
(dp584
g88
Nsg41
S'status'
p585
sg15
Nsg19
g20
sg91
S'DatabaseError'
p586
sg16
I177
sbag1
(g176
g3
NtRp587
(dp588
g88
Nsg41
S'key'
p589
sg15
Nsg19
g20
sg91
S'uint8[]?'
p590
sg16
I177
sbag1
(g176
g3
NtRp591
(dp592
g88
Nsg41
S'value'
p593
sg15
Nsg19
g20
sg91
S'uint8[]?'
p594
sg16
I178
sbasg16
I177
sg19
g20
sbsbag1
(g167
g3
NtRp595
(dp596
g88
Nsg41
S'IteratorSeek'
p597
sg171
g1
(g172
g3
NtRp598
(dp599
g10
(lp600
g1
(g176
g3
NtRp601
(dp602
g88
Nsg41
S'iterator'
p603
sg15
Nsg19
g20
sg91
S'mojo_base.mojom.UnguessableToken'
p604
sg16
I180
sbag1
(g176
g3
NtRp605
(dp606
g88
Nsg41
S'target'
p607
sg15
Nsg19
g20
sg91
S'uint8[]'
p608
sg16
I180
sbasg16
I180
sg19
g20
sbsg15
g1
(g532
g3
NtRp609
(dp610
g10
(lp611
g1
(g536
g3
NtRp612
(dp613
g40
I01
sg16
I179
sg539
S'Sync'
p614
sg19
g20
sbasg16
I179
sg19
g20
sbsg19
Nsg16
Nsg193
g1
(g172
g3
NtRp615
(dp616
g10
(lp617
g1
(g176
g3
NtRp618
(dp619
g88
Nsg41
S'valid'
p620
sg15
Nsg19
g20
sg91
S'bool'
p621
sg16
I181
sbag1
(g176
g3
NtRp622
(dp623
g88
Nsg41
S'status'
p624
sg15
Nsg19
g20
sg91
S'DatabaseError'
p625
sg16
I181
sbag1
(g176
g3
NtRp626
(dp627
g88
Nsg41
S'key'
p628
sg15
Nsg19
g20
sg91
S'uint8[]?'
p629
sg16
I181
sbag1
(g176
g3
NtRp630
(dp631
g88
Nsg41
S'value'
p632
sg15
Nsg19
g20
sg91
S'uint8[]?'
p633
sg16
I182
sbasg16
I181
sg19
g20
sbsbag1
(g167
g3
NtRp634
(dp635
g88
Nsg41
S'IteratorNext'
p636
sg171
g1
(g172
g3
NtRp637
(dp638
g10
(lp639
g1
(g176
g3
NtRp640
(dp641
g88
Nsg41
S'iterator'
p642
sg15
Nsg19
g20
sg91
S'mojo_base.mojom.UnguessableToken'
p643
sg16
I186
sbasg16
I186
sg19
g20
sbsg15
g1
(g532
g3
NtRp644
(dp645
g10
(lp646
g1
(g536
g3
NtRp647
(dp648
g40
I01
sg16
I185
sg539
S'Sync'
p649
sg19
g20
sbasg16
I185
sg19
g20
sbsg19
Nsg16
Nsg193
g1
(g172
g3
NtRp650
(dp651
g10
(lp652
g1
(g176
g3
NtRp653
(dp654
g88
Nsg41
S'valid'
p655
sg15
Nsg19
g20
sg91
S'bool'
p656
sg16
I187
sbag1
(g176
g3
NtRp657
(dp658
g88
Nsg41
S'status'
p659
sg15
Nsg19
g20
sg91
S'DatabaseError'
p660
sg16
I187
sbag1
(g176
g3
NtRp661
(dp662
g88
Nsg41
S'key'
p663
sg15
Nsg19
g20
sg91
S'uint8[]?'
p664
sg16
I187
sbag1
(g176
g3
NtRp665
(dp666
g88
Nsg41
S'value'
p667
sg15
Nsg19
g20
sg91
S'uint8[]?'
p668
sg16
I188
sbasg16
I187
sg19
g20
sbsbag1
(g167
g3
NtRp669
(dp670
g88
Nsg41
S'IteratorPrev'
p671
sg171
g1
(g172
g3
NtRp672
(dp673
g10
(lp674
g1
(g176
g3
NtRp675
(dp676
g88
Nsg41
S'iterator'
p677
sg15
Nsg19
g20
sg91
S'mojo_base.mojom.UnguessableToken'
p678
sg16
I190
sbasg16
I190
sg19
g20
sbsg15
g1
(g532
g3
NtRp679
(dp680
g10
(lp681
g1
(g536
g3
NtRp682
(dp683
g40
I01
sg16
I189
sg539
S'Sync'
p684
sg19
g20
sbasg16
I189
sg19
g20
sbsg19
Nsg16
Nsg193
g1
(g172
g3
NtRp685
(dp686
g10
(lp687
g1
(g176
g3
NtRp688
(dp689
g88
Nsg41
S'valid'
p690
sg15
Nsg19
g20
sg91
S'bool'
p691
sg16
I191
sbag1
(g176
g3
NtRp692
(dp693
g88
Nsg41
S'status'
p694
sg15
Nsg19
g20
sg91
S'DatabaseError'
p695
sg16
I191
sbag1
(g176
g3
NtRp696
(dp697
g88
Nsg41
S'key'
p698
sg15
Nsg19
g20
sg91
S'uint8[]?'
p699
sg16
I191
sbag1
(g176
g3
NtRp700
(dp701
g88
Nsg41
S'value'
p702
sg15
Nsg19
g20
sg91
S'uint8[]?'
p703
sg16
I192
sbasg16
I191
sg19
g20
sbsbasg16
Nsg19
Nsbsg15
Nsg16
Nsg41
S'LevelDBDatabase'
p704
sg19
Nsbasg16
NsS'module'
p705
g1
(cmojom.parse.ast
Module
p706
g3
NtRp707
(dp708
S'mojom_namespace'
p709
(g155
S'leveldb.mojom'
tp710
sg16
I5
sg15
Nsg19
g20
sbsg19
Nsb.