ccopy_reg
_reconstructor
p1
(cmojom.parse.ast
Mojom
p2
c__builtin__
object
p3
NtRp4
(dp5
S'import_list'
p6
g1
(cmojom.parse.ast
ImportList
p7
g3
NtRp8
(dp9
S'items'
p10
(lp11
g1
(cmojom.parse.ast
Import
p12
g3
NtRp13
(dp14
S'attribute_list'
p15
NsS'lineno'
p16
I7
sS'import_filename'
p17
S'mojo/public/mojom/base/time.mojom'
p18
sS'filename'
p19
S'../../media/midi/midi_service.mojom'
p20
sbasg16
I7
sg19
g20
sbsS'definition_list'
p21
(lp22
g1
(cmojom.parse.ast
Enum
p23
g3
NtRp24
(dp25
g15
NsS'enum_value_list'
p26
g1
(cmojom.parse.ast
EnumValueList
p27
g3
NtRp28
(dp29
g10
(lp30
g1
(cmojom.parse.ast
EnumValue
p31
g3
NtRp32
(dp33
g15
NsS'value'
p34
Nsg16
I10
sS'mojom_name'
p35
S'NOT_INITIALIZED'
p36
sg19
g20
sbag1
(g31
g3
NtRp37
(dp38
g15
Nsg34
Nsg16
I11
sg35
S'OK'
p39
sg19
g20
sbag1
(g31
g3
NtRp40
(dp41
g15
Nsg34
Nsg16
I12
sg35
S'NOT_SUPPORTED'
p42
sg19
g20
sbag1
(g31
g3
NtRp43
(dp44
g15
Nsg34
Nsg16
I13
sg35
S'INITIALIZATION_ERROR'
p45
sg19
g20
sbag1
(g31
g3
NtRp46
(dp47
g15
Nsg34
(S'IDENTIFIER'
p48
S'INITIALIZATION_ERROR'
tp49
sg16
I24
sg35
S'MAX'
p50
sg19
g20
sbasg16
I10
sg19
g20
sbsg16
I9
sg35
S'Result'
p51
sg19
g20
sbag1
(g23
g3
NtRp52
(dp53
g15
Nsg26
g1
(g27
g3
NtRp54
(dp55
g10
(lp56
g1
(g31
g3
NtRp57
(dp58
g15
Nsg34
Nsg16
I28
sg35
S'DISCONNECTED'
p59
sg19
g20
sbag1
(g31
g3
NtRp60
(dp61
g15
Nsg34
Nsg16
I29
sg35
S'CONNECTED'
p62
sg19
g20
sbag1
(g31
g3
NtRp63
(dp64
g15
Nsg34
Nsg16
I30
sg35
S'OPENED'
p65
sg19
g20
sbag1
(g31
g3
NtRp66
(dp67
g15
Nsg34
(g48
S'OPENED'
tp68
sg16
I33
sg35
S'LAST'
p69
sg19
g20
sbasg16
I28
sg19
g20
sbsg16
I27
sg35
S'PortState'
p70
sg19
g20
sbag1
(cmojom.parse.ast
Struct
p71
g3
NtRp72
(dp73
S'body'
p74
g1
(cmojom.parse.ast
StructBody
p75
g3
NtRp76
(dp77
g10
(lp78
g1
(cmojom.parse.ast
StructField
p79
g3
NtRp80
(dp81
S'ordinal'
p82
NsS'default_value'
p83
Nsg35
S'id'
p84
sg15
Nsg19
NsS'typename'
p85
S'string'
p86
sg16
Nsbag1
(g79
g3
NtRp87
(dp88
g82
Nsg83
Nsg35
S'manufacturer'
p89
sg15
Nsg19
Nsg85
S'string'
p90
sg16
Nsbag1
(g79
g3
NtRp91
(dp92
g82
Nsg83
Nsg35
S'name'
p93
sg15
Nsg19
Nsg85
S'string'
p94
sg16
Nsbag1
(g79
g3
NtRp95
(dp96
g82
Nsg83
Nsg35
S'version'
p97
sg15
Nsg19
Nsg85
S'string'
p98
sg16
Nsbag1
(g79
g3
NtRp99
(dp100
g82
Nsg83
Nsg35
S'state'
p101
sg15
Nsg19
Nsg85
S'PortState'
p102
sg16
Nsbasg16
Nsg19
Nsbsg15
Nsg16
Nsg35
S'PortInfo'
p103
sg19
Nsbag1
(cmojom.parse.ast
Interface
p104
g3
NtRp105
(dp106
g74
g1
(cmojom.parse.ast
InterfaceBody
p107
g3
NtRp108
(dp109
g10
(lp110
g1
(cmojom.parse.ast
Method
p111
g3
NtRp112
(dp113
g82
Nsg35
S'AddInputPort'
p114
sS'parameter_list'
p115
g1
(cmojom.parse.ast
ParameterList
p116
g3
NtRp117
(dp118
g10
(lp119
g1
(cmojom.parse.ast
Parameter
p120
g3
NtRp121
(dp122
g82
Nsg35
S'info'
p123
sg15
Nsg19
g20
sg85
S'PortInfo'
p124
sg16
I51
sbasg16
I51
sg19
g20
sbsg15
Nsg19
Nsg16
NsS'response_parameter_list'
p125
Nsbag1
(g111
g3
NtRp126
(dp127
g82
Nsg35
S'AddOutputPort'
p128
sg115
g1
(g116
g3
NtRp129
(dp130
g10
(lp131
g1
(g120
g3
NtRp132
(dp133
g82
Nsg35
S'info'
p134
sg15
Nsg19
g20
sg85
S'PortInfo'
p135
sg16
I52
sbasg16
I52
sg19
g20
sbsg15
Nsg19
Nsg16
Nsg125
Nsbag1
(g111
g3
NtRp136
(dp137
g82
Nsg35
S'SetInputPortState'
p138
sg115
g1
(g116
g3
NtRp139
(dp140
g10
(lp141
g1
(g120
g3
NtRp142
(dp143
g82
Nsg35
S'port'
p144
sg15
Nsg19
g20
sg85
S'uint32'
p145
sg16
I57
sbag1
(g120
g3
NtRp146
(dp147
g82
Nsg35
S'state'
p148
sg15
Nsg19
g20
sg85
S'PortState'
p149
sg16
I57
sbasg16
I57
sg19
g20
sbsg15
Nsg19
Nsg16
Nsg125
Nsbag1
(g111
g3
NtRp150
(dp151
g82
Nsg35
S'SetOutputPortState'
p152
sg115
g1
(g116
g3
NtRp153
(dp154
g10
(lp155
g1
(g120
g3
NtRp156
(dp157
g82
Nsg35
S'port'
p158
sg15
Nsg19
g20
sg85
S'uint32'
p159
sg16
I58
sbag1
(g120
g3
NtRp160
(dp161
g82
Nsg35
S'state'
p162
sg15
Nsg19
g20
sg85
S'PortState'
p163
sg16
I58
sbasg16
I58
sg19
g20
sbsg15
Nsg19
Nsg16
Nsg125
Nsbag1
(g111
g3
NtRp164
(dp165
g82
Nsg35
S'SessionStarted'
p166
sg115
g1
(g116
g3
NtRp167
(dp168
g10
(lp169
g1
(g120
g3
NtRp170
(dp171
g82
Nsg35
S'result'
p172
sg15
Nsg19
g20
sg85
S'Result'
p173
sg16
I62
sbasg16
I62
sg19
g20
sbsg15
Nsg19
Nsg16
Nsg125
Nsbag1
(g111
g3
NtRp174
(dp175
g82
Nsg35
S'AcknowledgeSentData'
p176
sg115
g1
(g116
g3
NtRp177
(dp178
g10
(lp179
g1
(g120
g3
NtRp180
(dp181
g82
Nsg35
S'bytes'
p182
sg15
Nsg19
g20
sg85
S'uint32'
p183
sg16
I66
sbasg16
I66
sg19
g20
sbsg15
Nsg19
Nsg16
Nsg125
Nsbag1
(g111
g3
NtRp184
(dp185
g82
Nsg35
S'DataReceived'
p186
sg115
g1
(g116
g3
NtRp187
(dp188
g10
(lp189
g1
(g120
g3
NtRp190
(dp191
g82
Nsg35
S'port'
p192
sg15
Nsg19
g20
sg85
S'uint32'
p193
sg16
I69
sbag1
(g120
g3
NtRp194
(dp195
g82
Nsg35
S'data'
p196
sg15
Nsg19
g20
sg85
S'uint8[]'
p197
sg16
I70
sbag1
(g120
g3
NtRp198
(dp199
g82
Nsg35
S'timestamp'
p200
sg15
Nsg19
g20
sg85
S'mojo_base.mojom.TimeTicks'
p201
sg16
I71
sbasg16
I69
sg19
g20
sbsg15
Nsg19
Nsg16
Nsg125
Nsbasg16
Nsg19
Nsbsg15
Nsg16
Nsg35
S'MidiSessionClient'
p202
sg19
Nsbag1
(g104
g3
NtRp203
(dp204
g74
g1
(g107
g3
NtRp205
(dp206
g10
(lp207
g1
(g111
g3
NtRp208
(dp209
g82
Nsg35
S'StartSession'
p210
sg115
g1
(g116
g3
NtRp211
(dp212
g10
(lp213
g1
(g120
g3
NtRp214
(dp215
g82
Nsg35
S'request'
p216
sg15
Nsg19
g20
sg85
S'MidiSession&'
p217
sg16
I77
sbag1
(g120
g3
NtRp218
(dp219
g82
Nsg35
S'client'
p220
sg15
Nsg19
g20
sg85
S'MidiSessionClient'
p221
sg16
I77
sbasg16
I77
sg19
g20
sbsg15
Nsg19
Nsg16
Nsg125
Nsbasg16
Nsg19
Nsbsg15
Nsg16
Nsg35
S'MidiSessionProvider'
p222
sg19
Nsbag1
(g104
g3
NtRp223
(dp224
g74
g1
(g107
g3
NtRp225
(dp226
g10
(lp227
g1
(g111
g3
NtRp228
(dp229
g82
Nsg35
S'SendData'
p230
sg115
g1
(g116
g3
NtRp231
(dp232
g10
(lp233
g1
(g120
g3
NtRp234
(dp235
g82
Nsg35
S'port'
p236
sg15
Nsg19
g20
sg85
S'uint32'
p237
sg16
I84
sbag1
(g120
g3
NtRp238
(dp239
g82
Nsg35
S'data'
p240
sg15
Nsg19
g20
sg85
S'uint8[]'
p241
sg16
I84
sbag1
(g120
g3
NtRp242
(dp243
g82
Nsg35
S'timestamp'
p244
sg15
Nsg19
g20
sg85
S'mojo_base.mojom.TimeTicks'
p245
sg16
I84
sbasg16
I84
sg19
g20
sbsg15
Nsg19
Nsg16
Nsg125
Nsbasg16
Nsg19
Nsbsg15
Nsg16
Nsg35
S'MidiSession'
p246
sg19
Nsbasg16
NsS'module'
p247
g1
(cmojom.parse.ast
Module
p248
g3
NtRp249
(dp250
S'mojom_namespace'
p251
(g48
S'midi.mojom'
tp252
sg16
I5
sg15
Nsg19
g20
sbsg19
Nsb.