ccopy_reg
_reconstructor
p1
(cmojom.parse.ast
Mojom
p2
c__builtin__
object
p3
NtRp4
(dp5
S'import_list'
p6
g1
(cmojom.parse.ast
ImportList
p7
g3
NtRp8
(dp9
S'items'
p10
(lp11
g1
(cmojom.parse.ast
Import
p12
g3
NtRp13
(dp14
S'attribute_list'
p15
NsS'lineno'
p16
I7
sS'import_filename'
p17
S'mojo/public/mojom/base/file.mojom'
p18
sS'filename'
p19
S'../../content/common/download/mhtml_file_writer.mojom'
p20
sbag1
(g12
g3
NtRp21
(dp22
g15
Nsg16
I8
sg17
S'mojo/public/mojom/base/time.mojom'
p23
sg19
g20
sbasg16
I7
sg19
g20
sbsS'definition_list'
p24
(lp25
g1
(cmojom.parse.ast
Enum
p26
g3
NtRp27
(dp28
g15
NsS'enum_value_list'
p29
g1
(cmojom.parse.ast
EnumValueList
p30
g3
NtRp31
(dp32
g10
(lp33
g1
(cmojom.parse.ast
EnumValue
p34
g3
NtRp35
(dp36
g15
NsS'value'
p37
S'0'
sg16
I14
sS'mojom_name'
p38
S'kSuccess'
p39
sg19
g20
sbag1
(g34
g3
NtRp40
(dp41
g15
Nsg37
Nsg16
I18
sg38
S'kFileClosingError'
p42
sg19
g20
sbag1
(g34
g3
NtRp43
(dp44
g15
Nsg37
Nsg16
I22
sg38
S'kFileCreationError'
p45
sg19
g20
sbag1
(g34
g3
NtRp46
(dp47
g15
Nsg37
Nsg16
I25
sg38
S'kFileWritingError'
p48
sg19
g20
sbag1
(g34
g3
NtRp49
(dp50
g15
Nsg37
Nsg16
I29
sg38
S'kFrameNoLongerExists'
p51
sg19
g20
sbag1
(g34
g3
NtRp52
(dp53
g15
Nsg37
Nsg16
I32
sg38
S'kDeprecatedFrameSerializationForbidden'
p54
sg19
g20
sbag1
(g34
g3
NtRp55
(dp56
g15
Nsg37
Nsg16
I36
sg38
S'kRenderProcessExited'
p57
sg19
g20
sbag1
(g34
g3
NtRp58
(dp59
g15
Nsg37
Nsg16
I40
sg38
S'kStreamingError'
p60
sg19
g20
sbasg16
I14
sg19
g20
sbsg16
I13
sg38
S'MhtmlSaveStatus'
p61
sg19
g20
sbag1
(cmojom.parse.ast
Union
p62
g3
NtRp63
(dp64
S'body'
p65
g1
(cmojom.parse.ast
UnionBody
p66
g3
NtRp67
(dp68
g10
(lp69
g1
(cmojom.parse.ast
UnionField
p70
g3
NtRp71
(dp72
S'ordinal'
p73
Nsg38
S'file_handle'
p74
sg15
Nsg19
NsS'typename'
p75
S'mojo_base.mojom.File'
p76
sg16
Nsbag1
(g70
g3
NtRp77
(dp78
g73
Nsg38
S'producer_handle'
p79
sg15
Nsg19
Nsg75
S'handle<data_pipe_producer>'
p80
sg16
Nsbasg16
Nsg19
Nsbsg15
Nsg16
Nsg38
S'MhtmlOutputHandle'
p81
sg19
Nsbag1
(cmojom.parse.ast
Struct
p82
g3
NtRp83
(dp84
g65
g1
(cmojom.parse.ast
StructBody
p85
g3
NtRp86
(dp87
g10
(lp88
g1
(cmojom.parse.ast
StructField
p89
g3
NtRp90
(dp91
g73
NsS'default_value'
p92
Nsg38
S'mhtml_boundary_marker'
p93
sg15
Nsg19
Nsg75
S'string'
p94
sg16
Nsbag1
(g89
g3
NtRp95
(dp96
g73
Nsg92
Nsg38
S'mhtml_binary_encoding'
p97
sg15
Nsg19
Nsg75
S'bool'
p98
sg16
Nsbag1
(g89
g3
NtRp99
(dp100
g73
Nsg92
Nsg38
S'mhtml_popup_overlay_removal'
p101
sg15
Nsg19
Nsg75
S'bool'
p102
sg16
Nsbag1
(g89
g3
NtRp103
(dp104
g73
Nsg92
Nsg38
S'mhtml_problem_detection'
p105
sg15
Nsg19
Nsg75
S'bool'
p106
sg16
Nsbag1
(g89
g3
NtRp107
(dp108
g73
Nsg92
Nsg38
S'digests_of_uris_to_skip'
p109
sg15
Nsg19
Nsg75
S'string[]'
p110
sg16
Nsbag1
(g89
g3
NtRp111
(dp112
g73
Nsg92
Nsg38
S'salt'
p113
sg15
Nsg19
Nsg75
S'string'
p114
sg16
Nsbag1
(g89
g3
NtRp115
(dp116
g73
Nsg92
Nsg38
S'output_handle'
p117
sg15
Nsg19
Nsg75
S'MhtmlOutputHandle'
p118
sg16
Nsbasg16
Nsg19
Nsbsg15
Nsg16
Nsg38
S'SerializeAsMHTMLParams'
p119
sg19
Nsbag1
(cmojom.parse.ast
Interface
p120
g3
NtRp121
(dp122
g65
g1
(cmojom.parse.ast
InterfaceBody
p123
g3
NtRp124
(dp125
g10
(lp126
g1
(cmojom.parse.ast
Method
p127
g3
NtRp128
(dp129
g73
Nsg38
S'SerializeAsMHTML'
p130
sS'parameter_list'
p131
g1
(cmojom.parse.ast
ParameterList
p132
g3
NtRp133
(dp134
g10
(lp135
g1
(cmojom.parse.ast
Parameter
p136
g3
NtRp137
(dp138
g73
Nsg38
S'params'
p139
sg15
Nsg19
g20
sg75
S'SerializeAsMHTMLParams'
p140
sg16
I92
sbasg16
I92
sg19
g20
sbsg15
Nsg19
Nsg16
NsS'response_parameter_list'
p141
g1
(g132
g3
NtRp142
(dp143
g10
(lp144
g1
(g136
g3
NtRp145
(dp146
g73
Nsg38
S'status'
p147
sg15
Nsg19
g20
sg75
S'MhtmlSaveStatus'
p148
sg16
I93
sbag1
(g136
g3
NtRp149
(dp150
g73
Nsg38
S'digests_of_uris_to_skip'
p151
sg15
Nsg19
g20
sg75
S'string[]'
p152
sg16
I94
sbag1
(g136
g3
NtRp153
(dp154
g73
Nsg38
S'renderer_main_thread_time'
p155
sg15
Nsg19
g20
sg75
S'mojo_base.mojom.TimeDelta'
p156
sg16
I95
sbasg16
I93
sg19
g20
sbsbasg16
Nsg19
Nsbsg15
Nsg16
Nsg38
S'MhtmlFileWriter'
p157
sg19
Nsbasg16
NsS'module'
p158
g1
(cmojom.parse.ast
Module
p159
g3
NtRp160
(dp161
S'mojom_namespace'
p162
(S'IDENTIFIER'
p163
S'content.mojom'
tp164
sg16
I5
sg15
Nsg19
g20
sbsg19
Nsb.