ccopy_reg
_reconstructor
p1
(cmojom.parse.ast
Mojom
p2
c__builtin__
object
p3
NtRp4
(dp5
S'import_list'
p6
g1
(cmojom.parse.ast
ImportList
p7
g3
NtRp8
(dp9
S'items'
p10
(lp11
g1
(cmojom.parse.ast
Import
p12
g3
NtRp13
(dp14
S'attribute_list'
p15
NsS'lineno'
p16
I7
sS'import_filename'
p17
S'media/mojo/interfaces/audio_parameters.mojom'
p18
sS'filename'
p19
S'../../media/mojo/interfaces/audio_input_stream.mojom'
p20
sbag1
(g12
g3
NtRp21
(dp22
g15
Nsg16
I8
sg17
S'media/mojo/interfaces/media_types.mojom'
p23
sg19
g20
sbasg16
I7
sg19
g20
sbsS'definition_list'
p24
(lp25
g1
(cmojom.parse.ast
Interface
p26
g3
NtRp27
(dp28
S'body'
p29
g1
(cmojom.parse.ast
InterfaceBody
p30
g3
NtRp31
(dp32
g10
(lp33
g1
(cmojom.parse.ast
Method
p34
g3
NtRp35
(dp36
S'ordinal'
p37
NsS'mojom_name'
p38
S'Record'
p39
sS'parameter_list'
p40
g1
(cmojom.parse.ast
ParameterList
p41
g3
NtRp42
(dp43
g10
(lp44
sg16
Nsg19
Nsbsg15
Nsg19
Nsg16
NsS'response_parameter_list'
p45
Nsbag1
(g34
g3
NtRp46
(dp47
g37
Nsg38
S'SetVolume'
p48
sg40
g1
(g41
g3
NtRp49
(dp50
g10
(lp51
g1
(cmojom.parse.ast
Parameter
p52
g3
NtRp53
(dp54
g37
Nsg38
S'volume'
p55
sg15
Nsg19
g20
sS'typename'
p56
S'double'
p57
sg16
I18
sbasg16
I18
sg19
g20
sbsg15
Nsg19
Nsg16
Nsg45
Nsbasg16
Nsg19
Nsbsg15
Nsg16
Nsg38
S'AudioInputStream'
p58
sg19
Nsbag1
(g26
g3
NtRp59
(dp60
g29
g1
(g30
g3
NtRp61
(dp62
g10
(lp63
g1
(g34
g3
NtRp64
(dp65
g37
Nsg38
S'OnError'
p66
sg40
g1
(g41
g3
NtRp67
(dp68
g10
(lp69
sg16
Nsg19
Nsbsg15
Nsg19
Nsg16
Nsg45
Nsbag1
(g34
g3
NtRp70
(dp71
g37
Nsg38
S'OnMutedStateChanged'
p72
sg40
g1
(g41
g3
NtRp73
(dp74
g10
(lp75
g1
(g52
g3
NtRp76
(dp77
g37
Nsg38
S'is_muted'
p78
sg15
Nsg19
g20
sg56
S'bool'
p79
sg16
I25
sbasg16
I25
sg19
g20
sbsg15
Nsg19
Nsg16
Nsg45
Nsbasg16
Nsg19
Nsbsg15
Nsg16
Nsg38
S'AudioInputStreamClient'
p80
sg19
Nsbag1
(g26
g3
NtRp81
(dp82
g29
g1
(g30
g3
NtRp83
(dp84
g10
(lp85
g1
(cmojom.parse.ast
Enum
p86
g3
NtRp87
(dp88
g15
NsS'enum_value_list'
p89
g1
(cmojom.parse.ast
EnumValueList
p90
g3
NtRp91
(dp92
g10
(lp93
g1
(cmojom.parse.ast
EnumValue
p94
g3
NtRp95
(dp96
g15
NsS'value'
p97
S'0'
sg16
I37
sg38
S'kDefault'
p98
sg19
g20
sbag1
(g94
g3
NtRp99
(dp100
g15
Nsg97
S'1'
sg16
I41
sg38
S'kPlatformError'
p101
sg19
g20
sbag1
(g94
g3
NtRp102
(dp103
g15
Nsg97
S'2'
sg16
I42
sg38
S'kTerminatedByClient'
p104
sg19
g20
sbag1
(g94
g3
NtRp105
(dp106
g15
Nsg97
S'3'
sg16
I43
sg38
S'kStreamCreationFailed'
p107
sg19
g20
sbag1
(g94
g3
NtRp108
(dp109
g15
Nsg97
S'4'
sg16
I44
sg38
S'kDocumentDestroyed'
p110
sg19
g20
sbasg16
I37
sg19
g20
sbsg16
I34
sg38
S'DisconnectReason'
p111
sg19
g20
sbag1
(g34
g3
NtRp112
(dp113
g37
Nsg38
S'DidStartRecording'
p114
sg40
g1
(g41
g3
NtRp115
(dp116
g10
(lp117
sg16
Nsg19
Nsbsg15
Nsg19
Nsg16
Nsg45
Nsbasg16
I34
sg19
g20
sbsg15
Nsg16
Nsg38
S'AudioInputStreamObserver'
p118
sg19
Nsbasg16
NsS'module'
p119
g1
(cmojom.parse.ast
Module
p120
g3
NtRp121
(dp122
S'mojom_namespace'
p123
(S'IDENTIFIER'
p124
S'media.mojom'
tp125
sg16
I5
sg15
Nsg19
g20
sbsg19
Nsb.