ccopy_reg
_reconstructor
p1
(cmojom.parse.ast
Mojom
p2
c__builtin__
object
p3
NtRp4
(dp5
S'import_list'
p6
g1
(cmojom.parse.ast
ImportList
p7
g3
NtRp8
(dp9
S'items'
p10
(lp11
g1
(cmojom.parse.ast
Import
p12
g3
NtRp13
(dp14
S'attribute_list'
p15
NsS'lineno'
p16
I7
sS'import_filename'
p17
S'mojo/public/mojom/base/unguessable_token.mojom'
p18
sS'filename'
p19
S'../../media/mojo/interfaces/audio_output_stream.mojom'
p20
sbag1
(g12
g3
NtRp21
(dp22
g15
Nsg16
I8
sg17
S'media/mojo/interfaces/audio_data_pipe.mojom'
p23
sg19
g20
sbag1
(g12
g3
NtRp24
(dp25
g15
Nsg16
I9
sg17
S'media/mojo/interfaces/audio_parameters.mojom'
p26
sg19
g20
sbag1
(g12
g3
NtRp27
(dp28
g15
Nsg16
I10
sg17
S'media/mojo/interfaces/media_types.mojom'
p29
sg19
g20
sbasg16
I7
sg19
g20
sbsS'definition_list'
p30
(lp31
g1
(cmojom.parse.ast
Interface
p32
g3
NtRp33
(dp34
S'body'
p35
g1
(cmojom.parse.ast
InterfaceBody
p36
g3
NtRp37
(dp38
g10
(lp39
g1
(cmojom.parse.ast
Method
p40
g3
NtRp41
(dp42
S'ordinal'
p43
NsS'mojom_name'
p44
S'Play'
p45
sS'parameter_list'
p46
g1
(cmojom.parse.ast
ParameterList
p47
g3
NtRp48
(dp49
g10
(lp50
sg16
Nsg19
Nsbsg15
Nsg19
Nsg16
NsS'response_parameter_list'
p51
Nsbag1
(g40
g3
NtRp52
(dp53
g43
Nsg44
S'Pause'
p54
sg46
g1
(g47
g3
NtRp55
(dp56
g10
(lp57
sg16
Nsg19
Nsbsg15
Nsg19
Nsg16
Nsg51
Nsbag1
(g40
g3
NtRp58
(dp59
g43
Nsg44
S'SetVolume'
p60
sg46
g1
(g47
g3
NtRp61
(dp62
g10
(lp63
g1
(cmojom.parse.ast
Parameter
p64
g3
NtRp65
(dp66
g43
Nsg44
S'volume'
p67
sg15
Nsg19
g20
sS'typename'
p68
S'double'
p69
sg16
I26
sbasg16
I26
sg19
g20
sbsg15
Nsg19
Nsg16
Nsg51
Nsbasg16
Nsg19
Nsbsg15
Nsg16
Nsg44
S'AudioOutputStream'
p70
sg19
Nsbag1
(g32
g3
NtRp71
(dp72
g35
g1
(g36
g3
NtRp73
(dp74
g10
(lp75
g1
(cmojom.parse.ast
Enum
p76
g3
NtRp77
(dp78
g15
NsS'enum_value_list'
p79
g1
(cmojom.parse.ast
EnumValueList
p80
g3
NtRp81
(dp82
g10
(lp83
g1
(cmojom.parse.ast
EnumValue
p84
g3
NtRp85
(dp86
g15
NsS'value'
p87
S'0'
sg16
I42
sg44
S'kDefault'
p88
sg19
g20
sbag1
(g84
g3
NtRp89
(dp90
g15
Nsg87
S'1'
sg16
I46
sg44
S'kPlatformError'
p91
sg19
g20
sbag1
(g84
g3
NtRp92
(dp93
g15
Nsg87
S'2'
sg16
I47
sg44
S'kTerminatedByClient'
p94
sg19
g20
sbag1
(g84
g3
NtRp95
(dp96
g15
Nsg87
S'3'
sg16
I48
sg44
S'kStreamCreationFailed'
p97
sg19
g20
sbag1
(g84
g3
NtRp98
(dp99
g15
Nsg87
S'4'
sg16
I49
sg44
S'kDocumentDestroyed'
p100
sg19
g20
sbasg16
I42
sg19
g20
sbsg16
I39
sg44
S'DisconnectReason'
p101
sg19
g20
sbag1
(g40
g3
NtRp102
(dp103
g43
Nsg44
S'DidStartPlaying'
p104
sg46
g1
(g47
g3
NtRp105
(dp106
g10
(lp107
sg16
Nsg19
Nsbsg15
Nsg19
Nsg16
Nsg51
Nsbag1
(g40
g3
NtRp108
(dp109
g43
Nsg44
S'DidStopPlaying'
p110
sg46
g1
(g47
g3
NtRp111
(dp112
g10
(lp113
sg16
Nsg19
Nsbsg15
Nsg19
Nsg16
Nsg51
Nsbag1
(g40
g3
NtRp114
(dp115
g43
Nsg44
S'DidChangeAudibleState'
p116
sg46
g1
(g47
g3
NtRp117
(dp118
g10
(lp119
g1
(g64
g3
NtRp120
(dp121
g43
Nsg44
S'is_audible'
p122
sg15
Nsg19
g20
sg68
S'bool'
p123
sg16
I65
sbasg16
I65
sg19
g20
sbsg15
Nsg19
Nsg16
Nsg51
Nsbasg16
I39
sg19
g20
sbsg15
Nsg16
Nsg44
S'AudioOutputStreamObserver'
p124
sg19
Nsbag1
(g32
g3
NtRp125
(dp126
g35
g1
(g36
g3
NtRp127
(dp128
g10
(lp129
g1
(g40
g3
NtRp130
(dp131
g43
Nsg44
S'Acquire'
p132
sg46
g1
(g47
g3
NtRp133
(dp134
g10
(lp135
g1
(g64
g3
NtRp136
(dp137
g43
Nsg44
S'params'
p138
sg15
Nsg19
g20
sg68
S'AudioParameters'
p139
sg16
I76
sbag1
(g64
g3
NtRp140
(dp141
g43
Nsg44
S'client'
p142
sg15
Nsg19
g20
sg68
S'AudioOutputStreamProviderClient'
p143
sg16
I76
sbag1
(g64
g3
NtRp144
(dp145
g43
Nsg44
S'processing_id'
p146
sg15
Nsg19
g20
sg68
S'mojo_base.mojom.UnguessableToken?'
p147
sg16
I77
sbasg16
I76
sg19
g20
sbsg15
Nsg19
Nsg16
Nsg51
Nsbasg16
Nsg19
Nsbsg15
Nsg16
Nsg44
S'AudioOutputStreamProvider'
p148
sg19
Nsbag1
(g32
g3
NtRp149
(dp150
g35
g1
(g36
g3
NtRp151
(dp152
g10
(lp153
g1
(g40
g3
NtRp154
(dp155
g43
Nsg44
S'Created'
p156
sg46
g1
(g47
g3
NtRp157
(dp158
g10
(lp159
g1
(g64
g3
NtRp160
(dp161
g43
Nsg44
S'stream'
p162
sg15
Nsg19
g20
sg68
S'AudioOutputStream'
p163
sg16
I85
sbag1
(g64
g3
NtRp164
(dp165
g43
Nsg44
S'data_pipe'
p166
sg15
Nsg19
g20
sg68
S'ReadWriteAudioDataPipe'
p167
sg16
I85
sbasg16
I85
sg19
g20
sbsg15
Nsg19
Nsg16
Nsg51
Nsbasg16
Nsg19
Nsbsg15
Nsg16
Nsg44
S'AudioOutputStreamProviderClient'
p168
sg19
Nsbasg16
NsS'module'
p169
g1
(cmojom.parse.ast
Module
p170
g3
NtRp171
(dp172
S'mojom_namespace'
p173
(S'IDENTIFIER'
p174
S'media.mojom'
tp175
sg16
I5
sg15
Nsg19
g20
sbsg19
Nsb.