ccopy_reg
_reconstructor
p1
(cmojom.parse.ast
Mojom
p2
c__builtin__
object
p3
NtRp4
(dp5
S'import_list'
p6
g1
(cmojom.parse.ast
ImportList
p7
g3
NtRp8
(dp9
S'items'
p10
(lp11
g1
(cmojom.parse.ast
Import
p12
g3
NtRp13
(dp14
S'attribute_list'
p15
NsS'lineno'
p16
I7
sS'import_filename'
p17
S'media/mojo/interfaces/content_decryption_module.mojom'
p18
sS'filename'
p19
S'../../media/mojo/interfaces/cdm_service.mojom'
p20
sbag1
(g12
g3
NtRp21
(dp22
g15
Nsg16
I8
sg17
S'mojo/public/mojom/base/file_path.mojom'
p23
sg19
g20
sbag1
(g12
g3
NtRp24
(dp25
g15
Nsg16
I9
sg17
S'services/service_manager/public/mojom/interface_provider.mojom'
p26
sg19
g20
sbasg16
I7
sg19
g20
sbsS'definition_list'
p27
(lp28
g1
(cmojom.parse.ast
Interface
p29
g3
NtRp30
(dp31
S'body'
p32
g1
(cmojom.parse.ast
InterfaceBody
p33
g3
NtRp34
(dp35
g10
(lp36
g1
(cmojom.parse.ast
Method
p37
g3
NtRp38
(dp39
S'ordinal'
p40
NsS'mojom_name'
p41
S'LoadCdm'
p42
sS'parameter_list'
p43
g1
(cmojom.parse.ast
ParameterList
p44
g3
NtRp45
(dp46
g10
(lp47
g1
(cmojom.parse.ast
Parameter
p48
g3
NtRp49
(dp50
g40
Nsg41
S'cdm_path'
p51
sg15
Nsg19
g20
sS'typename'
p52
S'mojo_base.mojom.FilePath'
p53
sg16
I27
sbasg16
I27
sg19
g20
sbsg15
Nsg19
Nsg16
NsS'response_parameter_list'
p54
Nsbag1
(g37
g3
NtRp55
(dp56
g40
Nsg41
S'CreateCdmFactory'
p57
sg43
g1
(g44
g3
NtRp58
(dp59
g10
(lp60
g1
(g48
g3
NtRp61
(dp62
g40
Nsg41
S'factory'
p63
sg15
Nsg19
g20
sg52
S'CdmFactory&'
p64
sg16
I34
sbag1
(g48
g3
NtRp65
(dp66
g40
Nsg41
S'host_interfaces'
p67
sg15
Nsg19
g20
sg52
S'service_manager.mojom.InterfaceProvider?'
p68
sg16
I35
sbasg16
I34
sg19
g20
sbsg15
Nsg19
Nsg16
Nsg54
Nsbasg16
Nsg19
Nsbsg15
Nsg16
Nsg41
S'CdmService'
p69
sg19
Nsbasg16
NsS'module'
p70
g1
(cmojom.parse.ast
Module
p71
g3
NtRp72
(dp73
S'mojom_namespace'
p74
(S'IDENTIFIER'
p75
S'media.mojom'
tp76
sg16
I5
sg15
Nsg19
g20
sbsg19
Nsb.