ccopy_reg
_reconstructor
p1
(cmojom.parse.ast
Mojom
p2
c__builtin__
object
p3
NtRp4
(dp5
S'import_list'
p6
g1
(cmojom.parse.ast
ImportList
p7
g3
NtRp8
(dp9
S'items'
p10
(lp11
g1
(cmojom.parse.ast
Import
p12
g3
NtRp13
(dp14
S'attribute_list'
p15
NsS'lineno'
p16
I7
sS'import_filename'
p17
S'mojo/public/mojom/base/file.mojom'
p18
sS'filename'
p19
S'../../media/mojo/interfaces/cdm_storage.mojom'
p20
sbasg16
I7
sg19
g20
sbsS'definition_list'
p21
(lp22
g1
(cmojom.parse.ast
Interface
p23
g3
NtRp24
(dp25
S'body'
p26
g1
(cmojom.parse.ast
InterfaceBody
p27
g3
NtRp28
(dp29
g10
(lp30
g1
(cmojom.parse.ast
Enum
p31
g3
NtRp32
(dp33
g15
NsS'enum_value_list'
p34
g1
(cmojom.parse.ast
EnumValueList
p35
g3
NtRp36
(dp37
g10
(lp38
g1
(cmojom.parse.ast
EnumValue
p39
g3
NtRp40
(dp41
g15
NsS'value'
p42
Nsg16
I13
sS'mojom_name'
p43
S'kSuccess'
p44
sg19
g20
sbag1
(g39
g3
NtRp45
(dp46
g15
Nsg42
Nsg16
I14
sg43
S'kInUse'
p47
sg19
g20
sbag1
(g39
g3
NtRp48
(dp49
g15
Nsg42
Nsg16
I15
sg43
S'kFailure'
p50
sg19
g20
sbasg16
I13
sg19
g20
sbsg16
I12
sg43
S'Status'
p51
sg19
g20
sbag1
(cmojom.parse.ast
Method
p52
g3
NtRp53
(dp54
S'ordinal'
p55
Nsg43
S'Open'
p56
sS'parameter_list'
p57
g1
(cmojom.parse.ast
ParameterList
p58
g3
NtRp59
(dp60
g10
(lp61
g1
(cmojom.parse.ast
Parameter
p62
g3
NtRp63
(dp64
g55
Nsg43
S'file_name'
p65
sg15
Nsg19
g20
sS'typename'
p66
S'string'
p67
sg16
I30
sbasg16
I30
sg19
g20
sbsg15
Nsg19
Nsg16
NsS'response_parameter_list'
p68
g1
(g58
g3
NtRp69
(dp70
g10
(lp71
g1
(g62
g3
NtRp72
(dp73
g55
Nsg43
S'status'
p74
sg15
Nsg19
g20
sg66
S'Status'
p75
sg16
I31
sbag1
(g62
g3
NtRp76
(dp77
g55
Nsg43
S'file_for_reading'
p78
sg15
Nsg19
g20
sg66
S'mojo_base.mojom.File?'
p79
sg16
I32
sbag1
(g62
g3
NtRp80
(dp81
g55
Nsg43
S'cdm_file'
p82
sg15
Nsg19
g20
sg66
S'asso<CdmFile>?'
p83
sg16
I33
sbasg16
I31
sg19
g20
sbsbasg16
I12
sg19
g20
sbsg15
Nsg16
Nsg43
S'CdmStorage'
p84
sg19
Nsbag1
(g23
g3
NtRp85
(dp86
g26
g1
(g27
g3
NtRp87
(dp88
g10
(lp89
g1
(g52
g3
NtRp90
(dp91
g55
Nsg43
S'OpenFileForWriting'
p92
sg57
g1
(g58
g3
NtRp93
(dp94
g10
(lp95
sg16
Nsg19
Nsbsg15
Nsg19
Nsg16
Nsg68
g1
(g58
g3
NtRp96
(dp97
g10
(lp98
g1
(g62
g3
NtRp99
(dp100
g55
Nsg43
S'file_for_writing'
p101
sg15
Nsg19
g20
sg66
S'mojo_base.mojom.File?'
p102
sg16
I50
sbasg16
I50
sg19
g20
sbsbag1
(g52
g3
NtRp103
(dp104
g55
Nsg43
S'CommitWrite'
p105
sg57
g1
(g58
g3
NtRp106
(dp107
g10
(lp108
sg16
Nsg19
Nsbsg15
Nsg19
Nsg16
Nsg68
g1
(g58
g3
NtRp109
(dp110
g10
(lp111
g1
(g62
g3
NtRp112
(dp113
g55
Nsg43
S'updated_file_for_reading'
p114
sg15
Nsg19
g20
sg66
S'mojo_base.mojom.File?'
p115
sg16
I55
sbasg16
I55
sg19
g20
sbsbasg16
Nsg19
Nsbsg15
Nsg16
Nsg43
S'CdmFile'
p116
sg19
Nsbasg16
NsS'module'
p117
g1
(cmojom.parse.ast
Module
p118
g3
NtRp119
(dp120
S'mojom_namespace'
p121
(S'IDENTIFIER'
p122
S'media.mojom'
tp123
sg16
I5
sg15
Nsg19
g20
sbsg19
Nsb.