ccopy_reg
_reconstructor
p1
(cmojom.parse.ast
Mojom
p2
c__builtin__
object
p3
NtRp4
(dp5
S'import_list'
p6
g1
(cmojom.parse.ast
ImportList
p7
g3
NtRp8
(dp9
S'items'
p10
(lp11
g1
(cmojom.parse.ast
Import
p12
g3
NtRp13
(dp14
S'attribute_list'
p15
NsS'lineno'
p16
I7
sS'import_filename'
p17
S'media/mojo/interfaces/media_types.mojom'
p18
sS'filename'
p19
S'../../media/mojo/interfaces/decryptor.mojom'
p20
sbasg16
I7
sg19
g20
sbsS'definition_list'
p21
(lp22
g1
(cmojom.parse.ast
Interface
p23
g3
NtRp24
(dp25
S'body'
p26
g1
(cmojom.parse.ast
InterfaceBody
p27
g3
NtRp28
(dp29
g10
(lp30
g1
(cmojom.parse.ast
Enum
p31
g3
NtRp32
(dp33
g15
g1
(cmojom.parse.ast
AttributeList
p34
g3
NtRp35
(dp36
g10
(lp37
g1
(cmojom.parse.ast
Attribute
p38
g3
NtRp39
(dp40
S'value'
p41
I01
sg16
I16
sS'key'
p42
S'Native'
p43
sg19
g20
sbasg16
I16
sg19
g20
sbsS'enum_value_list'
p44
Nsg16
I17
sS'mojom_name'
p45
S'Status'
p46
sg19
g20
sbag1
(g31
g3
NtRp47
(dp48
g15
g1
(g34
g3
NtRp49
(dp50
g10
(lp51
g1
(g38
g3
NtRp52
(dp53
g41
I01
sg16
I20
sg42
S'Native'
p54
sg19
g20
sbasg16
I20
sg19
g20
sbsg44
Nsg16
I21
sg45
S'StreamType'
p55
sg19
g20
sbag1
(cmojom.parse.ast
Method
p56
g3
NtRp57
(dp58
S'ordinal'
p59
Nsg45
S'Initialize'
p60
sS'parameter_list'
p61
g1
(cmojom.parse.ast
ParameterList
p62
g3
NtRp63
(dp64
g10
(lp65
g1
(cmojom.parse.ast
Parameter
p66
g3
NtRp67
(dp68
g59
Nsg45
S'audio_pipe'
p69
sg15
Nsg19
g20
sS'typename'
p70
S'handle<data_pipe_consumer>'
p71
sg16
I28
sbag1
(g66
g3
NtRp72
(dp73
g59
Nsg45
S'video_pipe'
p74
sg15
Nsg19
g20
sg70
S'handle<data_pipe_consumer>'
p75
sg16
I29
sbag1
(g66
g3
NtRp76
(dp77
g59
Nsg45
S'decrypt_pipe'
p78
sg15
Nsg19
g20
sg70
S'handle<data_pipe_consumer>'
p79
sg16
I30
sbag1
(g66
g3
NtRp80
(dp81
g59
Nsg45
S'decrypted_pipe'
p82
sg15
Nsg19
g20
sg70
S'handle<data_pipe_producer>'
p83
sg16
I31
sbasg16
I28
sg19
g20
sbsg15
Nsg19
Nsg16
NsS'response_parameter_list'
p84
Nsbag1
(g56
g3
NtRp85
(dp86
g59
Nsg45
S'Decrypt'
p87
sg61
g1
(g62
g3
NtRp88
(dp89
g10
(lp90
g1
(g66
g3
NtRp91
(dp92
g59
Nsg45
S'stream_type'
p93
sg15
Nsg19
g20
sg70
S'StreamType'
p94
sg16
I36
sbag1
(g66
g3
NtRp95
(dp96
g59
Nsg45
S'encrypted'
p97
sg15
Nsg19
g20
sg70
S'DecoderBuffer'
p98
sg16
I36
sbasg16
I36
sg19
g20
sbsg15
Nsg19
Nsg16
Nsg84
g1
(g62
g3
NtRp99
(dp100
g10
(lp101
g1
(g66
g3
NtRp102
(dp103
g59
Nsg45
S'status'
p104
sg15
Nsg19
g20
sg70
S'Status'
p105
sg16
I37
sbag1
(g66
g3
NtRp106
(dp107
g59
Nsg45
S'buffer'
p108
sg15
Nsg19
g20
sg70
S'DecoderBuffer?'
p109
sg16
I37
sbasg16
I37
sg19
g20
sbsbag1
(g56
g3
NtRp110
(dp111
g59
Nsg45
S'CancelDecrypt'
p112
sg61
g1
(g62
g3
NtRp113
(dp114
g10
(lp115
g1
(g66
g3
NtRp116
(dp117
g59
Nsg45
S'stream_type'
p118
sg15
Nsg19
g20
sg70
S'StreamType'
p119
sg16
I40
sbasg16
I40
sg19
g20
sbsg15
Nsg19
Nsg16
Nsg84
Nsbag1
(g56
g3
NtRp120
(dp121
g59
Nsg45
S'InitializeAudioDecoder'
p122
sg61
g1
(g62
g3
NtRp123
(dp124
g10
(lp125
g1
(g66
g3
NtRp126
(dp127
g59
Nsg45
S'config'
p128
sg15
Nsg19
g20
sg70
S'AudioDecoderConfig'
p129
sg16
I44
sbasg16
I44
sg19
g20
sbsg15
Nsg19
Nsg16
Nsg84
g1
(g62
g3
NtRp130
(dp131
g10
(lp132
g1
(g66
g3
NtRp133
(dp134
g59
Nsg45
S'success'
p135
sg15
Nsg19
g20
sg70
S'bool'
p136
sg16
I44
sbasg16
I44
sg19
g20
sbsbag1
(g56
g3
NtRp137
(dp138
g59
Nsg45
S'InitializeVideoDecoder'
p139
sg61
g1
(g62
g3
NtRp140
(dp141
g10
(lp142
g1
(g66
g3
NtRp143
(dp144
g59
Nsg45
S'config'
p145
sg15
Nsg19
g20
sg70
S'VideoDecoderConfig'
p146
sg16
I45
sbasg16
I45
sg19
g20
sbsg15
Nsg19
Nsg16
Nsg84
g1
(g62
g3
NtRp147
(dp148
g10
(lp149
g1
(g66
g3
NtRp150
(dp151
g59
Nsg45
S'success'
p152
sg15
Nsg19
g20
sg70
S'bool'
p153
sg16
I45
sbasg16
I45
sg19
g20
sbsbag1
(g56
g3
NtRp154
(dp155
g59
Nsg45
S'DecryptAndDecodeAudio'
p156
sg61
g1
(g62
g3
NtRp157
(dp158
g10
(lp159
g1
(g66
g3
NtRp160
(dp161
g59
Nsg45
S'encrypted'
p162
sg15
Nsg19
g20
sg70
S'DecoderBuffer'
p163
sg16
I57
sbasg16
I57
sg19
g20
sbsg15
Nsg19
Nsg16
Nsg84
g1
(g62
g3
NtRp164
(dp165
g10
(lp166
g1
(g66
g3
NtRp167
(dp168
g59
Nsg45
S'status'
p169
sg15
Nsg19
g20
sg70
S'Status'
p170
sg16
I58
sbag1
(g66
g3
NtRp171
(dp172
g59
Nsg45
S'audio_buffers'
p173
sg15
Nsg19
g20
sg70
S'AudioBuffer[]'
p174
sg16
I58
sbasg16
I58
sg19
g20
sbsbag1
(g56
g3
NtRp175
(dp176
g59
Nsg45
S'DecryptAndDecodeVideo'
p177
sg61
g1
(g62
g3
NtRp178
(dp179
g10
(lp180
g1
(g66
g3
NtRp181
(dp182
g59
Nsg45
S'encrypted'
p183
sg15
Nsg19
g20
sg70
S'DecoderBuffer'
p184
sg16
I59
sbasg16
I59
sg19
g20
sbsg15
Nsg19
Nsg16
Nsg84
g1
(g62
g3
NtRp185
(dp186
g10
(lp187
g1
(g66
g3
NtRp188
(dp189
g59
Nsg45
S'status'
p190
sg15
Nsg19
g20
sg70
S'Status'
p191
sg16
I60
sbag1
(g66
g3
NtRp192
(dp193
g59
Nsg45
S'video_frame'
p194
sg15
Nsg19
g20
sg70
S'VideoFrame?'
p195
sg16
I60
sbag1
(g66
g3
NtRp196
(dp197
g59
Nsg45
S'releaser'
p198
sg15
Nsg19
g20
sg70
S'FrameResourceReleaser?'
p199
sg16
I60
sbasg16
I60
sg19
g20
sbsbag1
(g56
g3
NtRp200
(dp201
g59
Nsg45
S'ResetDecoder'
p202
sg61
g1
(g62
g3
NtRp203
(dp204
g10
(lp205
g1
(g66
g3
NtRp206
(dp207
g59
Nsg45
S'stream_type'
p208
sg15
Nsg19
g20
sg70
S'StreamType'
p209
sg16
I66
sbasg16
I66
sg19
g20
sbsg15
Nsg19
Nsg16
Nsg84
Nsbag1
(g56
g3
NtRp210
(dp211
g59
Nsg45
S'DeinitializeDecoder'
p212
sg61
g1
(g62
g3
NtRp213
(dp214
g10
(lp215
g1
(g66
g3
NtRp216
(dp217
g59
Nsg45
S'stream_type'
p218
sg15
Nsg19
g20
sg70
S'StreamType'
p219
sg16
I75
sbasg16
I75
sg19
g20
sbsg15
Nsg19
Nsg16
Nsg84
Nsbasg16
I17
sg19
g20
sbsg15
Nsg16
Nsg45
S'Decryptor'
p220
sg19
Nsbag1
(g23
g3
NtRp221
(dp222
g26
g1
(g27
g3
NtRp223
(dp224
g10
(lp225
sg16
Nsg19
Nsbsg15
Nsg16
Nsg45
S'FrameResourceReleaser'
p226
sg19
Nsbasg16
NsS'module'
p227
g1
(cmojom.parse.ast
Module
p228
g3
NtRp229
(dp230
S'mojom_namespace'
p231
(S'IDENTIFIER'
p232
S'media.mojom'
tp233
sg16
I5
sg15
Nsg19
g20
sbsg19
Nsb.