ccopy_reg
_reconstructor
p1
(cmojom.parse.ast
Mojom
p2
c__builtin__
object
p3
NtRp4
(dp5
S'import_list'
p6
g1
(cmojom.parse.ast
ImportList
p7
g3
NtRp8
(dp9
S'items'
p10
(lp11
g1
(cmojom.parse.ast
Import
p12
g3
NtRp13
(dp14
S'attribute_list'
p15
NsS'lineno'
p16
I7
sS'import_filename'
p17
S'media/mojo/interfaces/audio_decoder.mojom'
p18
sS'filename'
p19
S'../../media/mojo/interfaces/interface_factory.mojom'
p20
sbag1
(g12
g3
NtRp21
(dp22
g15
Nsg16
I8
sg17
S'media/mojo/interfaces/cdm_proxy.mojom'
p23
sg19
g20
sbag1
(g12
g3
NtRp24
(dp25
g15
Nsg16
I9
sg17
S'media/mojo/interfaces/decryptor.mojom'
p26
sg19
g20
sbag1
(g12
g3
NtRp27
(dp28
g15
Nsg16
I10
sg17
S'media/mojo/interfaces/content_decryption_module.mojom'
p29
sg19
g20
sbag1
(g12
g3
NtRp30
(dp31
g15
Nsg16
I11
sg17
S'media/mojo/interfaces/renderer.mojom'
p32
sg19
g20
sbag1
(g12
g3
NtRp33
(dp34
g15
Nsg16
I12
sg17
S'media/mojo/interfaces/renderer_extensions.mojom'
p35
sg19
g20
sbag1
(g12
g3
NtRp36
(dp37
g15
Nsg16
I13
sg17
S'media/mojo/interfaces/video_decoder.mojom'
p38
sg19
g20
sbag1
(g12
g3
NtRp39
(dp40
g15
Nsg16
I14
sg17
S'mojo/public/mojom/base/token.mojom'
p41
sg19
g20
sbag1
(g12
g3
NtRp42
(dp43
g15
Nsg16
I15
sg17
S'mojo/public/mojom/base/unguessable_token.mojom'
p44
sg19
g20
sbasg16
I7
sg19
g20
sbsS'definition_list'
p45
(lp46
g1
(cmojom.parse.ast
Interface
p47
g3
NtRp48
(dp49
S'body'
p50
g1
(cmojom.parse.ast
InterfaceBody
p51
g3
NtRp52
(dp53
g10
(lp54
g1
(cmojom.parse.ast
Method
p55
g3
NtRp56
(dp57
S'ordinal'
p58
NsS'mojom_name'
p59
S'CreateAudioDecoder'
p60
sS'parameter_list'
p61
g1
(cmojom.parse.ast
ParameterList
p62
g3
NtRp63
(dp64
g10
(lp65
g1
(cmojom.parse.ast
Parameter
p66
g3
NtRp67
(dp68
g58
Nsg59
S'audio_decoder'
p69
sg15
Nsg19
g20
sS'typename'
p70
S'AudioDecoder&'
p71
sg16
I20
sbasg16
I20
sg19
g20
sbsg15
Nsg19
Nsg16
NsS'response_parameter_list'
p72
Nsbag1
(g55
g3
NtRp73
(dp74
g58
Nsg59
S'CreateVideoDecoder'
p75
sg61
g1
(g62
g3
NtRp76
(dp77
g10
(lp78
g1
(g66
g3
NtRp79
(dp80
g58
Nsg59
S'video_decoder'
p81
sg15
Nsg19
g20
sg70
S'VideoDecoder&'
p82
sg16
I21
sbasg16
I21
sg19
g20
sbsg15
Nsg19
Nsg16
Nsg72
Nsbag1
(g55
g3
NtRp83
(dp84
g58
Nsg59
S'CreateDefaultRenderer'
p85
sg61
g1
(g62
g3
NtRp86
(dp87
g10
(lp88
g1
(g66
g3
NtRp89
(dp90
g58
Nsg59
S'audio_device_id'
p91
sg15
Nsg19
g20
sg70
S'string'
p92
sg16
I24
sbag1
(g66
g3
NtRp93
(dp94
g58
Nsg59
S'renderer'
p95
sg15
Nsg19
g20
sg70
S'Renderer&'
p96
sg16
I24
sbasg16
I24
sg19
g20
sbsg15
Nsg19
Nsg16
Nsg72
Nsbag1
(g55
g3
NtRp97
(dp98
g58
Nsg59
S'CreateCdm'
p99
sg61
g1
(g62
g3
NtRp100
(dp101
g10
(lp102
g1
(g66
g3
NtRp103
(dp104
g58
Nsg59
S'key_system'
p105
sg15
Nsg19
g20
sg70
S'string'
p106
sg16
I63
sbag1
(g66
g3
NtRp107
(dp108
g58
Nsg59
S'cdm'
p109
sg15
Nsg19
g20
sg70
S'ContentDecryptionModule&'
p110
sg16
I63
sbasg16
I63
sg19
g20
sbsg15
Nsg19
Nsg16
Nsg72
Nsbag1
(g55
g3
NtRp111
(dp112
g58
Nsg59
S'CreateDecryptor'
p113
sg61
g1
(g62
g3
NtRp114
(dp115
g10
(lp116
g1
(g66
g3
NtRp117
(dp118
g58
Nsg59
S'cdm_id'
p119
sg15
Nsg19
g20
sg70
S'int32'
p120
sg16
I66
sbag1
(g66
g3
NtRp121
(dp122
g58
Nsg59
S'decryptor'
p123
sg15
Nsg19
g20
sg70
S'Decryptor&'
p124
sg16
I66
sbasg16
I66
sg19
g20
sbsg15
Nsg19
Nsg16
Nsg72
Nsbag1
(g55
g3
NtRp125
(dp126
g58
Nsg59
S'CreateCdmProxy'
p127
sg61
g1
(g62
g3
NtRp128
(dp129
g10
(lp130
g1
(g66
g3
NtRp131
(dp132
g58
Nsg59
S'cdm_guid'
p133
sg15
Nsg19
g20
sg70
S'mojo_base.mojom.Token'
p134
sg16
I73
sbag1
(g66
g3
NtRp135
(dp136
g58
Nsg59
S'cdm_proxy'
p137
sg15
Nsg19
g20
sg70
S'CdmProxy&'
p138
sg16
I73
sbasg16
I73
sg19
g20
sbsg15
Nsg19
Nsg16
Nsg72
Nsbasg16
Nsg19
Nsbsg15
Nsg16
Nsg59
S'InterfaceFactory'
p139
sg19
Nsbasg16
NsS'module'
p140
g1
(cmojom.parse.ast
Module
p141
g3
NtRp142
(dp143
S'mojom_namespace'
p144
(S'IDENTIFIER'
p145
S'media.mojom'
tp146
sg16
I5
sg15
Nsg19
g20
sbsg19
Nsb.