ccopy_reg
_reconstructor
p1
(cmojom.parse.ast
Mojom
p2
c__builtin__
object
p3
NtRp4
(dp5
S'import_list'
p6
g1
(cmojom.parse.ast
ImportList
p7
g3
NtRp8
(dp9
S'items'
p10
(lp11
g1
(cmojom.parse.ast
Import
p12
g3
NtRp13
(dp14
S'attribute_list'
p15
NsS'lineno'
p16
I7
sS'import_filename'
p17
S'media/mojo/interfaces/content_decryption_module.mojom'
p18
sS'filename'
p19
S'../../media/mojo/interfaces/key_system_support.mojom'
p20
sbag1
(g12
g3
NtRp21
(dp22
g15
Nsg16
I8
sg17
S'media/mojo/interfaces/media_types.mojom'
p23
sg19
g20
sbasg16
I7
sg19
g20
sbsS'definition_list'
p24
(lp25
g1
(cmojom.parse.ast
Struct
p26
g3
NtRp27
(dp28
S'body'
p29
g1
(cmojom.parse.ast
StructBody
p30
g3
NtRp31
(dp32
g10
(lp33
g1
(cmojom.parse.ast
StructField
p34
g3
NtRp35
(dp36
S'ordinal'
p37
NsS'default_value'
p38
NsS'mojom_name'
p39
S'video_codecs'
p40
sg15
Nsg19
NsS'typename'
p41
S'VideoCodec[]'
p42
sg16
Nsbag1
(g34
g3
NtRp43
(dp44
g37
Nsg38
Nsg39
S'supports_vp9_profile2'
p45
sg15
Nsg19
Nsg41
S'bool'
p46
sg16
Nsbag1
(g34
g3
NtRp47
(dp48
g37
Nsg38
Nsg39
S'encryption_schemes'
p49
sg15
Nsg19
Nsg41
S'EncryptionMode[]'
p50
sg16
Nsbag1
(g34
g3
NtRp51
(dp52
g37
Nsg38
Nsg39
S'hw_secure_video_codecs'
p53
sg15
Nsg19
Nsg41
S'VideoCodec[]'
p54
sg16
Nsbag1
(g34
g3
NtRp55
(dp56
g37
Nsg38
Nsg39
S'hw_secure_encryption_schemes'
p57
sg15
Nsg19
Nsg41
S'EncryptionMode[]'
p58
sg16
Nsbag1
(g34
g3
NtRp59
(dp60
g37
Nsg38
Nsg39
S'session_types'
p61
sg15
Nsg19
Nsg41
S'CdmSessionType[]'
p62
sg16
Nsbasg16
Nsg19
Nsbsg15
Nsg16
Nsg39
S'KeySystemCapability'
p63
sg19
Nsbag1
(cmojom.parse.ast
Interface
p64
g3
NtRp65
(dp66
g29
g1
(cmojom.parse.ast
InterfaceBody
p67
g3
NtRp68
(dp69
g10
(lp70
g1
(cmojom.parse.ast
Method
p71
g3
NtRp72
(dp73
g37
Nsg39
S'IsKeySystemSupported'
p74
sS'parameter_list'
p75
g1
(cmojom.parse.ast
ParameterList
p76
g3
NtRp77
(dp78
g10
(lp79
g1
(cmojom.parse.ast
Parameter
p80
g3
NtRp81
(dp82
g37
Nsg39
S'key_system'
p83
sg15
Nsg19
g20
sg41
S'string'
p84
sg16
I38
sbasg16
I38
sg19
g20
sbsg15
g1
(cmojom.parse.ast
AttributeList
p85
g3
NtRp86
(dp87
g10
(lp88
g1
(cmojom.parse.ast
Attribute
p89
g3
NtRp90
(dp91
S'value'
p92
I01
sg16
I37
sS'key'
p93
S'Sync'
p94
sg19
g20
sbasg16
I37
sg19
g20
sbsg19
Nsg16
NsS'response_parameter_list'
p95
g1
(g76
g3
NtRp96
(dp97
g10
(lp98
g1
(g80
g3
NtRp99
(dp100
g37
Nsg39
S'is_supported'
p101
sg15
Nsg19
g20
sg41
S'bool'
p102
sg16
I39
sbag1
(g80
g3
NtRp103
(dp104
g37
Nsg39
S'key_system_capability'
p105
sg15
Nsg19
g20
sg41
S'KeySystemCapability?'
p106
sg16
I39
sbasg16
I39
sg19
g20
sbsbasg16
Nsg19
Nsbsg15
Nsg16
Nsg39
S'KeySystemSupport'
p107
sg19
Nsbasg16
NsS'module'
p108
g1
(cmojom.parse.ast
Module
p109
g3
NtRp110
(dp111
S'mojom_namespace'
p112
(S'IDENTIFIER'
p113
S'media.mojom'
tp114
sg16
I5
sg15
Nsg19
g20
sbsg19
Nsb.