ccopy_reg
_reconstructor
p1
(cmojom.parse.ast
Mojom
p2
c__builtin__
object
p3
NtRp4
(dp5
S'import_list'
p6
g1
(cmojom.parse.ast
ImportList
p7
g3
NtRp8
(dp9
S'items'
p10
(lp11
g1
(cmojom.parse.ast
Import
p12
g3
NtRp13
(dp14
S'attribute_list'
p15
NsS'lineno'
p16
I7
sS'import_filename'
p17
S'media/mojo/interfaces/media_types.mojom'
p18
sS'filename'
p19
S'../../media/mojo/interfaces/media_metrics_provider.mojom'
p20
sbag1
(g12
g3
NtRp21
(dp22
g15
Nsg16
I8
sg17
S'media/mojo/interfaces/video_decode_stats_recorder.mojom'
p23
sg19
g20
sbag1
(g12
g3
NtRp24
(dp25
g15
Nsg16
I9
sg17
S'media/mojo/interfaces/watch_time_recorder.mojom'
p26
sg19
g20
sbag1
(g12
g3
NtRp27
(dp28
g15
Nsg16
I10
sg17
S'mojo/public/mojom/base/time.mojom'
p29
sg19
g20
sbag1
(g12
g3
NtRp30
(dp31
g15
Nsg16
I11
sg17
S'ui/gfx/geometry/mojo/geometry.mojom'
p32
sg19
g20
sbasg16
I7
sg19
g20
sbsS'definition_list'
p33
(lp34
g1
(cmojom.parse.ast
Enum
p35
g3
NtRp36
(dp37
g15
NsS'enum_value_list'
p38
g1
(cmojom.parse.ast
EnumValueList
p39
g3
NtRp40
(dp41
g10
(lp42
g1
(cmojom.parse.ast
EnumValue
p43
g3
NtRp44
(dp45
g15
NsS'value'
p46
S'0'
sg16
I16
sS'mojom_name'
p47
S'kUnknown'
p48
sg19
g20
sbag1
(g43
g3
NtRp49
(dp50
g15
Nsg46
Nsg16
I17
sg47
S'kMissing'
p51
sg19
g20
sbag1
(g43
g3
NtRp52
(dp53
g15
Nsg46
Nsg16
I18
sg47
S'kHttp'
p54
sg19
g20
sbag1
(g43
g3
NtRp55
(dp56
g15
Nsg46
Nsg16
I19
sg47
S'kHttps'
p57
sg19
g20
sbag1
(g43
g3
NtRp58
(dp59
g15
Nsg46
Nsg16
I20
sg47
S'kFtp'
p60
sg19
g20
sbag1
(g43
g3
NtRp61
(dp62
g15
Nsg46
Nsg16
I21
sg47
S'kChromeExtension'
p63
sg19
g20
sbag1
(g43
g3
NtRp64
(dp65
g15
Nsg46
Nsg16
I22
sg47
S'kJavascript'
p66
sg19
g20
sbag1
(g43
g3
NtRp67
(dp68
g15
Nsg46
Nsg16
I23
sg47
S'kFile'
p69
sg19
g20
sbag1
(g43
g3
NtRp70
(dp71
g15
Nsg46
Nsg16
I24
sg47
S'kBlob'
p72
sg19
g20
sbag1
(g43
g3
NtRp73
(dp74
g15
Nsg46
Nsg16
I25
sg47
S'kData'
p75
sg19
g20
sbag1
(g43
g3
NtRp76
(dp77
g15
Nsg46
Nsg16
I26
sg47
S'kFileSystem'
p78
sg19
g20
sbag1
(g43
g3
NtRp79
(dp80
g15
Nsg46
Nsg16
I27
sg47
S'kChrome'
p81
sg19
g20
sbag1
(g43
g3
NtRp82
(dp83
g15
Nsg46
Nsg16
I28
sg47
S'kContent'
p84
sg19
g20
sbag1
(g43
g3
NtRp85
(dp86
g15
Nsg46
Nsg16
I29
sg47
S'kContentId'
p87
sg19
g20
sbasg16
I16
sg19
g20
sbsg16
I15
sg47
S'MediaURLScheme'
p88
sg19
g20
sbag1
(cmojom.parse.ast
Interface
p89
g3
NtRp90
(dp91
S'body'
p92
g1
(cmojom.parse.ast
InterfaceBody
p93
g3
NtRp94
(dp95
g10
(lp96
g1
(cmojom.parse.ast
Method
p97
g3
NtRp98
(dp99
S'ordinal'
p100
Nsg47
S'Initialize'
p101
sS'parameter_list'
p102
g1
(cmojom.parse.ast
ParameterList
p103
g3
NtRp104
(dp105
g10
(lp106
g1
(cmojom.parse.ast
Parameter
p107
g3
NtRp108
(dp109
g100
Nsg47
S'is_mse'
p110
sg15
Nsg19
g20
sS'typename'
p111
S'bool'
p112
sg16
I38
sbag1
(g107
g3
NtRp113
(dp114
g100
Nsg47
S'url_scheme'
p115
sg15
Nsg19
g20
sg111
S'MediaURLScheme'
p116
sg16
I38
sbasg16
I38
sg19
g20
sbsg15
Nsg19
Nsg16
NsS'response_parameter_list'
p117
Nsbag1
(g97
g3
NtRp118
(dp119
g100
Nsg47
S'OnError'
p120
sg102
g1
(g103
g3
NtRp121
(dp122
g10
(lp123
g1
(g107
g3
NtRp124
(dp125
g100
Nsg47
S'status'
p126
sg15
Nsg19
g20
sg111
S'PipelineStatus'
p127
sg16
I42
sbasg16
I42
sg19
g20
sbsg15
Nsg19
Nsg16
Nsg117
Nsbag1
(g97
g3
NtRp128
(dp129
g100
Nsg47
S'SetIsAdMedia'
p130
sg102
g1
(g103
g3
NtRp131
(dp132
g10
(lp133
sg16
Nsg19
Nsbsg15
Nsg19
Nsg16
Nsg117
Nsbag1
(g97
g3
NtRp134
(dp135
g100
Nsg47
S'SetIsEME'
p136
sg102
g1
(g103
g3
NtRp137
(dp138
g10
(lp139
sg16
Nsg19
Nsbsg15
Nsg19
Nsg16
Nsg117
Nsbag1
(g97
g3
NtRp140
(dp141
g100
Nsg47
S'SetTimeToMetadata'
p142
sg102
g1
(g103
g3
NtRp143
(dp144
g10
(lp145
g1
(g107
g3
NtRp146
(dp147
g100
Nsg47
S'elapsed'
p148
sg15
Nsg19
g20
sg111
S'mojo_base.mojom.TimeDelta'
p149
sg16
I47
sbasg16
I47
sg19
g20
sbsg15
Nsg19
Nsg16
Nsg117
Nsbag1
(g97
g3
NtRp150
(dp151
g100
Nsg47
S'SetTimeToFirstFrame'
p152
sg102
g1
(g103
g3
NtRp153
(dp154
g10
(lp155
g1
(g107
g3
NtRp156
(dp157
g100
Nsg47
S'elapsed'
p158
sg15
Nsg19
g20
sg111
S'mojo_base.mojom.TimeDelta'
p159
sg16
I48
sbasg16
I48
sg19
g20
sbsg15
Nsg19
Nsg16
Nsg117
Nsbag1
(g97
g3
NtRp160
(dp161
g100
Nsg47
S'SetTimeToPlayReady'
p162
sg102
g1
(g103
g3
NtRp163
(dp164
g10
(lp165
g1
(g107
g3
NtRp166
(dp167
g100
Nsg47
S'elapsed'
p168
sg15
Nsg19
g20
sg111
S'mojo_base.mojom.TimeDelta'
p169
sg16
I49
sbasg16
I49
sg19
g20
sbsg15
Nsg19
Nsg16
Nsg117
Nsbag1
(g97
g3
NtRp170
(dp171
g100
Nsg47
S'SetContainerName'
p172
sg102
g1
(g103
g3
NtRp173
(dp174
g10
(lp175
g1
(g107
g3
NtRp176
(dp177
g100
Nsg47
S'container_name'
p178
sg15
Nsg19
g20
sg111
S'MediaContainerName'
p179
sg16
I52
sbasg16
I52
sg19
g20
sbsg15
Nsg19
Nsg16
Nsg117
Nsbag1
(g97
g3
NtRp180
(dp181
g100
Nsg47
S'AcquireWatchTimeRecorder'
p182
sg102
g1
(g103
g3
NtRp183
(dp184
g10
(lp185
g1
(g107
g3
NtRp186
(dp187
g100
Nsg47
S'properties'
p188
sg15
Nsg19
g20
sg111
S'PlaybackProperties'
p189
sg16
I56
sbag1
(g107
g3
NtRp190
(dp191
g100
Nsg47
S'recorder'
p192
sg15
Nsg19
g20
sg111
S'WatchTimeRecorder&'
p193
sg16
I57
sbasg16
I56
sg19
g20
sbsg15
Nsg19
Nsg16
Nsg117
Nsbag1
(g97
g3
NtRp194
(dp195
g100
Nsg47
S'AcquireVideoDecodeStatsRecorder'
p196
sg102
g1
(g103
g3
NtRp197
(dp198
g10
(lp199
g1
(g107
g3
NtRp200
(dp201
g100
Nsg47
S'recorder'
p202
sg15
Nsg19
g20
sg111
S'VideoDecodeStatsRecorder&'
p203
sg16
I60
sbasg16
I60
sg19
g20
sbsg15
Nsg19
Nsg16
Nsg117
Nsbag1
(g97
g3
NtRp204
(dp205
g100
Nsg47
S'AddBytesReceived'
p206
sg102
g1
(g103
g3
NtRp207
(dp208
g10
(lp209
g1
(g107
g3
NtRp210
(dp211
g100
Nsg47
S'bytes_received'
p212
sg15
Nsg19
g20
sg111
S'uint64'
p213
sg16
I63
sbasg16
I63
sg19
g20
sbsg15
Nsg19
Nsg16
Nsg117
Nsbasg16
Nsg19
Nsbsg15
Nsg16
Nsg47
S'MediaMetricsProvider'
p214
sg19
Nsbasg16
NsS'module'
p215
g1
(cmojom.parse.ast
Module
p216
g3
NtRp217
(dp218
S'mojom_namespace'
p219
(S'IDENTIFIER'
p220
S'media.mojom'
tp221
sg16
I5
sg15
Nsg19
g20
sbsg19
Nsb.