ccopy_reg
_reconstructor
p1
(cmojom.parse.ast
Mojom
p2
c__builtin__
object
p3
NtRp4
(dp5
S'import_list'
p6
g1
(cmojom.parse.ast
ImportList
p7
g3
NtRp8
(dp9
S'items'
p10
(lp11
sS'lineno'
p12
NsS'filename'
p13
NsbsS'definition_list'
p14
(lp15
g1
(cmojom.parse.ast
Interface
p16
g3
NtRp17
(dp18
S'body'
p19
g1
(cmojom.parse.ast
InterfaceBody
p20
g3
NtRp21
(dp22
g10
(lp23
g1
(cmojom.parse.ast
Enum
p24
g3
NtRp25
(dp26
S'attribute_list'
p27
NsS'enum_value_list'
p28
g1
(cmojom.parse.ast
EnumValueList
p29
g3
NtRp30
(dp31
g10
(lp32
g1
(cmojom.parse.ast
EnumValue
p33
g3
NtRp34
(dp35
g27
NsS'value'
p36
S'0'
sg12
I12
sS'mojom_name'
p37
S'NONE'
p38
sg13
S'../../media/mojo/interfaces/output_protection.mojom'
p39
sbag1
(g33
g3
NtRp40
(dp41
g27
Nsg36
S'1'
sg12
I13
sg37
S'HDCP'
p42
sg13
g39
sbasg12
I12
sg13
g39
sbsg12
I11
sg37
S'ProtectionType'
p43
sg13
g39
sbag1
(g24
g3
NtRp44
(dp45
g27
Nsg28
g1
(g29
g3
NtRp46
(dp47
g10
(lp48
g1
(g33
g3
NtRp49
(dp50
g27
Nsg36
S'0'
sg12
I18
sg37
S'NONE'
p51
sg13
g39
sbag1
(g33
g3
NtRp52
(dp53
g27
Nsg36
S'1'
sg12
I19
sg37
S'UNKNOWN'
p54
sg13
g39
sbag1
(g33
g3
NtRp55
(dp56
g27
Nsg36
S'2'
sg12
I20
sg37
S'INTERNAL'
p57
sg13
g39
sbag1
(g33
g3
NtRp58
(dp59
g27
Nsg36
S'4'
sg12
I21
sg37
S'VGA'
p60
sg13
g39
sbag1
(g33
g3
NtRp61
(dp62
g27
Nsg36
S'8'
sg12
I22
sg37
S'HDMI'
p63
sg13
g39
sbag1
(g33
g3
NtRp64
(dp65
g27
Nsg36
S'16'
p66
sg12
I23
sg37
S'DVI'
p67
sg13
g39
sbag1
(g33
g3
NtRp68
(dp69
g27
Nsg36
S'32'
p70
sg12
I24
sg37
S'DISPLAYPORT'
p71
sg13
g39
sbag1
(g33
g3
NtRp72
(dp73
g27
Nsg36
S'64'
p74
sg12
I25
sg37
S'NETWORK'
p75
sg13
g39
sbasg12
I18
sg13
g39
sbsg12
I17
sg37
S'LinkType'
p76
sg13
g39
sbag1
(cmojom.parse.ast
Method
p77
g3
NtRp78
(dp79
S'ordinal'
p80
Nsg37
S'QueryStatus'
p81
sS'parameter_list'
p82
g1
(cmojom.parse.ast
ParameterList
p83
g3
NtRp84
(dp85
g10
(lp86
sg12
Nsg13
Nsbsg27
Nsg13
Nsg12
NsS'response_parameter_list'
p87
g1
(g83
g3
NtRp88
(dp89
g10
(lp90
g1
(cmojom.parse.ast
Parameter
p91
g3
NtRp92
(dp93
g80
Nsg37
S'success'
p94
sg27
Nsg13
g39
sS'typename'
p95
S'bool'
p96
sg12
I37
sbag1
(g91
g3
NtRp97
(dp98
g80
Nsg37
S'link_mask'
p99
sg27
Nsg13
g39
sg95
S'uint32'
p100
sg12
I37
sbag1
(g91
g3
NtRp101
(dp102
g80
Nsg37
S'protection_mask'
p103
sg27
Nsg13
g39
sg95
S'uint32'
p104
sg12
I37
sbasg12
I37
sg13
g39
sbsbag1
(g77
g3
NtRp105
(dp106
g80
Nsg37
S'EnableProtection'
p107
sg82
g1
(g83
g3
NtRp108
(dp109
g10
(lp110
g1
(g91
g3
NtRp111
(dp112
g80
Nsg37
S'desired_protection_mask'
p113
sg27
Nsg13
g39
sg95
S'uint32'
p114
sg12
I55
sbasg12
I55
sg13
g39
sbsg27
Nsg13
Nsg12
Nsg87
g1
(g83
g3
NtRp115
(dp116
g10
(lp117
g1
(g91
g3
NtRp118
(dp119
g80
Nsg37
S'success'
p120
sg27
Nsg13
g39
sg95
S'bool'
p121
sg12
I55
sbasg12
I55
sg13
g39
sbsbasg12
I11
sg13
g39
sbsg27
Nsg12
Nsg37
S'OutputProtection'
p122
sg13
Nsbasg12
NsS'module'
p123
g1
(cmojom.parse.ast
Module
p124
g3
NtRp125
(dp126
S'mojom_namespace'
p127
(S'IDENTIFIER'
p128
S'media.mojom'
tp129
sg12
I5
sg27
Nsg13
g39
sbsg13
Nsb.