ccopy_reg
_reconstructor
p1
(cmojom.parse.ast
Mojom
p2
c__builtin__
object
p3
NtRp4
(dp5
S'import_list'
p6
g1
(cmojom.parse.ast
ImportList
p7
g3
NtRp8
(dp9
S'items'
p10
(lp11
sS'lineno'
p12
NsS'filename'
p13
NsbsS'definition_list'
p14
(lp15
g1
(cmojom.parse.ast
Interface
p16
g3
NtRp17
(dp18
S'body'
p19
g1
(cmojom.parse.ast
InterfaceBody
p20
g3
NtRp21
(dp22
g10
(lp23
g1
(cmojom.parse.ast
Method
p24
g3
NtRp25
(dp26
S'ordinal'
p27
NsS'mojom_name'
p28
S'Retrieve'
p29
sS'parameter_list'
p30
g1
(cmojom.parse.ast
ParameterList
p31
g3
NtRp32
(dp33
g10
(lp34
g1
(cmojom.parse.ast
Parameter
p35
g3
NtRp36
(dp37
g27
Nsg28
S'default_url'
p38
sS'attribute_list'
p39
Nsg13
S'../../media/mojo/interfaces/provision_fetcher.mojom'
p40
sS'typename'
p41
S'string'
p42
sg12
I17
sbag1
(g35
g3
NtRp43
(dp44
g27
Nsg28
S'request_data'
p45
sg39
Nsg13
g40
sg41
S'string'
p46
sg12
I17
sbasg12
I17
sg13
g40
sbsg39
Nsg13
Nsg12
NsS'response_parameter_list'
p47
g1
(g31
g3
NtRp48
(dp49
g10
(lp50
g1
(g35
g3
NtRp51
(dp52
g27
Nsg28
S'result'
p53
sg39
Nsg13
g40
sg41
S'bool'
p54
sg12
I18
sbag1
(g35
g3
NtRp55
(dp56
g27
Nsg28
S'response'
p57
sg39
Nsg13
g40
sg41
S'string'
p58
sg12
I18
sbasg12
I18
sg13
g40
sbsbasg12
Nsg13
Nsbsg39
Nsg12
Nsg28
S'ProvisionFetcher'
p59
sg13
Nsbasg12
NsS'module'
p60
g1
(cmojom.parse.ast
Module
p61
g3
NtRp62
(dp63
S'mojom_namespace'
p64
(S'IDENTIFIER'
p65
S'media.mojom'
tp66
sg12
I5
sg39
Nsg13
g40
sbsg13
Nsb.