ccopy_reg
_reconstructor
p1
(cmojom.parse.ast
Mojom
p2
c__builtin__
object
p3
NtRp4
(dp5
S'import_list'
p6
g1
(cmojom.parse.ast
ImportList
p7
g3
NtRp8
(dp9
S'items'
p10
(lp11
g1
(cmojom.parse.ast
Import
p12
g3
NtRp13
(dp14
S'attribute_list'
p15
NsS'lineno'
p16
I7
sS'import_filename'
p17
S'media/mojo/interfaces/media_types.mojom'
p18
sS'filename'
p19
S'../../media/mojo/interfaces/watch_time_recorder.mojom'
p20
sbag1
(g12
g3
NtRp21
(dp22
g15
Nsg16
I8
sg17
S'mojo/public/mojom/base/time.mojom'
p23
sg19
g20
sbag1
(g12
g3
NtRp24
(dp25
g15
Nsg16
I9
sg17
S'ui/gfx/geometry/mojo/geometry.mojom'
p26
sg19
g20
sbag1
(g12
g3
NtRp27
(dp28
g15
Nsg16
I10
sg17
S'url/mojom/origin.mojom'
p29
sg19
g20
sbasg16
I7
sg19
g20
sbsS'definition_list'
p30
(lp31
g1
(cmojom.parse.ast
Struct
p32
g3
NtRp33
(dp34
S'body'
p35
g1
(cmojom.parse.ast
StructBody
p36
g3
NtRp37
(dp38
g10
(lp39
g1
(cmojom.parse.ast
StructField
p40
g3
NtRp41
(dp42
S'ordinal'
p43
NsS'default_value'
p44
NsS'mojom_name'
p45
S'has_audio'
p46
sg15
Nsg19
NsS'typename'
p47
S'bool'
p48
sg16
Nsbag1
(g40
g3
NtRp49
(dp50
g43
Nsg44
Nsg45
S'has_video'
p51
sg15
Nsg19
Nsg47
S'bool'
p52
sg16
Nsbag1
(g40
g3
NtRp53
(dp54
g43
Nsg44
Nsg45
S'is_background'
p55
sg15
Nsg19
Nsg47
S'bool'
p56
sg16
Nsbag1
(g40
g3
NtRp57
(dp58
g43
Nsg44
Nsg45
S'is_muted'
p59
sg15
Nsg19
Nsg47
S'bool'
p60
sg16
Nsbag1
(g40
g3
NtRp61
(dp62
g43
Nsg44
Nsg45
S'is_mse'
p63
sg15
Nsg19
Nsg47
S'bool'
p64
sg16
Nsbag1
(g40
g3
NtRp65
(dp66
g43
Nsg44
Nsg45
S'is_eme'
p67
sg15
Nsg19
Nsg47
S'bool'
p68
sg16
Nsbag1
(g40
g3
NtRp69
(dp70
g43
Nsg44
Nsg45
S'is_embedded_media_experience'
p71
sg15
Nsg19
Nsg47
S'bool'
p72
sg16
Nsbasg16
Nsg19
Nsbsg15
Nsg16
Nsg45
S'PlaybackProperties'
p73
sg19
Nsbag1
(g32
g3
NtRp74
(dp75
g35
g1
(g36
g3
NtRp76
(dp77
g10
(lp78
g1
(g40
g3
NtRp79
(dp80
g43
Nsg44
Nsg45
S'audio_codec'
p81
sg15
Nsg19
Nsg47
S'AudioCodec'
p82
sg16
Nsbag1
(g40
g3
NtRp83
(dp84
g43
Nsg44
Nsg45
S'video_codec'
p85
sg15
Nsg19
Nsg47
S'VideoCodec'
p86
sg16
Nsbag1
(g40
g3
NtRp87
(dp88
g43
Nsg44
Nsg45
S'audio_decoder_name'
p89
sg15
Nsg19
Nsg47
S'string'
p90
sg16
Nsbag1
(g40
g3
NtRp91
(dp92
g43
Nsg44
Nsg45
S'video_decoder_name'
p93
sg15
Nsg19
Nsg47
S'string'
p94
sg16
Nsbag1
(g40
g3
NtRp95
(dp96
g43
Nsg44
Nsg45
S'audio_encryption_scheme'
p97
sg15
Nsg19
Nsg47
S'EncryptionMode'
p98
sg16
Nsbag1
(g40
g3
NtRp99
(dp100
g43
Nsg44
Nsg45
S'video_encryption_scheme'
p101
sg15
Nsg19
Nsg47
S'EncryptionMode'
p102
sg16
Nsbag1
(g40
g3
NtRp103
(dp104
g43
Nsg44
Nsg45
S'natural_size'
p105
sg15
Nsg19
Nsg47
S'gfx.mojom.Size'
p106
sg16
Nsbasg16
Nsg19
Nsbsg15
Nsg16
Nsg45
S'SecondaryPlaybackProperties'
p107
sg19
Nsbag1
(cmojom.parse.ast
Interface
p108
g3
NtRp109
(dp110
g35
g1
(cmojom.parse.ast
InterfaceBody
p111
g3
NtRp112
(dp113
g10
(lp114
g1
(cmojom.parse.ast
Method
p115
g3
NtRp116
(dp117
g43
Nsg45
S'RecordWatchTime'
p118
sS'parameter_list'
p119
g1
(cmojom.parse.ast
ParameterList
p120
g3
NtRp121
(dp122
g10
(lp123
g1
(cmojom.parse.ast
Parameter
p124
g3
NtRp125
(dp126
g43
Nsg45
S'key'
p127
sg15
Nsg19
g20
sg47
S'WatchTimeKey'
p128
sg16
I58
sbag1
(g124
g3
NtRp129
(dp130
g43
Nsg45
S'watch_time'
p131
sg15
Nsg19
g20
sg47
S'mojo_base.mojom.TimeDelta'
p132
sg16
I58
sbasg16
I58
sg19
g20
sbsg15
Nsg19
Nsg16
NsS'response_parameter_list'
p133
Nsbag1
(g115
g3
NtRp134
(dp135
g43
Nsg45
S'FinalizeWatchTime'
p136
sg119
g1
(g120
g3
NtRp137
(dp138
g10
(lp139
g1
(g124
g3
NtRp140
(dp141
g43
Nsg45
S'watch_time_keys'
p142
sg15
Nsg19
g20
sg47
S'WatchTimeKey[]'
p143
sg16
I62
sbasg16
I62
sg19
g20
sbsg15
Nsg19
Nsg16
Nsg133
Nsbag1
(g115
g3
NtRp144
(dp145
g43
Nsg45
S'OnError'
p146
sg119
g1
(g120
g3
NtRp147
(dp148
g10
(lp149
g1
(g124
g3
NtRp150
(dp151
g43
Nsg45
S'status'
p152
sg15
Nsg19
g20
sg47
S'PipelineStatus'
p153
sg16
I66
sbasg16
I66
sg19
g20
sbsg15
Nsg19
Nsg16
Nsg133
Nsbag1
(g115
g3
NtRp154
(dp155
g43
Nsg45
S'UpdateSecondaryProperties'
p156
sg119
g1
(g120
g3
NtRp157
(dp158
g10
(lp159
g1
(g124
g3
NtRp160
(dp161
g43
Nsg45
S'secondary_properties'
p162
sg15
Nsg19
g20
sg47
S'SecondaryPlaybackProperties'
p163
sg16
I70
sbasg16
I70
sg19
g20
sbsg15
Nsg19
Nsg16
Nsg133
Nsbag1
(g115
g3
NtRp164
(dp165
g43
Nsg45
S'SetAutoplayInitiated'
p166
sg119
g1
(g120
g3
NtRp167
(dp168
g10
(lp169
g1
(g124
g3
NtRp170
(dp171
g43
Nsg45
S'value'
p172
sg15
Nsg19
g20
sg47
S'bool'
p173
sg16
I77
sbasg16
I77
sg19
g20
sbsg15
Nsg19
Nsg16
Nsg133
Nsbag1
(g115
g3
NtRp174
(dp175
g43
Nsg45
S'OnDurationChanged'
p176
sg119
g1
(g120
g3
NtRp177
(dp178
g10
(lp179
g1
(g124
g3
NtRp180
(dp181
g43
Nsg45
S'duration'
p182
sg15
Nsg19
g20
sg47
S'mojo_base.mojom.TimeDelta'
p183
sg16
I83
sbasg16
I83
sg19
g20
sbsg15
Nsg19
Nsg16
Nsg133
Nsbag1
(g115
g3
NtRp184
(dp185
g43
Nsg45
S'UpdateUnderflowCount'
p186
sg119
g1
(g120
g3
NtRp187
(dp188
g10
(lp189
g1
(g124
g3
NtRp190
(dp191
g43
Nsg45
S'count'
p192
sg15
Nsg19
g20
sg47
S'int32'
p193
sg16
I88
sbasg16
I88
sg19
g20
sbsg15
Nsg19
Nsg16
Nsg133
Nsbasg16
Nsg19
Nsbsg15
Nsg16
Nsg45
S'WatchTimeRecorder'
p194
sg19
Nsbasg16
NsS'module'
p195
g1
(cmojom.parse.ast
Module
p196
g3
NtRp197
(dp198
S'mojom_namespace'
p199
(S'IDENTIFIER'
p200
S'media.mojom'
tp201
sg16
I5
sg15
Nsg19
g20
sbsg19
Nsb.