ccopy_reg
_reconstructor
p1
(cmojom.parse.ast
Mojom
p2
c__builtin__
object
p3
NtRp4
(dp5
S'import_list'
p6
g1
(cmojom.parse.ast
ImportList
p7
g3
NtRp8
(dp9
S'items'
p10
(lp11
g1
(cmojom.parse.ast
Import
p12
g3
NtRp13
(dp14
S'attribute_list'
p15
NsS'lineno'
p16
I7
sS'import_filename'
p17
S'services/service_manager/public/mojom/service.mojom'
p18
sS'filename'
p19
S'../../content/common/child_control.mojom'
p20
sbasg16
I7
sg19
g20
sbsS'definition_list'
p21
(lp22
g1
(cmojom.parse.ast
Interface
p23
g3
NtRp24
(dp25
S'body'
p26
g1
(cmojom.parse.ast
InterfaceBody
p27
g3
NtRp28
(dp29
g10
(lp30
g1
(cmojom.parse.ast
Method
p31
g3
NtRp32
(dp33
S'ordinal'
p34
NsS'mojom_name'
p35
S'ProcessShutdown'
p36
sS'parameter_list'
p37
g1
(cmojom.parse.ast
ParameterList
p38
g3
NtRp39
(dp40
g10
(lp41
sg16
Nsg19
Nsbsg15
Nsg19
Nsg16
NsS'response_parameter_list'
p42
Nsbag1
(g31
g3
NtRp43
(dp44
g34
Nsg35
S'SetIPCLoggingEnabled'
p45
sg37
g1
(g38
g3
NtRp46
(dp47
g10
(lp48
g1
(cmojom.parse.ast
Parameter
p49
g3
NtRp50
(dp51
g34
Nsg35
S'on'
p52
sg15
Nsg19
g20
sS'typename'
p53
S'bool'
p54
sg16
I15
sbasg16
I15
sg19
g20
sbsg15
g1
(cmojom.parse.ast
AttributeList
p55
g3
NtRp56
(dp57
g10
(lp58
g1
(cmojom.parse.ast
Attribute
p59
g3
NtRp60
(dp61
S'value'
p62
S'ipc_logging'
p63
sg16
I14
sS'key'
p64
S'EnableIf'
p65
sg19
g20
sbasg16
I14
sg19
g20
sbsg19
Nsg16
Nsg42
Nsbag1
(g31
g3
NtRp66
(dp67
g34
Nsg35
S'RunService'
p68
sg37
g1
(g38
g3
NtRp69
(dp70
g10
(lp71
g1
(g49
g3
NtRp72
(dp73
g34
Nsg35
S'service_name'
p74
sg15
Nsg19
g20
sg53
S'string'
p75
sg16
I20
sbag1
(g49
g3
NtRp76
(dp77
g34
Nsg35
S'receiver'
p78
sg15
Nsg19
g20
sg53
S'rcv<service_manager.mojom.Service>'
p79
sg16
I21
sbasg16
I20
sg19
g20
sbsg15
Nsg19
Nsg16
Nsg42
Nsbasg16
Nsg19
Nsbsg15
Nsg16
Nsg35
S'ChildControl'
p80
sg19
Nsbasg16
NsS'module'
p81
g1
(cmojom.parse.ast
Module
p82
g3
NtRp83
(dp84
S'mojom_namespace'
p85
(S'IDENTIFIER'
p86
S'content.mojom'
tp87
sg16
I5
sg15
Nsg19
g20
sbsg19
Nsb.