ccopy_reg
_reconstructor
p1
(cmojom.parse.ast
Mojom
p2
c__builtin__
object
p3
NtRp4
(dp5
S'import_list'
p6
g1
(cmojom.parse.ast
ImportList
p7
g3
NtRp8
(dp9
S'items'
p10
(lp11
g1
(cmojom.parse.ast
Import
p12
g3
NtRp13
(dp14
S'attribute_list'
p15
NsS'lineno'
p16
I7
sS'import_filename'
p17
S'services/service_manager/public/mojom/interface_provider.mojom'
p18
sS'filename'
p19
S'../../content/common/document_scoped_interface_bundle.mojom'
p20
sbag1
(g12
g3
NtRp21
(dp22
g15
Nsg16
I8
sg17
S'third_party/blink/public/mojom/frame/document_interface_broker.mojom'
p23
sg19
g20
sbasg16
I7
sg19
g20
sbsS'definition_list'
p24
(lp25
g1
(cmojom.parse.ast
Struct
p26
g3
NtRp27
(dp28
S'body'
p29
g1
(cmojom.parse.ast
StructBody
p30
g3
NtRp31
(dp32
g10
(lp33
g1
(cmojom.parse.ast
StructField
p34
g3
NtRp35
(dp36
S'ordinal'
p37
NsS'default_value'
p38
NsS'mojom_name'
p39
S'interface_provider'
p40
sg15
Nsg19
NsS'typename'
p41
S'service_manager.mojom.InterfaceProvider'
p42
sg16
Nsbag1
(g34
g3
NtRp43
(dp44
g37
Nsg38
Nsg39
S'document_interface_broker_content'
p45
sg15
Nsg19
Nsg41
S'blink.mojom.DocumentInterfaceBroker'
p46
sg16
Nsbag1
(g34
g3
NtRp47
(dp48
g37
Nsg38
Nsg39
S'document_interface_broker_blink'
p49
sg15
Nsg19
Nsg41
S'blink.mojom.DocumentInterfaceBroker'
p50
sg16
Nsbasg16
Nsg19
Nsbsg15
Nsg16
Nsg39
S'DocumentScopedInterfaceBundle'
p51
sg19
Nsbasg16
NsS'module'
p52
g1
(cmojom.parse.ast
Module
p53
g3
NtRp54
(dp55
S'mojom_namespace'
p56
(S'IDENTIFIER'
p57
S'content.mojom'
tp58
sg16
I5
sg15
Nsg19
g20
sbsg19
Nsb.