ccopy_reg
_reconstructor
p1
(cmojom.parse.ast
Mojom
p2
c__builtin__
object
p3
NtRp4
(dp5
S'import_list'
p6
g1
(cmojom.parse.ast
ImportList
p7
g3
NtRp8
(dp9
S'items'
p10
(lp11
sS'lineno'
p12
NsS'filename'
p13
NsbsS'definition_list'
p14
(lp15
g1
(cmojom.parse.ast
Interface
p16
g3
NtRp17
(dp18
S'body'
p19
g1
(cmojom.parse.ast
InterfaceBody
p20
g3
NtRp21
(dp22
g10
(lp23
g1
(cmojom.parse.ast
Method
p24
g3
NtRp25
(dp26
S'ordinal'
p27
NsS'mojom_name'
p28
S'FieldTrialActivated'
p29
sS'parameter_list'
p30
g1
(cmojom.parse.ast
ParameterList
p31
g3
NtRp32
(dp33
g10
(lp34
g1
(cmojom.parse.ast
Parameter
p35
g3
NtRp36
(dp37
g27
Nsg28
S'trial_name'
p38
sS'attribute_list'
p39
Nsg13
S'../../content/common/field_trial_recorder.mojom'
p40
sS'typename'
p41
S'string'
p42
sg12
I10
sbasg12
I10
sg13
g40
sbsg39
Nsg13
Nsg12
NsS'response_parameter_list'
p43
Nsbasg12
Nsg13
Nsbsg39
Nsg12
Nsg28
S'FieldTrialRecorder'
p44
sg13
Nsbasg12
NsS'module'
p45
g1
(cmojom.parse.ast
Module
p46
g3
NtRp47
(dp48
S'mojom_namespace'
p49
(S'IDENTIFIER'
p50
S'content.mojom'
tp51
sg12
I5
sg39
Nsg13
g40
sbsg13
Nsb.