ccopy_reg
_reconstructor
p1
(cmojom.parse.ast
Mojom
p2
c__builtin__
object
p3
NtRp4
(dp5
S'import_list'
p6
g1
(cmojom.parse.ast
ImportList
p7
g3
NtRp8
(dp9
S'items'
p10
(lp11
g1
(cmojom.parse.ast
Import
p12
g3
NtRp13
(dp14
S'attribute_list'
p15
NsS'lineno'
p16
I7
sS'import_filename'
p17
S'services/service_manager/public/mojom/interface_provider.mojom'
p18
sS'filename'
p19
S'../../content/common/frame_messages.mojom'
p20
sbag1
(g12
g3
NtRp21
(dp22
g15
Nsg16
I8
sg17
S'third_party/blink/public/mojom/frame/document_interface_broker.mojom'
p23
sg19
g20
sbasg16
I7
sg19
g20
sbsS'definition_list'
p24
(lp25
g1
(cmojom.parse.ast
Struct
p26
g3
NtRp27
(dp28
S'body'
p29
Nsg15
g1
(cmojom.parse.ast
AttributeList
p30
g3
NtRp31
(dp32
g10
(lp33
g1
(cmojom.parse.ast
Attribute
p34
g3
NtRp35
(dp36
S'value'
p37
I01
sg16
I10
sS'key'
p38
S'Native'
p39
sg19
g20
sbasg16
I10
sg19
g20
sbsg16
NsS'mojom_name'
p40
S'DidCommitProvisionalLoadParams'
p41
sg19
Nsbag1
(g26
g3
NtRp42
(dp43
g29
g1
(cmojom.parse.ast
StructBody
p44
g3
NtRp45
(dp46
g10
(lp47
g1
(cmojom.parse.ast
StructField
p48
g3
NtRp49
(dp50
S'ordinal'
p51
NsS'default_value'
p52
Nsg40
S'interface_provider_request'
p53
sg15
Nsg19
NsS'typename'
p54
S'service_manager.mojom.InterfaceProvider&'
p55
sg16
Nsbag1
(g48
g3
NtRp56
(dp57
g51
Nsg52
Nsg40
S'document_interface_broker_content_request'
p58
sg15
Nsg19
Nsg54
S'blink.mojom.DocumentInterfaceBroker&'
p59
sg16
Nsbag1
(g48
g3
NtRp60
(dp61
g51
Nsg52
Nsg40
S'document_interface_broker_blink_request'
p62
sg15
Nsg19
Nsg54
S'blink.mojom.DocumentInterfaceBroker&'
p63
sg16
Nsbasg16
Nsg19
Nsbsg15
Nsg16
Nsg40
S'DidCommitProvisionalLoadInterfaceParams'
p64
sg19
Nsbasg16
NsS'module'
p65
g1
(cmojom.parse.ast
Module
p66
g3
NtRp67
(dp68
S'mojom_namespace'
p69
(S'IDENTIFIER'
p70
S'content.mojom'
tp71
sg16
I5
sg15
Nsg19
g20
sbsg19
Nsb.