ccopy_reg
_reconstructor
p1
(cmojom.parse.ast
Mojom
p2
c__builtin__
object
p3
NtRp4
(dp5
S'import_list'
p6
g1
(cmojom.parse.ast
ImportList
p7
g3
NtRp8
(dp9
S'items'
p10
(lp11
g1
(cmojom.parse.ast
Import
p12
g3
NtRp13
(dp14
S'attribute_list'
p15
NsS'lineno'
p16
I7
sS'import_filename'
p17
S'content/common/render_frame_metadata.mojom'
p18
sS'filename'
p19
S'../../content/common/frame_sink_provider.mojom'
p20
sbag1
(g12
g3
NtRp21
(dp22
g15
Nsg16
I8
sg17
S'services/viz/public/interfaces/compositing/compositor_frame_sink.mojom'
p23
sg19
g20
sbasg16
I7
sg19
g20
sbsS'definition_list'
p24
(lp25
g1
(cmojom.parse.ast
Interface
p26
g3
NtRp27
(dp28
S'body'
p29
g1
(cmojom.parse.ast
InterfaceBody
p30
g3
NtRp31
(dp32
g10
(lp33
g1
(cmojom.parse.ast
Method
p34
g3
NtRp35
(dp36
S'ordinal'
p37
NsS'mojom_name'
p38
S'CreateForWidget'
p39
sS'parameter_list'
p40
g1
(cmojom.parse.ast
ParameterList
p41
g3
NtRp42
(dp43
g10
(lp44
g1
(cmojom.parse.ast
Parameter
p45
g3
NtRp46
(dp47
g37
Nsg38
S'widget_id'
p48
sg15
Nsg19
g20
sS'typename'
p49
S'int32'
p50
sg16
I16
sbag1
(g45
g3
NtRp51
(dp52
g37
Nsg38
S'compositor_frame_sink_request'
p53
sg15
Nsg19
g20
sg49
S'viz.mojom.CompositorFrameSink&'
p54
sg16
I17
sbag1
(g45
g3
NtRp55
(dp56
g37
Nsg38
S'compositor_frame_sink_client'
p57
sg15
Nsg19
g20
sg49
S'viz.mojom.CompositorFrameSinkClient'
p58
sg16
I18
sbasg16
I16
sg19
g20
sbsg15
Nsg19
Nsg16
NsS'response_parameter_list'
p59
Nsbag1
(g34
g3
NtRp60
(dp61
g37
Nsg38
S'RegisterRenderFrameMetadataObserver'
p62
sg40
g1
(g41
g3
NtRp63
(dp64
g10
(lp65
g1
(g45
g3
NtRp66
(dp67
g37
Nsg38
S'widget_id'
p68
sg15
Nsg19
g20
sg49
S'int32'
p69
sg16
I21
sbag1
(g45
g3
NtRp70
(dp71
g37
Nsg38
S'render_frame_metadata_observer_client_request'
p72
sg15
Nsg19
g20
sg49
S'RenderFrameMetadataObserverClient&'
p73
sg16
I23
sbag1
(g45
g3
NtRp74
(dp75
g37
Nsg38
S'render_frame_metadata_observer'
p76
sg15
Nsg19
g20
sg49
S'RenderFrameMetadataObserver'
p77
sg16
I24
sbasg16
I21
sg19
g20
sbsg15
Nsg19
Nsg16
Nsg59
Nsbasg16
Nsg19
Nsbsg15
Nsg16
Nsg38
S'FrameSinkProvider'
p78
sg19
Nsbasg16
NsS'module'
p79
g1
(cmojom.parse.ast
Module
p80
g3
NtRp81
(dp82
S'mojom_namespace'
p83
(S'IDENTIFIER'
p84
S'content.mojom'
tp85
sg16
I5
sg15
Nsg19
g20
sbsg19
Nsb.