ccopy_reg
_reconstructor
p1
(cmojom.parse.ast
Mojom
p2
c__builtin__
object
p3
NtRp4
(dp5
S'import_list'
p6
g1
(cmojom.parse.ast
ImportList
p7
g3
NtRp8
(dp9
S'items'
p10
(lp11
g1
(cmojom.parse.ast
Import
p12
g3
NtRp13
(dp14
S'attribute_list'
p15
NsS'lineno'
p16
I7
sS'import_filename'
p17
S'content/common/document_scoped_interface_bundle.mojom'
p18
sS'filename'
p19
S'../../content/common/frame.mojom'
p20
sbag1
(g12
g3
NtRp21
(dp22
g15
Nsg16
I8
sg17
S'content/common/frame_messages.mojom'
p23
sg19
g20
sbag1
(g12
g3
NtRp24
(dp25
g15
Nsg16
I9
sg17
S'content/common/navigation_client.mojom'
p26
sg19
g20
sbag1
(g12
g3
NtRp27
(dp28
g15
Nsg16
I10
sg17
S'content/common/navigation_params.mojom'
p29
sg19
g20
sbag1
(g12
g3
NtRp30
(dp31
g15
Nsg16
I11
sg17
S'content/public/common/resource_type.mojom'
p32
sg19
g20
sbag1
(g12
g3
NtRp33
(dp34
g15
Nsg16
I12
sg17
S'content/public/common/resource_load_info.mojom'
p35
sg19
g20
sbag1
(g12
g3
NtRp36
(dp37
g15
Nsg16
I13
sg17
S'content/public/common/transferrable_url_loader.mojom'
p38
sg19
g20
sbag1
(g12
g3
NtRp39
(dp40
g15
Nsg16
I14
sg17
S'content/public/common/window_container_type.mojom'
p41
sg19
g20
sbag1
(g12
g3
NtRp42
(dp43
g15
Nsg16
I15
sg17
S'mojo/public/mojom/base/string16.mojom'
p44
sg19
g20
sbag1
(g12
g3
NtRp45
(dp46
g15
Nsg16
I16
sg17
S'mojo/public/mojom/base/unguessable_token.mojom'
p47
sg19
g20
sbag1
(g12
g3
NtRp48
(dp49
g15
Nsg16
I17
sg17
S'mojo/public/mojom/base/values.mojom'
p50
sg19
g20
sbag1
(g12
g3
NtRp51
(dp52
g15
Nsg16
I18
sg17
S'services/network/public/mojom/url_loader.mojom'
p53
sg19
g20
sbag1
(g12
g3
NtRp54
(dp55
g15
Nsg16
I19
sg17
S'services/network/public/mojom/url_loader_factory.mojom'
p56
sg19
g20
sbag1
(g12
g3
NtRp57
(dp58
g15
Nsg16
I20
sg17
S'services/service_manager/public/mojom/interface_provider.mojom'
p59
sg19
g20
sbag1
(g12
g3
NtRp60
(dp61
g15
Nsg16
I21
sg17
S'services/viz/public/interfaces/compositing/surface_id.mojom'
p62
sg19
g20
sbag1
(g12
g3
NtRp63
(dp64
g15
Nsg16
I22
sg17
S'third_party/blink/public/mojom/blob/blob_url_store.mojom'
p65
sg19
g20
sbag1
(g12
g3
NtRp66
(dp67
g15
Nsg16
I23
sg17
S'third_party/blink/public/mojom/commit_result/commit_result.mojom'
p68
sg19
g20
sbag1
(g12
g3
NtRp69
(dp70
g15
Nsg16
I24
sg17
S'third_party/blink/public/mojom/devtools/console_message.mojom'
p71
sg19
g20
sbag1
(g12
g3
NtRp72
(dp73
g15
Nsg16
I25
sg17
S'third_party/blink/public/mojom/feature_policy/feature_policy.mojom'
p74
sg19
g20
sbag1
(g12
g3
NtRp75
(dp76
g15
Nsg16
I26
sg17
S'third_party/blink/public/mojom/frame/lifecycle.mojom'
p77
sg19
g20
sbag1
(g12
g3
NtRp78
(dp79
g15
Nsg16
I27
sg17
S'third_party/blink/public/mojom/frame/navigation_initiator.mojom'
p80
sg19
g20
sbag1
(g12
g3
NtRp81
(dp82
g15
Nsg16
I28
sg17
S'third_party/blink/public/mojom/messaging/transferable_message.mojom'
p83
sg19
g20
sbag1
(g12
g3
NtRp84
(dp85
g15
Nsg16
I29
sg17
S'third_party/blink/public/mojom/loader/url_loader_factory_bundle.mojom'
p86
sg19
g20
sbag1
(g12
g3
NtRp87
(dp88
g15
Nsg16
I30
sg17
S'third_party/blink/public/mojom/messaging/transferable_message.mojom'
p89
sg19
g20
sbag1
(g12
g3
NtRp90
(dp91
g15
Nsg16
I31
sg17
S'third_party/blink/public/mojom/portal/portal.mojom'
p92
sg19
g20
sbag1
(g12
g3
NtRp93
(dp94
g15
Nsg16
I32
sg17
S'third_party/blink/public/mojom/referrer.mojom'
p95
sg19
g20
sbag1
(g12
g3
NtRp96
(dp97
g15
Nsg16
I33
sg17
S'third_party/blink/public/mojom/service_worker/controller_service_worker.mojom'
p98
sg19
g20
sbag1
(g12
g3
NtRp99
(dp100
g15
Nsg16
I34
sg17
S'third_party/blink/public/mojom/service_worker/service_worker_provider.mojom'
p101
sg19
g20
sbag1
(g12
g3
NtRp102
(dp103
g15
Nsg16
I35
sg17
S'third_party/blink/public/mojom/devtools/devtools_agent.mojom'
p104
sg19
g20
sbag1
(g12
g3
NtRp105
(dp106
g15
Nsg16
I36
sg17
S'third_party/blink/public/mojom/portal/portal.mojom'
p107
sg19
g20
sbag1
(g12
g3
NtRp108
(dp109
g15
Nsg16
I37
sg17
S'third_party/blink/public/mojom/window_features/window_features.mojom'
p110
sg19
g20
sbag1
(g12
g3
NtRp111
(dp112
g15
Nsg16
I38
sg17
S'ui/base/mojo/window_open_disposition.mojom'
p113
sg19
g20
sbag1
(g12
g3
NtRp114
(dp115
g15
Nsg16
I39
sg17
S'url/mojom/url.mojom'
p116
sg19
g20
sbag1
(g12
g3
NtRp117
(dp118
g15
Nsg16
I40
sg17
S'url/mojom/origin.mojom'
p119
sg19
g20
sbag1
(g12
g3
NtRp120
(dp121
g15
Nsg16
I41
sg17
S'ui/gfx/geometry/mojo/geometry.mojom'
p122
sg19
g20
sbasg16
I7
sg19
g20
sbsS'definition_list'
p123
(lp124
g1
(cmojom.parse.ast
Const
p125
g3
NtRp126
(dp127
S'mojom_name'
p128
S'kNavigation_FrameSpec'
p129
sg15
NsS'value'
p130
S'"navigation:frame"'
p131
sg19
NsS'typename'
p132
S'string'
p133
sg16
Nsbag1
(cmojom.parse.ast
Interface
p134
g3
NtRp135
(dp136
S'body'
p137
g1
(cmojom.parse.ast
InterfaceBody
p138
g3
NtRp139
(dp140
g10
(lp141
g1
(cmojom.parse.ast
Method
p142
g3
NtRp143
(dp144
S'ordinal'
p145
Nsg128
S'GetInterfaceProvider'
p146
sS'parameter_list'
p147
g1
(cmojom.parse.ast
ParameterList
p148
g3
NtRp149
(dp150
g10
(lp151
g1
(cmojom.parse.ast
Parameter
p152
g3
NtRp153
(dp154
g145
Nsg128
S'interfaces'
p155
sg15
Nsg19
g20
sg132
S'service_manager.mojom.InterfaceProvider&'
p156
sg16
I49
sbasg16
I49
sg19
g20
sbsg15
Nsg19
Nsg16
NsS'response_parameter_list'
p157
Nsbag1
(g142
g3
NtRp158
(dp159
g145
Nsg128
S'GetCanonicalUrlForSharing'
p160
sg147
g1
(g148
g3
NtRp161
(dp162
g10
(lp163
sg16
Nsg19
Nsbsg15
Nsg19
Nsg16
Nsg157
g1
(g148
g3
NtRp164
(dp165
g10
(lp166
g1
(g152
g3
NtRp167
(dp168
g145
Nsg128
S'canonical_url'
p169
sg15
Nsg19
g20
sg132
S'url.mojom.Url?'
p170
sg16
I50
sbasg16
I50
sg19
g20
sbsbag1
(g142
g3
NtRp171
(dp172
g145
Nsg128
S'BlockRequests'
p173
sg147
g1
(g148
g3
NtRp174
(dp175
g10
(lp176
sg16
Nsg19
Nsbsg15
Nsg19
Nsg16
Nsg157
Nsbag1
(g142
g3
NtRp177
(dp178
g145
Nsg128
S'ResumeBlockedRequests'
p179
sg147
g1
(g148
g3
NtRp180
(dp181
g10
(lp182
sg16
Nsg19
Nsbsg15
Nsg19
Nsg16
Nsg157
Nsbag1
(g142
g3
NtRp183
(dp184
g145
Nsg128
S'CancelBlockedRequests'
p185
sg147
g1
(g148
g3
NtRp186
(dp187
g10
(lp188
sg16
Nsg19
Nsbsg15
Nsg19
Nsg16
Nsg157
Nsbag1
(g142
g3
NtRp189
(dp190
g145
Nsg128
S'SetLifecycleState'
p191
sg147
g1
(g148
g3
NtRp192
(dp193
g10
(lp194
g1
(g152
g3
NtRp195
(dp196
g145
Nsg128
S'state'
p197
sg15
Nsg19
g20
sg132
S'blink.mojom.FrameLifecycleState'
p198
sg16
I64
sbasg16
I64
sg19
g20
sbsg15
Nsg19
Nsg16
Nsg157
Nsbasg16
Nsg19
Nsbsg15
Nsg16
Nsg128
S'Frame'
p199
sg19
Nsbag1
(cmojom.parse.ast
Struct
p200
g3
NtRp201
(dp202
g137
Nsg15
g1
(cmojom.parse.ast
AttributeList
p203
g3
NtRp204
(dp205
g10
(lp206
g1
(cmojom.parse.ast
Attribute
p207
g3
NtRp208
(dp209
g130
I01
sg16
I75
sS'key'
p210
S'Native'
p211
sg19
g20
sbasg16
I75
sg19
g20
sbsg16
Nsg128
S'CommonNavigationParams'
p212
sg19
Nsbag1
(g200
g3
NtRp213
(dp214
g137
Nsg15
g1
(g203
g3
NtRp215
(dp216
g10
(lp217
g1
(g207
g3
NtRp218
(dp219
g130
I01
sg16
I79
sg210
S'Native'
p220
sg19
g20
sbasg16
I79
sg19
g20
sbsg16
Nsg128
S'CommitNavigationParams'
p221
sg19
Nsbag1
(g134
g3
NtRp222
(dp223
g137
g1
(g138
g3
NtRp224
(dp225
g10
(lp226
g1
(g142
g3
NtRp227
(dp228
g145
Nsg128
S'CommitNavigation'
p229
sg147
g1
(g148
g3
NtRp230
(dp231
g10
(lp232
g1
(g152
g3
NtRp233
(dp234
g145
Nsg128
S'head'
p235
sg15
Nsg19
g20
sg132
S'network.mojom.URLResponseHead'
p236
sg16
I120
sbag1
(g152
g3
NtRp237
(dp238
g145
Nsg128
S'common_params'
p239
sg15
Nsg19
g20
sg132
S'CommonNavigationParams'
p240
sg16
I121
sbag1
(g152
g3
NtRp241
(dp242
g145
Nsg128
S'request_params'
p243
sg15
Nsg19
g20
sg132
S'CommitNavigationParams'
p244
sg16
I122
sbag1
(g152
g3
NtRp245
(dp246
g145
Nsg128
S'url_loader_client_endpoints'
p247
sg15
Nsg19
g20
sg132
S'network.mojom.URLLoaderClientEndpoints?'
p248
sg16
I123
sbag1
(g152
g3
NtRp249
(dp250
g145
Nsg128
S'subresource_loader_factories'
p251
sg15
Nsg19
g20
sg132
S'blink.mojom.URLLoaderFactoryBundle?'
p252
sg16
I124
sbag1
(g152
g3
NtRp253
(dp254
g145
Nsg128
S'subresource_overrides'
p255
sg15
Nsg19
g20
sg132
S'TransferrableURLLoader[]?'
p256
sg16
I125
sbag1
(g152
g3
NtRp257
(dp258
g145
Nsg128
S'controller_service_worker_info'
p259
sg15
Nsg19
g20
sg132
S'blink.mojom.ControllerServiceWorkerInfo?'
p260
sg16
I126
sbag1
(g152
g3
NtRp261
(dp262
g145
Nsg128
S'provider_info'
p263
sg15
Nsg19
g20
sg132
S'blink.mojom.ServiceWorkerProviderInfoForWindow?'
p264
sg16
I127
sbag1
(g152
g3
NtRp265
(dp266
g145
Nsg128
S'prefetch_loader_factory'
p267
sg15
Nsg19
g20
sg132
S'network.mojom.URLLoaderFactory?'
p268
sg16
I128
sbag1
(g152
g3
NtRp269
(dp270
g145
Nsg128
S'devtools_navigation_token'
p271
sg15
Nsg19
g20
sg132
S'mojo_base.mojom.UnguessableToken'
p272
sg16
I129
sbasg16
I120
sg19
g20
sbsg15
Nsg19
Nsg16
Nsg157
g1
(g148
g3
NtRp273
(dp274
g10
(lp275
g1
(g152
g3
NtRp276
(dp277
g145
Nsg128
S'commit_result'
p278
sg15
Nsg19
g20
sg132
S'blink.mojom.CommitResult'
p279
sg16
I130
sbasg16
I130
sg19
g20
sbsbag1
(g142
g3
NtRp280
(dp281
g145
Nsg128
S'CommitFailedNavigation'
p282
sg147
g1
(g148
g3
NtRp283
(dp284
g10
(lp285
g1
(g152
g3
NtRp286
(dp287
g145
Nsg128
S'common_params'
p288
sg15
Nsg19
g20
sg132
S'CommonNavigationParams'
p289
sg16
I142
sbag1
(g152
g3
NtRp290
(dp291
g145
Nsg128
S'request_params'
p292
sg15
Nsg19
g20
sg132
S'CommitNavigationParams'
p293
sg16
I143
sbag1
(g152
g3
NtRp294
(dp295
g145
Nsg128
S'has_stale_copy_in_cache'
p296
sg15
Nsg19
g20
sg132
S'bool'
p297
sg16
I144
sbag1
(g152
g3
NtRp298
(dp299
g145
Nsg128
S'error_code'
p300
sg15
Nsg19
g20
sg132
S'int32'
p301
sg16
I145
sbag1
(g152
g3
NtRp302
(dp303
g145
Nsg128
S'error_page_content'
p304
sg15
Nsg19
g20
sg132
S'string?'
p305
sg16
I146
sbag1
(g152
g3
NtRp306
(dp307
g145
Nsg128
S'subresource_loader_factories'
p308
sg15
Nsg19
g20
sg132
S'blink.mojom.URLLoaderFactoryBundle?'
p309
sg16
I147
sbasg16
I142
sg19
g20
sbsg15
Nsg19
Nsg16
Nsg157
g1
(g148
g3
NtRp310
(dp311
g10
(lp312
g1
(g152
g3
NtRp313
(dp314
g145
Nsg128
S'commit_result'
p315
sg15
Nsg19
g20
sg132
S'blink.mojom.CommitResult'
p316
sg16
I148
sbasg16
I148
sg19
g20
sbsbag1
(g142
g3
NtRp317
(dp318
g145
Nsg128
S'CommitSameDocumentNavigation'
p319
sg147
g1
(g148
g3
NtRp320
(dp321
g10
(lp322
g1
(g152
g3
NtRp323
(dp324
g145
Nsg128
S'common_params'
p325
sg15
Nsg19
g20
sg132
S'CommonNavigationParams'
p326
sg16
I156
sbag1
(g152
g3
NtRp327
(dp328
g145
Nsg128
S'request_params'
p329
sg15
Nsg19
g20
sg132
S'CommitNavigationParams'
p330
sg16
I157
sbasg16
I156
sg19
g20
sbsg15
Nsg19
Nsg16
Nsg157
g1
(g148
g3
NtRp331
(dp332
g10
(lp333
g1
(g152
g3
NtRp334
(dp335
g145
Nsg128
S'commit_result'
p336
sg15
Nsg19
g20
sg132
S'blink.mojom.CommitResult'
p337
sg16
I158
sbasg16
I158
sg19
g20
sbsbag1
(g142
g3
NtRp338
(dp339
g145
Nsg128
S'HandleRendererDebugURL'
p340
sg147
g1
(g148
g3
NtRp341
(dp342
g10
(lp343
g1
(g152
g3
NtRp344
(dp345
g145
Nsg128
S'url'
p346
sg15
Nsg19
g20
sg132
S'url.mojom.Url'
p347
sg16
I161
sbasg16
I161
sg19
g20
sbsg15
Nsg19
Nsg16
Nsg157
Nsbag1
(g142
g3
NtRp348
(dp349
g145
Nsg128
S'UpdateSubresourceLoaderFactories'
p350
sg147
g1
(g148
g3
NtRp351
(dp352
g10
(lp353
g1
(g152
g3
NtRp354
(dp355
g145
Nsg128
S'subresource_loader_factories'
p356
sg15
Nsg19
g20
sg132
S'blink.mojom.URLLoaderFactoryBundle'
p357
sg16
I171
sbasg16
I171
sg19
g20
sbsg15
Nsg19
Nsg16
Nsg157
Nsbag1
(g142
g3
NtRp358
(dp359
g145
Nsg128
S'BindDevToolsAgent'
p360
sg147
g1
(g148
g3
NtRp361
(dp362
g10
(lp363
g1
(g152
g3
NtRp364
(dp365
g145
Nsg128
S'agent_host'
p366
sg15
Nsg19
g20
sg132
S'asso<blink.mojom.DevToolsAgentHost>'
p367
sg16
I178
sbag1
(g152
g3
NtRp368
(dp369
g145
Nsg128
S'agent'
p370
sg15
Nsg19
g20
sg132
S'asso<blink.mojom.DevToolsAgent&>'
p371
sg16
I179
sbasg16
I178
sg19
g20
sbsg15
Nsg19
Nsg16
Nsg157
Nsbag1
(g142
g3
NtRp372
(dp373
g145
Nsg128
S'JavaScriptExecuteRequest'
p374
sg147
g1
(g148
g3
NtRp375
(dp376
g10
(lp377
g1
(g152
g3
NtRp378
(dp379
g145
Nsg128
S'javascript'
p380
sg15
Nsg19
g20
sg132
S'mojo_base.mojom.String16'
p381
sg16
I190
sbasg16
I190
sg19
g20
sbsg15
Nsg19
Nsg16
Nsg157
g1
(g148
g3
NtRp382
(dp383
g10
(lp384
g1
(g152
g3
NtRp385
(dp386
g145
Nsg128
S'result'
p387
sg15
Nsg19
g20
sg132
S'mojo_base.mojom.Value'
p388
sg16
I190
sbasg16
I190
sg19
g20
sbsbag1
(g142
g3
NtRp389
(dp390
g145
Nsg128
S'JavaScriptExecuteRequestForTests'
p391
sg147
g1
(g148
g3
NtRp392
(dp393
g10
(lp394
g1
(g152
g3
NtRp395
(dp396
g145
Nsg128
S'javascript'
p397
sg15
Nsg19
g20
sg132
S'mojo_base.mojom.String16'
p398
sg16
I195
sbag1
(g152
g3
NtRp399
(dp400
g145
Nsg128
S'has_user_gesture'
p401
sg15
Nsg19
g20
sg132
S'bool'
p402
sg16
I196
sbasg16
I195
sg19
g20
sbsg15
Nsg19
Nsg16
Nsg157
g1
(g148
g3
NtRp403
(dp404
g10
(lp405
g1
(g152
g3
NtRp406
(dp407
g145
Nsg128
S'result'
p408
sg15
Nsg19
g20
sg132
S'mojo_base.mojom.Value'
p409
sg16
I197
sbasg16
I197
sg19
g20
sbsbag1
(g142
g3
NtRp410
(dp411
g145
Nsg128
S'JavaScriptExecuteRequestInIsolatedWorld'
p412
sg147
g1
(g148
g3
NtRp413
(dp414
g10
(lp415
g1
(g152
g3
NtRp416
(dp417
g145
Nsg128
S'javascript'
p418
sg15
Nsg19
g20
sg132
S'mojo_base.mojom.String16'
p419
sg16
I202
sbag1
(g152
g3
NtRp420
(dp421
g145
Nsg128
S'world_id'
p422
sg15
Nsg19
g20
sg132
S'int32'
p423
sg16
I203
sbasg16
I202
sg19
g20
sbsg15
Nsg19
Nsg16
Nsg157
g1
(g148
g3
NtRp424
(dp425
g10
(lp426
g1
(g152
g3
NtRp427
(dp428
g145
Nsg128
S'result'
p429
sg15
Nsg19
g20
sg132
S'mojo_base.mojom.Value'
p430
sg16
I203
sbasg16
I203
sg19
g20
sbsbag1
(g142
g3
NtRp431
(dp432
g145
Nsg128
S'PostMessageEvent'
p433
sg147
g1
(g148
g3
NtRp434
(dp435
g10
(lp436
g1
(g152
g3
NtRp437
(dp438
g145
Nsg128
S'source_routing_id'
p439
sg15
Nsg19
g20
sg132
S'int32'
p440
sg16
I215
sbag1
(g152
g3
NtRp441
(dp442
g145
Nsg128
S'source_origin'
p443
sg15
Nsg19
g20
sg132
S'mojo_base.mojom.String16'
p444
sg16
I216
sbag1
(g152
g3
NtRp445
(dp446
g145
Nsg128
S'target_origin'
p447
sg15
Nsg19
g20
sg132
S'mojo_base.mojom.String16'
p448
sg16
I217
sbag1
(g152
g3
NtRp449
(dp450
g145
Nsg128
S'message'
p451
sg15
Nsg19
g20
sg132
S'blink.mojom.TransferableMessage'
p452
sg16
I218
sbasg16
I215
sg19
g20
sbsg15
Nsg19
Nsg16
Nsg157
Nsbag1
(g142
g3
NtRp453
(dp454
g145
Nsg128
S'ForwardMessageFromHost'
p455
sg147
g1
(g148
g3
NtRp456
(dp457
g10
(lp458
g1
(g152
g3
NtRp459
(dp460
g145
Nsg128
S'message'
p461
sg15
Nsg19
g20
sg132
S'blink.mojom.TransferableMessage'
p462
sg16
I222
sbag1
(g152
g3
NtRp463
(dp464
g145
Nsg128
S'source_origin'
p465
sg15
Nsg19
g20
sg132
S'url.mojom.Origin'
p466
sg16
I223
sbag1
(g152
g3
NtRp467
(dp468
g145
Nsg128
S'target_origin'
p469
sg15
Nsg19
g20
sg132
S'url.mojom.Origin?'
p470
sg16
I224
sbasg16
I222
sg19
g20
sbsg15
Nsg19
Nsg16
Nsg157
Nsbag1
(g142
g3
NtRp471
(dp472
g145
Nsg128
S'OnPortalActivated'
p473
sg147
g1
(g148
g3
NtRp474
(dp475
g10
(lp476
g1
(g152
g3
NtRp477
(dp478
g145
Nsg128
S'portal_token'
p479
sg15
Nsg19
g20
sg132
S'mojo_base.mojom.UnguessableToken'
p480
sg16
I233
sbag1
(g152
g3
NtRp481
(dp482
g145
Nsg128
S'portal'
p483
sg15
Nsg19
g20
sg132
S'asso<blink.mojom.Portal>'
p484
sg16
I234
sbag1
(g152
g3
NtRp485
(dp486
g145
Nsg128
S'portal_client'
p487
sg15
Nsg19
g20
sg132
S'asso<blink.mojom.PortalClient&>'
p488
sg16
I235
sbag1
(g152
g3
NtRp489
(dp490
g145
Nsg128
S'data'
p491
sg15
Nsg19
g20
sg132
S'blink.mojom.TransferableMessage'
p492
sg16
I236
sbasg16
I233
sg19
g20
sbsg15
Nsg19
Nsg16
Nsg157
g1
(g148
g3
NtRp493
(dp494
g10
(lp495
g1
(g152
g3
NtRp496
(dp497
g145
Nsg128
S'was_adopted'
p498
sg15
Nsg19
g20
sg132
S'bool'
p499
sg16
I236
sbasg16
I236
sg19
g20
sbsbasg16
Nsg19
Nsbsg15
Nsg16
Nsg128
S'FrameNavigationControl'
p500
sg19
Nsbag1
(g134
g3
NtRp501
(dp502
g137
g1
(g138
g3
NtRp503
(dp504
g10
(lp505
g1
(g142
g3
NtRp506
(dp507
g145
Nsg128
S'AllowBindings'
p508
sg147
g1
(g148
g3
NtRp509
(dp510
g10
(lp511
g1
(g152
g3
NtRp512
(dp513
g145
Nsg128
S'enabled_bindings_flags'
p514
sg15
Nsg19
g20
sg132
S'int32'
p515
sg16
I246
sbasg16
I246
sg19
g20
sbsg15
Nsg19
Nsg16
Nsg157
Nsbasg16
Nsg19
Nsbsg15
Nsg16
Nsg128
S'FrameBindingsControl'
p516
sg19
Nsbag1
(g134
g3
NtRp517
(dp518
g137
g1
(g138
g3
NtRp519
(dp520
g10
(lp521
g1
(g142
g3
NtRp522
(dp523
g145
Nsg128
S'CreateFrame'
p524
sg147
g1
(g148
g3
NtRp525
(dp526
g10
(lp527
g1
(g152
g3
NtRp528
(dp529
g145
Nsg128
S'frame_routing_id'
p530
sg15
Nsg19
g20
sg132
S'int32'
p531
sg16
I252
sbag1
(g152
g3
NtRp532
(dp533
g145
Nsg128
S'frame'
p534
sg15
Nsg19
g20
sg132
S'Frame&'
p535
sg16
I252
sbasg16
I252
sg19
g20
sbsg15
Nsg19
Nsg16
Nsg157
Nsbasg16
Nsg19
Nsbsg15
Nsg16
Nsg128
S'FrameFactory'
p536
sg19
Nsbag1
(g200
g3
NtRp537
(dp538
g137
g1
(cmojom.parse.ast
StructBody
p539
g3
NtRp540
(dp541
g10
(lp542
g1
(cmojom.parse.ast
StructField
p543
g3
NtRp544
(dp545
g145
NsS'default_value'
p546
Nsg128
S'mimic_user_gesture'
p547
sg15
Nsg19
Nsg132
S'bool'
p548
sg16
Nsbag1
(g543
g3
NtRp549
(dp550
g145
Nsg546
Nsg128
S'window_container_type'
p551
sg15
Nsg19
Nsg132
S'WindowContainerType'
p552
sg16
Nsbag1
(g543
g3
NtRp553
(dp554
g145
Nsg546
Nsg128
S'session_storage_namespace_id'
p555
sg15
Nsg19
Nsg132
S'string'
p556
sg16
Nsbag1
(g543
g3
NtRp557
(dp558
g145
Nsg546
Nsg128
S'clone_from_session_storage_namespace_id'
p559
sg15
Nsg19
Nsg132
S'string'
p560
sg16
Nsbag1
(g543
g3
NtRp561
(dp562
g145
Nsg546
Nsg128
S'frame_name'
p563
sg15
Nsg19
Nsg132
S'string'
p564
sg16
Nsbag1
(g543
g3
NtRp565
(dp566
g145
Nsg546
Nsg128
S'opener_suppressed'
p567
sg15
Nsg19
Nsg132
S'bool'
p568
sg16
Nsbag1
(g543
g3
NtRp569
(dp570
g145
Nsg546
Nsg128
S'disposition'
p571
sg15
Nsg19
Nsg132
S'ui.mojom.WindowOpenDisposition'
p572
sg16
Nsbag1
(g543
g3
NtRp573
(dp574
g145
Nsg546
Nsg128
S'target_url'
p575
sg15
Nsg19
Nsg132
S'url.mojom.Url'
p576
sg16
Nsbag1
(g543
g3
NtRp577
(dp578
g145
Nsg546
Nsg128
S'referrer'
p579
sg15
Nsg19
Nsg132
S'blink.mojom.Referrer'
p580
sg16
Nsbag1
(g543
g3
NtRp581
(dp582
g145
Nsg546
Nsg128
S'features'
p583
sg15
Nsg19
Nsg132
S'blink.mojom.WindowFeatures'
p584
sg16
Nsbasg16
Nsg19
Nsbsg15
Nsg16
Nsg128
S'CreateNewWindowParams'
p585
sg19
Nsbag1
(cmojom.parse.ast
Enum
p586
g3
NtRp587
(dp588
g15
NsS'enum_value_list'
p589
g1
(cmojom.parse.ast
EnumValueList
p590
g3
NtRp591
(dp592
g10
(lp593
g1
(cmojom.parse.ast
EnumValue
p594
g3
NtRp595
(dp596
g15
Nsg130
Nsg16
I300
sg128
S'kIgnore'
p597
sg19
g20
sbag1
(g594
g3
NtRp598
(dp599
g15
Nsg130
Nsg16
I302
sg128
S'kReuse'
p600
sg19
g20
sbag1
(g594
g3
NtRp601
(dp602
g15
Nsg130
Nsg16
I304
sg128
S'kSuccess'
p603
sg19
g20
sbasg16
I300
sg19
g20
sbsg16
I297
sg128
S'CreateNewWindowStatus'
p604
sg19
g20
sbag1
(g200
g3
NtRp605
(dp606
g137
g1
(g539
g3
NtRp607
(dp608
g10
(lp609
g1
(g543
g3
NtRp610
(dp611
g145
Nsg546
Nsg128
S'route_id'
p612
sg15
Nsg19
Nsg132
S'int32'
p613
sg16
Nsbag1
(g543
g3
NtRp614
(dp615
g145
Nsg546
Nsg128
S'main_frame_route_id'
p616
sg15
Nsg19
Nsg132
S'int32'
p617
sg16
Nsbag1
(g543
g3
NtRp618
(dp619
g145
Nsg546
Nsg128
S'main_frame_widget_route_id'
p620
sg15
Nsg19
Nsg132
S'int32'
p621
sg16
Nsbag1
(g543
g3
NtRp622
(dp623
g145
Nsg546
Nsg128
S'main_frame_interface_bundle'
p624
sg15
Nsg19
Nsg132
S'DocumentScopedInterfaceBundle'
p625
sg16
Nsbag1
(g543
g3
NtRp626
(dp627
g145
Nsg546
Nsg128
S'cloned_session_storage_namespace_id'
p628
sg15
Nsg19
Nsg132
S'string'
p629
sg16
Nsbag1
(g543
g3
NtRp630
(dp631
g145
Nsg546
Nsg128
S'devtools_main_frame_token'
p632
sg15
Nsg19
Nsg132
S'mojo_base.mojom.UnguessableToken'
p633
sg16
Nsbasg16
Nsg19
Nsbsg15
Nsg16
Nsg128
S'CreateNewWindowReply'
p634
sg19
Nsbag1
(g134
g3
NtRp635
(dp636
g137
g1
(g138
g3
NtRp637
(dp638
g10
(lp639
sg16
Nsg19
Nsbsg15
Nsg16
Nsg128
S'KeepAliveHandle'
p640
sg19
Nsbag1
(g134
g3
NtRp641
(dp642
g137
g1
(g138
g3
NtRp643
(dp644
g10
(lp645
g1
(g142
g3
NtRp646
(dp647
g145
Nsg128
S'CreateNewWindow'
p648
sg147
g1
(g148
g3
NtRp649
(dp650
g10
(lp651
g1
(g152
g3
NtRp652
(dp653
g145
Nsg128
S'params'
p654
sg15
Nsg19
g20
sg132
S'CreateNewWindowParams'
p655
sg16
I341
sbasg16
I341
sg19
g20
sbsg15
g1
(g203
g3
NtRp656
(dp657
g10
(lp658
g1
(g207
g3
NtRp659
(dp660
g130
I01
sg16
I341
sg210
S'Sync'
p661
sg19
g20
sbasg16
I341
sg19
g20
sbsg19
Nsg16
Nsg157
g1
(g148
g3
NtRp662
(dp663
g10
(lp664
g1
(g152
g3
NtRp665
(dp666
g145
Nsg128
S'status'
p667
sg15
Nsg19
g20
sg132
S'CreateNewWindowStatus'
p668
sg16
I342
sbag1
(g152
g3
NtRp669
(dp670
g145
Nsg128
S'reply'
p671
sg15
Nsg19
g20
sg132
S'CreateNewWindowReply?'
p672
sg16
I342
sbasg16
I342
sg19
g20
sbsbag1
(g142
g3
NtRp673
(dp674
g145
Nsg128
S'CreatePortal'
p675
sg147
g1
(g148
g3
NtRp676
(dp677
g10
(lp678
g1
(g152
g3
NtRp679
(dp680
g145
Nsg128
S'portal'
p681
sg15
Nsg19
g20
sg132
S'asso<blink.mojom.Portal&>'
p682
sg16
I349
sbag1
(g152
g3
NtRp683
(dp684
g145
Nsg128
S'client'
p685
sg15
Nsg19
g20
sg132
S'asso<blink.mojom.PortalClient>'
p686
sg16
I350
sbasg16
I349
sg19
g20
sbsg15
g1
(g203
g3
NtRp687
(dp688
g10
(lp689
g1
(g207
g3
NtRp690
(dp691
g130
I01
sg16
I349
sg210
S'Sync'
p692
sg19
g20
sbasg16
I349
sg19
g20
sbsg19
Nsg16
Nsg157
g1
(g148
g3
NtRp693
(dp694
g10
(lp695
g1
(g152
g3
NtRp696
(dp697
g145
Nsg128
S'proxy_routing_id'
p698
sg15
Nsg19
g20
sg132
S'int32'
p699
sg16
I351
sbag1
(g152
g3
NtRp700
(dp701
g145
Nsg128
S'portal_token'
p702
sg15
Nsg19
g20
sg132
S'mojo_base.mojom.UnguessableToken'
p703
sg16
I352
sbag1
(g152
g3
NtRp704
(dp705
g145
Nsg128
S'devtools_frame_token'
p706
sg15
Nsg19
g20
sg132
S'mojo_base.mojom.UnguessableToken'
p707
sg16
I353
sbasg16
I351
sg19
g20
sbsbag1
(g142
g3
NtRp708
(dp709
g145
Nsg128
S'AdoptPortal'
p710
sg147
g1
(g148
g3
NtRp711
(dp712
g10
(lp713
g1
(g152
g3
NtRp714
(dp715
g145
Nsg128
S'portal_token'
p716
sg15
Nsg19
g20
sg132
S'mojo_base.mojom.UnguessableToken'
p717
sg16
I358
sbasg16
I358
sg19
g20
sbsg15
g1
(g203
g3
NtRp718
(dp719
g10
(lp720
g1
(g207
g3
NtRp721
(dp722
g130
I01
sg16
I358
sg210
S'Sync'
p723
sg19
g20
sbasg16
I358
sg19
g20
sbsg19
Nsg16
Nsg157
g1
(g148
g3
NtRp724
(dp725
g10
(lp726
g1
(g152
g3
NtRp727
(dp728
g145
Nsg128
S'proxy_routing_id'
p729
sg15
Nsg19
g20
sg132
S'int32'
p730
sg16
I359
sbag1
(g152
g3
NtRp731
(dp732
g145
Nsg128
S'devtools_frame_token'
p733
sg15
Nsg19
g20
sg132
S'mojo_base.mojom.UnguessableToken'
p734
sg16
I360
sbasg16
I359
sg19
g20
sbsbag1
(g142
g3
NtRp735
(dp736
g145
Nsg128
S'IssueKeepAliveHandle'
p737
sg147
g1
(g148
g3
NtRp738
(dp739
g10
(lp740
g1
(g152
g3
NtRp741
(dp742
g145
Nsg128
S'keep_alive_handle'
p743
sg15
Nsg19
g20
sg132
S'KeepAliveHandle&'
p744
sg16
I363
sbasg16
I363
sg19
g20
sbsg15
Nsg19
Nsg16
Nsg157
Nsbag1
(g142
g3
NtRp745
(dp746
g145
Nsg128
S'DidCommitProvisionalLoad'
p747
sg147
g1
(g148
g3
NtRp748
(dp749
g10
(lp750
g1
(g152
g3
NtRp751
(dp752
g145
Nsg128
S'params'
p753
sg15
Nsg19
g20
sg132
S'DidCommitProvisionalLoadParams'
p754
sg16
I382
sbag1
(g152
g3
NtRp755
(dp756
g145
Nsg128
S'interface_params'
p757
sg15
Nsg19
g20
sg132
S'DidCommitProvisionalLoadInterfaceParams?'
p758
sg16
I383
sbasg16
I382
sg19
g20
sbsg15
Nsg19
Nsg16
Nsg157
Nsbag1
(g142
g3
NtRp759
(dp760
g145
Nsg128
S'DidCommitSameDocumentNavigation'
p761
sg147
g1
(g148
g3
NtRp762
(dp763
g10
(lp764
g1
(g152
g3
NtRp765
(dp766
g145
Nsg128
S'params'
p767
sg15
Nsg19
g20
sg132
S'DidCommitProvisionalLoadParams'
p768
sg16
I388
sbasg16
I388
sg19
g20
sbsg15
Nsg19
Nsg16
Nsg157
Nsbag1
(g142
g3
NtRp769
(dp770
g145
Nsg128
S'BeginNavigation'
p771
sg147
g1
(g148
g3
NtRp772
(dp773
g10
(lp774
g1
(g152
g3
NtRp775
(dp776
g145
Nsg128
S'common_params'
p777
sg15
Nsg19
g20
sg132
S'CommonNavigationParams'
p778
sg16
I405
sbag1
(g152
g3
NtRp779
(dp780
g145
Nsg128
S'begin_params'
p781
sg15
Nsg19
g20
sg132
S'BeginNavigationParams'
p782
sg16
I406
sbag1
(g152
g3
NtRp783
(dp784
g145
Nsg128
S'blob_url_token'
p785
sg15
Nsg19
g20
sg132
S'blink.mojom.BlobURLToken?'
p786
sg16
I407
sbag1
(g152
g3
NtRp787
(dp788
g145
Nsg128
S'navigation_client'
p789
sg15
Nsg19
g20
sg132
S'asso<NavigationClient>?'
p790
sg16
I408
sbag1
(g152
g3
NtRp791
(dp792
g145
Nsg128
S'navigation_initiator'
p793
sg15
Nsg19
g20
sg132
S'blink.mojom.NavigationInitiator?'
p794
sg16
I409
sbasg16
I405
sg19
g20
sbsg15
Nsg19
Nsg16
Nsg157
Nsbag1
(g142
g3
NtRp795
(dp796
g145
Nsg128
S'SubresourceResponseStarted'
p797
sg147
g1
(g148
g3
NtRp798
(dp799
g10
(lp800
g1
(g152
g3
NtRp801
(dp802
g145
Nsg128
S'url'
p803
sg15
Nsg19
g20
sg132
S'url.mojom.Url'
p804
sg16
I414
sbag1
(g152
g3
NtRp805
(dp806
g145
Nsg128
S'cert_status'
p807
sg15
Nsg19
g20
sg132
S'uint32'
p808
sg16
I414
sbasg16
I414
sg19
g20
sbsg15
Nsg19
Nsg16
Nsg157
Nsbag1
(g142
g3
NtRp809
(dp810
g145
Nsg128
S'ResourceLoadComplete'
p811
sg147
g1
(g148
g3
NtRp812
(dp813
g10
(lp814
g1
(g152
g3
NtRp815
(dp816
g145
Nsg128
S'url_load_info'
p817
sg15
Nsg19
g20
sg132
S'ResourceLoadInfo'
p818
sg16
I417
sbasg16
I417
sg19
g20
sbsg15
Nsg19
Nsg16
Nsg157
Nsbag1
(g142
g3
NtRp819
(dp820
g145
Nsg128
S'DidChangeName'
p821
sg147
g1
(g148
g3
NtRp822
(dp823
g10
(lp824
g1
(g152
g3
NtRp825
(dp826
g145
Nsg128
S'name'
p827
sg15
Nsg19
g20
sg132
S'string'
p828
sg16
I420
sbag1
(g152
g3
NtRp829
(dp830
g145
Nsg128
S'unique_name'
p831
sg15
Nsg19
g20
sg132
S'string'
p832
sg16
I420
sbasg16
I420
sg19
g20
sbsg15
Nsg19
Nsg16
Nsg157
Nsbag1
(g142
g3
NtRp833
(dp834
g145
Nsg128
S'EnforceInsecureRequestPolicy'
p835
sg147
g1
(g148
g3
NtRp836
(dp837
g10
(lp838
g1
(g152
g3
NtRp839
(dp840
g145
Nsg128
S'policy_bitmap'
p841
sg15
Nsg19
g20
sg132
S'uint8'
p842
sg16
I429
sbasg16
I429
sg19
g20
sbsg15
Nsg19
Nsg16
Nsg157
Nsbag1
(g142
g3
NtRp843
(dp844
g145
Nsg128
S'EnforceInsecureNavigationsSet'
p845
sg147
g1
(g148
g3
NtRp846
(dp847
g10
(lp848
g1
(g152
g3
NtRp849
(dp850
g145
Nsg128
S'set'
p851
sg15
Nsg19
g20
sg132
S'uint32[]'
p852
sg16
I431
sbasg16
I431
sg19
g20
sbsg15
Nsg19
Nsg16
Nsg157
Nsbag1
(g142
g3
NtRp853
(dp854
g145
Nsg128
S'DidSetFramePolicyHeaders'
p855
sg147
g1
(g148
g3
NtRp856
(dp857
g10
(lp858
g1
(g152
g3
NtRp859
(dp860
g145
Nsg128
S'sandbox_flags'
p861
sg15
Nsg19
g20
sg132
S'blink.mojom.WebSandboxFlags'
p862
sg16
I441
sbag1
(g152
g3
NtRp863
(dp864
g145
Nsg128
S'parsed_header'
p865
sg15
Nsg19
g20
sg132
S'blink.mojom.ParsedFeaturePolicyDeclaration[]'
p866
sg16
I442
sbasg16
I441
sg19
g20
sbsg15
Nsg19
Nsg16
Nsg157
Nsbag1
(g142
g3
NtRp867
(dp868
g145
Nsg128
S'CancelInitialHistoryLoad'
p869
sg147
g1
(g148
g3
NtRp870
(dp871
g10
(lp872
sg16
Nsg19
Nsbsg15
Nsg19
Nsg16
Nsg157
Nsbag1
(g142
g3
NtRp873
(dp874
g145
Nsg128
S'UpdateEncoding'
p875
sg147
g1
(g148
g3
NtRp876
(dp877
g10
(lp878
g1
(g152
g3
NtRp879
(dp880
g145
Nsg128
S'encoding_name'
p881
sg15
Nsg19
g20
sg132
S'string'
p882
sg16
I451
sbasg16
I451
sg19
g20
sbsg15
Nsg19
Nsg16
Nsg157
Nsbag1
(g142
g3
NtRp883
(dp884
g145
Nsg128
S'FrameSizeChanged'
p885
sg147
g1
(g148
g3
NtRp886
(dp887
g10
(lp888
g1
(g152
g3
NtRp889
(dp890
g145
Nsg128
S'size'
p891
sg15
Nsg19
g20
sg132
S'gfx.mojom.Size'
p892
sg16
I456
sbasg16
I456
sg19
g20
sbsg15
Nsg19
Nsg16
Nsg157
Nsbag1
(g142
g3
NtRp893
(dp894
g145
Nsg128
S'FullscreenStateChanged'
p895
sg147
g1
(g148
g3
NtRp896
(dp897
g10
(lp898
g1
(g152
g3
NtRp899
(dp900
g145
Nsg128
S'is_fullscreen'
p901
sg15
Nsg19
g20
sg132
S'bool'
p902
sg16
I460
sbasg16
I460
sg19
g20
sbsg15
Nsg19
Nsg16
Nsg157
Nsbag1
(g142
g3
NtRp903
(dp904
g145
Nsg128
S'VisibilityChanged'
p905
sg147
g1
(g148
g3
NtRp906
(dp907
g10
(lp908
g1
(g152
g3
NtRp909
(dp910
g145
Nsg128
S'visibility'
p911
sg15
Nsg19
g20
sg132
S'blink.mojom.FrameVisibility'
p912
sg16
I464
sbasg16
I464
sg19
g20
sbsg15
Nsg19
Nsg16
Nsg157
Nsbag1
(g142
g3
NtRp913
(dp914
g145
Nsg128
S'DocumentOnLoadCompleted'
p915
sg147
g1
(g148
g3
NtRp916
(dp917
g10
(lp918
sg16
Nsg19
Nsbsg15
Nsg19
Nsg16
Nsg157
Nsbag1
(g142
g3
NtRp919
(dp920
g145
Nsg128
S'UpdateActiveSchedulerTrackedFeatures'
p921
sg147
g1
(g148
g3
NtRp922
(dp923
g10
(lp924
g1
(g152
g3
NtRp925
(dp926
g145
Nsg128
S'features_mask'
p927
sg15
Nsg19
g20
sg132
S'uint64'
p928
sg16
I482
sbasg16
I482
sg19
g20
sbsg15
Nsg19
Nsg16
Nsg157
Nsbag1
(g142
g3
NtRp929
(dp930
g145
Nsg128
S'DidAddMessageToConsole'
p931
sg147
g1
(g148
g3
NtRp932
(dp933
g10
(lp934
g1
(g152
g3
NtRp935
(dp936
g145
Nsg128
S'log_level'
p937
sg15
Nsg19
g20
sg132
S'blink.mojom.ConsoleMessageLevel'
p938
sg16
I486
sbag1
(g152
g3
NtRp939
(dp940
g145
Nsg128
S'msg'
p941
sg15
Nsg19
g20
sg132
S'mojo_base.mojom.BigString16'
p942
sg16
I487
sbag1
(g152
g3
NtRp943
(dp944
g145
Nsg128
S'line_number'
p945
sg15
Nsg19
g20
sg132
S'int32'
p946
sg16
I488
sbag1
(g152
g3
NtRp947
(dp948
g145
Nsg128
S'source_id'
p949
sg15
Nsg19
g20
sg132
S'mojo_base.mojom.String16'
p950
sg16
I489
sbasg16
I486
sg19
g20
sbsg15
Nsg19
Nsg16
Nsg157
Nsbasg16
Nsg19
Nsbsg15
Nsg16
Nsg128
S'FrameHost'
p951
sg19
Nsbasg16
NsS'module'
p952
g1
(cmojom.parse.ast
Module
p953
g3
NtRp954
(dp955
S'mojom_namespace'
p956
(S'IDENTIFIER'
p957
S'content.mojom'
tp958
sg16
I5
sg15
Nsg19
g20
sbsg19
Nsb.