ccopy_reg
_reconstructor
p1
(cmojom.parse.ast
Mojom
p2
c__builtin__
object
p3
NtRp4
(dp5
S'import_list'
p6
g1
(cmojom.parse.ast
ImportList
p7
g3
NtRp8
(dp9
S'items'
p10
(lp11
sS'lineno'
p12
NsS'filename'
p13
NsbsS'definition_list'
p14
(lp15
g1
(cmojom.parse.ast
Struct
p16
g3
NtRp17
(dp18
S'body'
p19
NsS'attribute_list'
p20
g1
(cmojom.parse.ast
AttributeList
p21
g3
NtRp22
(dp23
g10
(lp24
g1
(cmojom.parse.ast
Attribute
p25
g3
NtRp26
(dp27
S'value'
p28
I01
sg12
I12
sS'key'
p29
S'Native'
p30
sg13
S'../../content/common/native_types.mojom'
p31
sbasg12
I12
sg13
g31
sbsg12
NsS'mojom_name'
p32
S'EncodedAttributedString'
p33
sg13
Nsbag1
(g16
g3
NtRp34
(dp35
g19
Nsg20
g1
(g21
g3
NtRp36
(dp37
g10
(lp38
g1
(g25
g3
NtRp39
(dp40
g28
I01
sg12
I15
sg29
S'Native'
p41
sg13
g31
sbasg12
I15
sg13
g31
sbsg12
Nsg32
S'FrameOwnerProperties'
p42
sg13
Nsbag1
(g16
g3
NtRp43
(dp44
g19
Nsg20
g1
(g21
g3
NtRp45
(dp46
g10
(lp47
g1
(g25
g3
NtRp48
(dp49
g28
I01
sg12
I18
sg29
S'Native'
p50
sg13
g31
sbasg12
I18
sg13
g31
sbsg12
Nsg32
S'FrameReplicationState'
p51
sg13
Nsbag1
(g16
g3
NtRp52
(dp53
g19
Nsg20
g1
(g21
g3
NtRp54
(dp55
g10
(lp56
g1
(g25
g3
NtRp57
(dp58
g28
I01
sg12
I21
sg29
S'Native'
p59
sg13
g31
sbasg12
I21
sg13
g31
sbsg12
Nsg32
S'VisualProperties'
p60
sg13
Nsbag1
(cmojom.parse.ast
Enum
p61
g3
NtRp62
(dp63
g20
g1
(g21
g3
NtRp64
(dp65
g10
(lp66
g1
(g25
g3
NtRp67
(dp68
g28
I01
sg12
I25
sg29
S'Native'
p69
sg13
g31
sbasg12
I25
sg13
g31
sbsS'enum_value_list'
p70
Nsg12
I26
sg32
S'ScrollbarButtonsPlacement'
p71
sg13
g31
sbag1
(g61
g3
NtRp72
(dp73
g20
g1
(g21
g3
NtRp74
(dp75
g10
(lp76
g1
(g25
g3
NtRp77
(dp78
g28
I01
sg12
I29
sg29
S'Native'
p79
sg13
g31
sbasg12
I29
sg13
g31
sbsg70
Nsg12
I30
sg32
S'ScrollerStyle'
p80
sg13
g31
sbag1
(g61
g3
NtRp81
(dp82
g20
g1
(g21
g3
NtRp83
(dp84
g10
(lp85
g1
(g25
g3
NtRp86
(dp87
g28
I01
sg12
I32
sg29
S'Native'
p88
sg13
g31
sbasg12
I32
sg13
g31
sbsg70
Nsg12
I33
sg32
S'V8CacheOptions'
p89
sg13
g31
sbag1
(g16
g3
NtRp90
(dp91
g19
Nsg20
g1
(g21
g3
NtRp92
(dp93
g10
(lp94
g1
(g25
g3
NtRp95
(dp96
g28
I01
sg12
I35
sg29
S'Native'
p97
sg13
g31
sbasg12
I35
sg13
g31
sbsg12
Nsg32
S'WebPreferences'
p98
sg13
Nsbag1
(g61
g3
NtRp99
(dp100
g20
g1
(g21
g3
NtRp101
(dp102
g10
(lp103
g1
(g25
g3
NtRp104
(dp105
g28
I01
sg12
I40
sg29
S'Native'
p106
sg13
g31
sbasg12
I40
sg13
g31
sbsg70
Nsg12
I41
sg32
S'NetworkConnectionType'
p107
sg13
g31
sbag1
(g16
g3
NtRp108
(dp109
g19
Nsg20
g1
(g21
g3
NtRp110
(dp111
g10
(lp112
g1
(g25
g3
NtRp113
(dp114
g28
I01
sg12
I43
sg29
S'Native'
p115
sg13
g31
sbasg12
I43
sg13
g31
sbsg12
Nsg32
S'WebCursor'
p116
sg13
Nsbag1
(g61
g3
NtRp117
(dp118
g20
g1
(g21
g3
NtRp119
(dp120
g10
(lp121
g1
(g25
g3
NtRp122
(dp123
g28
I01
sg12
I46
sg29
S'Native'
p124
sg13
g31
sbasg12
I46
sg13
g31
sbsg70
Nsg12
I47
sg32
S'Button'
p125
sg13
g31
sbag1
(g61
g3
NtRp126
(dp127
g20
g1
(g21
g3
NtRp128
(dp129
g10
(lp130
g1
(g25
g3
NtRp131
(dp132
g28
I01
sg12
I49
sg29
S'Native'
p133
sg13
g31
sbasg12
I49
sg13
g31
sbsg70
Nsg12
I50
sg32
S'PointerType'
p134
sg13
g31
sbag1
(g16
g3
NtRp135
(dp136
g19
Nsg20
g1
(g21
g3
NtRp137
(dp138
g10
(lp139
g1
(g25
g3
NtRp140
(dp141
g28
I01
sg12
I52
sg29
S'Native'
p142
sg13
g31
sbasg12
I52
sg13
g31
sbsg12
Nsg32
S'EditCommand'
p143
sg13
Nsbag1
(g61
g3
NtRp144
(dp145
g20
g1
(g21
g3
NtRp146
(dp147
g10
(lp148
g1
(g25
g3
NtRp149
(dp150
g28
I01
sg12
I55
sg29
S'Native'
p151
sg13
g31
sbasg12
I55
sg13
g31
sbsg70
Nsg12
I56
sg32
S'InputEventAckState'
p152
sg13
g31
sbag1
(g61
g3
NtRp153
(dp154
g20
g1
(g21
g3
NtRp155
(dp156
g10
(lp157
g1
(g25
g3
NtRp158
(dp159
g28
I01
sg12
I58
sg29
S'Native'
p160
sg13
g31
sbasg12
I58
sg13
g31
sbsg70
Nsg12
I59
sg32
S'InputEventAckSource'
p161
sg13
g31
sbag1
(g61
g3
NtRp162
(dp163
g20
g1
(g21
g3
NtRp164
(dp165
g10
(lp166
g1
(g25
g3
NtRp167
(dp168
g28
I01
sg12
I61
sg29
S'Native'
p169
sg13
g31
sbasg12
I61
sg13
g31
sbsg70
Nsg12
I62
sg32
S'EventType'
p170
sg13
g31
sbag1
(g61
g3
NtRp171
(dp172
g20
g1
(g21
g3
NtRp173
(dp174
g10
(lp175
g1
(g25
g3
NtRp176
(dp177
g28
I01
sg12
I64
sg29
S'Native'
p178
sg13
g31
sbasg12
I64
sg13
g31
sbsg70
Nsg12
I65
sg32
S'Cancelability'
p179
sg13
g31
sbag1
(g61
g3
NtRp180
(dp181
g20
g1
(g21
g3
NtRp182
(dp183
g10
(lp184
g1
(g25
g3
NtRp185
(dp186
g28
I01
sg12
I67
sg29
S'Native'
p187
sg13
g31
sbasg12
I67
sg13
g31
sbsg70
Nsg12
I68
sg32
S'GestureDevice'
p188
sg13
g31
sbag1
(g61
g3
NtRp189
(dp190
g20
g1
(g21
g3
NtRp191
(dp192
g10
(lp193
g1
(g25
g3
NtRp194
(dp195
g28
I01
sg12
I70
sg29
S'Native'
p196
sg13
g31
sbasg12
I70
sg13
g31
sbsg70
Nsg12
I71
sg32
S'WebScrollGranularity'
p197
sg13
g31
sbag1
(g61
g3
NtRp198
(dp199
g20
g1
(g21
g3
NtRp200
(dp201
g10
(lp202
g1
(g25
g3
NtRp203
(dp204
g28
I01
sg12
I73
sg29
S'Native'
p205
sg13
g31
sbasg12
I73
sg13
g31
sbsg70
Nsg12
I74
sg32
S'InertialPhaseState'
p206
sg13
g31
sbag1
(g61
g3
NtRp207
(dp208
g20
g1
(g21
g3
NtRp209
(dp210
g10
(lp211
g1
(g25
g3
NtRp212
(dp213
g28
I01
sg12
I76
sg29
S'Native'
p214
sg13
g31
sbasg12
I76
sg13
g31
sbsg70
Nsg12
I77
sg32
S'TouchState'
p215
sg13
g31
sbag1
(g16
g3
NtRp216
(dp217
g19
Nsg20
g1
(g21
g3
NtRp218
(dp219
g10
(lp220
g1
(g25
g3
NtRp221
(dp222
g28
I01
sg12
I79
sg29
S'Native'
p223
sg13
g31
sbasg12
I79
sg13
g31
sbsg12
Nsg32
S'DidOverscrollParams'
p224
sg13
Nsbag1
(g16
g3
NtRp225
(dp226
g19
Nsg20
g1
(g21
g3
NtRp227
(dp228
g10
(lp229
g1
(g25
g3
NtRp230
(dp231
g28
I01
sg12
I82
sg29
S'Native'
p232
sg13
g31
sbasg12
I82
sg13
g31
sbsg12
Nsg32
S'SyntheticSmoothDrag'
p233
sg13
Nsbag1
(g16
g3
NtRp234
(dp235
g19
Nsg20
g1
(g21
g3
NtRp236
(dp237
g10
(lp238
g1
(g25
g3
NtRp239
(dp240
g28
I01
sg12
I85
sg29
S'Native'
p241
sg13
g31
sbasg12
I85
sg13
g31
sbsg12
Nsg32
S'SyntheticSmoothScroll'
p242
sg13
Nsbag1
(g16
g3
NtRp243
(dp244
g19
Nsg20
g1
(g21
g3
NtRp245
(dp246
g10
(lp247
g1
(g25
g3
NtRp248
(dp249
g28
I01
sg12
I88
sg29
S'Native'
p250
sg13
g31
sbasg12
I88
sg13
g31
sbsg12
Nsg32
S'SyntheticPinch'
p251
sg13
Nsbag1
(g16
g3
NtRp252
(dp253
g19
Nsg20
g1
(g21
g3
NtRp254
(dp255
g10
(lp256
g1
(g25
g3
NtRp257
(dp258
g28
I01
sg12
I91
sg29
S'Native'
p259
sg13
g31
sbasg12
I91
sg13
g31
sbsg12
Nsg32
S'SyntheticTap'
p260
sg13
Nsbag1
(g16
g3
NtRp261
(dp262
g19
Nsg20
g1
(g21
g3
NtRp263
(dp264
g10
(lp265
g1
(g25
g3
NtRp266
(dp267
g28
I01
sg12
I94
sg29
S'Native'
p268
sg13
g31
sbasg12
I94
sg13
g31
sbsg12
Nsg32
S'SyntheticPointerAction'
p269
sg13
Nsbag1
(g61
g3
NtRp270
(dp271
g20
g1
(g21
g3
NtRp272
(dp273
g10
(lp274
g1
(g25
g3
NtRp275
(dp276
g28
I01
sg12
I97
sg29
S'Native'
p277
sg13
g31
sbasg12
I97
sg13
g31
sbsg70
Nsg12
I98
sg32
S'TouchAction'
p278
sg13
g31
sbasg12
NsS'module'
p279
g1
(cmojom.parse.ast
Module
p280
g3
NtRp281
(dp282
S'mojom_namespace'
p283
(S'IDENTIFIER'
p284
S'content.mojom'
tp285
sg12
I5
sg20
Nsg13
g31
sbsg13
Nsb.