ccopy_reg
_reconstructor
p1
(cmojom.parse.ast
Mojom
p2
c__builtin__
object
p3
NtRp4
(dp5
S'import_list'
p6
g1
(cmojom.parse.ast
ImportList
p7
g3
NtRp8
(dp9
S'items'
p10
(lp11
g1
(cmojom.parse.ast
Import
p12
g3
NtRp13
(dp14
S'attribute_list'
p15
NsS'lineno'
p16
I7
sS'import_filename'
p17
S'mojo/public/mojom/base/values.mojom'
p18
sS'filename'
p19
S'../../content/common/navigation_params.mojom'
p20
sbag1
(g12
g3
NtRp21
(dp22
g15
Nsg16
I8
sg17
S'third_party/blink/public/mojom/fetch/fetch_api_request.mojom'
p23
sg19
g20
sbag1
(g12
g3
NtRp24
(dp25
g15
Nsg16
I9
sg17
S'url/mojom/origin.mojom'
p26
sg19
g20
sbag1
(g12
g3
NtRp27
(dp28
g15
Nsg16
I10
sg17
S'url/mojom/url.mojom'
p29
sg19
g20
sbasg16
I7
sg19
g20
sbsS'definition_list'
p30
(lp31
g1
(cmojom.parse.ast
Enum
p32
g3
NtRp33
(dp34
g15
g1
(cmojom.parse.ast
AttributeList
p35
g3
NtRp36
(dp37
g10
(lp38
g1
(cmojom.parse.ast
Attribute
p39
g3
NtRp40
(dp41
S'value'
p42
I01
sg16
I12
sS'key'
p43
S'Native'
p44
sg19
g20
sbasg16
I12
sg19
g20
sbsS'enum_value_list'
p45
Nsg16
I13
sS'mojom_name'
p46
S'MixedContentContextType'
p47
sg19
g20
sbag1
(cmojom.parse.ast
Struct
p48
g3
NtRp49
(dp50
S'body'
p51
g1
(cmojom.parse.ast
StructBody
p52
g3
NtRp53
(dp54
g10
(lp55
g1
(cmojom.parse.ast
StructField
p56
g3
NtRp57
(dp58
S'ordinal'
p59
NsS'default_value'
p60
Nsg46
S'headers'
p61
sg15
Nsg19
NsS'typename'
p62
S'string'
p63
sg16
Nsbag1
(g56
g3
NtRp64
(dp65
g59
Nsg60
Nsg46
S'load_flags'
p66
sg15
Nsg19
Nsg62
S'int32'
p67
sg16
Nsbag1
(g56
g3
NtRp68
(dp69
g59
Nsg60
Nsg46
S'skip_service_worker'
p70
sg15
Nsg19
Nsg62
S'bool'
p71
sg16
Nsbag1
(g56
g3
NtRp72
(dp73
g59
Nsg60
Nsg46
S'request_context_type'
p74
sg15
Nsg19
Nsg62
S'blink.mojom.RequestContextType'
p75
sg16
Nsbag1
(g56
g3
NtRp76
(dp77
g59
Nsg60
Nsg46
S'mixed_content_context_type'
p78
sg15
Nsg19
Nsg62
S'MixedContentContextType'
p79
sg16
Nsbag1
(g56
g3
NtRp80
(dp81
g59
Nsg60
Nsg46
S'is_form_submission'
p82
sg15
Nsg19
Nsg62
S'bool'
p83
sg16
Nsbag1
(g56
g3
NtRp84
(dp85
g59
Nsg60
Nsg46
S'searchable_form_url'
p86
sg15
Nsg19
Nsg62
S'url.mojom.Url'
p87
sg16
Nsbag1
(g56
g3
NtRp88
(dp89
g59
Nsg60
Nsg46
S'searchable_form_encoding'
p90
sg15
Nsg19
Nsg62
S'string'
p91
sg16
Nsbag1
(g56
g3
NtRp92
(dp93
g59
Nsg60
Nsg46
S'client_side_redirect_url'
p94
sg15
Nsg19
Nsg62
S'url.mojom.Url'
p95
sg16
Nsbag1
(g56
g3
NtRp96
(dp97
g59
Nsg60
Nsg46
S'devtools_initiator'
p98
sg15
Nsg19
Nsg62
S'mojo_base.mojom.DictionaryValue?'
p99
sg16
Nsbasg16
Nsg19
Nsbsg15
Nsg16
Nsg46
S'BeginNavigationParams'
p100
sg19
Nsbasg16
NsS'module'
p101
g1
(cmojom.parse.ast
Module
p102
g3
NtRp103
(dp104
S'mojom_namespace'
p105
(S'IDENTIFIER'
p106
S'content.mojom'
tp107
sg16
I5
sg15
Nsg19
g20
sbsg19
Nsb.