ccopy_reg
_reconstructor
p1
(cmojom.parse.ast
Mojom
p2
c__builtin__
object
p3
NtRp4
(dp5
S'import_list'
p6
g1
(cmojom.parse.ast
ImportList
p7
g3
NtRp8
(dp9
S'items'
p10
(lp11
g1
(cmojom.parse.ast
Import
p12
g3
NtRp13
(dp14
S'attribute_list'
p15
NsS'lineno'
p16
I7
sS'import_filename'
p17
S'services/network/public/mojom/url_loader.mojom'
p18
sS'filename'
p19
S'../../content/common/navigation_client.mojom'
p20
sbag1
(g12
g3
NtRp21
(dp22
g15
Nsg16
I8
sg17
S'services/network/public/mojom/url_loader_factory.mojom'
p23
sg19
g20
sbag1
(g12
g3
NtRp24
(dp25
g15
Nsg16
I9
sg17
S'content/common/frame_messages.mojom'
p26
sg19
g20
sbag1
(g12
g3
NtRp27
(dp28
g15
Nsg16
I10
sg17
S'content/public/common/transferrable_url_loader.mojom'
p29
sg19
g20
sbag1
(g12
g3
NtRp30
(dp31
g15
Nsg16
I11
sg17
S'mojo/public/mojom/base/unguessable_token.mojom'
p32
sg19
g20
sbag1
(g12
g3
NtRp33
(dp34
g15
Nsg16
I12
sg17
S'url/mojom/url.mojom'
p35
sg19
g20
sbag1
(g12
g3
NtRp36
(dp37
g15
Nsg16
I13
sg17
S'third_party/blink/public/mojom/loader/url_loader_factory_bundle.mojom'
p38
sg19
g20
sbag1
(g12
g3
NtRp39
(dp40
g15
Nsg16
I14
sg17
S'third_party/blink/public/mojom/service_worker/controller_service_worker.mojom'
p41
sg19
g20
sbag1
(g12
g3
NtRp42
(dp43
g15
Nsg16
I15
sg17
S'third_party/blink/public/mojom/service_worker/service_worker_provider.mojom'
p44
sg19
g20
sbag1
(g12
g3
NtRp45
(dp46
g15
Nsg16
I16
sg17
S'third_party/blink/public/mojom/commit_result/commit_result.mojom'
p47
sg19
g20
sbasg16
I7
sg19
g20
sbsS'definition_list'
p48
(lp49
g1
(cmojom.parse.ast
Struct
p50
g3
NtRp51
(dp52
S'body'
p53
Nsg15
g1
(cmojom.parse.ast
AttributeList
p54
g3
NtRp55
(dp56
g10
(lp57
g1
(cmojom.parse.ast
Attribute
p58
g3
NtRp59
(dp60
S'value'
p61
I01
sg16
I19
sS'key'
p62
S'Native'
p63
sg19
g20
sbasg16
I19
sg19
g20
sbsg16
NsS'mojom_name'
p64
S'CommonNavigationParams'
p65
sg19
Nsbag1
(g50
g3
NtRp66
(dp67
g53
Nsg15
g1
(g54
g3
NtRp68
(dp69
g10
(lp70
g1
(g58
g3
NtRp71
(dp72
g61
I01
sg16
I23
sg62
S'Native'
p73
sg19
g20
sbasg16
I23
sg19
g20
sbsg16
Nsg64
S'CommitNavigationParams'
p74
sg19
Nsbag1
(cmojom.parse.ast
Interface
p75
g3
NtRp76
(dp77
g53
g1
(cmojom.parse.ast
InterfaceBody
p78
g3
NtRp79
(dp80
g10
(lp81
g1
(cmojom.parse.ast
Method
p82
g3
NtRp83
(dp84
S'ordinal'
p85
Nsg64
S'CommitNavigation'
p86
sS'parameter_list'
p87
g1
(cmojom.parse.ast
ParameterList
p88
g3
NtRp89
(dp90
g10
(lp91
g1
(cmojom.parse.ast
Parameter
p92
g3
NtRp93
(dp94
g85
Nsg64
S'head'
p95
sg15
Nsg19
g20
sS'typename'
p96
S'network.mojom.URLResponseHead'
p97
sg16
I60
sbag1
(g92
g3
NtRp98
(dp99
g85
Nsg64
S'common_params'
p100
sg15
Nsg19
g20
sg96
S'CommonNavigationParams'
p101
sg16
I61
sbag1
(g92
g3
NtRp102
(dp103
g85
Nsg64
S'request_params'
p104
sg15
Nsg19
g20
sg96
S'CommitNavigationParams'
p105
sg16
I62
sbag1
(g92
g3
NtRp106
(dp107
g85
Nsg64
S'url_loader_client_endpoints'
p108
sg15
Nsg19
g20
sg96
S'network.mojom.URLLoaderClientEndpoints?'
p109
sg16
I63
sbag1
(g92
g3
NtRp110
(dp111
g85
Nsg64
S'subresource_loader_factories'
p112
sg15
Nsg19
g20
sg96
S'blink.mojom.URLLoaderFactoryBundle?'
p113
sg16
I64
sbag1
(g92
g3
NtRp114
(dp115
g85
Nsg64
S'subresource_overrides'
p116
sg15
Nsg19
g20
sg96
S'TransferrableURLLoader[]?'
p117
sg16
I65
sbag1
(g92
g3
NtRp118
(dp119
g85
Nsg64
S'controller_service_worker_info'
p120
sg15
Nsg19
g20
sg96
S'blink.mojom.ControllerServiceWorkerInfo?'
p121
sg16
I66
sbag1
(g92
g3
NtRp122
(dp123
g85
Nsg64
S'provider_info'
p124
sg15
Nsg19
g20
sg96
S'blink.mojom.ServiceWorkerProviderInfoForWindow?'
p125
sg16
I67
sbag1
(g92
g3
NtRp126
(dp127
g85
Nsg64
S'prefetch_loader_factory'
p128
sg15
Nsg19
g20
sg96
S'network.mojom.URLLoaderFactory?'
p129
sg16
I68
sbag1
(g92
g3
NtRp130
(dp131
g85
Nsg64
S'devtools_navigation_token'
p132
sg15
Nsg19
g20
sg96
S'mojo_base.mojom.UnguessableToken'
p133
sg16
I69
sbasg16
I60
sg19
g20
sbsg15
Nsg19
Nsg16
NsS'response_parameter_list'
p134
g1
(g88
g3
NtRp135
(dp136
g10
(lp137
g1
(g92
g3
NtRp138
(dp139
g85
Nsg64
S'params'
p140
sg15
Nsg19
g20
sg96
S'DidCommitProvisionalLoadParams'
p141
sg16
I70
sbag1
(g92
g3
NtRp142
(dp143
g85
Nsg64
S'interface_params'
p144
sg15
Nsg19
g20
sg96
S'DidCommitProvisionalLoadInterfaceParams?'
p145
sg16
I71
sbasg16
I70
sg19
g20
sbsbag1
(g82
g3
NtRp146
(dp147
g85
Nsg64
S'CommitFailedNavigation'
p148
sg87
g1
(g88
g3
NtRp149
(dp150
g10
(lp151
g1
(g92
g3
NtRp152
(dp153
g85
Nsg64
S'common_params'
p154
sg15
Nsg19
g20
sg96
S'CommonNavigationParams'
p155
sg16
I83
sbag1
(g92
g3
NtRp156
(dp157
g85
Nsg64
S'request_params'
p158
sg15
Nsg19
g20
sg96
S'CommitNavigationParams'
p159
sg16
I84
sbag1
(g92
g3
NtRp160
(dp161
g85
Nsg64
S'has_stale_copy_in_cache'
p162
sg15
Nsg19
g20
sg96
S'bool'
p163
sg16
I85
sbag1
(g92
g3
NtRp164
(dp165
g85
Nsg64
S'error_code'
p166
sg15
Nsg19
g20
sg96
S'int32'
p167
sg16
I86
sbag1
(g92
g3
NtRp168
(dp169
g85
Nsg64
S'error_page_content'
p170
sg15
Nsg19
g20
sg96
S'string?'
p171
sg16
I87
sbag1
(g92
g3
NtRp172
(dp173
g85
Nsg64
S'subresource_loader_factories'
p174
sg15
Nsg19
g20
sg96
S'blink.mojom.URLLoaderFactoryBundle?'
p175
sg16
I88
sbasg16
I83
sg19
g20
sbsg15
Nsg19
Nsg16
Nsg134
g1
(g88
g3
NtRp176
(dp177
g10
(lp178
g1
(g92
g3
NtRp179
(dp180
g85
Nsg64
S'params'
p181
sg15
Nsg19
g20
sg96
S'DidCommitProvisionalLoadParams'
p182
sg16
I89
sbag1
(g92
g3
NtRp183
(dp184
g85
Nsg64
S'interface_params'
p185
sg15
Nsg19
g20
sg96
S'DidCommitProvisionalLoadInterfaceParams?'
p186
sg16
I90
sbasg16
I89
sg19
g20
sbsbasg16
Nsg19
Nsbsg15
Nsg16
Nsg64
S'NavigationClient'
p187
sg19
Nsbasg16
NsS'module'
p188
g1
(cmojom.parse.ast
Module
p189
g3
NtRp190
(dp191
S'mojom_namespace'
p192
(S'IDENTIFIER'
p193
S'content.mojom'
tp194
sg16
I5
sg15
Nsg19
g20
sbsg19
Nsb.