ccopy_reg
_reconstructor
p1
(cmojom.parse.ast
Mojom
p2
c__builtin__
object
p3
NtRp4
(dp5
S'import_list'
p6
g1
(cmojom.parse.ast
ImportList
p7
g3
NtRp8
(dp9
S'items'
p10
(lp11
g1
(cmojom.parse.ast
Import
p12
g3
NtRp13
(dp14
S'attribute_list'
p15
NsS'lineno'
p16
I7
sS'import_filename'
p17
S'mojo/public/mojom/base/string16.mojom'
p18
sS'filename'
p19
S'../../content/common/page_state.mojom'
p20
sbag1
(g12
g3
NtRp21
(dp22
g15
Nsg16
I8
sg17
S'mojo/public/mojom/base/time.mojom'
p23
sg19
g20
sbag1
(g12
g3
NtRp24
(dp25
g15
Nsg16
I9
sg17
S'services/network/public/mojom/referrer_policy.mojom'
p26
sg19
g20
sbag1
(g12
g3
NtRp27
(dp28
g15
Nsg16
I10
sg17
S'url/mojom/url.mojom'
p29
sg19
g20
sbag1
(g12
g3
NtRp30
(dp31
g15
Nsg16
I11
sg17
S'ui/gfx/geometry/mojo/geometry.mojom'
p32
sg19
g20
sbasg16
I7
sg19
g20
sbsS'definition_list'
p33
(lp34
g1
(cmojom.parse.ast
Struct
p35
g3
NtRp36
(dp37
S'body'
p38
g1
(cmojom.parse.ast
StructBody
p39
g3
NtRp40
(dp41
g10
(lp42
g1
(cmojom.parse.ast
StructField
p43
g3
NtRp44
(dp45
S'ordinal'
p46
g1
(cmojom.parse.ast
Ordinal
p47
g3
NtRp48
(dp49
g16
I37
sS'value'
p50
I0
sg19
g20
sbsS'default_value'
p51
NsS'mojom_name'
p52
S'filesystem_url'
p53
sg15
Nsg19
NsS'typename'
p54
S'url.mojom.Url'
p55
sg16
Nsbag1
(g43
g3
NtRp56
(dp57
g46
g1
(g47
g3
NtRp58
(dp59
g16
I38
sg50
I1
sg19
g20
sbsg51
Nsg52
S'offset'
p60
sg15
Nsg19
Nsg54
S'uint64'
p61
sg16
Nsbag1
(g43
g3
NtRp62
(dp63
g46
g1
(g47
g3
NtRp64
(dp65
g16
I39
sg50
I2
sg19
g20
sbsg51
Nsg52
S'length'
p66
sg15
Nsg19
Nsg54
S'uint64'
p67
sg16
Nsbag1
(g43
g3
NtRp68
(dp69
g46
g1
(g47
g3
NtRp70
(dp71
g16
I40
sg50
I3
sg19
g20
sbsg51
Nsg52
S'modification_time'
p72
sg15
Nsg19
Nsg54
S'mojo_base.mojom.Time'
p73
sg16
Nsbasg16
Nsg19
Nsbsg15
Nsg16
Nsg52
S'DEPRECATED_FileSystemFile'
p74
sg19
Nsbag1
(g35
g3
NtRp75
(dp76
g38
g1
(g39
g3
NtRp77
(dp78
g10
(lp79
g1
(g43
g3
NtRp80
(dp81
g46
g1
(g47
g3
NtRp82
(dp83
g16
I45
sg50
I0
sg19
g20
sbsg51
Nsg52
S'path'
p84
sg15
Nsg19
Nsg54
S'mojo_base.mojom.String16'
p85
sg16
Nsbag1
(g43
g3
NtRp86
(dp87
g46
g1
(g47
g3
NtRp88
(dp89
g16
I46
sg50
I1
sg19
g20
sbsg51
Nsg52
S'offset'
p90
sg15
Nsg19
Nsg54
S'uint64'
p91
sg16
Nsbag1
(g43
g3
NtRp92
(dp93
g46
g1
(g47
g3
NtRp94
(dp95
g16
I47
sg50
I2
sg19
g20
sbsg51
Nsg52
S'length'
p96
sg15
Nsg19
Nsg54
S'uint64'
p97
sg16
Nsbag1
(g43
g3
NtRp98
(dp99
g46
g1
(g47
g3
NtRp100
(dp101
g16
I48
sg50
I3
sg19
g20
sbsg51
Nsg52
S'modification_time'
p102
sg15
Nsg19
Nsg54
S'mojo_base.mojom.Time'
p103
sg16
Nsbasg16
Nsg19
Nsbsg15
Nsg16
Nsg52
S'File'
p104
sg19
Nsbag1
(cmojom.parse.ast
Union
p105
g3
NtRp106
(dp107
g38
g1
(cmojom.parse.ast
UnionBody
p108
g3
NtRp109
(dp110
g10
(lp111
g1
(cmojom.parse.ast
UnionField
p112
g3
NtRp113
(dp114
g46
g1
(g47
g3
NtRp115
(dp116
g16
I53
sg50
I0
sg19
g20
sbsg52
S'blob_uuid'
p117
sg15
Nsg19
Nsg54
S'string'
p118
sg16
Nsbag1
(g112
g3
NtRp119
(dp120
g46
g1
(g47
g3
NtRp121
(dp122
g16
I54
sg50
I1
sg19
g20
sbsg52
S'bytes'
p123
sg15
Nsg19
Nsg54
S'uint8[]'
p124
sg16
Nsbag1
(g112
g3
NtRp125
(dp126
g46
g1
(g47
g3
NtRp127
(dp128
g16
I55
sg50
I2
sg19
g20
sbsg52
S'file'
p129
sg15
Nsg19
Nsg54
S'File'
p130
sg16
Nsbag1
(g112
g3
NtRp131
(dp132
g46
g1
(g47
g3
NtRp133
(dp134
g16
I57
sg50
I3
sg19
g20
sbsg52
S'DEPRECATED_file_system_file'
p135
sg15
Nsg19
Nsg54
S'DEPRECATED_FileSystemFile'
p136
sg16
Nsbasg16
Nsg19
Nsbsg15
Nsg16
Nsg52
S'Element'
p137
sg19
Nsbag1
(g35
g3
NtRp138
(dp139
g38
g1
(g39
g3
NtRp140
(dp141
g10
(lp142
g1
(g43
g3
NtRp143
(dp144
g46
g1
(g47
g3
NtRp145
(dp146
g16
I62
sg50
I0
sg19
g20
sbsg51
Nsg52
S'elements'
p147
sg15
Nsg19
Nsg54
S'Element[]'
p148
sg16
Nsbag1
(g43
g3
NtRp149
(dp150
g46
g1
(g47
g3
NtRp151
(dp152
g16
I63
sg50
I1
sg19
g20
sbsg51
Nsg52
S'identifier'
p153
sg15
Nsg19
Nsg54
S'int64'
p154
sg16
Nsbag1
(g43
g3
NtRp155
(dp156
g46
g1
(g47
g3
NtRp157
(dp158
g16
I64
sg50
I2
sg19
g20
sbsg51
Nsg52
S'contains_sensitive_info'
p159
sg15
Nsg19
Nsg54
S'bool'
p160
sg16
Nsbasg16
Nsg19
Nsbsg15
Nsg16
Nsg52
S'RequestBody'
p161
sg19
Nsbag1
(g35
g3
NtRp162
(dp163
g38
g1
(g39
g3
NtRp164
(dp165
g10
(lp166
g1
(g43
g3
NtRp167
(dp168
g46
g1
(g47
g3
NtRp169
(dp170
g16
I69
sg50
I0
sg19
g20
sbsg51
Nsg52
S'http_content_type'
p171
sg15
Nsg19
Nsg54
S'mojo_base.mojom.String16?'
p172
sg16
Nsbag1
(g43
g3
NtRp173
(dp174
g46
g1
(g47
g3
NtRp175
(dp176
g16
I70
sg50
I1
sg19
g20
sbsg51
Nsg52
S'request_body'
p177
sg15
Nsg19
Nsg54
S'RequestBody?'
p178
sg16
Nsbag1
(g43
g3
NtRp179
(dp180
g46
g1
(g47
g3
NtRp181
(dp182
g16
I71
sg50
I2
sg19
g20
sbsg51
S'false'
p183
sg52
S'contains_passwords'
p184
sg15
Nsg19
Nsg54
S'bool'
p185
sg16
Nsbasg16
Nsg19
Nsbsg15
Nsg16
Nsg52
S'HttpBody'
p186
sg19
Nsbag1
(cmojom.parse.ast
Enum
p187
g3
NtRp188
(dp189
g15
g1
(cmojom.parse.ast
AttributeList
p190
g3
NtRp191
(dp192
g10
(lp193
g1
(cmojom.parse.ast
Attribute
p194
g3
NtRp195
(dp196
g50
I01
sg16
I76
sS'key'
p197
S'Extensible'
p198
sg19
g20
sbasg16
I76
sg19
g20
sbsS'enum_value_list'
p199
g1
(cmojom.parse.ast
EnumValueList
p200
g3
NtRp201
(dp202
g10
(lp203
g1
(cmojom.parse.ast
EnumValue
p204
g3
NtRp205
(dp206
g15
Nsg50
S'0'
sg16
I78
sg52
S'kAuto'
p207
sg19
g20
sbag1
(g204
g3
NtRp208
(dp209
g15
Nsg50
S'1'
sg16
I79
sg52
S'kManual'
p210
sg19
g20
sbasg16
I78
sg19
g20
sbsg16
I77
sg52
S'ScrollRestorationType'
p211
sg19
g20
sbag1
(g35
g3
NtRp212
(dp213
g38
g1
(g39
g3
NtRp214
(dp215
g10
(lp216
g1
(g43
g3
NtRp217
(dp218
g46
g1
(g47
g3
NtRp219
(dp220
g16
I84
sg50
I0
sg19
g20
sbsg51
Nsg52
S'visual_viewport_scroll_offset'
p221
sg15
Nsg19
Nsg54
S'gfx.mojom.PointF'
p222
sg16
Nsbag1
(g43
g3
NtRp223
(dp224
g46
g1
(g47
g3
NtRp225
(dp226
g16
I85
sg50
I1
sg19
g20
sbsg51
Nsg52
S'scroll_offset'
p227
sg15
Nsg19
Nsg54
S'gfx.mojom.Point'
p228
sg16
Nsbag1
(g43
g3
NtRp229
(dp230
g46
g1
(g47
g3
NtRp231
(dp232
g16
I86
sg50
I2
sg19
g20
sbsg51
Nsg52
S'page_scale_factor'
p233
sg15
Nsg19
Nsg54
S'double'
p234
sg16
Nsbag1
(g43
g3
NtRp235
(dp236
g46
g1
(g47
g3
NtRp237
(dp238
g16
I88
sg50
I3
sg19
g20
sbsg51
Nsg52
S'scroll_anchor_selector'
p239
sg15
g1
(g190
g3
NtRp240
(dp241
g10
(lp242
g1
(g194
g3
NtRp243
(dp244
g50
I1
sg16
I88
sg197
S'MinVersion'
p245
sg19
g20
sbasg16
I88
sg19
g20
sbsg19
Nsg54
S'mojo_base.mojom.String16?'
p246
sg16
Nsbag1
(g43
g3
NtRp247
(dp248
g46
g1
(g47
g3
NtRp249
(dp250
g16
I89
sg50
I4
sg19
g20
sbsg51
Nsg52
S'scroll_anchor_offset'
p251
sg15
g1
(g190
g3
NtRp252
(dp253
g10
(lp254
g1
(g194
g3
NtRp255
(dp256
g50
I1
sg16
I89
sg197
S'MinVersion'
p257
sg19
g20
sbasg16
I89
sg19
g20
sbsg19
Nsg54
S'gfx.mojom.PointF?'
p258
sg16
Nsbag1
(g43
g3
NtRp259
(dp260
g46
g1
(g47
g3
NtRp261
(dp262
g16
I90
sg50
I5
sg19
g20
sbsg51
S'0'
sg52
S'scroll_anchor_simhash'
p263
sg15
g1
(g190
g3
NtRp264
(dp265
g10
(lp266
g1
(g194
g3
NtRp267
(dp268
g50
I1
sg16
I90
sg197
S'MinVersion'
p269
sg19
g20
sbasg16
I90
sg19
g20
sbsg19
Nsg54
S'uint64'
p270
sg16
Nsbasg16
Nsg19
Nsbsg15
Nsg16
Nsg52
S'ViewState'
p271
sg19
Nsbag1
(g35
g3
NtRp272
(dp273
g38
g1
(g39
g3
NtRp274
(dp275
g10
(lp276
g1
(g43
g3
NtRp277
(dp278
g46
g1
(g47
g3
NtRp279
(dp280
g16
I94
sg50
I0
sg19
g20
sbsg51
Nsg52
S'url_string'
p281
sg15
Nsg19
Nsg54
S'mojo_base.mojom.String16?'
p282
sg16
Nsbag1
(g43
g3
NtRp283
(dp284
g46
g1
(g47
g3
NtRp285
(dp286
g16
I95
sg50
I1
sg19
g20
sbsg51
Nsg52
S'referrer'
p287
sg15
Nsg19
Nsg54
S'mojo_base.mojom.String16?'
p288
sg16
Nsbag1
(g43
g3
NtRp289
(dp290
g46
g1
(g47
g3
NtRp291
(dp292
g16
I96
sg50
I2
sg19
g20
sbsg51
Nsg52
S'target'
p293
sg15
Nsg19
Nsg54
S'mojo_base.mojom.String16?'
p294
sg16
Nsbag1
(g43
g3
NtRp295
(dp296
g46
g1
(g47
g3
NtRp297
(dp298
g16
I97
sg50
I3
sg19
g20
sbsg51
Nsg52
S'state_object'
p299
sg15
Nsg19
Nsg54
S'mojo_base.mojom.String16?'
p300
sg16
Nsbag1
(g43
g3
NtRp301
(dp302
g46
g1
(g47
g3
NtRp303
(dp304
g16
I98
sg50
I4
sg19
g20
sbsg51
Nsg52
S'document_state'
p305
sg15
Nsg19
Nsg54
S'mojo_base.mojom.String16?[]'
p306
sg16
Nsbag1
(g43
g3
NtRp307
(dp308
g46
g1
(g47
g3
NtRp309
(dp310
g16
I99
sg50
I5
sg19
g20
sbsg51
Nsg52
S'scroll_restoration_type'
p311
sg15
Nsg19
Nsg54
S'ScrollRestorationType'
p312
sg16
Nsbag1
(g43
g3
NtRp313
(dp314
g46
g1
(g47
g3
NtRp315
(dp316
g16
I100
sg50
I6
sg19
g20
sbsg51
Nsg52
S'view_state'
p317
sg15
Nsg19
Nsg54
S'ViewState?'
p318
sg16
Nsbag1
(g43
g3
NtRp319
(dp320
g46
g1
(g47
g3
NtRp321
(dp322
g16
I101
sg50
I7
sg19
g20
sbsg51
Nsg52
S'item_sequence_number'
p323
sg15
Nsg19
Nsg54
S'int64'
p324
sg16
Nsbag1
(g43
g3
NtRp325
(dp326
g46
g1
(g47
g3
NtRp327
(dp328
g16
I102
sg50
I8
sg19
g20
sbsg51
Nsg52
S'document_sequence_number'
p329
sg15
Nsg19
Nsg54
S'int64'
p330
sg16
Nsbag1
(g43
g3
NtRp331
(dp332
g46
g1
(g47
g3
NtRp333
(dp334
g16
I103
sg50
I9
sg19
g20
sbsg51
Nsg52
S'referrer_policy'
p335
sg15
Nsg19
Nsg54
S'network.mojom.ReferrerPolicy'
p336
sg16
Nsbag1
(g43
g3
NtRp337
(dp338
g46
g1
(g47
g3
NtRp339
(dp340
g16
I104
sg50
I10
sg19
g20
sbsg51
Nsg52
S'http_body'
p341
sg15
Nsg19
Nsg54
S'HttpBody'
p342
sg16
Nsbag1
(g43
g3
NtRp343
(dp344
g46
g1
(g47
g3
NtRp345
(dp346
g16
I105
sg50
I11
sg19
g20
sbsg51
Nsg52
S'children'
p347
sg15
Nsg19
Nsg54
S'FrameState[]'
p348
sg16
Nsbasg16
Nsg19
Nsbsg15
Nsg16
Nsg52
S'FrameState'
p349
sg19
Nsbag1
(g35
g3
NtRp350
(dp351
g38
g1
(g39
g3
NtRp352
(dp353
g10
(lp354
g1
(g43
g3
NtRp355
(dp356
g46
g1
(g47
g3
NtRp357
(dp358
g16
I110
sg50
I0
sg19
g20
sbsg51
Nsg52
S'referenced_files'
p359
sg15
Nsg19
Nsg54
S'mojo_base.mojom.String16?[]'
p360
sg16
Nsbag1
(g43
g3
NtRp361
(dp362
g46
g1
(g47
g3
NtRp363
(dp364
g16
I111
sg50
I1
sg19
g20
sbsg51
Nsg52
S'top'
p365
sg15
Nsg19
Nsg54
S'FrameState'
p366
sg16
Nsbasg16
Nsg19
Nsbsg15
Nsg16
Nsg52
S'PageState'
p367
sg19
Nsbasg16
NsS'module'
p368
g1
(cmojom.parse.ast
Module
p369
g3
NtRp370
(dp371
S'mojom_namespace'
p372
(S'IDENTIFIER'
p373
S'content.history.mojom'
tp374
sg16
I5
sg15
Nsg19
g20
sbsg19
Nsb.