ccopy_reg
_reconstructor
p1
(cmojom.parse.ast
Mojom
p2
c__builtin__
object
p3
NtRp4
(dp5
S'import_list'
p6
g1
(cmojom.parse.ast
ImportList
p7
g3
NtRp8
(dp9
S'items'
p10
(lp11
sS'lineno'
p12
NsS'filename'
p13
NsbsS'definition_list'
p14
(lp15
g1
(cmojom.parse.ast
Interface
p16
g3
NtRp17
(dp18
S'body'
p19
g1
(cmojom.parse.ast
InterfaceBody
p20
g3
NtRp21
(dp22
g10
(lp23
g1
(cmojom.parse.ast
Method
p24
g3
NtRp25
(dp26
S'ordinal'
p27
NsS'mojom_name'
p28
S'GetBrowserHistogram'
p29
sS'parameter_list'
p30
g1
(cmojom.parse.ast
ParameterList
p31
g3
NtRp32
(dp33
g10
(lp34
g1
(cmojom.parse.ast
Parameter
p35
g3
NtRp36
(dp37
g27
Nsg28
S'name'
p38
sS'attribute_list'
p39
Nsg13
S'../../content/common/renderer_host.mojom'
p40
sS'typename'
p41
S'string'
p42
sg12
I16
sbasg12
I16
sg13
g40
sbsg39
g1
(cmojom.parse.ast
AttributeList
p43
g3
NtRp44
(dp45
g10
(lp46
g1
(cmojom.parse.ast
Attribute
p47
g3
NtRp48
(dp49
S'value'
p50
I01
sg12
I15
sS'key'
p51
S'Sync'
p52
sg13
g40
sbasg12
I15
sg13
g40
sbsg13
Nsg12
NsS'response_parameter_list'
p53
g1
(g31
g3
NtRp54
(dp55
g10
(lp56
g1
(g35
g3
NtRp57
(dp58
g27
Nsg28
S'histogram_json'
p59
sg39
Nsg13
g40
sg41
S'string'
p60
sg12
I16
sbasg12
I16
sg13
g40
sbsbag1
(g24
g3
NtRp61
(dp62
g27
Nsg28
S'SuddenTerminationChanged'
p63
sg30
g1
(g31
g3
NtRp64
(dp65
g10
(lp66
g1
(g35
g3
NtRp67
(dp68
g27
Nsg28
S'enabled'
p69
sg39
Nsg13
g40
sg41
S'bool'
p70
sg12
I20
sbasg12
I20
sg13
g40
sbsg39
Nsg13
Nsg12
Nsg53
Nsbasg12
Nsg13
Nsbsg39
Nsg12
Nsg28
S'RendererHost'
p71
sg13
Nsbasg12
NsS'module'
p72
g1
(cmojom.parse.ast
Module
p73
g3
NtRp74
(dp75
S'mojom_namespace'
p76
(S'IDENTIFIER'
p77
S'content.mojom'
tp78
sg12
I5
sg39
Nsg13
g40
sbsg13
Nsb.