ccopy_reg
_reconstructor
p1
(cmojom.parse.ast
Mojom
p2
c__builtin__
object
p3
NtRp4
(dp5
S'import_list'
p6
g1
(cmojom.parse.ast
ImportList
p7
g3
NtRp8
(dp9
S'items'
p10
(lp11
g1
(cmojom.parse.ast
Import
p12
g3
NtRp13
(dp14
S'attribute_list'
p15
NsS'lineno'
p16
I7
sS'import_filename'
p17
S'content/common/document_scoped_interface_bundle.mojom'
p18
sS'filename'
p19
S'../../content/common/renderer.mojom'
p20
sbag1
(g12
g3
NtRp21
(dp22
g15
Nsg16
I8
sg17
S'content/common/native_types.mojom'
p23
sg19
g20
sbag1
(g12
g3
NtRp24
(dp25
g15
Nsg16
I9
sg17
S'ipc/constants.mojom'
p26
sg19
g20
sbag1
(g12
g3
NtRp27
(dp28
g15
Nsg16
I10
sg17
S'mojo/public/mojom/base/time.mojom'
p29
sg19
g20
sbag1
(g12
g3
NtRp30
(dp31
g15
Nsg16
I11
sg17
S'mojo/public/mojom/base/unguessable_token.mojom'
p32
sg19
g20
sbag1
(g12
g3
NtRp33
(dp34
g15
Nsg16
I12
sg17
S'services/network/public/mojom/network_types.mojom'
p35
sg19
g20
sbag1
(g12
g3
NtRp36
(dp37
g15
Nsg16
I13
sg17
S'services/service_manager/public/mojom/service.mojom'
p38
sg19
g20
sbag1
(g12
g3
NtRp39
(dp40
g15
Nsg16
I14
sg17
S'third_party/blink/public/mojom/renderer_preferences.mojom'
p41
sg19
g20
sbag1
(g12
g3
NtRp42
(dp43
g15
Nsg16
I15
sg17
S'third_party/blink/public/mojom/service_worker/embedded_worker.mojom'
p44
sg19
g20
sbag1
(g12
g3
NtRp45
(dp46
g15
Nsg16
I16
sg17
S'third_party/blink/public/mojom/user_agent/user_agent_metadata.mojom'
p47
sg19
g20
sbag1
(g12
g3
NtRp48
(dp49
g15
Nsg16
I17
sg17
S'ui/gfx/geometry/mojo/geometry.mojom'
p50
sg19
g20
sbasg16
I7
sg19
g20
sbsS'definition_list'
p51
(lp52
g1
(cmojom.parse.ast
Struct
p53
g3
NtRp54
(dp55
S'body'
p56
g1
(cmojom.parse.ast
StructBody
p57
g3
NtRp58
(dp59
g10
(lp60
g1
(cmojom.parse.ast
StructField
p61
g3
NtRp62
(dp63
S'ordinal'
p64
NsS'default_value'
p65
NsS'mojom_name'
p66
S'renderer_preferences'
p67
sg15
Nsg19
NsS'typename'
p68
S'blink.mojom.RendererPreferences'
p69
sg16
Nsbag1
(g61
g3
NtRp70
(dp71
g64
Nsg65
Nsg66
S'web_preferences'
p72
sg15
Nsg19
Nsg68
S'WebPreferences'
p73
sg16
Nsbag1
(g61
g3
NtRp74
(dp75
g64
Nsg65
(S'IDENTIFIER'
p76
S'IPC.mojom.kRoutingIdNone'
tp77
sg66
S'view_id'
p78
sg15
Nsg19
Nsg68
S'int32'
p79
sg16
Nsbag1
(g61
g3
NtRp80
(dp81
g64
Nsg65
(g76
S'IPC.mojom.kRoutingIdNone'
tp82
sg66
S'main_frame_routing_id'
p83
sg15
Nsg19
Nsg68
S'int32'
p84
sg16
Nsbag1
(g61
g3
NtRp85
(dp86
g64
Nsg65
Nsg66
S'main_frame_interface_bundle'
p87
sg15
Nsg19
Nsg68
S'DocumentScopedInterfaceBundle?'
p88
sg16
Nsbag1
(g61
g3
NtRp89
(dp90
g64
Nsg65
(g76
S'IPC.mojom.kRoutingIdNone'
tp91
sg66
S'main_frame_widget_routing_id'
p92
sg15
Nsg19
Nsg68
S'int32'
p93
sg16
Nsbag1
(g61
g3
NtRp94
(dp95
g64
Nsg65
Nsg66
S'session_storage_namespace_id'
p96
sg15
Nsg19
Nsg68
S'string'
p97
sg16
Nsbag1
(g61
g3
NtRp98
(dp99
g64
Nsg65
(g76
S'IPC.mojom.kRoutingIdNone'
tp100
sg66
S'opener_frame_route_id'
p101
sg15
Nsg19
Nsg68
S'int32'
p102
sg16
Nsbag1
(g61
g3
NtRp103
(dp104
g64
Nsg65
Nsg66
S'replicated_frame_state'
p105
sg15
Nsg19
Nsg68
S'FrameReplicationState'
p106
sg16
Nsbag1
(g61
g3
NtRp107
(dp108
g64
Nsg65
Nsg66
S'devtools_main_frame_token'
p109
sg15
Nsg19
Nsg68
S'mojo_base.mojom.UnguessableToken'
p110
sg16
Nsbag1
(g61
g3
NtRp111
(dp112
g64
Nsg65
(g76
S'IPC.mojom.kRoutingIdNone'
tp113
sg66
S'proxy_routing_id'
p114
sg15
Nsg19
Nsg68
S'int32'
p115
sg16
Nsbag1
(g61
g3
NtRp116
(dp117
g64
Nsg65
Nsg66
S'hidden'
p118
sg15
Nsg19
Nsg68
S'bool'
p119
sg16
Nsbag1
(g61
g3
NtRp120
(dp121
g64
Nsg65
Nsg66
S'never_visible'
p122
sg15
Nsg19
Nsg68
S'bool'
p123
sg16
Nsbag1
(g61
g3
NtRp124
(dp125
g64
Nsg65
Nsg66
S'window_was_created_with_opener'
p126
sg15
Nsg19
Nsg68
S'bool'
p127
sg16
Nsbag1
(g61
g3
NtRp128
(dp129
g64
Nsg65
Nsg66
S'has_committed_real_load'
p130
sg15
Nsg19
Nsg68
S'bool'
p131
sg16
Nsbag1
(g61
g3
NtRp132
(dp133
g64
Nsg65
Nsg66
S'visual_properties'
p134
sg15
Nsg19
Nsg68
S'VisualProperties'
p135
sg16
Nsbag1
(g61
g3
NtRp136
(dp137
g64
Nsg65
Nsg66
S'renderer_wide_named_frame_lookup'
p138
sg15
Nsg19
Nsg68
S'bool'
p139
sg16
Nsbag1
(g61
g3
NtRp140
(dp141
g64
Nsg65
Nsg66
S'inside_portal'
p142
sg15
Nsg19
Nsg68
S'bool'
p143
sg16
Nsbasg16
Nsg19
Nsbsg15
Nsg16
Nsg66
S'CreateViewParams'
p144
sg19
Nsbag1
(g53
g3
NtRp145
(dp146
g56
g1
(g57
g3
NtRp147
(dp148
g10
(lp149
g1
(g61
g3
NtRp150
(dp151
g64
Nsg65
Nsg66
S'routing_id'
p152
sg15
Nsg19
Nsg68
S'int32'
p153
sg16
Nsbag1
(g61
g3
NtRp154
(dp155
g64
Nsg65
Nsg66
S'hidden'
p156
sg15
Nsg19
Nsg68
S'bool'
p157
sg16
Nsbasg16
Nsg19
Nsbsg15
Nsg16
Nsg66
S'CreateFrameWidgetParams'
p158
sg19
Nsbag1
(g53
g3
NtRp159
(dp160
g56
g1
(g57
g3
NtRp161
(dp162
g10
(lp163
g1
(g61
g3
NtRp164
(dp165
g64
Nsg65
Nsg66
S'routing_id'
p166
sg15
Nsg19
Nsg68
S'int32'
p167
sg16
Nsbag1
(g61
g3
NtRp168
(dp169
g64
Nsg65
Nsg66
S'previous_routing_id'
p170
sg15
Nsg19
Nsg68
S'int32'
p171
sg16
Nsbag1
(g61
g3
NtRp172
(dp173
g64
Nsg65
Nsg66
S'opener_routing_id'
p174
sg15
Nsg19
Nsg68
S'int32'
p175
sg16
Nsbag1
(g61
g3
NtRp176
(dp177
g64
Nsg65
Nsg66
S'parent_routing_id'
p178
sg15
Nsg19
Nsg68
S'int32'
p179
sg16
Nsbag1
(g61
g3
NtRp180
(dp181
g64
Nsg65
Nsg66
S'previous_sibling_routing_id'
p182
sg15
Nsg19
Nsg68
S'int32'
p183
sg16
Nsbag1
(g61
g3
NtRp184
(dp185
g64
Nsg65
Nsg66
S'interface_bundle'
p186
sg15
Nsg19
Nsg68
S'DocumentScopedInterfaceBundle'
p187
sg16
Nsbag1
(g61
g3
NtRp188
(dp189
g64
Nsg65
Nsg66
S'replication_state'
p190
sg15
Nsg19
Nsg68
S'FrameReplicationState'
p191
sg16
Nsbag1
(g61
g3
NtRp192
(dp193
g64
Nsg65
Nsg66
S'devtools_frame_token'
p194
sg15
Nsg19
Nsg68
S'mojo_base.mojom.UnguessableToken'
p195
sg16
Nsbag1
(g61
g3
NtRp196
(dp197
g64
Nsg65
Nsg66
S'frame_owner_properties'
p198
sg15
Nsg19
Nsg68
S'FrameOwnerProperties'
p199
sg16
Nsbag1
(g61
g3
NtRp200
(dp201
g64
Nsg65
Nsg66
S'widget_params'
p202
sg15
Nsg19
Nsg68
S'CreateFrameWidgetParams'
p203
sg16
Nsbag1
(g61
g3
NtRp204
(dp205
g64
Nsg65
Nsg66
S'has_committed_real_load'
p206
sg15
Nsg19
Nsg68
S'bool'
p207
sg16
Nsbasg16
Nsg19
Nsbsg15
Nsg16
Nsg66
S'CreateFrameParams'
p208
sg19
Nsbag1
(g53
g3
NtRp209
(dp210
g56
g1
(g57
g3
NtRp211
(dp212
g10
(lp213
g1
(g61
g3
NtRp214
(dp215
g64
Nsg65
Nsg66
S'initial_button_delay'
p216
sg15
Nsg19
Nsg68
S'float'
p217
sg16
Nsbag1
(g61
g3
NtRp218
(dp219
g64
Nsg65
Nsg66
S'autoscroll_button_delay'
p220
sg15
Nsg19
Nsg68
S'float'
p221
sg16
Nsbag1
(g61
g3
NtRp222
(dp223
g64
Nsg65
Nsg66
S'jump_on_track_click'
p224
sg15
Nsg19
Nsg68
S'bool'
p225
sg16
Nsbag1
(g61
g3
NtRp226
(dp227
g64
Nsg65
Nsg66
S'preferred_scroller_style'
p228
sg15
Nsg19
Nsg68
S'ScrollerStyle'
p229
sg16
Nsbag1
(g61
g3
NtRp230
(dp231
g64
Nsg65
Nsg66
S'redraw'
p232
sg15
Nsg19
Nsg68
S'bool'
p233
sg16
Nsbag1
(g61
g3
NtRp234
(dp235
g64
Nsg65
Nsg66
S'button_placement'
p236
sg15
Nsg19
Nsg68
S'ScrollbarButtonsPlacement'
p237
sg16
Nsbag1
(g61
g3
NtRp238
(dp239
g64
Nsg65
Nsg66
S'scroll_view_rubber_banding'
p240
sg15
Nsg19
Nsg68
S'bool'
p241
sg16
Nsbasg16
Nsg19
Nsbsg15
Nsg16
Nsg66
S'UpdateScrollbarThemeParams'
p242
sg19
Nsbag1
(cmojom.parse.ast
Enum
p243
g3
NtRp244
(dp245
g15
NsS'enum_value_list'
p246
g1
(cmojom.parse.ast
EnumValueList
p247
g3
NtRp248
(dp249
g10
(lp250
g1
(cmojom.parse.ast
EnumValue
p251
g3
NtRp252
(dp253
g15
NsS'value'
p254
Nsg16
I164
sg66
S'kVisible'
p255
sg19
g20
sbag1
(g251
g3
NtRp256
(dp257
g15
Nsg254
Nsg16
I167
sg66
S'kHidden'
p258
sg19
g20
sbag1
(g251
g3
NtRp259
(dp260
g15
Nsg254
Nsg16
I170
sg66
S'kBackgrounded'
p261
sg19
g20
sbasg16
I164
sg19
g20
sbsg16
I163
sg66
S'RenderProcessState'
p262
sg19
g20
sbag1
(cmojom.parse.ast
Interface
p263
g3
NtRp264
(dp265
g56
g1
(cmojom.parse.ast
InterfaceBody
p266
g3
NtRp267
(dp268
g10
(lp269
g1
(cmojom.parse.ast
Method
p270
g3
NtRp271
(dp272
g64
Nsg66
S'CreateEmbedderRendererService'
p273
sS'parameter_list'
p274
g1
(cmojom.parse.ast
ParameterList
p275
g3
NtRp276
(dp277
g10
(lp278
g1
(cmojom.parse.ast
Parameter
p279
g3
NtRp280
(dp281
g64
Nsg66
S'service_request'
p282
sg15
Nsg19
g20
sg68
S'service_manager.mojom.Service&'
p283
sg16
I181
sbasg16
I181
sg19
g20
sbsg15
Nsg19
Nsg16
NsS'response_parameter_list'
p284
Nsbag1
(g270
g3
NtRp285
(dp286
g64
Nsg66
S'CreateView'
p287
sg274
g1
(g275
g3
NtRp288
(dp289
g10
(lp290
g1
(g279
g3
NtRp291
(dp292
g64
Nsg66
S'params'
p293
sg15
Nsg19
g20
sg68
S'CreateViewParams'
p294
sg16
I184
sbasg16
I184
sg19
g20
sbsg15
Nsg19
Nsg16
Nsg284
Nsbag1
(g270
g3
NtRp295
(dp296
g64
Nsg66
S'CreateFrame'
p297
sg274
g1
(g275
g3
NtRp298
(dp299
g10
(lp300
g1
(g279
g3
NtRp301
(dp302
g64
Nsg66
S'params'
p303
sg15
Nsg19
g20
sg68
S'CreateFrameParams'
p304
sg16
I187
sbasg16
I187
sg19
g20
sbsg15
Nsg19
Nsg16
Nsg284
Nsbag1
(g270
g3
NtRp305
(dp306
g64
Nsg66
S'CreateFrameProxy'
p307
sg274
g1
(g275
g3
NtRp308
(dp309
g10
(lp310
g1
(g279
g3
NtRp311
(dp312
g64
Nsg66
S'routing_id'
p313
sg15
Nsg19
g20
sg68
S'int32'
p314
sg16
I199
sbag1
(g279
g3
NtRp315
(dp316
g64
Nsg66
S'render_view_routing_id'
p317
sg15
Nsg19
g20
sg68
S'int32'
p318
sg16
I199
sbag1
(g279
g3
NtRp319
(dp320
g64
Nsg66
S'opener_routing_id'
p321
sg15
Nsg19
g20
sg68
S'int32'
p322
sg16
I200
sbag1
(g279
g3
NtRp323
(dp324
g64
Nsg66
S'parent_routing_id'
p325
sg15
Nsg19
g20
sg68
S'int32'
p326
sg16
I200
sbag1
(g279
g3
NtRp327
(dp328
g64
Nsg66
S'replication_state'
p329
sg15
Nsg19
g20
sg68
S'FrameReplicationState'
p330
sg16
I201
sbag1
(g279
g3
NtRp331
(dp332
g64
Nsg66
S'devtools_frame_token'
p333
sg15
Nsg19
g20
sg68
S'mojo_base.mojom.UnguessableToken'
p334
sg16
I202
sbasg16
I199
sg19
g20
sbsg15
Nsg19
Nsg16
Nsg284
Nsbag1
(g270
g3
NtRp335
(dp336
g64
Nsg66
S'SetUpEmbeddedWorkerChannelForServiceWorker'
p337
sg274
g1
(g275
g3
NtRp338
(dp339
g10
(lp340
g1
(g279
g3
NtRp341
(dp342
g64
Nsg66
S'client_request'
p343
sg15
Nsg19
g20
sg68
S'blink.mojom.EmbeddedWorkerInstanceClient&'
p344
sg16
I209
sbasg16
I209
sg19
g20
sbsg15
Nsg19
Nsg16
Nsg284
Nsbag1
(g270
g3
NtRp345
(dp346
g64
Nsg66
S'OnNetworkConnectionChanged'
p347
sg274
g1
(g275
g3
NtRp348
(dp349
g10
(lp350
g1
(g279
g3
NtRp351
(dp352
g64
Nsg66
S'connection_type'
p353
sg15
Nsg19
g20
sg68
S'NetworkConnectionType'
p354
sg16
I213
sbag1
(g279
g3
NtRp355
(dp356
g64
Nsg66
S'max_bandwidth_mbps'
p357
sg15
Nsg19
g20
sg68
S'double'
p358
sg16
I214
sbasg16
I213
sg19
g20
sbsg15
Nsg19
Nsg16
Nsg284
Nsbag1
(g270
g3
NtRp359
(dp360
g64
Nsg66
S'OnNetworkQualityChanged'
p361
sg274
g1
(g275
g3
NtRp362
(dp363
g10
(lp364
g1
(g279
g3
NtRp365
(dp366
g64
Nsg66
S'effective_connection_type'
p367
sg15
Nsg19
g20
sg68
S'network.mojom.EffectiveConnectionType'
p368
sg16
I224
sbag1
(g279
g3
NtRp369
(dp370
g64
Nsg66
S'http_rtt'
p371
sg15
Nsg19
g20
sg68
S'mojo_base.mojom.TimeDelta'
p372
sg16
I225
sbag1
(g279
g3
NtRp373
(dp374
g64
Nsg66
S'transport_rtt'
p375
sg15
Nsg19
g20
sg68
S'mojo_base.mojom.TimeDelta'
p376
sg16
I226
sbag1
(g279
g3
NtRp377
(dp378
g64
Nsg66
S'bandwidth_kbps'
p379
sg15
Nsg19
g20
sg68
S'double'
p380
sg16
I227
sbasg16
I224
sg19
g20
sbsg15
Nsg19
Nsg16
Nsg284
Nsbag1
(g270
g3
NtRp381
(dp382
g64
Nsg66
S'SetWebKitSharedTimersSuspended'
p383
sg274
g1
(g275
g3
NtRp384
(dp385
g10
(lp386
g1
(g279
g3
NtRp387
(dp388
g64
Nsg66
S'suspend'
p389
sg15
Nsg19
g20
sg68
S'bool'
p390
sg16
I231
sbasg16
I231
sg19
g20
sbsg15
Nsg19
Nsg16
Nsg284
Nsbag1
(g270
g3
NtRp391
(dp392
g64
Nsg66
S'SetUserAgent'
p393
sg274
g1
(g275
g3
NtRp394
(dp395
g10
(lp396
g1
(g279
g3
NtRp397
(dp398
g64
Nsg66
S'user_agent'
p399
sg15
Nsg19
g20
sg68
S'string'
p400
sg16
I237
sbasg16
I237
sg19
g20
sbsg15
Nsg19
Nsg16
Nsg284
Nsbag1
(g270
g3
NtRp401
(dp402
g64
Nsg66
S'SetUserAgentMetadata'
p403
sg274
g1
(g275
g3
NtRp404
(dp405
g10
(lp406
g1
(g279
g3
NtRp407
(dp408
g64
Nsg66
S'metadata'
p409
sg15
Nsg19
g20
sg68
S'blink.mojom.UserAgentMetadata'
p410
sg16
I241
sbasg16
I241
sg19
g20
sbsg15
Nsg19
Nsg16
Nsg284
Nsbag1
(g270
g3
NtRp411
(dp412
g64
Nsg66
S'UpdateScrollbarTheme'
p413
sg274
g1
(g275
g3
NtRp414
(dp415
g10
(lp416
g1
(g279
g3
NtRp417
(dp418
g64
Nsg66
S'params'
p419
sg15
Nsg19
g20
sg68
S'UpdateScrollbarThemeParams'
p420
sg16
I245
sbasg16
I245
sg19
g20
sbsg15
Nsg19
Nsg16
Nsg284
Nsbag1
(g270
g3
NtRp421
(dp422
g64
Nsg66
S'OnSystemColorsChanged'
p423
sg274
g1
(g275
g3
NtRp424
(dp425
g10
(lp426
g1
(g279
g3
NtRp427
(dp428
g64
Nsg66
S'aqua_color_variant'
p429
sg15
Nsg19
g20
sg68
S'int32'
p430
sg16
I248
sbag1
(g279
g3
NtRp431
(dp432
g64
Nsg66
S'highlight_text_color'
p433
sg15
Nsg19
g20
sg68
S'string'
p434
sg16
I248
sbag1
(g279
g3
NtRp435
(dp436
g64
Nsg66
S'highlight_color'
p437
sg15
Nsg19
g20
sg68
S'string'
p438
sg16
I249
sbasg16
I248
sg19
g20
sbsg15
Nsg19
Nsg16
Nsg284
Nsbag1
(g270
g3
NtRp439
(dp440
g64
Nsg66
S'PurgePluginListCache'
p441
sg274
g1
(g275
g3
NtRp442
(dp443
g10
(lp444
g1
(g279
g3
NtRp445
(dp446
g64
Nsg66
S'reload_pages'
p447
sg15
Nsg19
g20
sg68
S'bool'
p448
sg16
I253
sbasg16
I253
sg19
g20
sbsg15
Nsg19
Nsg16
Nsg284
Nsbag1
(g270
g3
NtRp449
(dp450
g64
Nsg66
S'SetProcessState'
p451
sg274
g1
(g275
g3
NtRp452
(dp453
g10
(lp454
g1
(g279
g3
NtRp455
(dp456
g64
Nsg66
S'process_state'
p457
sg15
Nsg19
g20
sg68
S'RenderProcessState'
p458
sg16
I257
sbasg16
I257
sg19
g20
sbsg15
Nsg19
Nsg16
Nsg284
Nsbag1
(g270
g3
NtRp459
(dp460
g64
Nsg66
S'SetSchedulerKeepActive'
p461
sg274
g1
(g275
g3
NtRp462
(dp463
g10
(lp464
g1
(g279
g3
NtRp465
(dp466
g64
Nsg66
S'keep_active'
p467
sg15
Nsg19
g20
sg68
S'bool'
p468
sg16
I262
sbasg16
I262
sg19
g20
sbsg15
Nsg19
Nsg16
Nsg284
Nsbag1
(g270
g3
NtRp469
(dp470
g64
Nsg66
S'SetIsLockedToSite'
p471
sg274
g1
(g275
g3
NtRp472
(dp473
g10
(lp474
sg16
Nsg19
Nsbsg15
Nsg19
Nsg16
Nsg284
Nsbag1
(g270
g3
NtRp475
(dp476
g64
Nsg66
S'EnableV8LowMemoryMode'
p477
sg274
g1
(g275
g3
NtRp478
(dp479
g10
(lp480
sg16
Nsg19
Nsbsg15
Nsg19
Nsg16
Nsg284
Nsbasg16
Nsg19
Nsbsg15
Nsg16
Nsg66
S'Renderer'
p481
sg19
Nsbasg16
NsS'module'
p482
g1
(cmojom.parse.ast
Module
p483
g3
NtRp484
(dp485
S'mojom_namespace'
p486
(g76
S'content.mojom'
tp487
sg16
I5
sg15
Nsg19
g20
sbsg19
Nsb.