ccopy_reg
_reconstructor
p1
(cmojom.parse.ast
Mojom
p2
c__builtin__
object
p3
NtRp4
(dp5
S'import_list'
p6
g1
(cmojom.parse.ast
ImportList
p7
g3
NtRp8
(dp9
S'items'
p10
(lp11
g1
(cmojom.parse.ast
Import
p12
g3
NtRp13
(dp14
S'attribute_list'
p15
NsS'lineno'
p16
I7
sS'import_filename'
p17
S'content/common/input/input_handler.mojom'
p18
sS'filename'
p19
S'../../content/common/render_message_filter.mojom'
p20
sbag1
(g12
g3
NtRp21
(dp22
g15
Nsg16
I8
sg17
S'content/common/widget.mojom'
p23
sg19
g20
sbag1
(g12
g3
NtRp24
(dp25
g15
Nsg16
I9
sg17
S'mojo/public/mojom/base/thread_priority.mojom'
p26
sg19
g20
sbag1
(g12
g3
NtRp27
(dp28
g15
Nsg16
I10
sg17
S'mojo/public/mojom/base/time.mojom'
p29
sg19
g20
sbag1
(g12
g3
NtRp30
(dp31
g15
Nsg16
I11
sg17
S'url/mojom/origin.mojom'
p32
sg19
g20
sbag1
(g12
g3
NtRp33
(dp34
g15
Nsg16
I12
sg17
S'url/mojom/url.mojom'
p35
sg19
g20
sbasg16
I7
sg19
g20
sbsS'definition_list'
p36
(lp37
g1
(cmojom.parse.ast
Interface
p38
g3
NtRp39
(dp40
S'body'
p41
g1
(cmojom.parse.ast
InterfaceBody
p42
g3
NtRp43
(dp44
g10
(lp45
g1
(cmojom.parse.ast
Method
p46
g3
NtRp47
(dp48
S'ordinal'
p49
NsS'mojom_name'
p50
S'GenerateRoutingID'
p51
sS'parameter_list'
p52
g1
(cmojom.parse.ast
ParameterList
p53
g3
NtRp54
(dp55
g10
(lp56
sg16
Nsg19
Nsbsg15
g1
(cmojom.parse.ast
AttributeList
p57
g3
NtRp58
(dp59
g10
(lp60
g1
(cmojom.parse.ast
Attribute
p61
g3
NtRp62
(dp63
S'value'
p64
I01
sg16
I16
sS'key'
p65
S'Sync'
p66
sg19
g20
sbasg16
I16
sg19
g20
sbsg19
Nsg16
NsS'response_parameter_list'
p67
g1
(g53
g3
NtRp68
(dp69
g10
(lp70
g1
(cmojom.parse.ast
Parameter
p71
g3
NtRp72
(dp73
g49
Nsg50
S'routing_id'
p74
sg15
Nsg19
g20
sS'typename'
p75
S'int32'
p76
sg16
I16
sbasg16
I16
sg19
g20
sbsbag1
(g46
g3
NtRp77
(dp78
g49
Nsg50
S'CreateNewWidget'
p79
sg52
g1
(g53
g3
NtRp80
(dp81
g10
(lp82
g1
(g71
g3
NtRp83
(dp84
g49
Nsg50
S'opener_id'
p85
sg15
Nsg19
g20
sg75
S'int32'
p86
sg16
I20
sbag1
(g71
g3
NtRp87
(dp88
g49
Nsg50
S'widget'
p89
sg15
Nsg19
g20
sg75
S'Widget'
p90
sg16
I20
sbasg16
I20
sg19
g20
sbsg15
g1
(g57
g3
NtRp91
(dp92
g10
(lp93
g1
(g61
g3
NtRp94
(dp95
g64
I01
sg16
I20
sg65
S'Sync'
p96
sg19
g20
sbasg16
I20
sg19
g20
sbsg19
Nsg16
Nsg67
g1
(g53
g3
NtRp97
(dp98
g10
(lp99
g1
(g71
g3
NtRp100
(dp101
g49
Nsg50
S'route_id'
p102
sg15
Nsg19
g20
sg75
S'int32'
p103
sg16
I21
sbasg16
I21
sg19
g20
sbsbag1
(g46
g3
NtRp104
(dp105
g49
Nsg50
S'CreateFullscreenWidget'
p106
sg52
g1
(g53
g3
NtRp107
(dp108
g10
(lp109
g1
(g71
g3
NtRp110
(dp111
g49
Nsg50
S'opener_id'
p112
sg15
Nsg19
g20
sg75
S'int32'
p113
sg16
I24
sbag1
(g71
g3
NtRp114
(dp115
g49
Nsg50
S'widget'
p116
sg15
Nsg19
g20
sg75
S'Widget'
p117
sg16
I24
sbasg16
I24
sg19
g20
sbsg15
g1
(g57
g3
NtRp118
(dp119
g10
(lp120
g1
(g61
g3
NtRp121
(dp122
g64
I01
sg16
I24
sg65
S'Sync'
p123
sg19
g20
sbasg16
I24
sg19
g20
sbsg19
Nsg16
Nsg67
g1
(g53
g3
NtRp124
(dp125
g10
(lp126
g1
(g71
g3
NtRp127
(dp128
g49
Nsg50
S'route_id'
p129
sg15
Nsg19
g20
sg75
S'int32'
p130
sg16
I25
sbasg16
I25
sg19
g20
sbsbag1
(g46
g3
NtRp131
(dp132
g49
Nsg50
S'HasGpuProcess'
p133
sg52
g1
(g53
g3
NtRp134
(dp135
g10
(lp136
sg16
Nsg19
Nsbsg15
g1
(g57
g3
NtRp137
(dp138
g10
(lp139
g1
(g61
g3
NtRp140
(dp141
g64
I01
sg16
I28
sg65
S'Sync'
p142
sg19
g20
sbasg16
I28
sg19
g20
sbsg19
Nsg16
Nsg67
g1
(g53
g3
NtRp143
(dp144
g10
(lp145
g1
(g71
g3
NtRp146
(dp147
g49
Nsg50
S'has_gpu_process'
p148
sg15
Nsg19
g20
sg75
S'bool'
p149
sg16
I28
sbasg16
I28
sg19
g20
sbsbag1
(g46
g3
NtRp150
(dp151
g49
Nsg50
S'SetThreadPriority'
p152
sg52
g1
(g53
g3
NtRp153
(dp154
g10
(lp155
g1
(g71
g3
NtRp156
(dp157
g49
Nsg50
S'platform_thread_id'
p158
sg15
Nsg19
g20
sg75
S'int32'
p159
sg16
I32
sbag1
(g71
g3
NtRp160
(dp161
g49
Nsg50
S'thread_priority'
p162
sg15
Nsg19
g20
sg75
S'mojo_base.mojom.ThreadPriority'
p163
sg16
I33
sbasg16
I32
sg19
g20
sbsg15
g1
(g57
g3
NtRp164
(dp165
g10
(lp166
g1
(g61
g3
NtRp167
(dp168
g64
S'supports_thread_priorities'
p169
sg16
I31
sg65
S'EnableIf'
p170
sg19
g20
sbasg16
I31
sg19
g20
sbsg19
Nsg16
Nsg67
Nsbasg16
Nsg19
Nsbsg15
Nsg16
Nsg50
S'RenderMessageFilter'
p171
sg19
Nsbasg16
NsS'module'
p172
g1
(cmojom.parse.ast
Module
p173
g3
NtRp174
(dp175
S'mojom_namespace'
p176
(S'IDENTIFIER'
p177
S'content.mojom'
tp178
sg16
I5
sg15
Nsg19
g20
sbsg19
Nsb.