ccopy_reg
_reconstructor
p1
(cmojom.parse.ast
Mojom
p2
c__builtin__
object
p3
NtRp4
(dp5
S'import_list'
p6
g1
(cmojom.parse.ast
ImportList
p7
g3
NtRp8
(dp9
S'items'
p10
(lp11
g1
(cmojom.parse.ast
Import
p12
g3
NtRp13
(dp14
S'attribute_list'
p15
NsS'lineno'
p16
I7
sS'import_filename'
p17
S'url/mojom/url.mojom'
p18
sS'filename'
p19
S'../../content/common/render_frame_message_filter.mojom'
p20
sbasg16
I7
sg19
g20
sbsS'definition_list'
p21
(lp22
g1
(cmojom.parse.ast
Interface
p23
g3
NtRp24
(dp25
S'body'
p26
g1
(cmojom.parse.ast
InterfaceBody
p27
g3
NtRp28
(dp29
g10
(lp30
g1
(cmojom.parse.ast
Method
p31
g3
NtRp32
(dp33
S'ordinal'
p34
NsS'mojom_name'
p35
S'SetCookie'
p36
sS'parameter_list'
p37
g1
(cmojom.parse.ast
ParameterList
p38
g3
NtRp39
(dp40
g10
(lp41
g1
(cmojom.parse.ast
Parameter
p42
g3
NtRp43
(dp44
g34
Nsg35
S'render_frame_id'
p45
sg15
Nsg19
g20
sS'typename'
p46
S'int32'
p47
sg16
I15
sbag1
(g42
g3
NtRp48
(dp49
g34
Nsg35
S'url'
p50
sg15
Nsg19
g20
sg46
S'url.mojom.Url'
p51
sg16
I15
sbag1
(g42
g3
NtRp52
(dp53
g34
Nsg35
S'first_party_for_cookies'
p54
sg15
Nsg19
g20
sg46
S'url.mojom.Url'
p55
sg16
I16
sbag1
(g42
g3
NtRp56
(dp57
g34
Nsg35
S'cookie'
p58
sg15
Nsg19
g20
sg46
S'string'
p59
sg16
I16
sbasg16
I15
sg19
g20
sbsg15
g1
(cmojom.parse.ast
AttributeList
p60
g3
NtRp61
(dp62
g10
(lp63
g1
(cmojom.parse.ast
Attribute
p64
g3
NtRp65
(dp66
S'value'
p67
I01
sg16
I14
sS'key'
p68
S'Sync'
p69
sg19
g20
sbasg16
I14
sg19
g20
sbsg19
Nsg16
NsS'response_parameter_list'
p70
g1
(g38
g3
NtRp71
(dp72
g10
(lp73
sg16
Nsg19
Nsbsbag1
(g31
g3
NtRp74
(dp75
g34
Nsg35
S'GetCookies'
p76
sg37
g1
(g38
g3
NtRp77
(dp78
g10
(lp79
g1
(g42
g3
NtRp80
(dp81
g34
Nsg35
S'render_frame_id'
p82
sg15
Nsg19
g20
sg46
S'int32'
p83
sg16
I21
sbag1
(g42
g3
NtRp84
(dp85
g34
Nsg35
S'url'
p86
sg15
Nsg19
g20
sg46
S'url.mojom.Url'
p87
sg16
I21
sbag1
(g42
g3
NtRp88
(dp89
g34
Nsg35
S'first_party_for_cookies'
p90
sg15
Nsg19
g20
sg46
S'url.mojom.Url'
p91
sg16
I22
sbasg16
I21
sg19
g20
sbsg15
g1
(g60
g3
NtRp92
(dp93
g10
(lp94
g1
(g64
g3
NtRp95
(dp96
g67
I01
sg16
I20
sg68
S'Sync'
p97
sg19
g20
sbasg16
I20
sg19
g20
sbsg19
Nsg16
Nsg70
g1
(g38
g3
NtRp98
(dp99
g10
(lp100
g1
(g42
g3
NtRp101
(dp102
g34
Nsg35
S'cookies'
p103
sg15
Nsg19
g20
sg46
S'string'
p104
sg16
I22
sbasg16
I22
sg19
g20
sbsbasg16
Nsg19
Nsbsg15
Nsg16
Nsg35
S'RenderFrameMessageFilter'
p105
sg19
Nsbasg16
NsS'module'
p106
g1
(cmojom.parse.ast
Module
p107
g3
NtRp108
(dp109
S'mojom_namespace'
p110
(S'IDENTIFIER'
p111
S'content.mojom'
tp112
sg16
I5
sg15
Nsg19
g20
sbsg19
Nsb.