ccopy_reg
_reconstructor
p1
(cmojom.parse.ast
Mojom
p2
c__builtin__
object
p3
NtRp4
(dp5
S'import_list'
p6
g1
(cmojom.parse.ast
ImportList
p7
g3
NtRp8
(dp9
S'items'
p10
(lp11
g1
(cmojom.parse.ast
Import
p12
g3
NtRp13
(dp14
S'attribute_list'
p15
NsS'lineno'
p16
I7
sS'import_filename'
p17
S'mojo/public/mojom/base/time.mojom'
p18
sS'filename'
p19
S'../../content/common/render_frame_metadata.mojom'
p20
sbag1
(g12
g3
NtRp21
(dp22
g15
Nsg16
I8
sg17
S'services/viz/public/interfaces/compositing/local_surface_id_allocation.mojom'
p23
sg19
g20
sbag1
(g12
g3
NtRp24
(dp25
g15
Nsg16
I9
sg17
S'services/viz/public/interfaces/compositing/selection.mojom'
p26
sg19
g20
sbag1
(g12
g3
NtRp27
(dp28
g15
Nsg16
I10
sg17
S'ui/gfx/geometry/mojo/geometry.mojom'
p29
sg19
g20
sbasg16
I7
sg19
g20
sbsS'definition_list'
p30
(lp31
g1
(cmojom.parse.ast
Struct
p32
g3
NtRp33
(dp34
S'body'
p35
g1
(cmojom.parse.ast
StructBody
p36
g3
NtRp37
(dp38
g10
(lp39
g1
(cmojom.parse.ast
StructField
p40
g3
NtRp41
(dp42
S'ordinal'
p43
NsS'default_value'
p44
NsS'mojom_name'
p45
S'root_background_color'
p46
sg15
Nsg19
NsS'typename'
p47
S'uint32'
p48
sg16
Nsbag1
(g40
g3
NtRp49
(dp50
g43
Nsg44
Nsg45
S'root_scroll_offset'
p51
sg15
Nsg19
Nsg47
S'gfx.mojom.Vector2dF?'
p52
sg16
Nsbag1
(g40
g3
NtRp53
(dp54
g43
Nsg44
Nsg45
S'is_scroll_offset_at_top'
p55
sg15
Nsg19
Nsg47
S'bool'
p56
sg16
Nsbag1
(g40
g3
NtRp57
(dp58
g43
Nsg44
Nsg45
S'selection'
p59
sg15
Nsg19
Nsg47
S'viz.mojom.Selection'
p60
sg16
Nsbag1
(g40
g3
NtRp61
(dp62
g43
Nsg44
Nsg45
S'is_mobile_optimized'
p63
sg15
Nsg19
Nsg47
S'bool'
p64
sg16
Nsbag1
(g40
g3
NtRp65
(dp66
g43
Nsg44
Nsg45
S'device_scale_factor'
p67
sg15
Nsg19
Nsg47
S'float'
p68
sg16
Nsbag1
(g40
g3
NtRp69
(dp70
g43
Nsg44
Nsg45
S'viewport_size_in_pixels'
p71
sg15
Nsg19
Nsg47
S'gfx.mojom.Size'
p72
sg16
Nsbag1
(g40
g3
NtRp73
(dp74
g43
Nsg44
Nsg45
S'local_surface_id_allocation'
p75
sg15
Nsg19
Nsg47
S'viz.mojom.LocalSurfaceIdAllocation?'
p76
sg16
Nsbag1
(g40
g3
NtRp77
(dp78
g43
Nsg44
Nsg45
S'page_scale_factor'
p79
sg15
Nsg19
Nsg47
S'float'
p80
sg16
Nsbag1
(g40
g3
NtRp81
(dp82
g43
Nsg44
Nsg45
S'external_page_scale_factor'
p83
sg15
Nsg19
Nsg47
S'float'
p84
sg16
Nsbag1
(g40
g3
NtRp85
(dp86
g43
Nsg44
Nsg45
S'top_controls_height'
p87
sg15
Nsg19
Nsg47
S'float'
p88
sg16
Nsbag1
(g40
g3
NtRp89
(dp90
g43
Nsg44
Nsg45
S'top_controls_shown_ratio'
p91
sg15
Nsg19
Nsg47
S'float'
p92
sg16
Nsbasg16
Nsg19
Nsbsg15
Nsg16
Nsg45
S'RenderFrameMetadata'
p93
sg19
Nsbag1
(cmojom.parse.ast
Interface
p94
g3
NtRp95
(dp96
g35
g1
(cmojom.parse.ast
InterfaceBody
p97
g3
NtRp98
(dp99
g10
(lp100
g1
(cmojom.parse.ast
Method
p101
g3
NtRp102
(dp103
g43
Nsg45
S'ReportAllFrameSubmissionsForTesting'
p104
sS'parameter_list'
p105
g1
(cmojom.parse.ast
ParameterList
p106
g3
NtRp107
(dp108
g10
(lp109
g1
(cmojom.parse.ast
Parameter
p110
g3
NtRp111
(dp112
g43
Nsg45
S'enabled'
p113
sg15
Nsg19
g20
sg47
S'bool'
p114
sg16
I93
sbasg16
I93
sg19
g20
sbsg15
Nsg19
Nsg16
NsS'response_parameter_list'
p115
Nsbasg16
Nsg19
Nsbsg15
Nsg16
Nsg45
S'RenderFrameMetadataObserver'
p116
sg19
Nsbag1
(g94
g3
NtRp117
(dp118
g35
g1
(g97
g3
NtRp119
(dp120
g10
(lp121
g1
(g101
g3
NtRp122
(dp123
g43
Nsg45
S'OnRenderFrameMetadataChanged'
p124
sg105
g1
(g106
g3
NtRp125
(dp126
g10
(lp127
g1
(g110
g3
NtRp128
(dp129
g43
Nsg45
S'frame_token'
p130
sg15
Nsg19
g20
sg47
S'uint32'
p131
sg16
I101
sbag1
(g110
g3
NtRp132
(dp133
g43
Nsg45
S'metadata'
p134
sg15
Nsg19
g20
sg47
S'RenderFrameMetadata'
p135
sg16
I101
sbasg16
I101
sg19
g20
sbsg15
Nsg19
Nsg16
Nsg115
Nsbag1
(g101
g3
NtRp136
(dp137
g43
Nsg45
S'OnFrameSubmissionForTesting'
p138
sg105
g1
(g106
g3
NtRp139
(dp140
g10
(lp141
g1
(g110
g3
NtRp142
(dp143
g43
Nsg45
S'frame_token'
p144
sg15
Nsg19
g20
sg47
S'uint32'
p145
sg16
I104
sbasg16
I104
sg19
g20
sbsg15
Nsg19
Nsg16
Nsg115
Nsbasg16
Nsg19
Nsbsg15
Nsg16
Nsg45
S'RenderFrameMetadataObserverClient'
p146
sg19
Nsbasg16
NsS'module'
p147
g1
(cmojom.parse.ast
Module
p148
g3
NtRp149
(dp150
S'mojom_namespace'
p151
(S'IDENTIFIER'
p152
S'content.mojom'
tp153
sg16
I5
sg15
Nsg19
g20
sbsg19
Nsb.